; Listing generated by Microsoft (R) Optimizing Compiler Version 19.00.24213.1 

	TITLE	E:\Documents\Cours\Git\Raven\Common\Messaging\MessageDispatcher.cpp
	.686P
	.XMM
	include listing.inc
	.model	flat

INCLUDELIB LIBCMTD
INCLUDELIB OLDNAMES

PUBLIC	?__empty_global_delete@@YAXPAX@Z		; __empty_global_delete
PUBLIC	?__empty_global_delete@@YAXPAXI@Z		; __empty_global_delete
PUBLIC	?max@?$numeric_limits@H@std@@SAHXZ		; std::numeric_limits<int>::max
PUBLIC	?min@?$numeric_limits@M@std@@SAMXZ		; std::numeric_limits<float>::min
PUBLIC	?max@?$numeric_limits@M@std@@SAMXZ		; std::numeric_limits<float>::max
PUBLIC	?min@?$numeric_limits@N@std@@SANXZ		; std::numeric_limits<double>::min
PUBLIC	?max@?$numeric_limits@N@std@@SANXZ		; std::numeric_limits<double>::max
PUBLIC	??2@YAPAXIPAX@Z					; operator new
PUBLIC	??0_Container_proxy@std@@QAE@XZ			; std::_Container_proxy::_Container_proxy
PUBLIC	??0_Container_base12@std@@QAE@XZ		; std::_Container_base12::_Container_base12
PUBLIC	??1_Container_base12@std@@QAE@XZ		; std::_Container_base12::~_Container_base12
PUBLIC	?_Getpfirst@_Container_base12@std@@QBEPAPAU_Iterator_base12@2@XZ ; std::_Container_base12::_Getpfirst
PUBLIC	?_Orphan_all@_Container_base12@std@@QAEXXZ	; std::_Container_base12::_Orphan_all
PUBLIC	??0_Iterator_base12@std@@QAE@XZ			; std::_Iterator_base12::_Iterator_base12
PUBLIC	??0_Iterator_base12@std@@QAE@ABU01@@Z		; std::_Iterator_base12::_Iterator_base12
PUBLIC	??4_Iterator_base12@std@@QAEAAU01@ABU01@@Z	; std::_Iterator_base12::operator=
PUBLIC	??1_Iterator_base12@std@@QAE@XZ			; std::_Iterator_base12::~_Iterator_base12
PUBLIC	?_Adopt@_Iterator_base12@std@@QAEXPBU_Container_base12@2@@Z ; std::_Iterator_base12::_Adopt
PUBLIC	?_Clrcont@_Iterator_base12@std@@QAEXXZ		; std::_Iterator_base12::_Clrcont
PUBLIC	?_Getcont@_Iterator_base12@std@@QBEPBU_Container_base12@2@XZ ; std::_Iterator_base12::_Getcont
PUBLIC	?_Getpnext@_Iterator_base12@std@@QAEPAPAU12@XZ	; std::_Iterator_base12::_Getpnext
PUBLIC	?_Orphan_me@_Iterator_base12@std@@QAEXXZ	; std::_Iterator_base12::_Orphan_me
PUBLIC	?_Allocate@std@@YAPAXII_N@Z			; std::_Allocate
PUBLIC	?_Deallocate@std@@YAXPAXII@Z			; std::_Deallocate
PUBLIC	??0id@locale@std@@QAE@I@Z			; std::locale::id::id
PUBLIC	??0Telegram@@QAE@NHHHPAX@Z			; Telegram::Telegram
PUBLIC	??8@YA_NABUTelegram@@0@Z			; operator==
PUBLIC	??M@YA_NABUTelegram@@0@Z			; operator<
PUBLIC	?_Kfn@?$_Tset_traits@UTelegram@@U?$less@UTelegram@@@std@@V?$allocator@UTelegram@@@3@$0A@@std@@SAABUTelegram@@ABU3@@Z ; std::_Tset_traits<Telegram,std::less<Telegram>,std::allocator<Telegram>,0>::_Kfn
PUBLIC	??0?$allocator@U?$_Tree_node@UTelegram@@PAX@std@@@std@@QAE@XZ ; std::allocator<std::_Tree_node<Telegram,void *> >::allocator<std::_Tree_node<Telegram,void *> >
PUBLIC	?deallocate@?$allocator@U?$_Tree_node@UTelegram@@PAX@std@@@std@@QAEXPAU?$_Tree_node@UTelegram@@PAX@2@I@Z ; std::allocator<std::_Tree_node<Telegram,void *> >::deallocate
PUBLIC	?allocate@?$allocator@U?$_Tree_node@UTelegram@@PAX@std@@@std@@QAEPAU?$_Tree_node@UTelegram@@PAX@2@I@Z ; std::allocator<std::_Tree_node<Telegram,void *> >::allocate
PUBLIC	?max_size@?$allocator@U?$_Tree_node@UTelegram@@PAX@std@@@std@@QBEIXZ ; std::allocator<std::_Tree_node<Telegram,void *> >::max_size
PUBLIC	?max_size@?$allocator_traits@V?$allocator@U?$_Tree_node@UTelegram@@PAX@std@@@std@@@std@@SAIABV?$allocator@U?$_Tree_node@UTelegram@@PAX@std@@@2@@Z ; std::allocator_traits<std::allocator<std::_Tree_node<Telegram,void *> > >::max_size
PUBLIC	??0?$_Wrap_alloc@V?$allocator@U?$_Tree_node@UTelegram@@PAX@std@@@std@@@std@@QAE@XZ ; std::_Wrap_alloc<std::allocator<std::_Tree_node<Telegram,void *> > >::_Wrap_alloc<std::allocator<std::_Tree_node<Telegram,void *> > >
PUBLIC	?allocate@?$_Wrap_alloc@V?$allocator@U?$_Tree_node@UTelegram@@PAX@std@@@std@@@std@@QAEPAU?$_Tree_node@UTelegram@@PAX@2@I@Z ; std::_Wrap_alloc<std::allocator<std::_Tree_node<Telegram,void *> > >::allocate
PUBLIC	?deallocate@?$_Wrap_alloc@V?$allocator@U?$_Tree_node@UTelegram@@PAX@std@@@std@@@std@@QAEXPAU?$_Tree_node@UTelegram@@PAX@2@I@Z ; std::_Wrap_alloc<std::allocator<std::_Tree_node<Telegram,void *> > >::deallocate
PUBLIC	?max_size@?$_Wrap_alloc@V?$allocator@U?$_Tree_node@UTelegram@@PAX@std@@@std@@@std@@QBEIU_Nil@2@@Z ; std::_Wrap_alloc<std::allocator<std::_Tree_node<Telegram,void *> > >::max_size
PUBLIC	?_Color@?$_Tree_comp_alloc@V?$_Tset_traits@UTelegram@@U?$less@UTelegram@@@std@@V?$allocator@UTelegram@@@3@$0A@@std@@@std@@SAAADPAU?$_Tree_node@UTelegram@@PAX@2@@Z ; std::_Tree_comp_alloc<std::_Tset_traits<Telegram,std::less<Telegram>,std::allocator<Telegram>,0> >::_Color
PUBLIC	?_Isnil@?$_Tree_comp_alloc@V?$_Tset_traits@UTelegram@@U?$less@UTelegram@@@std@@V?$allocator@UTelegram@@@3@$0A@@std@@@std@@SAAADPAU?$_Tree_node@UTelegram@@PAX@2@@Z ; std::_Tree_comp_alloc<std::_Tset_traits<Telegram,std::less<Telegram>,std::allocator<Telegram>,0> >::_Isnil
PUBLIC	?_Left@?$_Tree_comp_alloc@V?$_Tset_traits@UTelegram@@U?$less@UTelegram@@@std@@V?$allocator@UTelegram@@@3@$0A@@std@@@std@@SAAAPAU?$_Tree_node@UTelegram@@PAX@2@PAU32@@Z ; std::_Tree_comp_alloc<std::_Tset_traits<Telegram,std::less<Telegram>,std::allocator<Telegram>,0> >::_Left
PUBLIC	?_Parent@?$_Tree_comp_alloc@V?$_Tset_traits@UTelegram@@U?$less@UTelegram@@@std@@V?$allocator@UTelegram@@@3@$0A@@std@@@std@@SAAAPAU?$_Tree_node@UTelegram@@PAX@2@PAU32@@Z ; std::_Tree_comp_alloc<std::_Tset_traits<Telegram,std::less<Telegram>,std::allocator<Telegram>,0> >::_Parent
PUBLIC	?_Right@?$_Tree_comp_alloc@V?$_Tset_traits@UTelegram@@U?$less@UTelegram@@@std@@V?$allocator@UTelegram@@@3@$0A@@std@@@std@@SAAAPAU?$_Tree_node@UTelegram@@PAX@2@PAU32@@Z ; std::_Tree_comp_alloc<std::_Tset_traits<Telegram,std::less<Telegram>,std::allocator<Telegram>,0> >::_Right
PUBLIC	?_Myval@?$_Tree_comp_alloc@V?$_Tset_traits@UTelegram@@U?$less@UTelegram@@@std@@V?$allocator@UTelegram@@@3@$0A@@std@@@std@@SAAAUTelegram@@PAU?$_Tree_node@UTelegram@@PAX@2@@Z ; std::_Tree_comp_alloc<std::_Tset_traits<Telegram,std::less<Telegram>,std::allocator<Telegram>,0> >::_Myval
PUBLIC	?_Max@?$_Tree_comp_alloc@V?$_Tset_traits@UTelegram@@U?$less@UTelegram@@@std@@V?$allocator@UTelegram@@@3@$0A@@std@@@std@@SAPAU?$_Tree_node@UTelegram@@PAX@2@PAU32@@Z ; std::_Tree_comp_alloc<std::_Tset_traits<Telegram,std::less<Telegram>,std::allocator<Telegram>,0> >::_Max
PUBLIC	?_Min@?$_Tree_comp_alloc@V?$_Tset_traits@UTelegram@@U?$less@UTelegram@@@std@@V?$allocator@UTelegram@@@3@$0A@@std@@@std@@SAPAU?$_Tree_node@UTelegram@@PAX@2@PAU32@@Z ; std::_Tree_comp_alloc<std::_Tset_traits<Telegram,std::less<Telegram>,std::allocator<Telegram>,0> >::_Min
PUBLIC	??0?$_Tree_comp_alloc@V?$_Tset_traits@UTelegram@@U?$less@UTelegram@@@std@@V?$allocator@UTelegram@@@3@$0A@@std@@@std@@QAE@ABU?$less@UTelegram@@@1@@Z ; std::_Tree_comp_alloc<std::_Tset_traits<Telegram,std::less<Telegram>,std::allocator<Telegram>,0> >::_Tree_comp_alloc<std::_Tset_traits<Telegram,std::less<Telegram>,std::allocator<Telegram>,0> >
PUBLIC	?_Construct@?$_Tree_comp_alloc@V?$_Tset_traits@UTelegram@@U?$less@UTelegram@@@std@@V?$allocator@UTelegram@@@3@$0A@@std@@@std@@QAEXXZ ; std::_Tree_comp_alloc<std::_Tset_traits<Telegram,std::less<Telegram>,std::allocator<Telegram>,0> >::_Construct
PUBLIC	??1?$_Tree_comp_alloc@V?$_Tset_traits@UTelegram@@U?$less@UTelegram@@@std@@V?$allocator@UTelegram@@@3@$0A@@std@@@std@@QAE@XZ ; std::_Tree_comp_alloc<std::_Tset_traits<Telegram,std::less<Telegram>,std::allocator<Telegram>,0> >::~_Tree_comp_alloc<std::_Tset_traits<Telegram,std::less<Telegram>,std::allocator<Telegram>,0> >
PUBLIC	?_Alloc_proxy@?$_Tree_comp_alloc@V?$_Tset_traits@UTelegram@@U?$less@UTelegram@@@std@@V?$allocator@UTelegram@@@3@$0A@@std@@@std@@QAEXXZ ; std::_Tree_comp_alloc<std::_Tset_traits<Telegram,std::less<Telegram>,std::allocator<Telegram>,0> >::_Alloc_proxy
PUBLIC	?_Free_proxy@?$_Tree_comp_alloc@V?$_Tset_traits@UTelegram@@U?$less@UTelegram@@@std@@V?$allocator@UTelegram@@@3@$0A@@std@@@std@@QAEXXZ ; std::_Tree_comp_alloc<std::_Tset_traits<Telegram,std::less<Telegram>,std::allocator<Telegram>,0> >::_Free_proxy
PUBLIC	?_Getpfirst@?$_Tree_comp_alloc@V?$_Tset_traits@UTelegram@@U?$less@UTelegram@@@std@@V?$allocator@UTelegram@@@3@$0A@@std@@@std@@QBEPAPAU_Iterator_base12@2@XZ ; std::_Tree_comp_alloc<std::_Tset_traits<Telegram,std::less<Telegram>,std::allocator<Telegram>,0> >::_Getpfirst
PUBLIC	?_Myproxy@?$_Tree_comp_alloc@V?$_Tset_traits@UTelegram@@U?$less@UTelegram@@@std@@V?$allocator@UTelegram@@@3@$0A@@std@@@std@@QAEAAPAU_Container_proxy@2@XZ ; std::_Tree_comp_alloc<std::_Tset_traits<Telegram,std::less<Telegram>,std::allocator<Telegram>,0> >::_Myproxy
PUBLIC	?_Orphan_all@?$_Tree_comp_alloc@V?$_Tset_traits@UTelegram@@U?$less@UTelegram@@@std@@V?$allocator@UTelegram@@@3@$0A@@std@@@std@@QAEXXZ ; std::_Tree_comp_alloc<std::_Tset_traits<Telegram,std::less<Telegram>,std::allocator<Telegram>,0> >::_Orphan_all
PUBLIC	?_Buyheadnode@?$_Tree_comp_alloc@V?$_Tset_traits@UTelegram@@U?$less@UTelegram@@@std@@V?$allocator@UTelegram@@@3@$0A@@std@@@std@@QAEPAU?$_Tree_node@UTelegram@@PAX@2@XZ ; std::_Tree_comp_alloc<std::_Tset_traits<Telegram,std::less<Telegram>,std::allocator<Telegram>,0> >::_Buyheadnode
PUBLIC	?_Freeheadnode@?$_Tree_comp_alloc@V?$_Tset_traits@UTelegram@@U?$less@UTelegram@@@std@@V?$allocator@UTelegram@@@3@$0A@@std@@@std@@QAEXPAU?$_Tree_node@UTelegram@@PAX@2@@Z ; std::_Tree_comp_alloc<std::_Tset_traits<Telegram,std::less<Telegram>,std::allocator<Telegram>,0> >::_Freeheadnode
PUBLIC	?_Buynode0@?$_Tree_comp_alloc@V?$_Tset_traits@UTelegram@@U?$less@UTelegram@@@std@@V?$allocator@UTelegram@@@3@$0A@@std@@@std@@QAEPAU?$_Tree_node@UTelegram@@PAX@2@XZ ; std::_Tree_comp_alloc<std::_Tset_traits<Telegram,std::less<Telegram>,std::allocator<Telegram>,0> >::_Buynode0
PUBLIC	?_Freenode0@?$_Tree_comp_alloc@V?$_Tset_traits@UTelegram@@U?$less@UTelegram@@@std@@V?$allocator@UTelegram@@@3@$0A@@std@@@std@@QAEXPAU?$_Tree_node@UTelegram@@PAX@2@@Z ; std::_Tree_comp_alloc<std::_Tset_traits<Telegram,std::less<Telegram>,std::allocator<Telegram>,0> >::_Freenode0
PUBLIC	?_Getcomp@?$_Tree_comp_alloc@V?$_Tset_traits@UTelegram@@U?$less@UTelegram@@@std@@V?$allocator@UTelegram@@@3@$0A@@std@@@std@@QAEAAU?$less@UTelegram@@@2@XZ ; std::_Tree_comp_alloc<std::_Tset_traits<Telegram,std::less<Telegram>,std::allocator<Telegram>,0> >::_Getcomp
PUBLIC	?_Getal@?$_Tree_comp_alloc@V?$_Tset_traits@UTelegram@@U?$less@UTelegram@@@std@@V?$allocator@UTelegram@@@3@$0A@@std@@@std@@QAEAAU?$_Wrap_alloc@V?$allocator@U?$_Tree_node@UTelegram@@PAX@std@@@std@@@2@XZ ; std::_Tree_comp_alloc<std::_Tset_traits<Telegram,std::less<Telegram>,std::allocator<Telegram>,0> >::_Getal
PUBLIC	?_Getal@?$_Tree_comp_alloc@V?$_Tset_traits@UTelegram@@U?$less@UTelegram@@@std@@V?$allocator@UTelegram@@@3@$0A@@std@@@std@@QBEABU?$_Wrap_alloc@V?$allocator@U?$_Tree_node@UTelegram@@PAX@std@@@std@@@2@XZ ; std::_Tree_comp_alloc<std::_Tset_traits<Telegram,std::less<Telegram>,std::allocator<Telegram>,0> >::_Getal
PUBLIC	?_Get_data@?$_Tree_comp_alloc@V?$_Tset_traits@UTelegram@@U?$less@UTelegram@@@std@@V?$allocator@UTelegram@@@3@$0A@@std@@@std@@QAEAAV?$_Tree_val@U?$_Tree_simple_types@UTelegram@@@std@@@2@XZ ; std::_Tree_comp_alloc<std::_Tset_traits<Telegram,std::less<Telegram>,std::allocator<Telegram>,0> >::_Get_data
PUBLIC	?_Get_data@?$_Tree_comp_alloc@V?$_Tset_traits@UTelegram@@U?$less@UTelegram@@@std@@V?$allocator@UTelegram@@@3@$0A@@std@@@std@@QBEABV?$_Tree_val@U?$_Tree_simple_types@UTelegram@@@std@@@2@XZ ; std::_Tree_comp_alloc<std::_Tset_traits<Telegram,std::less<Telegram>,std::allocator<Telegram>,0> >::_Get_data
PUBLIC	?_Myhead@?$_Tree_comp_alloc@V?$_Tset_traits@UTelegram@@U?$less@UTelegram@@@std@@V?$allocator@UTelegram@@@3@$0A@@std@@@std@@QAEAAPAU?$_Tree_node@UTelegram@@PAX@2@XZ ; std::_Tree_comp_alloc<std::_Tset_traits<Telegram,std::less<Telegram>,std::allocator<Telegram>,0> >::_Myhead
PUBLIC	?_Myhead@?$_Tree_comp_alloc@V?$_Tset_traits@UTelegram@@U?$less@UTelegram@@@std@@V?$allocator@UTelegram@@@3@$0A@@std@@@std@@QBEABQAU?$_Tree_node@UTelegram@@PAX@2@XZ ; std::_Tree_comp_alloc<std::_Tset_traits<Telegram,std::less<Telegram>,std::allocator<Telegram>,0> >::_Myhead
PUBLIC	?_Mysize@?$_Tree_comp_alloc@V?$_Tset_traits@UTelegram@@U?$less@UTelegram@@@std@@V?$allocator@UTelegram@@@3@$0A@@std@@@std@@QAEAAIXZ ; std::_Tree_comp_alloc<std::_Tset_traits<Telegram,std::less<Telegram>,std::allocator<Telegram>,0> >::_Mysize
PUBLIC	?_Mysize@?$_Tree_comp_alloc@V?$_Tset_traits@UTelegram@@U?$less@UTelegram@@@std@@V?$allocator@UTelegram@@@3@$0A@@std@@@std@@QBEABIXZ ; std::_Tree_comp_alloc<std::_Tset_traits<Telegram,std::less<Telegram>,std::allocator<Telegram>,0> >::_Mysize
PUBLIC	??R?$less@UTelegram@@@std@@QBE_NABUTelegram@@0@Z ; std::less<Telegram>::operator()
PUBLIC	??0?$_Tree_val@U?$_Tree_simple_types@UTelegram@@@std@@@std@@QAE@XZ ; std::_Tree_val<std::_Tree_simple_types<Telegram> >::_Tree_val<std::_Tree_simple_types<Telegram> >
PUBLIC	?_Color@?$_Tree_val@U?$_Tree_simple_types@UTelegram@@@std@@@std@@SAAADPAU?$_Tree_node@UTelegram@@PAX@2@@Z ; std::_Tree_val<std::_Tree_simple_types<Telegram> >::_Color
PUBLIC	?_Isnil@?$_Tree_val@U?$_Tree_simple_types@UTelegram@@@std@@@std@@SAAADPAU?$_Tree_node@UTelegram@@PAX@2@@Z ; std::_Tree_val<std::_Tree_simple_types<Telegram> >::_Isnil
PUBLIC	?_Left@?$_Tree_val@U?$_Tree_simple_types@UTelegram@@@std@@@std@@SAAAPAU?$_Tree_node@UTelegram@@PAX@2@PAU32@@Z ; std::_Tree_val<std::_Tree_simple_types<Telegram> >::_Left
PUBLIC	?_Parent@?$_Tree_val@U?$_Tree_simple_types@UTelegram@@@std@@@std@@SAAAPAU?$_Tree_node@UTelegram@@PAX@2@PAU32@@Z ; std::_Tree_val<std::_Tree_simple_types<Telegram> >::_Parent
PUBLIC	?_Right@?$_Tree_val@U?$_Tree_simple_types@UTelegram@@@std@@@std@@SAAAPAU?$_Tree_node@UTelegram@@PAX@2@PAU32@@Z ; std::_Tree_val<std::_Tree_simple_types<Telegram> >::_Right
PUBLIC	?_Myval@?$_Tree_val@U?$_Tree_simple_types@UTelegram@@@std@@@std@@SAAAUTelegram@@PAU?$_Tree_node@UTelegram@@PAX@2@@Z ; std::_Tree_val<std::_Tree_simple_types<Telegram> >::_Myval
PUBLIC	?_Max@?$_Tree_val@U?$_Tree_simple_types@UTelegram@@@std@@@std@@SAPAU?$_Tree_node@UTelegram@@PAX@2@PAU32@@Z ; std::_Tree_val<std::_Tree_simple_types<Telegram> >::_Max
PUBLIC	?_Min@?$_Tree_val@U?$_Tree_simple_types@UTelegram@@@std@@@std@@SAPAU?$_Tree_node@UTelegram@@PAX@2@PAU32@@Z ; std::_Tree_val<std::_Tree_simple_types<Telegram> >::_Min
PUBLIC	??1?$_Tree_val@U?$_Tree_simple_types@UTelegram@@@std@@@std@@QAE@XZ ; std::_Tree_val<std::_Tree_simple_types<Telegram> >::~_Tree_val<std::_Tree_simple_types<Telegram> >
PUBLIC	?_Get_first@?$_Compressed_pair@U?$_Wrap_alloc@V?$allocator@U?$_Tree_node@UTelegram@@PAX@std@@@std@@@std@@V?$_Tree_val@U?$_Tree_simple_types@UTelegram@@@std@@@2@$00@std@@QAEAAU?$_Wrap_alloc@V?$allocator@U?$_Tree_node@UTelegram@@PAX@std@@@std@@@2@XZ ; std::_Compressed_pair<std::_Wrap_alloc<std::allocator<std::_Tree_node<Telegram,void *> > >,std::_Tree_val<std::_Tree_simple_types<Telegram> >,1>::_Get_first
PUBLIC	?_Get_first@?$_Compressed_pair@U?$_Wrap_alloc@V?$allocator@U?$_Tree_node@UTelegram@@PAX@std@@@std@@@std@@V?$_Tree_val@U?$_Tree_simple_types@UTelegram@@@std@@@2@$00@std@@QBEABU?$_Wrap_alloc@V?$allocator@U?$_Tree_node@UTelegram@@PAX@std@@@std@@@2@XZ ; std::_Compressed_pair<std::_Wrap_alloc<std::allocator<std::_Tree_node<Telegram,void *> > >,std::_Tree_val<std::_Tree_simple_types<Telegram> >,1>::_Get_first
PUBLIC	?_Get_second@?$_Compressed_pair@U?$_Wrap_alloc@V?$allocator@U?$_Tree_node@UTelegram@@PAX@std@@@std@@@std@@V?$_Tree_val@U?$_Tree_simple_types@UTelegram@@@std@@@2@$00@std@@QAEAAV?$_Tree_val@U?$_Tree_simple_types@UTelegram@@@std@@@2@XZ ; std::_Compressed_pair<std::_Wrap_alloc<std::allocator<std::_Tree_node<Telegram,void *> > >,std::_Tree_val<std::_Tree_simple_types<Telegram> >,1>::_Get_second
PUBLIC	?_Get_second@?$_Compressed_pair@U?$_Wrap_alloc@V?$allocator@U?$_Tree_node@UTelegram@@PAX@std@@@std@@@std@@V?$_Tree_val@U?$_Tree_simple_types@UTelegram@@@std@@@2@$00@std@@QBEABV?$_Tree_val@U?$_Tree_simple_types@UTelegram@@@std@@@2@XZ ; std::_Compressed_pair<std::_Wrap_alloc<std::allocator<std::_Tree_node<Telegram,void *> > >,std::_Tree_val<std::_Tree_simple_types<Telegram> >,1>::_Get_second
PUBLIC	??1?$_Compressed_pair@U?$_Wrap_alloc@V?$allocator@U?$_Tree_node@UTelegram@@PAX@std@@@std@@@std@@V?$_Tree_val@U?$_Tree_simple_types@UTelegram@@@std@@@2@$00@std@@QAE@XZ ; std::_Compressed_pair<std::_Wrap_alloc<std::allocator<std::_Tree_node<Telegram,void *> > >,std::_Tree_val<std::_Tree_simple_types<Telegram> >,1>::~_Compressed_pair<std::_Wrap_alloc<std::allocator<std::_Tree_node<Telegram,void *> > >,std::_Tree_val<std::_Tree_simple_types<Telegram> >,1>
PUBLIC	?_Get_first@?$_Compressed_pair@U?$less@UTelegram@@@std@@V?$_Compressed_pair@U?$_Wrap_alloc@V?$allocator@U?$_Tree_node@UTelegram@@PAX@std@@@std@@@std@@V?$_Tree_val@U?$_Tree_simple_types@UTelegram@@@std@@@2@$00@2@$00@std@@QAEAAU?$less@UTelegram@@@2@XZ ; std::_Compressed_pair<std::less<Telegram>,std::_Compressed_pair<std::_Wrap_alloc<std::allocator<std::_Tree_node<Telegram,void *> > >,std::_Tree_val<std::_Tree_simple_types<Telegram> >,1>,1>::_Get_first
PUBLIC	?_Get_second@?$_Compressed_pair@U?$less@UTelegram@@@std@@V?$_Compressed_pair@U?$_Wrap_alloc@V?$allocator@U?$_Tree_node@UTelegram@@PAX@std@@@std@@@std@@V?$_Tree_val@U?$_Tree_simple_types@UTelegram@@@std@@@2@$00@2@$00@std@@QAEAAV?$_Compressed_pair@U?$_Wrap_alloc@V?$allocator@U?$_Tree_node@UTelegram@@PAX@std@@@std@@@std@@V?$_Tree_val@U?$_Tree_simple_types@UTelegram@@@std@@@2@$00@2@XZ ; std::_Compressed_pair<std::less<Telegram>,std::_Compressed_pair<std::_Wrap_alloc<std::allocator<std::_Tree_node<Telegram,void *> > >,std::_Tree_val<std::_Tree_simple_types<Telegram> >,1>,1>::_Get_second
PUBLIC	?_Get_second@?$_Compressed_pair@U?$less@UTelegram@@@std@@V?$_Compressed_pair@U?$_Wrap_alloc@V?$allocator@U?$_Tree_node@UTelegram@@PAX@std@@@std@@@std@@V?$_Tree_val@U?$_Tree_simple_types@UTelegram@@@std@@@2@$00@2@$00@std@@QBEABV?$_Compressed_pair@U?$_Wrap_alloc@V?$allocator@U?$_Tree_node@UTelegram@@PAX@std@@@std@@@std@@V?$_Tree_val@U?$_Tree_simple_types@UTelegram@@@std@@@2@$00@2@XZ ; std::_Compressed_pair<std::less<Telegram>,std::_Compressed_pair<std::_Wrap_alloc<std::allocator<std::_Tree_node<Telegram,void *> > >,std::_Tree_val<std::_Tree_simple_types<Telegram> >,1>,1>::_Get_second
PUBLIC	??1?$_Compressed_pair@U?$less@UTelegram@@@std@@V?$_Compressed_pair@U?$_Wrap_alloc@V?$allocator@U?$_Tree_node@UTelegram@@PAX@std@@@std@@@std@@V?$_Tree_val@U?$_Tree_simple_types@UTelegram@@@std@@@2@$00@2@$00@std@@QAE@XZ ; std::_Compressed_pair<std::less<Telegram>,std::_Compressed_pair<std::_Wrap_alloc<std::allocator<std::_Tree_node<Telegram,void *> > >,std::_Tree_val<std::_Tree_simple_types<Telegram> >,1>,1>::~_Compressed_pair<std::less<Telegram>,std::_Compressed_pair<std::_Wrap_alloc<std::allocator<std::_Tree_node<Telegram,void *> > >,std::_Tree_val<std::_Tree_simple_types<Telegram> >,1>,1>
PUBLIC	??0?$_Tree@V?$_Tset_traits@UTelegram@@U?$less@UTelegram@@@std@@V?$allocator@UTelegram@@@3@$0A@@std@@@std@@QAE@ABU?$less@UTelegram@@@1@@Z ; std::_Tree<std::_Tset_traits<Telegram,std::less<Telegram>,std::allocator<Telegram>,0> >::_Tree<std::_Tset_traits<Telegram,std::less<Telegram>,std::allocator<Telegram>,0> >
PUBLIC	??1?$_Tree@V?$_Tset_traits@UTelegram@@U?$less@UTelegram@@@std@@V?$allocator@UTelegram@@@3@$0A@@std@@@std@@QAE@XZ ; std::_Tree<std::_Tset_traits<Telegram,std::less<Telegram>,std::allocator<Telegram>,0> >::~_Tree<std::_Tset_traits<Telegram,std::less<Telegram>,std::allocator<Telegram>,0> >
PUBLIC	?begin@?$_Tree@V?$_Tset_traits@UTelegram@@U?$less@UTelegram@@@std@@V?$allocator@UTelegram@@@3@$0A@@std@@@std@@QAE?AV?$_Tree_const_iterator@V?$_Tree_val@U?$_Tree_simple_types@UTelegram@@@std@@@std@@@2@XZ ; std::_Tree<std::_Tset_traits<Telegram,std::less<Telegram>,std::allocator<Telegram>,0> >::begin
PUBLIC	?end@?$_Tree@V?$_Tset_traits@UTelegram@@U?$less@UTelegram@@@std@@V?$allocator@UTelegram@@@3@$0A@@std@@@std@@QAE?AV?$_Tree_const_iterator@V?$_Tree_val@U?$_Tree_simple_types@UTelegram@@@std@@@std@@@2@XZ ; std::_Tree<std::_Tset_traits<Telegram,std::less<Telegram>,std::allocator<Telegram>,0> >::end
PUBLIC	?size@?$_Tree@V?$_Tset_traits@UTelegram@@U?$less@UTelegram@@@std@@V?$allocator@UTelegram@@@3@$0A@@std@@@std@@QBEIXZ ; std::_Tree<std::_Tset_traits<Telegram,std::less<Telegram>,std::allocator<Telegram>,0> >::size
PUBLIC	?max_size@?$_Tree@V?$_Tset_traits@UTelegram@@U?$less@UTelegram@@@std@@V?$allocator@UTelegram@@@3@$0A@@std@@@std@@QBEIXZ ; std::_Tree<std::_Tset_traits<Telegram,std::less<Telegram>,std::allocator<Telegram>,0> >::max_size
PUBLIC	?empty@?$_Tree@V?$_Tset_traits@UTelegram@@U?$less@UTelegram@@@std@@V?$allocator@UTelegram@@@3@$0A@@std@@@std@@QBE_NXZ ; std::_Tree<std::_Tset_traits<Telegram,std::less<Telegram>,std::allocator<Telegram>,0> >::empty
PUBLIC	?erase@?$_Tree@V?$_Tset_traits@UTelegram@@U?$less@UTelegram@@@std@@V?$allocator@UTelegram@@@3@$0A@@std@@@std@@QAE?AV?$_Tree_const_iterator@V?$_Tree_val@U?$_Tree_simple_types@UTelegram@@@std@@@std@@@2@V32@@Z ; std::_Tree<std::_Tset_traits<Telegram,std::less<Telegram>,std::allocator<Telegram>,0> >::erase
PUBLIC	?erase@?$_Tree@V?$_Tset_traits@UTelegram@@U?$less@UTelegram@@@std@@V?$allocator@UTelegram@@@3@$0A@@std@@@std@@QAE?AV?$_Tree_const_iterator@V?$_Tree_val@U?$_Tree_simple_types@UTelegram@@@std@@@std@@@2@V32@0@Z ; std::_Tree<std::_Tset_traits<Telegram,std::less<Telegram>,std::allocator<Telegram>,0> >::erase
PUBLIC	?clear@?$_Tree@V?$_Tset_traits@UTelegram@@U?$less@UTelegram@@@std@@V?$allocator@UTelegram@@@3@$0A@@std@@@std@@QAEXXZ ; std::_Tree<std::_Tset_traits<Telegram,std::less<Telegram>,std::allocator<Telegram>,0> >::clear
PUBLIC	?_Destroy_if_not_nil@?$_Tree@V?$_Tset_traits@UTelegram@@U?$less@UTelegram@@@std@@V?$allocator@UTelegram@@@3@$0A@@std@@@std@@IAEXU_Nil@2@@Z ; std::_Tree<std::_Tset_traits<Telegram,std::less<Telegram>,std::allocator<Telegram>,0> >::_Destroy_if_not_nil
PUBLIC	?_Erase@?$_Tree@V?$_Tset_traits@UTelegram@@U?$less@UTelegram@@@std@@V?$allocator@UTelegram@@@3@$0A@@std@@@std@@IAEXPAU?$_Tree_node@UTelegram@@PAX@2@@Z ; std::_Tree<std::_Tset_traits<Telegram,std::less<Telegram>,std::allocator<Telegram>,0> >::_Erase
PUBLIC	?_Lmost@?$_Tree@V?$_Tset_traits@UTelegram@@U?$less@UTelegram@@@std@@V?$allocator@UTelegram@@@3@$0A@@std@@@std@@IBEAAPAU?$_Tree_node@UTelegram@@PAX@2@XZ ; std::_Tree<std::_Tset_traits<Telegram,std::less<Telegram>,std::allocator<Telegram>,0> >::_Lmost
PUBLIC	?_Lrotate@?$_Tree@V?$_Tset_traits@UTelegram@@U?$less@UTelegram@@@std@@V?$allocator@UTelegram@@@3@$0A@@std@@@std@@IAEXPAU?$_Tree_node@UTelegram@@PAX@2@@Z ; std::_Tree<std::_Tset_traits<Telegram,std::less<Telegram>,std::allocator<Telegram>,0> >::_Lrotate
PUBLIC	?_Rmost@?$_Tree@V?$_Tset_traits@UTelegram@@U?$less@UTelegram@@@std@@V?$allocator@UTelegram@@@3@$0A@@std@@@std@@IBEAAPAU?$_Tree_node@UTelegram@@PAX@2@XZ ; std::_Tree<std::_Tset_traits<Telegram,std::less<Telegram>,std::allocator<Telegram>,0> >::_Rmost
PUBLIC	?_Root@?$_Tree@V?$_Tset_traits@UTelegram@@U?$less@UTelegram@@@std@@V?$allocator@UTelegram@@@3@$0A@@std@@@std@@IBEAAPAU?$_Tree_node@UTelegram@@PAX@2@XZ ; std::_Tree<std::_Tset_traits<Telegram,std::less<Telegram>,std::allocator<Telegram>,0> >::_Root
PUBLIC	?_Rrotate@?$_Tree@V?$_Tset_traits@UTelegram@@U?$less@UTelegram@@@std@@V?$allocator@UTelegram@@@3@$0A@@std@@@std@@IAEXPAU?$_Tree_node@UTelegram@@PAX@2@@Z ; std::_Tree<std::_Tset_traits<Telegram,std::less<Telegram>,std::allocator<Telegram>,0> >::_Rrotate
PUBLIC	?_Orphan_ptr@?$_Tree@V?$_Tset_traits@UTelegram@@U?$less@UTelegram@@@std@@V?$allocator@UTelegram@@@3@$0A@@std@@@std@@IAEXPAU?$_Tree_node@UTelegram@@PAX@2@@Z ; std::_Tree<std::_Tset_traits<Telegram,std::less<Telegram>,std::allocator<Telegram>,0> >::_Orphan_ptr
PUBLIC	?_Tidy@?$_Tree@V?$_Tset_traits@UTelegram@@U?$less@UTelegram@@@std@@V?$allocator@UTelegram@@@3@$0A@@std@@@std@@IAEXXZ ; std::_Tree<std::_Tset_traits<Telegram,std::less<Telegram>,std::allocator<Telegram>,0> >::_Tidy
PUBLIC	?_Kfn@?$_Tree@V?$_Tset_traits@UTelegram@@U?$less@UTelegram@@@std@@V?$allocator@UTelegram@@@3@$0A@@std@@@std@@IBEABUTelegram@@ABU3@@Z ; std::_Tree<std::_Tset_traits<Telegram,std::less<Telegram>,std::allocator<Telegram>,0> >::_Kfn
PUBLIC	?_Key@?$_Tree@V?$_Tset_traits@UTelegram@@U?$less@UTelegram@@@std@@V?$allocator@UTelegram@@@3@$0A@@std@@@std@@IBEABUTelegram@@PAU?$_Tree_node@UTelegram@@PAX@2@@Z ; std::_Tree<std::_Tset_traits<Telegram,std::less<Telegram>,std::allocator<Telegram>,0> >::_Key
PUBLIC	??0?$set@UTelegram@@U?$less@UTelegram@@@std@@V?$allocator@UTelegram@@@3@@std@@QAE@XZ ; std::set<Telegram,std::less<Telegram>,std::allocator<Telegram> >::set<Telegram,std::less<Telegram>,std::allocator<Telegram> >
PUBLIC	??1?$set@UTelegram@@U?$less@UTelegram@@@std@@V?$allocator@UTelegram@@@3@@std@@QAE@XZ ; std::set<Telegram,std::less<Telegram>,std::allocator<Telegram> >::~set<Telegram,std::less<Telegram>,std::allocator<Telegram> >
PUBLIC	?Discharge@MessageDispatcher@@AAEXPAVBaseGameEntity@@ABUTelegram@@@Z ; MessageDispatcher::Discharge
PUBLIC	??0MessageDispatcher@@AAE@XZ			; MessageDispatcher::MessageDispatcher
PUBLIC	?Instance@MessageDispatcher@@SAPAV1@XZ		; MessageDispatcher::Instance
PUBLIC	?DispatchMsg@MessageDispatcher@@QAEXNHHHPAX@Z	; MessageDispatcher::DispatchMsg
PUBLIC	?DispatchDelayedMessages@MessageDispatcher@@QAEXXZ ; MessageDispatcher::DispatchDelayedMessages
PUBLIC	??1MessageDispatcher@@QAE@XZ			; MessageDispatcher::~MessageDispatcher
PUBLIC	?GetCurrentFrame@FrameCounter@@QAEJXZ		; FrameCounter::GetCurrentFrame
PUBLIC	??$insert@$0A@$0A@@?$_Tree@V?$_Tset_traits@UTelegram@@U?$less@UTelegram@@@std@@V?$allocator@UTelegram@@@3@$0A@@std@@@std@@QAE?AU?$pair@V?$_Tree_const_iterator@V?$_Tree_val@U?$_Tree_simple_types@UTelegram@@@std@@@std@@@std@@_N@1@ABUTelegram@@@Z ; std::_Tree<std::_Tset_traits<Telegram,std::less<Telegram>,std::allocator<Telegram>,0> >::insert<0,0>
PUBLIC	??0?$_Iterator012@Ubidirectional_iterator_tag@std@@UTelegram@@HPBU3@ABU3@U_Iterator_base12@2@@std@@QAE@XZ ; std::_Iterator012<std::bidirectional_iterator_tag,Telegram,int,Telegram const *,Telegram const &,std::_Iterator_base12>::_Iterator012<std::bidirectional_iterator_tag,Telegram,int,Telegram const *,Telegram const &,std::_Iterator_base12>
PUBLIC	??1?$_Iterator012@Ubidirectional_iterator_tag@std@@UTelegram@@HPBU3@ABU3@U_Iterator_base12@2@@std@@QAE@XZ ; std::_Iterator012<std::bidirectional_iterator_tag,Telegram,int,Telegram const *,Telegram const &,std::_Iterator_base12>::~_Iterator012<std::bidirectional_iterator_tag,Telegram,int,Telegram const *,Telegram const &,std::_Iterator_base12>
PUBLIC	??0?$_Iterator012@Ubidirectional_iterator_tag@std@@UTelegram@@HPBU3@ABU3@U_Iterator_base12@2@@std@@QAE@ABU01@@Z ; std::_Iterator012<std::bidirectional_iterator_tag,Telegram,int,Telegram const *,Telegram const &,std::_Iterator_base12>::_Iterator012<std::bidirectional_iterator_tag,Telegram,int,Telegram const *,Telegram const &,std::_Iterator_base12>
PUBLIC	??0?$_Iterator012@Ubidirectional_iterator_tag@std@@UTelegram@@HPBU3@ABU3@U_Iterator_base12@2@@std@@QAE@$$QAU01@@Z ; std::_Iterator012<std::bidirectional_iterator_tag,Telegram,int,Telegram const *,Telegram const &,std::_Iterator_base12>::_Iterator012<std::bidirectional_iterator_tag,Telegram,int,Telegram const *,Telegram const &,std::_Iterator_base12>
PUBLIC	??0?$_Tree_unchecked_const_iterator@V?$_Tree_val@U?$_Tree_simple_types@UTelegram@@@std@@@std@@U_Iterator_base12@2@@std@@QAE@PAU?$_Tree_node@UTelegram@@PAX@1@PBV?$_Tree_val@U?$_Tree_simple_types@UTelegram@@@std@@@1@@Z ; std::_Tree_unchecked_const_iterator<std::_Tree_val<std::_Tree_simple_types<Telegram> >,std::_Iterator_base12>::_Tree_unchecked_const_iterator<std::_Tree_val<std::_Tree_simple_types<Telegram> >,std::_Iterator_base12>
PUBLIC	??E?$_Tree_unchecked_const_iterator@V?$_Tree_val@U?$_Tree_simple_types@UTelegram@@@std@@@std@@U_Iterator_base12@2@@std@@QAEAAV01@XZ ; std::_Tree_unchecked_const_iterator<std::_Tree_val<std::_Tree_simple_types<Telegram> >,std::_Iterator_base12>::operator++
PUBLIC	??F?$_Tree_unchecked_const_iterator@V?$_Tree_val@U?$_Tree_simple_types@UTelegram@@@std@@@std@@U_Iterator_base12@2@@std@@QAEAAV01@XZ ; std::_Tree_unchecked_const_iterator<std::_Tree_val<std::_Tree_simple_types<Telegram> >,std::_Iterator_base12>::operator--
PUBLIC	?_Mynode@?$_Tree_unchecked_const_iterator@V?$_Tree_val@U?$_Tree_simple_types@UTelegram@@@std@@@std@@U_Iterator_base12@2@@std@@QBEPAU?$_Tree_node@UTelegram@@PAX@2@XZ ; std::_Tree_unchecked_const_iterator<std::_Tree_val<std::_Tree_simple_types<Telegram> >,std::_Iterator_base12>::_Mynode
PUBLIC	??1?$_Tree_unchecked_const_iterator@V?$_Tree_val@U?$_Tree_simple_types@UTelegram@@@std@@@std@@U_Iterator_base12@2@@std@@QAE@XZ ; std::_Tree_unchecked_const_iterator<std::_Tree_val<std::_Tree_simple_types<Telegram> >,std::_Iterator_base12>::~_Tree_unchecked_const_iterator<std::_Tree_val<std::_Tree_simple_types<Telegram> >,std::_Iterator_base12>
PUBLIC	??0?$_Tree_unchecked_const_iterator@V?$_Tree_val@U?$_Tree_simple_types@UTelegram@@@std@@@std@@U_Iterator_base12@2@@std@@QAE@ABV01@@Z ; std::_Tree_unchecked_const_iterator<std::_Tree_val<std::_Tree_simple_types<Telegram> >,std::_Iterator_base12>::_Tree_unchecked_const_iterator<std::_Tree_val<std::_Tree_simple_types<Telegram> >,std::_Iterator_base12>
PUBLIC	??0?$_Tree_unchecked_const_iterator@V?$_Tree_val@U?$_Tree_simple_types@UTelegram@@@std@@@std@@U_Iterator_base12@2@@std@@QAE@$$QAV01@@Z ; std::_Tree_unchecked_const_iterator<std::_Tree_val<std::_Tree_simple_types<Telegram> >,std::_Iterator_base12>::_Tree_unchecked_const_iterator<std::_Tree_val<std::_Tree_simple_types<Telegram> >,std::_Iterator_base12>
PUBLIC	??0?$_Tree_const_iterator@V?$_Tree_val@U?$_Tree_simple_types@UTelegram@@@std@@@std@@@std@@QAE@PAU?$_Tree_node@UTelegram@@PAX@1@PBV?$_Tree_val@U?$_Tree_simple_types@UTelegram@@@std@@@1@@Z ; std::_Tree_const_iterator<std::_Tree_val<std::_Tree_simple_types<Telegram> > >::_Tree_const_iterator<std::_Tree_val<std::_Tree_simple_types<Telegram> > >
PUBLIC	??D?$_Tree_const_iterator@V?$_Tree_val@U?$_Tree_simple_types@UTelegram@@@std@@@std@@@std@@QBEABUTelegram@@XZ ; std::_Tree_const_iterator<std::_Tree_val<std::_Tree_simple_types<Telegram> > >::operator*
PUBLIC	??C?$_Tree_const_iterator@V?$_Tree_val@U?$_Tree_simple_types@UTelegram@@@std@@@std@@@std@@QBEPBUTelegram@@XZ ; std::_Tree_const_iterator<std::_Tree_val<std::_Tree_simple_types<Telegram> > >::operator->
PUBLIC	??E?$_Tree_const_iterator@V?$_Tree_val@U?$_Tree_simple_types@UTelegram@@@std@@@std@@@std@@QAEAAV01@XZ ; std::_Tree_const_iterator<std::_Tree_val<std::_Tree_simple_types<Telegram> > >::operator++
PUBLIC	??E?$_Tree_const_iterator@V?$_Tree_val@U?$_Tree_simple_types@UTelegram@@@std@@@std@@@std@@QAE?AV01@H@Z ; std::_Tree_const_iterator<std::_Tree_val<std::_Tree_simple_types<Telegram> > >::operator++
PUBLIC	??F?$_Tree_const_iterator@V?$_Tree_val@U?$_Tree_simple_types@UTelegram@@@std@@@std@@@std@@QAEAAV01@XZ ; std::_Tree_const_iterator<std::_Tree_val<std::_Tree_simple_types<Telegram> > >::operator--
PUBLIC	??8?$_Tree_const_iterator@V?$_Tree_val@U?$_Tree_simple_types@UTelegram@@@std@@@std@@@std@@QBE_NABV01@@Z ; std::_Tree_const_iterator<std::_Tree_val<std::_Tree_simple_types<Telegram> > >::operator==
PUBLIC	??9?$_Tree_const_iterator@V?$_Tree_val@U?$_Tree_simple_types@UTelegram@@@std@@@std@@@std@@QBE_NABV01@@Z ; std::_Tree_const_iterator<std::_Tree_val<std::_Tree_simple_types<Telegram> > >::operator!=
PUBLIC	??1?$_Tree_const_iterator@V?$_Tree_val@U?$_Tree_simple_types@UTelegram@@@std@@@std@@@std@@QAE@XZ ; std::_Tree_const_iterator<std::_Tree_val<std::_Tree_simple_types<Telegram> > >::~_Tree_const_iterator<std::_Tree_val<std::_Tree_simple_types<Telegram> > >
PUBLIC	??0?$_Tree_const_iterator@V?$_Tree_val@U?$_Tree_simple_types@UTelegram@@@std@@@std@@@std@@QAE@ABV01@@Z ; std::_Tree_const_iterator<std::_Tree_val<std::_Tree_simple_types<Telegram> > >::_Tree_const_iterator<std::_Tree_val<std::_Tree_simple_types<Telegram> > >
PUBLIC	??0?$_Tree_const_iterator@V?$_Tree_val@U?$_Tree_simple_types@UTelegram@@@std@@@std@@@std@@QAE@$$QAV01@@Z ; std::_Tree_const_iterator<std::_Tree_val<std::_Tree_simple_types<Telegram> > >::_Tree_const_iterator<std::_Tree_val<std::_Tree_simple_types<Telegram> > >
PUBLIC	??1?$pair@V?$_Tree_const_iterator@V?$_Tree_val@U?$_Tree_simple_types@UTelegram@@@std@@@std@@@std@@_N@std@@QAE@XZ ; std::pair<std::_Tree_const_iterator<std::_Tree_val<std::_Tree_simple_types<Telegram> > >,bool>::~pair<std::_Tree_const_iterator<std::_Tree_val<std::_Tree_simple_types<Telegram> > >,bool>
PUBLIC	?pointer_to@?$pointer_traits@PBUTelegram@@@std@@SAPBUTelegram@@ABU3@@Z ; std::pointer_traits<Telegram const *>::pointer_to
PUBLIC	??$swap@DX@std@@YAXAAD0@Z			; std::swap<char,void>
PUBLIC	??$addressof@UTelegram@@@std@@YAPAUTelegram@@AAU1@@Z ; std::addressof<Telegram>
PUBLIC	??$destroy@UTelegram@@@?$_Wrap_alloc@V?$allocator@U?$_Tree_node@UTelegram@@PAX@std@@@std@@@std@@QAEXPAUTelegram@@@Z ; std::_Wrap_alloc<std::allocator<std::_Tree_node<Telegram,void *> > >::destroy<Telegram>
PUBLIC	??$addressof@$$CBUTelegram@@@std@@YAPBUTelegram@@ABU1@@Z ; std::addressof<Telegram const >
PUBLIC	?deallocate@?$allocator@U_Container_proxy@std@@@std@@QAEXPAU_Container_proxy@2@I@Z ; std::allocator<std::_Container_proxy>::deallocate
PUBLIC	?allocate@?$allocator@U_Container_proxy@std@@@std@@QAEPAU_Container_proxy@2@I@Z ; std::allocator<std::_Container_proxy>::allocate
PUBLIC	?address@?$_Wrap_alloc@V?$allocator@U_Container_proxy@std@@@std@@@std@@QBEPAU_Container_proxy@2@AAU32@@Z ; std::_Wrap_alloc<std::allocator<std::_Container_proxy> >::address
PUBLIC	?allocate@?$_Wrap_alloc@V?$allocator@U_Container_proxy@std@@@std@@@std@@QAEPAU_Container_proxy@2@I@Z ; std::_Wrap_alloc<std::allocator<std::_Container_proxy> >::allocate
PUBLIC	?deallocate@?$_Wrap_alloc@V?$allocator@U_Container_proxy@std@@@std@@@std@@QAEXPAU_Container_proxy@2@I@Z ; std::_Wrap_alloc<std::allocator<std::_Container_proxy> >::deallocate
PUBLIC	??$destroy@U_Container_proxy@std@@@?$_Wrap_alloc@V?$allocator@U_Container_proxy@std@@@std@@@std@@QAEXPAU_Container_proxy@1@@Z ; std::_Wrap_alloc<std::allocator<std::_Container_proxy> >::destroy<std::_Container_proxy>
PUBLIC	??$_Unfancy@U_Container_proxy@std@@@std@@YAPAU_Container_proxy@0@PAU10@@Z ; std::_Unfancy<std::_Container_proxy>
PUBLIC	??$construct@U_Container_proxy@std@@U12@@?$_Wrap_alloc@V?$allocator@U_Container_proxy@std@@@std@@@std@@QAEXPAU_Container_proxy@1@$$QAU21@@Z ; std::_Wrap_alloc<std::allocator<std::_Container_proxy> >::construct<std::_Container_proxy,std::_Container_proxy>
PUBLIC	??$addressof@PAU?$_Tree_node@UTelegram@@PAX@std@@@std@@YAPAPAU?$_Tree_node@UTelegram@@PAX@0@AAPAU10@@Z ; std::addressof<std::_Tree_node<Telegram,void *> *>
PUBLIC	??$destroy@PAU?$_Tree_node@UTelegram@@PAX@std@@@?$_Wrap_alloc@V?$allocator@U?$_Tree_node@UTelegram@@PAX@std@@@std@@@std@@QAEXPAPAU?$_Tree_node@UTelegram@@PAX@1@@Z ; std::_Wrap_alloc<std::allocator<std::_Tree_node<Telegram,void *> > >::destroy<std::_Tree_node<Telegram,void *> *>
PUBLIC	??$?0AAU?$_Wrap_alloc@V?$allocator@U?$_Tree_node@UTelegram@@PAX@std@@@std@@@std@@@?$_Wrap_alloc@V?$allocator@U_Container_proxy@std@@@std@@@std@@QAE@AAU?$_Wrap_alloc@V?$allocator@U?$_Tree_node@UTelegram@@PAX@std@@@std@@@1@@Z ; std::_Wrap_alloc<std::allocator<std::_Container_proxy> >::_Wrap_alloc<std::allocator<std::_Container_proxy> ><std::_Wrap_alloc<std::allocator<std::_Tree_node<Telegram,void *> > > &>
PUBLIC	??$?0ABU?$less@UTelegram@@@std@@U_Zero_then_variadic_args_t@1@@?$_Compressed_pair@U?$less@UTelegram@@@std@@V?$_Compressed_pair@U?$_Wrap_alloc@V?$allocator@U?$_Tree_node@UTelegram@@PAX@std@@@std@@@std@@V?$_Tree_val@U?$_Tree_simple_types@UTelegram@@@std@@@2@$00@2@$00@std@@QAE@U_One_then_variadic_args_t@1@ABU?$less@UTelegram@@@1@$$QAU_Zero_then_variadic_args_t@1@@Z ; std::_Compressed_pair<std::less<Telegram>,std::_Compressed_pair<std::_Wrap_alloc<std::allocator<std::_Tree_node<Telegram,void *> > >,std::_Tree_val<std::_Tree_simple_types<Telegram> >,1>,1>::_Compressed_pair<std::less<Telegram>,std::_Compressed_pair<std::_Wrap_alloc<std::allocator<std::_Tree_node<Telegram,void *> > >,std::_Tree_val<std::_Tree_simple_types<Telegram> >,1>,1><std::less<Telegram> const &,std::_Zero_then_variadic_args_t>
PUBLIC	?pointer_to@?$pointer_traits@PAU_Container_proxy@std@@@std@@SAPAU_Container_proxy@2@AAU32@@Z ; std::pointer_traits<std::_Container_proxy *>::pointer_to
PUBLIC	??$addressof@U_Container_proxy@std@@@std@@YAPAU_Container_proxy@0@AAU10@@Z ; std::addressof<std::_Container_proxy>
PUBLIC	??$construct@PAU?$_Tree_node@UTelegram@@PAX@std@@AAPAU12@@?$_Wrap_alloc@V?$allocator@U?$_Tree_node@UTelegram@@PAX@std@@@std@@@std@@QAEXPAPAU?$_Tree_node@UTelegram@@PAX@1@AAPAU21@@Z ; std::_Wrap_alloc<std::allocator<std::_Tree_node<Telegram,void *> > >::construct<std::_Tree_node<Telegram,void *> *,std::_Tree_node<Telegram,void *> * &>
PUBLIC	??$_Insert_nohint@ABUTelegram@@U_Nil@std@@@?$_Tree@V?$_Tset_traits@UTelegram@@U?$less@UTelegram@@@std@@V?$allocator@UTelegram@@@3@$0A@@std@@@std@@IAE?AU?$pair@V?$_Tree_const_iterator@V?$_Tree_val@U?$_Tree_simple_types@UTelegram@@@std@@@std@@@std@@_N@1@_NABUTelegram@@U_Nil@1@@Z ; std::_Tree<std::_Tset_traits<Telegram,std::less<Telegram>,std::allocator<Telegram>,0> >::_Insert_nohint<Telegram const &,std::_Nil>
PUBLIC	??$move@AAD@std@@YA$$QADAAD@Z			; std::move<char &>
PUBLIC	??$destroy@UTelegram@@@?$allocator_traits@V?$allocator@U?$_Tree_node@UTelegram@@PAX@std@@@std@@@std@@SAXAAV?$allocator@U?$_Tree_node@UTelegram@@PAX@std@@@1@PAUTelegram@@@Z ; std::allocator_traits<std::allocator<std::_Tree_node<Telegram,void *> > >::destroy<Telegram>
PUBLIC	??$destroy@U_Container_proxy@std@@@?$allocator_traits@V?$allocator@U_Container_proxy@std@@@std@@@std@@SAXAAV?$allocator@U_Container_proxy@std@@@1@PAU_Container_proxy@1@@Z ; std::allocator_traits<std::allocator<std::_Container_proxy> >::destroy<std::_Container_proxy>
PUBLIC	??$forward@U_Zero_then_variadic_args_t@std@@@std@@YA$$QAU_Zero_then_variadic_args_t@0@AAU10@@Z ; std::forward<std::_Zero_then_variadic_args_t>
PUBLIC	??$forward@U_Container_proxy@std@@@std@@YA$$QAU_Container_proxy@0@AAU10@@Z ; std::forward<std::_Container_proxy>
PUBLIC	??$construct@U_Container_proxy@std@@U12@@?$allocator_traits@V?$allocator@U_Container_proxy@std@@@std@@@std@@SAXAAV?$allocator@U_Container_proxy@std@@@1@PAU_Container_proxy@1@$$QAU31@@Z ; std::allocator_traits<std::allocator<std::_Container_proxy> >::construct<std::_Container_proxy,std::_Container_proxy>
PUBLIC	??$destroy@PAU?$_Tree_node@UTelegram@@PAX@std@@@?$allocator_traits@V?$allocator@U?$_Tree_node@UTelegram@@PAX@std@@@std@@@std@@SAXAAV?$allocator@U?$_Tree_node@UTelegram@@PAX@std@@@1@PAPAU?$_Tree_node@UTelegram@@PAX@1@@Z ; std::allocator_traits<std::allocator<std::_Tree_node<Telegram,void *> > >::destroy<std::_Tree_node<Telegram,void *> *>
PUBLIC	??$forward@AAU?$_Wrap_alloc@V?$allocator@U?$_Tree_node@UTelegram@@PAX@std@@@std@@@std@@@std@@YAAAU?$_Wrap_alloc@V?$allocator@U?$_Tree_node@UTelegram@@PAX@std@@@std@@@0@AAU10@@Z ; std::forward<std::_Wrap_alloc<std::allocator<std::_Tree_node<Telegram,void *> > > &>
PUBLIC	??$?0U?$_Tree_node@UTelegram@@PAX@std@@@?$allocator@U_Container_proxy@std@@@std@@QAE@ABV?$allocator@U?$_Tree_node@UTelegram@@PAX@std@@@1@@Z ; std::allocator<std::_Container_proxy>::allocator<std::_Container_proxy><std::_Tree_node<Telegram,void *> >
PUBLIC	??$forward@ABU?$less@UTelegram@@@std@@@std@@YAABU?$less@UTelegram@@@0@ABU10@@Z ; std::forward<std::less<Telegram> const &>
PUBLIC	??$?0$$V@?$_Compressed_pair@U?$_Wrap_alloc@V?$allocator@U?$_Tree_node@UTelegram@@PAX@std@@@std@@@std@@V?$_Tree_val@U?$_Tree_simple_types@UTelegram@@@std@@@2@$00@std@@QAE@U_Zero_then_variadic_args_t@1@@Z ; std::_Compressed_pair<std::_Wrap_alloc<std::allocator<std::_Tree_node<Telegram,void *> > >,std::_Tree_val<std::_Tree_simple_types<Telegram> >,1>::_Compressed_pair<std::_Wrap_alloc<std::allocator<std::_Tree_node<Telegram,void *> > >,std::_Tree_val<std::_Tree_simple_types<Telegram> >,1><>
PUBLIC	??$forward@AAPAU?$_Tree_node@UTelegram@@PAX@std@@@std@@YAAAPAU?$_Tree_node@UTelegram@@PAX@0@AAPAU10@@Z ; std::forward<std::_Tree_node<Telegram,void *> * &>
PUBLIC	??$construct@PAU?$_Tree_node@UTelegram@@PAX@std@@AAPAU12@@?$allocator_traits@V?$allocator@U?$_Tree_node@UTelegram@@PAX@std@@@std@@@std@@SAXAAV?$allocator@U?$_Tree_node@UTelegram@@PAX@std@@@1@PAPAU?$_Tree_node@UTelegram@@PAX@1@AAPAU31@@Z ; std::allocator_traits<std::allocator<std::_Tree_node<Telegram,void *> > >::construct<std::_Tree_node<Telegram,void *> *,std::_Tree_node<Telegram,void *> * &>
PUBLIC	??$_Debug_lt_pred@AAU?$less@UTelegram@@@std@@ABUTelegram@@ABU3@@std@@YA_NAAU?$less@UTelegram@@@0@ABUTelegram@@1PB_WI@Z ; std::_Debug_lt_pred<std::less<Telegram> &,Telegram const &,Telegram const &>
PUBLIC	??$forward@ABUTelegram@@@std@@YAABUTelegram@@ABU1@@Z ; std::forward<Telegram const &>
PUBLIC	??$_Insert_at@ABUTelegram@@U_Nil@std@@@?$_Tree@V?$_Tset_traits@UTelegram@@U?$less@UTelegram@@@std@@V?$allocator@UTelegram@@@3@$0A@@std@@@std@@IAE?AV?$_Tree_const_iterator@V?$_Tree_val@U?$_Tree_simple_types@UTelegram@@@std@@@std@@@1@_NPAU?$_Tree_node@UTelegram@@PAX@1@ABUTelegram@@U_Nil@1@@Z ; std::_Tree<std::_Tset_traits<Telegram,std::less<Telegram>,std::allocator<Telegram>,0> >::_Insert_at<Telegram const &,std::_Nil>
PUBLIC	??$?0V?$_Tree_const_iterator@V?$_Tree_val@U?$_Tree_simple_types@UTelegram@@@std@@@std@@@std@@_NX$0A@@?$pair@V?$_Tree_const_iterator@V?$_Tree_val@U?$_Tree_simple_types@UTelegram@@@std@@@std@@@std@@_N@std@@QAE@$$QAV?$_Tree_const_iterator@V?$_Tree_val@U?$_Tree_simple_types@UTelegram@@@std@@@std@@@1@$$QA_N@Z ; std::pair<std::_Tree_const_iterator<std::_Tree_val<std::_Tree_simple_types<Telegram> > >,bool>::pair<std::_Tree_const_iterator<std::_Tree_val<std::_Tree_simple_types<Telegram> > >,bool><std::_Tree_const_iterator<std::_Tree_val<std::_Tree_simple_types<Telegram> > >,bool,void,0>
PUBLIC	??$?0AAV?$_Tree_const_iterator@V?$_Tree_val@U?$_Tree_simple_types@UTelegram@@@std@@@std@@@std@@_NX$0A@@?$pair@V?$_Tree_const_iterator@V?$_Tree_val@U?$_Tree_simple_types@UTelegram@@@std@@@std@@@std@@_N@std@@QAE@AAV?$_Tree_const_iterator@V?$_Tree_val@U?$_Tree_simple_types@UTelegram@@@std@@@std@@@1@$$QA_N@Z ; std::pair<std::_Tree_const_iterator<std::_Tree_val<std::_Tree_simple_types<Telegram> > >,bool>::pair<std::_Tree_const_iterator<std::_Tree_val<std::_Tree_simple_types<Telegram> > >,bool><std::_Tree_const_iterator<std::_Tree_val<std::_Tree_simple_types<Telegram> > > &,bool,void,0>
PUBLIC	??$destroy@UTelegram@@@?$allocator@U?$_Tree_node@UTelegram@@PAX@std@@@std@@QAEXPAUTelegram@@@Z ; std::allocator<std::_Tree_node<Telegram,void *> >::destroy<Telegram>
PUBLIC	??$destroy@U_Container_proxy@std@@@?$allocator@U_Container_proxy@std@@@std@@QAEXPAU_Container_proxy@1@@Z ; std::allocator<std::_Container_proxy>::destroy<std::_Container_proxy>
PUBLIC	??$construct@U_Container_proxy@std@@U12@@?$allocator@U_Container_proxy@std@@@std@@QAEXPAU_Container_proxy@1@$$QAU21@@Z ; std::allocator<std::_Container_proxy>::construct<std::_Container_proxy,std::_Container_proxy>
PUBLIC	??$destroy@PAU?$_Tree_node@UTelegram@@PAX@std@@@?$allocator@U?$_Tree_node@UTelegram@@PAX@std@@@std@@QAEXPAPAU?$_Tree_node@UTelegram@@PAX@1@@Z ; std::allocator<std::_Tree_node<Telegram,void *> >::destroy<std::_Tree_node<Telegram,void *> *>
PUBLIC	??$construct@PAU?$_Tree_node@UTelegram@@PAX@std@@AAPAU12@@?$allocator@U?$_Tree_node@UTelegram@@PAX@std@@@std@@QAEXPAPAU?$_Tree_node@UTelegram@@PAX@1@AAPAU21@@Z ; std::allocator<std::_Tree_node<Telegram,void *> >::construct<std::_Tree_node<Telegram,void *> *,std::_Tree_node<Telegram,void *> * &>
PUBLIC	??$_Buynode_if_nil@ABUTelegram@@@?$_Tree@V?$_Tset_traits@UTelegram@@U?$less@UTelegram@@@std@@V?$allocator@UTelegram@@@3@$0A@@std@@@std@@IAEPAU?$_Tree_node@UTelegram@@PAX@1@U_Nil@1@ABUTelegram@@@Z ; std::_Tree<std::_Tset_traits<Telegram,std::less<Telegram>,std::allocator<Telegram>,0> >::_Buynode_if_nil<Telegram const &>
PUBLIC	??$forward@V?$_Tree_const_iterator@V?$_Tree_val@U?$_Tree_simple_types@UTelegram@@@std@@@std@@@std@@@std@@YA$$QAV?$_Tree_const_iterator@V?$_Tree_val@U?$_Tree_simple_types@UTelegram@@@std@@@std@@@0@AAV10@@Z ; std::forward<std::_Tree_const_iterator<std::_Tree_val<std::_Tree_simple_types<Telegram> > > >
PUBLIC	??$forward@_N@std@@YA$$QA_NAA_N@Z		; std::forward<bool>
PUBLIC	??$forward@AAV?$_Tree_const_iterator@V?$_Tree_val@U?$_Tree_simple_types@UTelegram@@@std@@@std@@@std@@@std@@YAAAV?$_Tree_const_iterator@V?$_Tree_val@U?$_Tree_simple_types@UTelegram@@@std@@@std@@@0@AAV10@@Z ; std::forward<std::_Tree_const_iterator<std::_Tree_val<std::_Tree_simple_types<Telegram> > > &>
PUBLIC	??$_Buynode@ABUTelegram@@@?$_Tree_comp_alloc@V?$_Tset_traits@UTelegram@@U?$less@UTelegram@@@std@@V?$allocator@UTelegram@@@3@$0A@@std@@@std@@QAEPAU?$_Tree_node@UTelegram@@PAX@1@ABUTelegram@@@Z ; std::_Tree_comp_alloc<std::_Tset_traits<Telegram,std::less<Telegram>,std::allocator<Telegram>,0> >::_Buynode<Telegram const &>
PUBLIC	??$construct@UTelegram@@ABU1@@?$_Wrap_alloc@V?$allocator@U?$_Tree_node@UTelegram@@PAX@std@@@std@@@std@@QAEXPAUTelegram@@ABU2@@Z ; std::_Wrap_alloc<std::allocator<std::_Tree_node<Telegram,void *> > >::construct<Telegram,Telegram const &>
PUBLIC	??$construct@UTelegram@@ABU1@@?$allocator_traits@V?$allocator@U?$_Tree_node@UTelegram@@PAX@std@@@std@@@std@@SAXAAV?$allocator@U?$_Tree_node@UTelegram@@PAX@std@@@1@PAUTelegram@@ABU3@@Z ; std::allocator_traits<std::allocator<std::_Tree_node<Telegram,void *> > >::construct<Telegram,Telegram const &>
PUBLIC	??$construct@UTelegram@@ABU1@@?$allocator@U?$_Tree_node@UTelegram@@PAX@std@@@std@@QAEXPAUTelegram@@ABU2@@Z ; std::allocator<std::_Tree_node<Telegram,void *> >::construct<Telegram,Telegram const &>
PUBLIC	??_C@_1JA@IJKHNLMB@?$AAC?$AA?3?$AA?2?$AAP?$AAr?$AAo?$AAg?$AAr?$AAa?$AAm?$AA?5?$AAF?$AAi?$AAl?$AAe?$AAs?$AA?5?$AA?$CI?$AAx?$AA8?$AA6?$AA?$CJ?$AA?2?$AAM?$AAi?$AAc?$AAr?$AAo?$AAs?$AAo?$AAf?$AAt@ ; `string'
PUBLIC	??_C@_1DC@POOIKBAO@?$AAI?$AAT?$AAE?$AAR?$AAA?$AAT?$AAO?$AAR?$AA?5?$AAL?$AAI?$AAS?$AAT?$AA?5?$AAC?$AAO?$AAR?$AAR?$AAU?$AAP?$AAT?$AAE?$AAD?$AA?$CB?$AA?$AA@ ; `string'
PUBLIC	??_C@_0BE@LMNLACIC@_Ptr_container?5?$CB?$DN?50?$AA@ ; `string'
PUBLIC	??_C@_1DG@HGDKEBPG@?$AA?$CC?$AA_?$AAP?$AAt?$AAr?$AA_?$AAc?$AAo?$AAn?$AAt?$AAa?$AAi?$AAn?$AAe?$AAr?$AA?5?$AA?$CB?$AA?$DN?$AA?5?$AA0?$AA?$CC?$AA?5?$AA?$CG?$AA?$CG?$AA?5?$AA0?$AA?$AA@ ; `string'
PUBLIC	??_C@_17CNPHIMPH@?$AA?$CF?$AAl?$AAs?$AA?$AA@	; `string'
PUBLIC	??_C@_1JA@HEEMAOGC@?$AAC?$AA?3?$AA?2?$AAP?$AAr?$AAo?$AAg?$AAr?$AAa?$AAm?$AA?5?$AAF?$AAi?$AAl?$AAe?$AAs?$AA?5?$AA?$CI?$AAx?$AA8?$AA6?$AA?$CJ?$AA?2?$AAM?$AAi?$AAc?$AAr?$AAo?$AAs?$AAo?$AAf?$AAt@ ; `string'
PUBLIC	??_C@_1BO@NKFMJPA@?$AAs?$AAt?$AAd?$AA?3?$AA?3?$AA_?$AAA?$AAl?$AAl?$AAo?$AAc?$AAa?$AAt?$AAe?$AA?$AA@ ; `string'
PUBLIC	??_C@_1CG@JNLFBNGN@?$AA?$CC?$AAi?$AAn?$AAv?$AAa?$AAl?$AAi?$AAd?$AA?5?$AAa?$AAr?$AAg?$AAu?$AAm?$AAe?$AAn?$AAt?$AA?$CC?$AA?$AA@ ; `string'
PUBLIC	??_C@_09GLJCAGLP@_Ptr?5?$CB?$DN?50?$AA@		; `string'
PUBLIC	??_C@_1CC@GKJLLHIM@?$AA?$CC?$AA_?$AAP?$AAt?$AAr?$AA?5?$AA?$CB?$AA?$DN?$AA?5?$AA0?$AA?$CC?$AA?5?$AA?$CG?$AA?$CG?$AA?5?$AA0?$AA?$AA@ ; `string'
PUBLIC	??_C@_0BN@HMCJOMKN@_Count?5?$DM?$DN?5?$CIsize_t?$CJ?$CI?91?$CJ?5?1?5_Sz?$AA@ ; `string'
PUBLIC	??_C@_1EI@MLOBABC@?$AA?$CC?$AA_?$AAC?$AAo?$AAu?$AAn?$AAt?$AA?5?$AA?$DM?$AA?$DN?$AA?5?$AA?$CI?$AAs?$AAi?$AAz?$AAe?$AA_?$AAt?$AA?$CJ?$AA?$CI?$AA?9?$AA1?$AA?$CJ?$AA?5?$AA?1?$AA?5?$AA_?$AAS?$AAz?$AA?$CC?$AA?5?$AA?$CG@ ; `string'
PUBLIC	??_C@_1CC@LOFJFFDB@?$AAs?$AAt?$AAd?$AA?3?$AA?3?$AA_?$AAD?$AAe?$AAa?$AAl?$AAl?$AAo?$AAc?$AAa?$AAt?$AAe?$AA?$AA@ ; `string'
PUBLIC	??_C@_0DD@GBGGGKGG@?$CI_Ptr_user?5?$CG?5?$CI_BIG_ALLOCATION_AL@ ; `string'
PUBLIC	??_C@_1HE@CDMBFOKC@?$AA?$CC?$AA?$CI?$AA_?$AAP?$AAt?$AAr?$AA_?$AAu?$AAs?$AAe?$AAr?$AA?5?$AA?$CG?$AA?5?$AA?$CI?$AA_?$AAB?$AAI?$AAG?$AA_?$AAA?$AAL?$AAL?$AAO?$AAC?$AAA?$AAT?$AAI?$AAO?$AAN?$AA_?$AAA@ ; `string'
PUBLIC	??_C@_0EI@NOJHEJCJ@reinterpret_cast?$DMuintptr_t?5?$CK?$DO?$CI_P@ ; `string'
PUBLIC	??_C@_1JO@EKLKIEHP@?$AA?$CC?$AAr?$AAe?$AAi?$AAn?$AAt?$AAe?$AAr?$AAp?$AAr?$AAe?$AAt?$AA_?$AAc?$AAa?$AAs?$AAt?$AA?$DM?$AAu?$AAi?$AAn?$AAt?$AAp?$AAt?$AAr?$AA_?$AAt?$AA?5?$AA?$CK?$AA?$DO?$AA?$CI?$AA_@ ; `string'
PUBLIC	??_C@_0BL@OCKMEJON@_Ptr_container?5?$DM?5_Ptr_user?$AA@ ; `string'
PUBLIC	??_C@_1EE@PDHAHDDC@?$AA?$CC?$AA_?$AAP?$AAt?$AAr?$AA_?$AAc?$AAo?$AAn?$AAt?$AAa?$AAi?$AAn?$AAe?$AAr?$AA?5?$AA?$DM?$AA?5?$AA_?$AAP?$AAt?$AAr?$AA_?$AAu?$AAs?$AAe?$AAr?$AA?$CC?$AA?5?$AA?$CG?$AA?$CG?$AA?5@ ; `string'
PUBLIC	??_C@_0DB@GLFJLNCE@2?5?$CK?5sizeof?$CIvoid?5?$CK?$CJ?5?$DM?$DN?5_Ptr_user?5@ ; `string'
PUBLIC	??_C@_1HA@NAPGMHAO@?$AA?$CC?$AA2?$AA?5?$AA?$CK?$AA?5?$AAs?$AAi?$AAz?$AAe?$AAo?$AAf?$AA?$CI?$AAv?$AAo?$AAi?$AAd?$AA?5?$AA?$CK?$AA?$CJ?$AA?5?$AA?$DM?$AA?$DN?$AA?5?$AA_?$AAP?$AAt?$AAr?$AA_?$AAu?$AAs?$AAe?$AAr@ ; `string'
PUBLIC	??_C@_0CN@BLHJCAL@_Ptr_user?5?9?5_Ptr_container?5?$DM?$DN?5_N@ ; `string'
PUBLIC	??_C@_1GI@DHJGPFNI@?$AA?$CC?$AA_?$AAP?$AAt?$AAr?$AA_?$AAu?$AAs?$AAe?$AAr?$AA?5?$AA?9?$AA?5?$AA_?$AAP?$AAt?$AAr?$AA_?$AAc?$AAo?$AAn?$AAt?$AAa?$AAi?$AAn?$AAe?$AAr?$AA?5?$AA?$DM?$AA?$DN?$AA?5?$AA_@ ; `string'
PUBLIC	??_C@_0CE@OFMIGAMM@Standard?5C?$CL?$CL?5Libraries?5Out?5of?5Ra@ ; `string'
PUBLIC	??_C@_1FG@IBPIFFN@?$AA?$CC?$AAS?$AAt?$AAa?$AAn?$AAd?$AAa?$AAr?$AAd?$AA?5?$AAC?$AA?$CL?$AA?$CL?$AA?5?$AAL?$AAi?$AAb?$AAr?$AAa?$AAr?$AAi?$AAe?$AAs?$AA?5?$AAO?$AAu?$AAt?$AA?5?$AAo?$AAf?$AA?5?$AAR@ ; `string'
PUBLIC	??_C@_1BO@MEPPHOO@?$AA?$CC?$AAo?$AAu?$AAt?$AA?5?$AAo?$AAf?$AA?5?$AAr?$AAa?$AAn?$AAg?$AAe?$AA?$CC?$AA?$AA@ ; `string'
PUBLIC	??_C@_1IK@BEABFJGP@?$AAC?$AA?3?$AA?2?$AAP?$AAr?$AAo?$AAg?$AAr?$AAa?$AAm?$AA?5?$AAF?$AAi?$AAl?$AAe?$AAs?$AA?5?$AA?$CI?$AAx?$AA8?$AA6?$AA?$CJ?$AA?2?$AAM?$AAi?$AAc?$AAr?$AAo?$AAs?$AAo?$AAf?$AAt@ ; `string'
PUBLIC	??_C@_1EI@FHEHNNNM@?$AAm?$AAa?$AAp?$AA?1?$AAs?$AAe?$AAt?$AA?5?$AAi?$AAt?$AAe?$AAr?$AAa?$AAt?$AAo?$AAr?$AA?5?$AAn?$AAo?$AAt?$AA?5?$AAd?$AAe?$AAr?$AAe?$AAf?$AAe?$AAr?$AAe?$AAn?$AAc?$AAa@ ; `string'
PUBLIC	??_C@_1NO@FBLHDHCP@?$AAs?$AAt?$AAd?$AA?3?$AA?3?$AA_?$AAT?$AAr?$AAe?$AAe?$AA_?$AAc?$AAo?$AAn?$AAs?$AAt?$AA_?$AAi?$AAt?$AAe?$AAr?$AAa?$AAt?$AAo?$AAr?$AA?$DM?$AAc?$AAl?$AAa?$AAs?$AAs?$AA?5@ ; `string'
PUBLIC	??_C@_1EK@PPDBPCAN@?$AAm?$AAa?$AAp?$AA?1?$AAs?$AAe?$AAt?$AA?5?$AAe?$AAr?$AAa?$AAs?$AAe?$AA?5?$AAi?$AAt?$AAe?$AAr?$AAa?$AAt?$AAo?$AAr?$AA?5?$AAo?$AAu?$AAt?$AAs?$AAi?$AAd?$AAe?$AA?5?$AAr@ ; `string'
PUBLIC	?id@?$num_put@DV?$ostreambuf_iterator@DU?$char_traits@D@std@@@std@@@std@@2V0locale@2@A ; std::num_put<char,std::ostreambuf_iterator<char,std::char_traits<char> > >::id
PUBLIC	??_C@_1EG@EHJFMBHJ@?$AAm?$AAa?$AAp?$AA?1?$AAs?$AAe?$AAt?$AA?5?$AAi?$AAt?$AAe?$AAr?$AAa?$AAt?$AAo?$AAr?$AA?5?$AAn?$AAo?$AAt?$AA?5?$AAi?$AAn?$AAc?$AAr?$AAe?$AAm?$AAe?$AAn?$AAt?$AAa?$AAb@ ; `string'
PUBLIC	??_C@_1OA@BGMODHEP@?$AAs?$AAt?$AAd?$AA?3?$AA?3?$AA_?$AAT?$AAr?$AAe?$AAe?$AA_?$AAc?$AAo?$AAn?$AAs?$AAt?$AA_?$AAi?$AAt?$AAe?$AAr?$AAa?$AAt?$AAo?$AAr?$AA?$DM?$AAc?$AAl?$AAa?$AAs?$AAs?$AA?5@ ; `string'
PUBLIC	?id@?$numpunct@D@std@@2V0locale@2@A		; std::numpunct<char>::id
PUBLIC	??_C@_1DO@CFEEPGGJ@?$AAm?$AAa?$AAp?$AA?1?$AAs?$AAe?$AAt?$AA?5?$AAi?$AAt?$AAe?$AAr?$AAa?$AAt?$AAo?$AAr?$AAs?$AA?5?$AAi?$AAn?$AAc?$AAo?$AAm?$AAp?$AAa?$AAt?$AAi?$AAb?$AAl?$AAe?$AA?$AA@ ; `string'
PUBLIC	??_C@_0CI@FNPHFCCM@Standard?5C?$CL?$CL?5Libraries?5Invalid?5A@ ; `string'
PUBLIC	??_C@_1FO@GJIHNDLM@?$AA?$CC?$AAS?$AAt?$AAa?$AAn?$AAd?$AAa?$AAr?$AAd?$AA?5?$AAC?$AA?$CL?$AA?$CL?$AA?5?$AAL?$AAi?$AAb?$AAr?$AAa?$AAr?$AAi?$AAe?$AAs?$AA?5?$AAI?$AAn?$AAv?$AAa?$AAl?$AAi?$AAd?$AA?5@ ; `string'
PUBLIC	??_C@_1OA@LGDDNOIK@?$AAs?$AAt?$AAd?$AA?3?$AA?3?$AA_?$AAT?$AAr?$AAe?$AAe?$AA_?$AAc?$AAo?$AAn?$AAs?$AAt?$AA_?$AAi?$AAt?$AAe?$AAr?$AAa?$AAt?$AAo?$AAr?$AA?$DM?$AAc?$AAl?$AAa?$AAs?$AAs?$AA?5@ ; `string'
PUBLIC	??_C@_1EG@OKCGOALM@?$AAm?$AAa?$AAp?$AA?1?$AAs?$AAe?$AAt?$AA?5?$AAi?$AAt?$AAe?$AAr?$AAa?$AAt?$AAo?$AAr?$AA?5?$AAn?$AAo?$AAt?$AA?5?$AAd?$AAe?$AAc?$AAr?$AAe?$AAm?$AAe?$AAn?$AAt?$AAa?$AAb@ ; `string'
PUBLIC	??_C@_1OA@OFPMILIO@?$AAs?$AAt?$AAd?$AA?3?$AA?3?$AA_?$AAT?$AAr?$AAe?$AAe?$AA_?$AAc?$AAo?$AAn?$AAs?$AAt?$AA_?$AAi?$AAt?$AAe?$AAr?$AAa?$AAt?$AAo?$AAr?$AA?$DM?$AAc?$AAl?$AAa?$AAs?$AAs?$AA?5@ ; `string'
PUBLIC	??_C@_1CG@LEJCKCBB@?$AAi?$AAn?$AAv?$AAa?$AAl?$AAi?$AAd?$AA?5?$AAc?$AAo?$AAm?$AAp?$AAa?$AAr?$AAa?$AAt?$AAo?$AAr?$AA?$AA@ ; `string'
PUBLIC	??_C@_0BE@JONHPENG@map?1set?$DMT?$DO?5too?5long?$AA@ ; `string'
PUBLIC	__real@0000000000000000
PUBLIC	__real@0010000000000000
PUBLIC	__real@00800000
PUBLIC	__real@3fd0000000000000
PUBLIC	__real@7f7fffff
PUBLIC	__real@7fefffffffffffff
EXTRN	??2@YAPAXI@Z:PROC				; operator new
EXTRN	??3@YAXPAX@Z:PROC				; operator delete
EXTRN	_atexit:PROC
EXTRN	__Init_thread_header:PROC
EXTRN	__Init_thread_abort:PROC
EXTRN	__Init_thread_footer:PROC
EXTRN	__invalid_parameter:PROC
EXTRN	??0_Lockit@std@@QAE@H@Z:PROC			; std::_Lockit::_Lockit
EXTRN	??1_Lockit@std@@QAE@XZ:PROC			; std::_Lockit::~_Lockit
EXTRN	_fabs:PROC
EXTRN	__CrtDbgReportW:PROC
EXTRN	?_Debug_message@std@@YAXPB_W0I@Z:PROC		; std::_Debug_message
EXTRN	?_Xbad_alloc@std@@YAXXZ:PROC			; std::_Xbad_alloc
EXTRN	?_Xlength_error@std@@YAXPBD@Z:PROC		; std::_Xlength_error
EXTRN	?Instance@FrameCounter@@SAPAV1@XZ:PROC		; FrameCounter::Instance
EXTRN	?Instance@EntityManager@@SAPAV1@XZ:PROC		; EntityManager::Instance
EXTRN	?GetEntityFromID@EntityManager@@QBEPAVBaseGameEntity@@H@Z:PROC ; EntityManager::GetEntityFromID
EXTRN	@_RTC_CheckStackVars@8:PROC
EXTRN	@__security_check_cookie@4:PROC
EXTRN	__CxxThrowException@8:PROC
EXTRN	__RTC_CheckEsp:PROC
EXTRN	__RTC_InitBase:PROC
EXTRN	__RTC_Shutdown:PROC
EXTRN	___CxxFrameHandler3:PROC
EXTRN	__Init_thread_epoch:DWORD
EXTRN	___security_cookie:DWORD
EXTRN	__fltused:DWORD
EXTRN	__tls_array:DWORD
EXTRN	__tls_index:DWORD
_BSS	SEGMENT
?MaxInt@@3HB DD	01H DUP (?)				; MaxInt
	ALIGN	8

?MaxDouble@@3NB DQ 01H DUP (?)				; MaxDouble
?MinDouble@@3NB DQ 01H DUP (?)				; MinDouble
?MaxFloat@@3MB DD 01H DUP (?)				; MaxFloat
?MinFloat@@3MB DD 01H DUP (?)				; MinFloat
_BSS	ENDS
;	COMDAT ?instance@?1??Instance@MessageDispatcher@@SAPAV2@XZ@4V2@A
_BSS	SEGMENT
?instance@?1??Instance@MessageDispatcher@@SAPAV2@XZ@4V2@A DB 0cH DUP (?) ; `MessageDispatcher::Instance'::`2'::instance
_BSS	ENDS
;	COMDAT ?$TSS0@?1??Instance@MessageDispatcher@@SAPAV2@XZ@4HA
_BSS	SEGMENT
?$TSS0@?1??Instance@MessageDispatcher@@SAPAV2@XZ@4HA DD 01H DUP (?) ; TSS0<`template-parameter-2',MessageDispatcher::stance,MessageDispatcher * * const volatile,void,int, ?? &>
_BSS	ENDS
;	COMDAT ?id@?$num_put@DV?$ostreambuf_iterator@DU?$char_traits@D@std@@@std@@@std@@2V0locale@2@A
_BSS	SEGMENT
?id@?$num_put@DV?$ostreambuf_iterator@DU?$char_traits@D@std@@@std@@@std@@2V0locale@2@A DD 01H DUP (?) ; std::num_put<char,std::ostreambuf_iterator<char,std::char_traits<char> > >::id
_BSS	ENDS
;	COMDAT ?id@?$numpunct@D@std@@2V0locale@2@A
_BSS	SEGMENT
?id@?$numpunct@D@std@@2V0locale@2@A DD 01H DUP (?)	; std::numpunct<char>::id
_BSS	ENDS
CRT$XCU	SEGMENT
?MaxInt$initializer$@@3P6AXXZA DD FLAT:??__EMaxInt@@YAXXZ ; MaxInt$initializer$
CRT$XCU	ENDS
;	COMDAT __real@7fefffffffffffff
CONST	SEGMENT
__real@7fefffffffffffff DQ 07fefffffffffffffr	; 1.79769e+308
CONST	ENDS
;	COMDAT __real@7f7fffff
CONST	SEGMENT
__real@7f7fffff DD 07f7fffffr			; 3.40282e+38
CONST	ENDS
;	COMDAT __real@3fd0000000000000
CONST	SEGMENT
__real@3fd0000000000000 DQ 03fd0000000000000r	; 0.25
CONST	ENDS
;	COMDAT __real@00800000
CONST	SEGMENT
__real@00800000 DD 000800000r			; 1.17549e-38
CONST	ENDS
;	COMDAT __real@0010000000000000
CONST	SEGMENT
__real@0010000000000000 DQ 00010000000000000r	; 2.22507e-308
CONST	ENDS
;	COMDAT __real@0000000000000000
CONST	SEGMENT
__real@0000000000000000 DQ 00000000000000000r	; 0
CONST	ENDS
;	COMDAT rtc$TMZ
rtc$TMZ	SEGMENT
__RTC_Shutdown.rtc$TMZ DD FLAT:__RTC_Shutdown
rtc$TMZ	ENDS
;	COMDAT rtc$IMZ
rtc$IMZ	SEGMENT
__RTC_InitBase.rtc$IMZ DD FLAT:__RTC_InitBase
rtc$IMZ	ENDS
;	COMDAT ??_C@_0BE@JONHPENG@map?1set?$DMT?$DO?5too?5long?$AA@
CONST	SEGMENT
??_C@_0BE@JONHPENG@map?1set?$DMT?$DO?5too?5long?$AA@ DB 'map/set<T> too l'
	DB	'ong', 00H					; `string'
CONST	ENDS
;	COMDAT ??_C@_1CG@LEJCKCBB@?$AAi?$AAn?$AAv?$AAa?$AAl?$AAi?$AAd?$AA?5?$AAc?$AAo?$AAm?$AAp?$AAa?$AAr?$AAa?$AAt?$AAo?$AAr?$AA?$AA@
CONST	SEGMENT
??_C@_1CG@LEJCKCBB@?$AAi?$AAn?$AAv?$AAa?$AAl?$AAi?$AAd?$AA?5?$AAc?$AAo?$AAm?$AAp?$AAa?$AAr?$AAa?$AAt?$AAo?$AAr?$AA?$AA@ DB 'i'
	DB	00H, 'n', 00H, 'v', 00H, 'a', 00H, 'l', 00H, 'i', 00H, 'd', 00H
	DB	' ', 00H, 'c', 00H, 'o', 00H, 'm', 00H, 'p', 00H, 'a', 00H, 'r'
	DB	00H, 'a', 00H, 't', 00H, 'o', 00H, 'r', 00H, 00H, 00H ; `string'
CONST	ENDS
;	COMDAT ??_C@_1OA@OFPMILIO@?$AAs?$AAt?$AAd?$AA?3?$AA?3?$AA_?$AAT?$AAr?$AAe?$AAe?$AA_?$AAc?$AAo?$AAn?$AAs?$AAt?$AA_?$AAi?$AAt?$AAe?$AAr?$AAa?$AAt?$AAo?$AAr?$AA?$DM?$AAc?$AAl?$AAa?$AAs?$AAs?$AA?5@
CONST	SEGMENT
??_C@_1OA@OFPMILIO@?$AAs?$AAt?$AAd?$AA?3?$AA?3?$AA_?$AAT?$AAr?$AAe?$AAe?$AA_?$AAc?$AAo?$AAn?$AAs?$AAt?$AA_?$AAi?$AAt?$AAe?$AAr?$AAa?$AAt?$AAo?$AAr?$AA?$DM?$AAc?$AAl?$AAa?$AAs?$AAs?$AA?5@ DB 's'
	DB	00H, 't', 00H, 'd', 00H, ':', 00H, ':', 00H, '_', 00H, 'T', 00H
	DB	'r', 00H, 'e', 00H, 'e', 00H, '_', 00H, 'c', 00H, 'o', 00H, 'n'
	DB	00H, 's', 00H, 't', 00H, '_', 00H, 'i', 00H, 't', 00H, 'e', 00H
	DB	'r', 00H, 'a', 00H, 't', 00H, 'o', 00H, 'r', 00H, '<', 00H, 'c'
	DB	00H, 'l', 00H, 'a', 00H, 's', 00H, 's', 00H, ' ', 00H, 's', 00H
	DB	't', 00H, 'd', 00H, ':', 00H, ':', 00H, '_', 00H, 'T', 00H, 'r'
	DB	00H, 'e', 00H, 'e', 00H, '_', 00H, 'v', 00H, 'a', 00H, 'l', 00H
	DB	'<', 00H, 's', 00H, 't', 00H, 'r', 00H, 'u', 00H, 'c', 00H, 't'
	DB	00H, ' ', 00H, 's', 00H, 't', 00H, 'd', 00H, ':', 00H, ':', 00H
	DB	'_', 00H, 'T', 00H, 'r', 00H, 'e', 00H, 'e', 00H, '_', 00H, 's'
	DB	00H, 'i', 00H, 'm', 00H, 'p', 00H, 'l', 00H, 'e', 00H, '_', 00H
	DB	't', 00H, 'y', 00H, 'p', 00H, 'e', 00H, 's', 00H, '<', 00H, 's'
	DB	00H, 't', 00H, 'r', 00H, 'u', 00H, 'c', 00H, 't', 00H, ' ', 00H
	DB	'T', 00H, 'e', 00H, 'l', 00H, 'e', 00H, 'g', 00H, 'r', 00H, 'a'
	DB	00H, 'm', 00H, '>', 00H, ' ', 00H, '>', 00H, ' ', 00H, '>', 00H
	DB	':', 00H, ':', 00H, 'o', 00H, 'p', 00H, 'e', 00H, 'r', 00H, 'a'
	DB	00H, 't', 00H, 'o', 00H, 'r', 00H, ' ', 00H, '-', 00H, '-', 00H
	DB	00H, 00H					; `string'
CONST	ENDS
;	COMDAT ??_C@_1EG@OKCGOALM@?$AAm?$AAa?$AAp?$AA?1?$AAs?$AAe?$AAt?$AA?5?$AAi?$AAt?$AAe?$AAr?$AAa?$AAt?$AAo?$AAr?$AA?5?$AAn?$AAo?$AAt?$AA?5?$AAd?$AAe?$AAc?$AAr?$AAe?$AAm?$AAe?$AAn?$AAt?$AAa?$AAb@
CONST	SEGMENT
??_C@_1EG@OKCGOALM@?$AAm?$AAa?$AAp?$AA?1?$AAs?$AAe?$AAt?$AA?5?$AAi?$AAt?$AAe?$AAr?$AAa?$AAt?$AAo?$AAr?$AA?5?$AAn?$AAo?$AAt?$AA?5?$AAd?$AAe?$AAc?$AAr?$AAe?$AAm?$AAe?$AAn?$AAt?$AAa?$AAb@ DB 'm'
	DB	00H, 'a', 00H, 'p', 00H, '/', 00H, 's', 00H, 'e', 00H, 't', 00H
	DB	' ', 00H, 'i', 00H, 't', 00H, 'e', 00H, 'r', 00H, 'a', 00H, 't'
	DB	00H, 'o', 00H, 'r', 00H, ' ', 00H, 'n', 00H, 'o', 00H, 't', 00H
	DB	' ', 00H, 'd', 00H, 'e', 00H, 'c', 00H, 'r', 00H, 'e', 00H, 'm'
	DB	00H, 'e', 00H, 'n', 00H, 't', 00H, 'a', 00H, 'b', 00H, 'l', 00H
	DB	'e', 00H, 00H, 00H				; `string'
CONST	ENDS
;	COMDAT ??_C@_1OA@LGDDNOIK@?$AAs?$AAt?$AAd?$AA?3?$AA?3?$AA_?$AAT?$AAr?$AAe?$AAe?$AA_?$AAc?$AAo?$AAn?$AAs?$AAt?$AA_?$AAi?$AAt?$AAe?$AAr?$AAa?$AAt?$AAo?$AAr?$AA?$DM?$AAc?$AAl?$AAa?$AAs?$AAs?$AA?5@
CONST	SEGMENT
??_C@_1OA@LGDDNOIK@?$AAs?$AAt?$AAd?$AA?3?$AA?3?$AA_?$AAT?$AAr?$AAe?$AAe?$AA_?$AAc?$AAo?$AAn?$AAs?$AAt?$AA_?$AAi?$AAt?$AAe?$AAr?$AAa?$AAt?$AAo?$AAr?$AA?$DM?$AAc?$AAl?$AAa?$AAs?$AAs?$AA?5@ DB 's'
	DB	00H, 't', 00H, 'd', 00H, ':', 00H, ':', 00H, '_', 00H, 'T', 00H
	DB	'r', 00H, 'e', 00H, 'e', 00H, '_', 00H, 'c', 00H, 'o', 00H, 'n'
	DB	00H, 's', 00H, 't', 00H, '_', 00H, 'i', 00H, 't', 00H, 'e', 00H
	DB	'r', 00H, 'a', 00H, 't', 00H, 'o', 00H, 'r', 00H, '<', 00H, 'c'
	DB	00H, 'l', 00H, 'a', 00H, 's', 00H, 's', 00H, ' ', 00H, 's', 00H
	DB	't', 00H, 'd', 00H, ':', 00H, ':', 00H, '_', 00H, 'T', 00H, 'r'
	DB	00H, 'e', 00H, 'e', 00H, '_', 00H, 'v', 00H, 'a', 00H, 'l', 00H
	DB	'<', 00H, 's', 00H, 't', 00H, 'r', 00H, 'u', 00H, 'c', 00H, 't'
	DB	00H, ' ', 00H, 's', 00H, 't', 00H, 'd', 00H, ':', 00H, ':', 00H
	DB	'_', 00H, 'T', 00H, 'r', 00H, 'e', 00H, 'e', 00H, '_', 00H, 's'
	DB	00H, 'i', 00H, 'm', 00H, 'p', 00H, 'l', 00H, 'e', 00H, '_', 00H
	DB	't', 00H, 'y', 00H, 'p', 00H, 'e', 00H, 's', 00H, '<', 00H, 's'
	DB	00H, 't', 00H, 'r', 00H, 'u', 00H, 'c', 00H, 't', 00H, ' ', 00H
	DB	'T', 00H, 'e', 00H, 'l', 00H, 'e', 00H, 'g', 00H, 'r', 00H, 'a'
	DB	00H, 'm', 00H, '>', 00H, ' ', 00H, '>', 00H, ' ', 00H, '>', 00H
	DB	':', 00H, ':', 00H, 'o', 00H, 'p', 00H, 'e', 00H, 'r', 00H, 'a'
	DB	00H, 't', 00H, 'o', 00H, 'r', 00H, ' ', 00H, '=', 00H, '=', 00H
	DB	00H, 00H					; `string'
CONST	ENDS
;	COMDAT ??_C@_1FO@GJIHNDLM@?$AA?$CC?$AAS?$AAt?$AAa?$AAn?$AAd?$AAa?$AAr?$AAd?$AA?5?$AAC?$AA?$CL?$AA?$CL?$AA?5?$AAL?$AAi?$AAb?$AAr?$AAa?$AAr?$AAi?$AAe?$AAs?$AA?5?$AAI?$AAn?$AAv?$AAa?$AAl?$AAi?$AAd?$AA?5@
CONST	SEGMENT
??_C@_1FO@GJIHNDLM@?$AA?$CC?$AAS?$AAt?$AAa?$AAn?$AAd?$AAa?$AAr?$AAd?$AA?5?$AAC?$AA?$CL?$AA?$CL?$AA?5?$AAL?$AAi?$AAb?$AAr?$AAa?$AAr?$AAi?$AAe?$AAs?$AA?5?$AAI?$AAn?$AAv?$AAa?$AAl?$AAi?$AAd?$AA?5@ DB '"'
	DB	00H, 'S', 00H, 't', 00H, 'a', 00H, 'n', 00H, 'd', 00H, 'a', 00H
	DB	'r', 00H, 'd', 00H, ' ', 00H, 'C', 00H, '+', 00H, '+', 00H, ' '
	DB	00H, 'L', 00H, 'i', 00H, 'b', 00H, 'r', 00H, 'a', 00H, 'r', 00H
	DB	'i', 00H, 'e', 00H, 's', 00H, ' ', 00H, 'I', 00H, 'n', 00H, 'v'
	DB	00H, 'a', 00H, 'l', 00H, 'i', 00H, 'd', 00H, ' ', 00H, 'A', 00H
	DB	'r', 00H, 'g', 00H, 'u', 00H, 'm', 00H, 'e', 00H, 'n', 00H, 't'
	DB	00H, '"', 00H, ' ', 00H, '&', 00H, '&', 00H, ' ', 00H, '0', 00H
	DB	00H, 00H					; `string'
CONST	ENDS
;	COMDAT ??_C@_0CI@FNPHFCCM@Standard?5C?$CL?$CL?5Libraries?5Invalid?5A@
CONST	SEGMENT
??_C@_0CI@FNPHFCCM@Standard?5C?$CL?$CL?5Libraries?5Invalid?5A@ DB 'Standa'
	DB	'rd C++ Libraries Invalid Argument', 00H	; `string'
CONST	ENDS
;	COMDAT ??_C@_1DO@CFEEPGGJ@?$AAm?$AAa?$AAp?$AA?1?$AAs?$AAe?$AAt?$AA?5?$AAi?$AAt?$AAe?$AAr?$AAa?$AAt?$AAo?$AAr?$AAs?$AA?5?$AAi?$AAn?$AAc?$AAo?$AAm?$AAp?$AAa?$AAt?$AAi?$AAb?$AAl?$AAe?$AA?$AA@
CONST	SEGMENT
??_C@_1DO@CFEEPGGJ@?$AAm?$AAa?$AAp?$AA?1?$AAs?$AAe?$AAt?$AA?5?$AAi?$AAt?$AAe?$AAr?$AAa?$AAt?$AAo?$AAr?$AAs?$AA?5?$AAi?$AAn?$AAc?$AAo?$AAm?$AAp?$AAa?$AAt?$AAi?$AAb?$AAl?$AAe?$AA?$AA@ DB 'm'
	DB	00H, 'a', 00H, 'p', 00H, '/', 00H, 's', 00H, 'e', 00H, 't', 00H
	DB	' ', 00H, 'i', 00H, 't', 00H, 'e', 00H, 'r', 00H, 'a', 00H, 't'
	DB	00H, 'o', 00H, 'r', 00H, 's', 00H, ' ', 00H, 'i', 00H, 'n', 00H
	DB	'c', 00H, 'o', 00H, 'm', 00H, 'p', 00H, 'a', 00H, 't', 00H, 'i'
	DB	00H, 'b', 00H, 'l', 00H, 'e', 00H, 00H, 00H	; `string'
CONST	ENDS
;	COMDAT ??_C@_1OA@BGMODHEP@?$AAs?$AAt?$AAd?$AA?3?$AA?3?$AA_?$AAT?$AAr?$AAe?$AAe?$AA_?$AAc?$AAo?$AAn?$AAs?$AAt?$AA_?$AAi?$AAt?$AAe?$AAr?$AAa?$AAt?$AAo?$AAr?$AA?$DM?$AAc?$AAl?$AAa?$AAs?$AAs?$AA?5@
CONST	SEGMENT
??_C@_1OA@BGMODHEP@?$AAs?$AAt?$AAd?$AA?3?$AA?3?$AA_?$AAT?$AAr?$AAe?$AAe?$AA_?$AAc?$AAo?$AAn?$AAs?$AAt?$AA_?$AAi?$AAt?$AAe?$AAr?$AAa?$AAt?$AAo?$AAr?$AA?$DM?$AAc?$AAl?$AAa?$AAs?$AAs?$AA?5@ DB 's'
	DB	00H, 't', 00H, 'd', 00H, ':', 00H, ':', 00H, '_', 00H, 'T', 00H
	DB	'r', 00H, 'e', 00H, 'e', 00H, '_', 00H, 'c', 00H, 'o', 00H, 'n'
	DB	00H, 's', 00H, 't', 00H, '_', 00H, 'i', 00H, 't', 00H, 'e', 00H
	DB	'r', 00H, 'a', 00H, 't', 00H, 'o', 00H, 'r', 00H, '<', 00H, 'c'
	DB	00H, 'l', 00H, 'a', 00H, 's', 00H, 's', 00H, ' ', 00H, 's', 00H
	DB	't', 00H, 'd', 00H, ':', 00H, ':', 00H, '_', 00H, 'T', 00H, 'r'
	DB	00H, 'e', 00H, 'e', 00H, '_', 00H, 'v', 00H, 'a', 00H, 'l', 00H
	DB	'<', 00H, 's', 00H, 't', 00H, 'r', 00H, 'u', 00H, 'c', 00H, 't'
	DB	00H, ' ', 00H, 's', 00H, 't', 00H, 'd', 00H, ':', 00H, ':', 00H
	DB	'_', 00H, 'T', 00H, 'r', 00H, 'e', 00H, 'e', 00H, '_', 00H, 's'
	DB	00H, 'i', 00H, 'm', 00H, 'p', 00H, 'l', 00H, 'e', 00H, '_', 00H
	DB	't', 00H, 'y', 00H, 'p', 00H, 'e', 00H, 's', 00H, '<', 00H, 's'
	DB	00H, 't', 00H, 'r', 00H, 'u', 00H, 'c', 00H, 't', 00H, ' ', 00H
	DB	'T', 00H, 'e', 00H, 'l', 00H, 'e', 00H, 'g', 00H, 'r', 00H, 'a'
	DB	00H, 'm', 00H, '>', 00H, ' ', 00H, '>', 00H, ' ', 00H, '>', 00H
	DB	':', 00H, ':', 00H, 'o', 00H, 'p', 00H, 'e', 00H, 'r', 00H, 'a'
	DB	00H, 't', 00H, 'o', 00H, 'r', 00H, ' ', 00H, '+', 00H, '+', 00H
	DB	00H, 00H					; `string'
CONST	ENDS
;	COMDAT ??_C@_1EG@EHJFMBHJ@?$AAm?$AAa?$AAp?$AA?1?$AAs?$AAe?$AAt?$AA?5?$AAi?$AAt?$AAe?$AAr?$AAa?$AAt?$AAo?$AAr?$AA?5?$AAn?$AAo?$AAt?$AA?5?$AAi?$AAn?$AAc?$AAr?$AAe?$AAm?$AAe?$AAn?$AAt?$AAa?$AAb@
CONST	SEGMENT
??_C@_1EG@EHJFMBHJ@?$AAm?$AAa?$AAp?$AA?1?$AAs?$AAe?$AAt?$AA?5?$AAi?$AAt?$AAe?$AAr?$AAa?$AAt?$AAo?$AAr?$AA?5?$AAn?$AAo?$AAt?$AA?5?$AAi?$AAn?$AAc?$AAr?$AAe?$AAm?$AAe?$AAn?$AAt?$AAa?$AAb@ DB 'm'
	DB	00H, 'a', 00H, 'p', 00H, '/', 00H, 's', 00H, 'e', 00H, 't', 00H
	DB	' ', 00H, 'i', 00H, 't', 00H, 'e', 00H, 'r', 00H, 'a', 00H, 't'
	DB	00H, 'o', 00H, 'r', 00H, ' ', 00H, 'n', 00H, 'o', 00H, 't', 00H
	DB	' ', 00H, 'i', 00H, 'n', 00H, 'c', 00H, 'r', 00H, 'e', 00H, 'm'
	DB	00H, 'e', 00H, 'n', 00H, 't', 00H, 'a', 00H, 'b', 00H, 'l', 00H
	DB	'e', 00H, 00H, 00H				; `string'
CONST	ENDS
;	COMDAT ??_C@_1EK@PPDBPCAN@?$AAm?$AAa?$AAp?$AA?1?$AAs?$AAe?$AAt?$AA?5?$AAe?$AAr?$AAa?$AAs?$AAe?$AA?5?$AAi?$AAt?$AAe?$AAr?$AAa?$AAt?$AAo?$AAr?$AA?5?$AAo?$AAu?$AAt?$AAs?$AAi?$AAd?$AAe?$AA?5?$AAr@
CONST	SEGMENT
??_C@_1EK@PPDBPCAN@?$AAm?$AAa?$AAp?$AA?1?$AAs?$AAe?$AAt?$AA?5?$AAe?$AAr?$AAa?$AAs?$AAe?$AA?5?$AAi?$AAt?$AAe?$AAr?$AAa?$AAt?$AAo?$AAr?$AA?5?$AAo?$AAu?$AAt?$AAs?$AAi?$AAd?$AAe?$AA?5?$AAr@ DB 'm'
	DB	00H, 'a', 00H, 'p', 00H, '/', 00H, 's', 00H, 'e', 00H, 't', 00H
	DB	' ', 00H, 'e', 00H, 'r', 00H, 'a', 00H, 's', 00H, 'e', 00H, ' '
	DB	00H, 'i', 00H, 't', 00H, 'e', 00H, 'r', 00H, 'a', 00H, 't', 00H
	DB	'o', 00H, 'r', 00H, ' ', 00H, 'o', 00H, 'u', 00H, 't', 00H, 's'
	DB	00H, 'i', 00H, 'd', 00H, 'e', 00H, ' ', 00H, 'r', 00H, 'a', 00H
	DB	'n', 00H, 'g', 00H, 'e', 00H, 00H, 00H	; `string'
CONST	ENDS
;	COMDAT ??_C@_1NO@FBLHDHCP@?$AAs?$AAt?$AAd?$AA?3?$AA?3?$AA_?$AAT?$AAr?$AAe?$AAe?$AA_?$AAc?$AAo?$AAn?$AAs?$AAt?$AA_?$AAi?$AAt?$AAe?$AAr?$AAa?$AAt?$AAo?$AAr?$AA?$DM?$AAc?$AAl?$AAa?$AAs?$AAs?$AA?5@
CONST	SEGMENT
??_C@_1NO@FBLHDHCP@?$AAs?$AAt?$AAd?$AA?3?$AA?3?$AA_?$AAT?$AAr?$AAe?$AAe?$AA_?$AAc?$AAo?$AAn?$AAs?$AAt?$AA_?$AAi?$AAt?$AAe?$AAr?$AAa?$AAt?$AAo?$AAr?$AA?$DM?$AAc?$AAl?$AAa?$AAs?$AAs?$AA?5@ DB 's'
	DB	00H, 't', 00H, 'd', 00H, ':', 00H, ':', 00H, '_', 00H, 'T', 00H
	DB	'r', 00H, 'e', 00H, 'e', 00H, '_', 00H, 'c', 00H, 'o', 00H, 'n'
	DB	00H, 's', 00H, 't', 00H, '_', 00H, 'i', 00H, 't', 00H, 'e', 00H
	DB	'r', 00H, 'a', 00H, 't', 00H, 'o', 00H, 'r', 00H, '<', 00H, 'c'
	DB	00H, 'l', 00H, 'a', 00H, 's', 00H, 's', 00H, ' ', 00H, 's', 00H
	DB	't', 00H, 'd', 00H, ':', 00H, ':', 00H, '_', 00H, 'T', 00H, 'r'
	DB	00H, 'e', 00H, 'e', 00H, '_', 00H, 'v', 00H, 'a', 00H, 'l', 00H
	DB	'<', 00H, 's', 00H, 't', 00H, 'r', 00H, 'u', 00H, 'c', 00H, 't'
	DB	00H, ' ', 00H, 's', 00H, 't', 00H, 'd', 00H, ':', 00H, ':', 00H
	DB	'_', 00H, 'T', 00H, 'r', 00H, 'e', 00H, 'e', 00H, '_', 00H, 's'
	DB	00H, 'i', 00H, 'm', 00H, 'p', 00H, 'l', 00H, 'e', 00H, '_', 00H
	DB	't', 00H, 'y', 00H, 'p', 00H, 'e', 00H, 's', 00H, '<', 00H, 's'
	DB	00H, 't', 00H, 'r', 00H, 'u', 00H, 'c', 00H, 't', 00H, ' ', 00H
	DB	'T', 00H, 'e', 00H, 'l', 00H, 'e', 00H, 'g', 00H, 'r', 00H, 'a'
	DB	00H, 'm', 00H, '>', 00H, ' ', 00H, '>', 00H, ' ', 00H, '>', 00H
	DB	':', 00H, ':', 00H, 'o', 00H, 'p', 00H, 'e', 00H, 'r', 00H, 'a'
	DB	00H, 't', 00H, 'o', 00H, 'r', 00H, ' ', 00H, '*', 00H, 00H, 00H ; `string'
CONST	ENDS
;	COMDAT ??_C@_1EI@FHEHNNNM@?$AAm?$AAa?$AAp?$AA?1?$AAs?$AAe?$AAt?$AA?5?$AAi?$AAt?$AAe?$AAr?$AAa?$AAt?$AAo?$AAr?$AA?5?$AAn?$AAo?$AAt?$AA?5?$AAd?$AAe?$AAr?$AAe?$AAf?$AAe?$AAr?$AAe?$AAn?$AAc?$AAa@
CONST	SEGMENT
??_C@_1EI@FHEHNNNM@?$AAm?$AAa?$AAp?$AA?1?$AAs?$AAe?$AAt?$AA?5?$AAi?$AAt?$AAe?$AAr?$AAa?$AAt?$AAo?$AAr?$AA?5?$AAn?$AAo?$AAt?$AA?5?$AAd?$AAe?$AAr?$AAe?$AAf?$AAe?$AAr?$AAe?$AAn?$AAc?$AAa@ DB 'm'
	DB	00H, 'a', 00H, 'p', 00H, '/', 00H, 's', 00H, 'e', 00H, 't', 00H
	DB	' ', 00H, 'i', 00H, 't', 00H, 'e', 00H, 'r', 00H, 'a', 00H, 't'
	DB	00H, 'o', 00H, 'r', 00H, ' ', 00H, 'n', 00H, 'o', 00H, 't', 00H
	DB	' ', 00H, 'd', 00H, 'e', 00H, 'r', 00H, 'e', 00H, 'f', 00H, 'e'
	DB	00H, 'r', 00H, 'e', 00H, 'n', 00H, 'c', 00H, 'a', 00H, 'b', 00H
	DB	'l', 00H, 'e', 00H, 00H, 00H			; `string'
CONST	ENDS
;	COMDAT ??_C@_1IK@BEABFJGP@?$AAC?$AA?3?$AA?2?$AAP?$AAr?$AAo?$AAg?$AAr?$AAa?$AAm?$AA?5?$AAF?$AAi?$AAl?$AAe?$AAs?$AA?5?$AA?$CI?$AAx?$AA8?$AA6?$AA?$CJ?$AA?2?$AAM?$AAi?$AAc?$AAr?$AAo?$AAs?$AAo?$AAf?$AAt@
CONST	SEGMENT
??_C@_1IK@BEABFJGP@?$AAC?$AA?3?$AA?2?$AAP?$AAr?$AAo?$AAg?$AAr?$AAa?$AAm?$AA?5?$AAF?$AAi?$AAl?$AAe?$AAs?$AA?5?$AA?$CI?$AAx?$AA8?$AA6?$AA?$CJ?$AA?2?$AAM?$AAi?$AAc?$AAr?$AAo?$AAs?$AAo?$AAf?$AAt@ DB 'C'
	DB	00H, ':', 00H, '\', 00H, 'P', 00H, 'r', 00H, 'o', 00H, 'g', 00H
	DB	'r', 00H, 'a', 00H, 'm', 00H, ' ', 00H, 'F', 00H, 'i', 00H, 'l'
	DB	00H, 'e', 00H, 's', 00H, ' ', 00H, '(', 00H, 'x', 00H, '8', 00H
	DB	'6', 00H, ')', 00H, '\', 00H, 'M', 00H, 'i', 00H, 'c', 00H, 'r'
	DB	00H, 'o', 00H, 's', 00H, 'o', 00H, 'f', 00H, 't', 00H, ' ', 00H
	DB	'V', 00H, 'i', 00H, 's', 00H, 'u', 00H, 'a', 00H, 'l', 00H, ' '
	DB	00H, 'S', 00H, 't', 00H, 'u', 00H, 'd', 00H, 'i', 00H, 'o', 00H
	DB	' ', 00H, '1', 00H, '4', 00H, '.', 00H, '0', 00H, '\', 00H, 'V'
	DB	00H, 'C', 00H, '\', 00H, 'i', 00H, 'n', 00H, 'c', 00H, 'l', 00H
	DB	'u', 00H, 'd', 00H, 'e', 00H, '\', 00H, 'x', 00H, 't', 00H, 'r'
	DB	00H, 'e', 00H, 'e', 00H, 00H, 00H		; `string'
CONST	ENDS
;	COMDAT ??_C@_1BO@MEPPHOO@?$AA?$CC?$AAo?$AAu?$AAt?$AA?5?$AAo?$AAf?$AA?5?$AAr?$AAa?$AAn?$AAg?$AAe?$AA?$CC?$AA?$AA@
CONST	SEGMENT
??_C@_1BO@MEPPHOO@?$AA?$CC?$AAo?$AAu?$AAt?$AA?5?$AAo?$AAf?$AA?5?$AAr?$AAa?$AAn?$AAg?$AAe?$AA?$CC?$AA?$AA@ DB '"'
	DB	00H, 'o', 00H, 'u', 00H, 't', 00H, ' ', 00H, 'o', 00H, 'f', 00H
	DB	' ', 00H, 'r', 00H, 'a', 00H, 'n', 00H, 'g', 00H, 'e', 00H, '"'
	DB	00H, 00H, 00H				; `string'
CONST	ENDS
;	COMDAT ??_C@_1FG@IBPIFFN@?$AA?$CC?$AAS?$AAt?$AAa?$AAn?$AAd?$AAa?$AAr?$AAd?$AA?5?$AAC?$AA?$CL?$AA?$CL?$AA?5?$AAL?$AAi?$AAb?$AAr?$AAa?$AAr?$AAi?$AAe?$AAs?$AA?5?$AAO?$AAu?$AAt?$AA?5?$AAo?$AAf?$AA?5?$AAR@
CONST	SEGMENT
??_C@_1FG@IBPIFFN@?$AA?$CC?$AAS?$AAt?$AAa?$AAn?$AAd?$AAa?$AAr?$AAd?$AA?5?$AAC?$AA?$CL?$AA?$CL?$AA?5?$AAL?$AAi?$AAb?$AAr?$AAa?$AAr?$AAi?$AAe?$AAs?$AA?5?$AAO?$AAu?$AAt?$AA?5?$AAo?$AAf?$AA?5?$AAR@ DB '"'
	DB	00H, 'S', 00H, 't', 00H, 'a', 00H, 'n', 00H, 'd', 00H, 'a', 00H
	DB	'r', 00H, 'd', 00H, ' ', 00H, 'C', 00H, '+', 00H, '+', 00H, ' '
	DB	00H, 'L', 00H, 'i', 00H, 'b', 00H, 'r', 00H, 'a', 00H, 'r', 00H
	DB	'i', 00H, 'e', 00H, 's', 00H, ' ', 00H, 'O', 00H, 'u', 00H, 't'
	DB	00H, ' ', 00H, 'o', 00H, 'f', 00H, ' ', 00H, 'R', 00H, 'a', 00H
	DB	'n', 00H, 'g', 00H, 'e', 00H, '"', 00H, ' ', 00H, '&', 00H, '&'
	DB	00H, ' ', 00H, '0', 00H, 00H, 00H		; `string'
CONST	ENDS
;	COMDAT ??_C@_0CE@OFMIGAMM@Standard?5C?$CL?$CL?5Libraries?5Out?5of?5Ra@
CONST	SEGMENT
??_C@_0CE@OFMIGAMM@Standard?5C?$CL?$CL?5Libraries?5Out?5of?5Ra@ DB 'Stand'
	DB	'ard C++ Libraries Out of Range', 00H	; `string'
CONST	ENDS
;	COMDAT ??_C@_1GI@DHJGPFNI@?$AA?$CC?$AA_?$AAP?$AAt?$AAr?$AA_?$AAu?$AAs?$AAe?$AAr?$AA?5?$AA?9?$AA?5?$AA_?$AAP?$AAt?$AAr?$AA_?$AAc?$AAo?$AAn?$AAt?$AAa?$AAi?$AAn?$AAe?$AAr?$AA?5?$AA?$DM?$AA?$DN?$AA?5?$AA_@
CONST	SEGMENT
??_C@_1GI@DHJGPFNI@?$AA?$CC?$AA_?$AAP?$AAt?$AAr?$AA_?$AAu?$AAs?$AAe?$AAr?$AA?5?$AA?9?$AA?5?$AA_?$AAP?$AAt?$AAr?$AA_?$AAc?$AAo?$AAn?$AAt?$AAa?$AAi?$AAn?$AAe?$AAr?$AA?5?$AA?$DM?$AA?$DN?$AA?5?$AA_@ DB '"'
	DB	00H, '_', 00H, 'P', 00H, 't', 00H, 'r', 00H, '_', 00H, 'u', 00H
	DB	's', 00H, 'e', 00H, 'r', 00H, ' ', 00H, '-', 00H, ' ', 00H, '_'
	DB	00H, 'P', 00H, 't', 00H, 'r', 00H, '_', 00H, 'c', 00H, 'o', 00H
	DB	'n', 00H, 't', 00H, 'a', 00H, 'i', 00H, 'n', 00H, 'e', 00H, 'r'
	DB	00H, ' ', 00H, '<', 00H, '=', 00H, ' ', 00H, '_', 00H, 'N', 00H
	DB	'O', 00H, 'N', 00H, '_', 00H, 'U', 00H, 'S', 00H, 'E', 00H, 'R'
	DB	00H, '_', 00H, 'S', 00H, 'I', 00H, 'Z', 00H, 'E', 00H, '"', 00H
	DB	' ', 00H, '&', 00H, '&', 00H, ' ', 00H, '0', 00H, 00H, 00H ; `string'
CONST	ENDS
;	COMDAT ??_C@_0CN@BLHJCAL@_Ptr_user?5?9?5_Ptr_container?5?$DM?$DN?5_N@
CONST	SEGMENT
??_C@_0CN@BLHJCAL@_Ptr_user?5?9?5_Ptr_container?5?$DM?$DN?5_N@ DB '_Ptr_u'
	DB	'ser - _Ptr_container <= _NON_USER_SIZE', 00H ; `string'
CONST	ENDS
;	COMDAT ??_C@_1HA@NAPGMHAO@?$AA?$CC?$AA2?$AA?5?$AA?$CK?$AA?5?$AAs?$AAi?$AAz?$AAe?$AAo?$AAf?$AA?$CI?$AAv?$AAo?$AAi?$AAd?$AA?5?$AA?$CK?$AA?$CJ?$AA?5?$AA?$DM?$AA?$DN?$AA?5?$AA_?$AAP?$AAt?$AAr?$AA_?$AAu?$AAs?$AAe?$AAr@
CONST	SEGMENT
??_C@_1HA@NAPGMHAO@?$AA?$CC?$AA2?$AA?5?$AA?$CK?$AA?5?$AAs?$AAi?$AAz?$AAe?$AAo?$AAf?$AA?$CI?$AAv?$AAo?$AAi?$AAd?$AA?5?$AA?$CK?$AA?$CJ?$AA?5?$AA?$DM?$AA?$DN?$AA?5?$AA_?$AAP?$AAt?$AAr?$AA_?$AAu?$AAs?$AAe?$AAr@ DB '"'
	DB	00H, '2', 00H, ' ', 00H, '*', 00H, ' ', 00H, 's', 00H, 'i', 00H
	DB	'z', 00H, 'e', 00H, 'o', 00H, 'f', 00H, '(', 00H, 'v', 00H, 'o'
	DB	00H, 'i', 00H, 'd', 00H, ' ', 00H, '*', 00H, ')', 00H, ' ', 00H
	DB	'<', 00H, '=', 00H, ' ', 00H, '_', 00H, 'P', 00H, 't', 00H, 'r'
	DB	00H, '_', 00H, 'u', 00H, 's', 00H, 'e', 00H, 'r', 00H, ' ', 00H
	DB	'-', 00H, ' ', 00H, '_', 00H, 'P', 00H, 't', 00H, 'r', 00H, '_'
	DB	00H, 'c', 00H, 'o', 00H, 'n', 00H, 't', 00H, 'a', 00H, 'i', 00H
	DB	'n', 00H, 'e', 00H, 'r', 00H, '"', 00H, ' ', 00H, '&', 00H, '&'
	DB	00H, ' ', 00H, '0', 00H, 00H, 00H		; `string'
CONST	ENDS
;	COMDAT ??_C@_0DB@GLFJLNCE@2?5?$CK?5sizeof?$CIvoid?5?$CK?$CJ?5?$DM?$DN?5_Ptr_user?5@
CONST	SEGMENT
??_C@_0DB@GLFJLNCE@2?5?$CK?5sizeof?$CIvoid?5?$CK?$CJ?5?$DM?$DN?5_Ptr_user?5@ DB '2'
	DB	' * sizeof(void *) <= _Ptr_user - _Ptr_container', 00H ; `string'
CONST	ENDS
;	COMDAT ??_C@_1EE@PDHAHDDC@?$AA?$CC?$AA_?$AAP?$AAt?$AAr?$AA_?$AAc?$AAo?$AAn?$AAt?$AAa?$AAi?$AAn?$AAe?$AAr?$AA?5?$AA?$DM?$AA?5?$AA_?$AAP?$AAt?$AAr?$AA_?$AAu?$AAs?$AAe?$AAr?$AA?$CC?$AA?5?$AA?$CG?$AA?$CG?$AA?5@
CONST	SEGMENT
??_C@_1EE@PDHAHDDC@?$AA?$CC?$AA_?$AAP?$AAt?$AAr?$AA_?$AAc?$AAo?$AAn?$AAt?$AAa?$AAi?$AAn?$AAe?$AAr?$AA?5?$AA?$DM?$AA?5?$AA_?$AAP?$AAt?$AAr?$AA_?$AAu?$AAs?$AAe?$AAr?$AA?$CC?$AA?5?$AA?$CG?$AA?$CG?$AA?5@ DB '"'
	DB	00H, '_', 00H, 'P', 00H, 't', 00H, 'r', 00H, '_', 00H, 'c', 00H
	DB	'o', 00H, 'n', 00H, 't', 00H, 'a', 00H, 'i', 00H, 'n', 00H, 'e'
	DB	00H, 'r', 00H, ' ', 00H, '<', 00H, ' ', 00H, '_', 00H, 'P', 00H
	DB	't', 00H, 'r', 00H, '_', 00H, 'u', 00H, 's', 00H, 'e', 00H, 'r'
	DB	00H, '"', 00H, ' ', 00H, '&', 00H, '&', 00H, ' ', 00H, '0', 00H
	DB	00H, 00H					; `string'
CONST	ENDS
;	COMDAT ??_C@_0BL@OCKMEJON@_Ptr_container?5?$DM?5_Ptr_user?$AA@
CONST	SEGMENT
??_C@_0BL@OCKMEJON@_Ptr_container?5?$DM?5_Ptr_user?$AA@ DB '_Ptr_containe'
	DB	'r < _Ptr_user', 00H				; `string'
CONST	ENDS
;	COMDAT ??_C@_1JO@EKLKIEHP@?$AA?$CC?$AAr?$AAe?$AAi?$AAn?$AAt?$AAe?$AAr?$AAp?$AAr?$AAe?$AAt?$AA_?$AAc?$AAa?$AAs?$AAt?$AA?$DM?$AAu?$AAi?$AAn?$AAt?$AAp?$AAt?$AAr?$AA_?$AAt?$AA?5?$AA?$CK?$AA?$DO?$AA?$CI?$AA_@
CONST	SEGMENT
??_C@_1JO@EKLKIEHP@?$AA?$CC?$AAr?$AAe?$AAi?$AAn?$AAt?$AAe?$AAr?$AAp?$AAr?$AAe?$AAt?$AA_?$AAc?$AAa?$AAs?$AAt?$AA?$DM?$AAu?$AAi?$AAn?$AAt?$AAp?$AAt?$AAr?$AA_?$AAt?$AA?5?$AA?$CK?$AA?$DO?$AA?$CI?$AA_@ DB '"'
	DB	00H, 'r', 00H, 'e', 00H, 'i', 00H, 'n', 00H, 't', 00H, 'e', 00H
	DB	'r', 00H, 'p', 00H, 'r', 00H, 'e', 00H, 't', 00H, '_', 00H, 'c'
	DB	00H, 'a', 00H, 's', 00H, 't', 00H, '<', 00H, 'u', 00H, 'i', 00H
	DB	'n', 00H, 't', 00H, 'p', 00H, 't', 00H, 'r', 00H, '_', 00H, 't'
	DB	00H, ' ', 00H, '*', 00H, '>', 00H, '(', 00H, '_', 00H, 'P', 00H
	DB	't', 00H, 'r', 00H, '_', 00H, 'p', 00H, 't', 00H, 'r', 00H, ')'
	DB	00H, '[', 00H, '-', 00H, '1', 00H, ']', 00H, ' ', 00H, '=', 00H
	DB	'=', 00H, ' ', 00H, '_', 00H, 'B', 00H, 'I', 00H, 'G', 00H, '_'
	DB	00H, 'A', 00H, 'L', 00H, 'L', 00H, 'O', 00H, 'C', 00H, 'A', 00H
	DB	'T', 00H, 'I', 00H, 'O', 00H, 'N', 00H, '_', 00H, 'S', 00H, 'E'
	DB	00H, 'N', 00H, 'T', 00H, 'I', 00H, 'N', 00H, 'E', 00H, 'L', 00H
	DB	'"', 00H, ' ', 00H, '&', 00H, '&', 00H, ' ', 00H, '0', 00H, 00H
	DB	00H						; `string'
CONST	ENDS
;	COMDAT ??_C@_0EI@NOJHEJCJ@reinterpret_cast?$DMuintptr_t?5?$CK?$DO?$CI_P@
CONST	SEGMENT
??_C@_0EI@NOJHEJCJ@reinterpret_cast?$DMuintptr_t?5?$CK?$DO?$CI_P@ DB 'rei'
	DB	'nterpret_cast<uintptr_t *>(_Ptr_ptr)[-1] == _BIG_ALLOCATION_S'
	DB	'ENTINEL', 00H				; `string'
CONST	ENDS
;	COMDAT ??_C@_1HE@CDMBFOKC@?$AA?$CC?$AA?$CI?$AA_?$AAP?$AAt?$AAr?$AA_?$AAu?$AAs?$AAe?$AAr?$AA?5?$AA?$CG?$AA?5?$AA?$CI?$AA_?$AAB?$AAI?$AAG?$AA_?$AAA?$AAL?$AAL?$AAO?$AAC?$AAA?$AAT?$AAI?$AAO?$AAN?$AA_?$AAA@
CONST	SEGMENT
??_C@_1HE@CDMBFOKC@?$AA?$CC?$AA?$CI?$AA_?$AAP?$AAt?$AAr?$AA_?$AAu?$AAs?$AAe?$AAr?$AA?5?$AA?$CG?$AA?5?$AA?$CI?$AA_?$AAB?$AAI?$AAG?$AA_?$AAA?$AAL?$AAL?$AAO?$AAC?$AAA?$AAT?$AAI?$AAO?$AAN?$AA_?$AAA@ DB '"'
	DB	00H, '(', 00H, '_', 00H, 'P', 00H, 't', 00H, 'r', 00H, '_', 00H
	DB	'u', 00H, 's', 00H, 'e', 00H, 'r', 00H, ' ', 00H, '&', 00H, ' '
	DB	00H, '(', 00H, '_', 00H, 'B', 00H, 'I', 00H, 'G', 00H, '_', 00H
	DB	'A', 00H, 'L', 00H, 'L', 00H, 'O', 00H, 'C', 00H, 'A', 00H, 'T'
	DB	00H, 'I', 00H, 'O', 00H, 'N', 00H, '_', 00H, 'A', 00H, 'L', 00H
	DB	'I', 00H, 'G', 00H, 'N', 00H, 'M', 00H, 'E', 00H, 'N', 00H, 'T'
	DB	00H, ' ', 00H, '-', 00H, ' ', 00H, '1', 00H, ')', 00H, ')', 00H
	DB	' ', 00H, '=', 00H, '=', 00H, ' ', 00H, '0', 00H, '"', 00H, ' '
	DB	00H, '&', 00H, '&', 00H, ' ', 00H, '0', 00H, 00H, 00H ; `string'
CONST	ENDS
;	COMDAT ??_C@_0DD@GBGGGKGG@?$CI_Ptr_user?5?$CG?5?$CI_BIG_ALLOCATION_AL@
CONST	SEGMENT
??_C@_0DD@GBGGGKGG@?$CI_Ptr_user?5?$CG?5?$CI_BIG_ALLOCATION_AL@ DB '(_Ptr'
	DB	'_user & (_BIG_ALLOCATION_ALIGNMENT - 1)) == 0', 00H ; `string'
CONST	ENDS
;	COMDAT ??_C@_1CC@LOFJFFDB@?$AAs?$AAt?$AAd?$AA?3?$AA?3?$AA_?$AAD?$AAe?$AAa?$AAl?$AAl?$AAo?$AAc?$AAa?$AAt?$AAe?$AA?$AA@
CONST	SEGMENT
??_C@_1CC@LOFJFFDB@?$AAs?$AAt?$AAd?$AA?3?$AA?3?$AA_?$AAD?$AAe?$AAa?$AAl?$AAl?$AAo?$AAc?$AAa?$AAt?$AAe?$AA?$AA@ DB 's'
	DB	00H, 't', 00H, 'd', 00H, ':', 00H, ':', 00H, '_', 00H, 'D', 00H
	DB	'e', 00H, 'a', 00H, 'l', 00H, 'l', 00H, 'o', 00H, 'c', 00H, 'a'
	DB	00H, 't', 00H, 'e', 00H, 00H, 00H		; `string'
CONST	ENDS
;	COMDAT ??_C@_1EI@MLOBABC@?$AA?$CC?$AA_?$AAC?$AAo?$AAu?$AAn?$AAt?$AA?5?$AA?$DM?$AA?$DN?$AA?5?$AA?$CI?$AAs?$AAi?$AAz?$AAe?$AA_?$AAt?$AA?$CJ?$AA?$CI?$AA?9?$AA1?$AA?$CJ?$AA?5?$AA?1?$AA?5?$AA_?$AAS?$AAz?$AA?$CC?$AA?5?$AA?$CG@
CONST	SEGMENT
??_C@_1EI@MLOBABC@?$AA?$CC?$AA_?$AAC?$AAo?$AAu?$AAn?$AAt?$AA?5?$AA?$DM?$AA?$DN?$AA?5?$AA?$CI?$AAs?$AAi?$AAz?$AAe?$AA_?$AAt?$AA?$CJ?$AA?$CI?$AA?9?$AA1?$AA?$CJ?$AA?5?$AA?1?$AA?5?$AA_?$AAS?$AAz?$AA?$CC?$AA?5?$AA?$CG@ DB '"'
	DB	00H, '_', 00H, 'C', 00H, 'o', 00H, 'u', 00H, 'n', 00H, 't', 00H
	DB	' ', 00H, '<', 00H, '=', 00H, ' ', 00H, '(', 00H, 's', 00H, 'i'
	DB	00H, 'z', 00H, 'e', 00H, '_', 00H, 't', 00H, ')', 00H, '(', 00H
	DB	'-', 00H, '1', 00H, ')', 00H, ' ', 00H, '/', 00H, ' ', 00H, '_'
	DB	00H, 'S', 00H, 'z', 00H, '"', 00H, ' ', 00H, '&', 00H, '&', 00H
	DB	' ', 00H, '0', 00H, 00H, 00H			; `string'
CONST	ENDS
;	COMDAT ??_C@_0BN@HMCJOMKN@_Count?5?$DM?$DN?5?$CIsize_t?$CJ?$CI?91?$CJ?5?1?5_Sz?$AA@
CONST	SEGMENT
??_C@_0BN@HMCJOMKN@_Count?5?$DM?$DN?5?$CIsize_t?$CJ?$CI?91?$CJ?5?1?5_Sz?$AA@ DB '_'
	DB	'Count <= (size_t)(-1) / _Sz', 00H		; `string'
CONST	ENDS
;	COMDAT ??_C@_1CC@GKJLLHIM@?$AA?$CC?$AA_?$AAP?$AAt?$AAr?$AA?5?$AA?$CB?$AA?$DN?$AA?5?$AA0?$AA?$CC?$AA?5?$AA?$CG?$AA?$CG?$AA?5?$AA0?$AA?$AA@
CONST	SEGMENT
??_C@_1CC@GKJLLHIM@?$AA?$CC?$AA_?$AAP?$AAt?$AAr?$AA?5?$AA?$CB?$AA?$DN?$AA?5?$AA0?$AA?$CC?$AA?5?$AA?$CG?$AA?$CG?$AA?5?$AA0?$AA?$AA@ DB '"'
	DB	00H, '_', 00H, 'P', 00H, 't', 00H, 'r', 00H, ' ', 00H, '!', 00H
	DB	'=', 00H, ' ', 00H, '0', 00H, '"', 00H, ' ', 00H, '&', 00H, '&'
	DB	00H, ' ', 00H, '0', 00H, 00H, 00H		; `string'
CONST	ENDS
;	COMDAT ??_C@_09GLJCAGLP@_Ptr?5?$CB?$DN?50?$AA@
CONST	SEGMENT
??_C@_09GLJCAGLP@_Ptr?5?$CB?$DN?50?$AA@ DB '_Ptr != 0', 00H ; `string'
CONST	ENDS
;	COMDAT ??_C@_1CG@JNLFBNGN@?$AA?$CC?$AAi?$AAn?$AAv?$AAa?$AAl?$AAi?$AAd?$AA?5?$AAa?$AAr?$AAg?$AAu?$AAm?$AAe?$AAn?$AAt?$AA?$CC?$AA?$AA@
CONST	SEGMENT
??_C@_1CG@JNLFBNGN@?$AA?$CC?$AAi?$AAn?$AAv?$AAa?$AAl?$AAi?$AAd?$AA?5?$AAa?$AAr?$AAg?$AAu?$AAm?$AAe?$AAn?$AAt?$AA?$CC?$AA?$AA@ DB '"'
	DB	00H, 'i', 00H, 'n', 00H, 'v', 00H, 'a', 00H, 'l', 00H, 'i', 00H
	DB	'd', 00H, ' ', 00H, 'a', 00H, 'r', 00H, 'g', 00H, 'u', 00H, 'm'
	DB	00H, 'e', 00H, 'n', 00H, 't', 00H, '"', 00H, 00H, 00H ; `string'
CONST	ENDS
;	COMDAT ??_C@_1BO@NKFMJPA@?$AAs?$AAt?$AAd?$AA?3?$AA?3?$AA_?$AAA?$AAl?$AAl?$AAo?$AAc?$AAa?$AAt?$AAe?$AA?$AA@
CONST	SEGMENT
??_C@_1BO@NKFMJPA@?$AAs?$AAt?$AAd?$AA?3?$AA?3?$AA_?$AAA?$AAl?$AAl?$AAo?$AAc?$AAa?$AAt?$AAe?$AA?$AA@ DB 's'
	DB	00H, 't', 00H, 'd', 00H, ':', 00H, ':', 00H, '_', 00H, 'A', 00H
	DB	'l', 00H, 'l', 00H, 'o', 00H, 'c', 00H, 'a', 00H, 't', 00H, 'e'
	DB	00H, 00H, 00H				; `string'
CONST	ENDS
;	COMDAT ??_C@_1JA@HEEMAOGC@?$AAC?$AA?3?$AA?2?$AAP?$AAr?$AAo?$AAg?$AAr?$AAa?$AAm?$AA?5?$AAF?$AAi?$AAl?$AAe?$AAs?$AA?5?$AA?$CI?$AAx?$AA8?$AA6?$AA?$CJ?$AA?2?$AAM?$AAi?$AAc?$AAr?$AAo?$AAs?$AAo?$AAf?$AAt@
CONST	SEGMENT
??_C@_1JA@HEEMAOGC@?$AAC?$AA?3?$AA?2?$AAP?$AAr?$AAo?$AAg?$AAr?$AAa?$AAm?$AA?5?$AAF?$AAi?$AAl?$AAe?$AAs?$AA?5?$AA?$CI?$AAx?$AA8?$AA6?$AA?$CJ?$AA?2?$AAM?$AAi?$AAc?$AAr?$AAo?$AAs?$AAo?$AAf?$AAt@ DB 'C'
	DB	00H, ':', 00H, '\', 00H, 'P', 00H, 'r', 00H, 'o', 00H, 'g', 00H
	DB	'r', 00H, 'a', 00H, 'm', 00H, ' ', 00H, 'F', 00H, 'i', 00H, 'l'
	DB	00H, 'e', 00H, 's', 00H, ' ', 00H, '(', 00H, 'x', 00H, '8', 00H
	DB	'6', 00H, ')', 00H, '\', 00H, 'M', 00H, 'i', 00H, 'c', 00H, 'r'
	DB	00H, 'o', 00H, 's', 00H, 'o', 00H, 'f', 00H, 't', 00H, ' ', 00H
	DB	'V', 00H, 'i', 00H, 's', 00H, 'u', 00H, 'a', 00H, 'l', 00H, ' '
	DB	00H, 'S', 00H, 't', 00H, 'u', 00H, 'd', 00H, 'i', 00H, 'o', 00H
	DB	' ', 00H, '1', 00H, '4', 00H, '.', 00H, '0', 00H, '\', 00H, 'V'
	DB	00H, 'C', 00H, '\', 00H, 'i', 00H, 'n', 00H, 'c', 00H, 'l', 00H
	DB	'u', 00H, 'd', 00H, 'e', 00H, '\', 00H, 'x', 00H, 'm', 00H, 'e'
	DB	00H, 'm', 00H, 'o', 00H, 'r', 00H, 'y', 00H, '0', 00H, 00H, 00H ; `string'
CONST	ENDS
;	COMDAT ??_C@_17CNPHIMPH@?$AA?$CF?$AAl?$AAs?$AA?$AA@
CONST	SEGMENT
??_C@_17CNPHIMPH@?$AA?$CF?$AAl?$AAs?$AA?$AA@ DB '%', 00H, 'l', 00H, 's', 00H
	DB	00H, 00H					; `string'
CONST	ENDS
;	COMDAT ??_C@_1DG@HGDKEBPG@?$AA?$CC?$AA_?$AAP?$AAt?$AAr?$AA_?$AAc?$AAo?$AAn?$AAt?$AAa?$AAi?$AAn?$AAe?$AAr?$AA?5?$AA?$CB?$AA?$DN?$AA?5?$AA0?$AA?$CC?$AA?5?$AA?$CG?$AA?$CG?$AA?5?$AA0?$AA?$AA@
CONST	SEGMENT
??_C@_1DG@HGDKEBPG@?$AA?$CC?$AA_?$AAP?$AAt?$AAr?$AA_?$AAc?$AAo?$AAn?$AAt?$AAa?$AAi?$AAn?$AAe?$AAr?$AA?5?$AA?$CB?$AA?$DN?$AA?5?$AA0?$AA?$CC?$AA?5?$AA?$CG?$AA?$CG?$AA?5?$AA0?$AA?$AA@ DB '"'
	DB	00H, '_', 00H, 'P', 00H, 't', 00H, 'r', 00H, '_', 00H, 'c', 00H
	DB	'o', 00H, 'n', 00H, 't', 00H, 'a', 00H, 'i', 00H, 'n', 00H, 'e'
	DB	00H, 'r', 00H, ' ', 00H, '!', 00H, '=', 00H, ' ', 00H, '0', 00H
	DB	'"', 00H, ' ', 00H, '&', 00H, '&', 00H, ' ', 00H, '0', 00H, 00H
	DB	00H						; `string'
CONST	ENDS
;	COMDAT ??_C@_0BE@LMNLACIC@_Ptr_container?5?$CB?$DN?50?$AA@
CONST	SEGMENT
??_C@_0BE@LMNLACIC@_Ptr_container?5?$CB?$DN?50?$AA@ DB '_Ptr_container !='
	DB	' 0', 00H					; `string'
CONST	ENDS
;	COMDAT ??_C@_1DC@POOIKBAO@?$AAI?$AAT?$AAE?$AAR?$AAA?$AAT?$AAO?$AAR?$AA?5?$AAL?$AAI?$AAS?$AAT?$AA?5?$AAC?$AAO?$AAR?$AAR?$AAU?$AAP?$AAT?$AAE?$AAD?$AA?$CB?$AA?$AA@
CONST	SEGMENT
??_C@_1DC@POOIKBAO@?$AAI?$AAT?$AAE?$AAR?$AAA?$AAT?$AAO?$AAR?$AA?5?$AAL?$AAI?$AAS?$AAT?$AA?5?$AAC?$AAO?$AAR?$AAR?$AAU?$AAP?$AAT?$AAE?$AAD?$AA?$CB?$AA?$AA@ DB 'I'
	DB	00H, 'T', 00H, 'E', 00H, 'R', 00H, 'A', 00H, 'T', 00H, 'O', 00H
	DB	'R', 00H, ' ', 00H, 'L', 00H, 'I', 00H, 'S', 00H, 'T', 00H, ' '
	DB	00H, 'C', 00H, 'O', 00H, 'R', 00H, 'R', 00H, 'U', 00H, 'P', 00H
	DB	'T', 00H, 'E', 00H, 'D', 00H, '!', 00H, 00H, 00H ; `string'
CONST	ENDS
;	COMDAT ??_C@_1JA@IJKHNLMB@?$AAC?$AA?3?$AA?2?$AAP?$AAr?$AAo?$AAg?$AAr?$AAa?$AAm?$AA?5?$AAF?$AAi?$AAl?$AAe?$AAs?$AA?5?$AA?$CI?$AAx?$AA8?$AA6?$AA?$CJ?$AA?2?$AAM?$AAi?$AAc?$AAr?$AAo?$AAs?$AAo?$AAf?$AAt@
CONST	SEGMENT
??_C@_1JA@IJKHNLMB@?$AAC?$AA?3?$AA?2?$AAP?$AAr?$AAo?$AAg?$AAr?$AAa?$AAm?$AA?5?$AAF?$AAi?$AAl?$AAe?$AAs?$AA?5?$AA?$CI?$AAx?$AA8?$AA6?$AA?$CJ?$AA?2?$AAM?$AAi?$AAc?$AAr?$AAo?$AAs?$AAo?$AAf?$AAt@ DB 'C'
	DB	00H, ':', 00H, '\', 00H, 'P', 00H, 'r', 00H, 'o', 00H, 'g', 00H
	DB	'r', 00H, 'a', 00H, 'm', 00H, ' ', 00H, 'F', 00H, 'i', 00H, 'l'
	DB	00H, 'e', 00H, 's', 00H, ' ', 00H, '(', 00H, 'x', 00H, '8', 00H
	DB	'6', 00H, ')', 00H, '\', 00H, 'M', 00H, 'i', 00H, 'c', 00H, 'r'
	DB	00H, 'o', 00H, 's', 00H, 'o', 00H, 'f', 00H, 't', 00H, ' ', 00H
	DB	'V', 00H, 'i', 00H, 's', 00H, 'u', 00H, 'a', 00H, 'l', 00H, ' '
	DB	00H, 'S', 00H, 't', 00H, 'u', 00H, 'd', 00H, 'i', 00H, 'o', 00H
	DB	' ', 00H, '1', 00H, '4', 00H, '.', 00H, '0', 00H, '\', 00H, 'V'
	DB	00H, 'C', 00H, '\', 00H, 'i', 00H, 'n', 00H, 'c', 00H, 'l', 00H
	DB	'u', 00H, 'd', 00H, 'e', 00H, '\', 00H, 'x', 00H, 'u', 00H, 't'
	DB	00H, 'i', 00H, 'l', 00H, 'i', 00H, 't', 00H, 'y', 00H, 00H, 00H ; `string'
CONST	ENDS
;	COMDAT xdata$x
xdata$x	SEGMENT
__catchsym$??$_Buynode@ABUTelegram@@@?$_Tree_comp_alloc@V?$_Tset_traits@UTelegram@@U?$less@UTelegram@@@std@@V?$allocator@UTelegram@@@3@$0A@@std@@@std@@QAEPAU?$_Tree_node@UTelegram@@PAX@1@ABUTelegram@@@Z$2 DD 040H
	DD	00H
	DD	00H
	DD	FLAT:__catch$??$_Buynode@ABUTelegram@@@?$_Tree_comp_alloc@V?$_Tset_traits@UTelegram@@U?$less@UTelegram@@@std@@V?$allocator@UTelegram@@@3@$0A@@std@@@std@@QAEPAU?$_Tree_node@UTelegram@@PAX@1@ABUTelegram@@@Z$0
__unwindtable$??$_Buynode@ABUTelegram@@@?$_Tree_comp_alloc@V?$_Tset_traits@UTelegram@@U?$less@UTelegram@@@std@@V?$allocator@UTelegram@@@3@$0A@@std@@@std@@QAEPAU?$_Tree_node@UTelegram@@PAX@1@ABUTelegram@@@Z DD 0ffffffffH
	DD	00H
	DD	0ffffffffH
	DD	00H
__tryblocktable$??$_Buynode@ABUTelegram@@@?$_Tree_comp_alloc@V?$_Tset_traits@UTelegram@@U?$less@UTelegram@@@std@@V?$allocator@UTelegram@@@3@$0A@@std@@@std@@QAEPAU?$_Tree_node@UTelegram@@PAX@1@ABUTelegram@@@Z DD 00H
	DD	00H
	DD	01H
	DD	01H
	DD	FLAT:__catchsym$??$_Buynode@ABUTelegram@@@?$_Tree_comp_alloc@V?$_Tset_traits@UTelegram@@U?$less@UTelegram@@@std@@V?$allocator@UTelegram@@@3@$0A@@std@@@std@@QAEPAU?$_Tree_node@UTelegram@@PAX@1@ABUTelegram@@@Z$2
__ehfuncinfo$??$_Buynode@ABUTelegram@@@?$_Tree_comp_alloc@V?$_Tset_traits@UTelegram@@U?$less@UTelegram@@@std@@V?$allocator@UTelegram@@@3@$0A@@std@@@std@@QAEPAU?$_Tree_node@UTelegram@@PAX@1@ABUTelegram@@@Z DD 019930522H
	DD	02H
	DD	FLAT:__unwindtable$??$_Buynode@ABUTelegram@@@?$_Tree_comp_alloc@V?$_Tset_traits@UTelegram@@U?$less@UTelegram@@@std@@V?$allocator@UTelegram@@@3@$0A@@std@@@std@@QAEPAU?$_Tree_node@UTelegram@@PAX@1@ABUTelegram@@@Z
	DD	01H
	DD	FLAT:__tryblocktable$??$_Buynode@ABUTelegram@@@?$_Tree_comp_alloc@V?$_Tset_traits@UTelegram@@U?$less@UTelegram@@@std@@V?$allocator@UTelegram@@@3@$0A@@std@@@std@@QAEPAU?$_Tree_node@UTelegram@@PAX@1@ABUTelegram@@@Z
	DD	2 DUP(00H)
	DD	00H
	DD	01H
xdata$x	ENDS
;	COMDAT xdata$x
xdata$x	SEGMENT
__catchsym$??$_Insert_nohint@ABUTelegram@@U_Nil@std@@@?$_Tree@V?$_Tset_traits@UTelegram@@U?$less@UTelegram@@@std@@V?$allocator@UTelegram@@@3@$0A@@std@@@std@@IAE?AU?$pair@V?$_Tree_const_iterator@V?$_Tree_val@U?$_Tree_simple_types@UTelegram@@@std@@@std@@@std@@_N@1@_NABUTelegram@@U_Nil@1@@Z$8 DD 040H
	DD	00H
	DD	00H
	DD	FLAT:__catch$??$_Insert_nohint@ABUTelegram@@U_Nil@std@@@?$_Tree@V?$_Tset_traits@UTelegram@@U?$less@UTelegram@@@std@@V?$allocator@UTelegram@@@3@$0A@@std@@@std@@IAE?AU?$pair@V?$_Tree_const_iterator@V?$_Tree_val@U?$_Tree_simple_types@UTelegram@@@std@@@std@@@std@@_N@1@_NABUTelegram@@U_Nil@1@@Z$0
__tryblocktable$??$_Insert_nohint@ABUTelegram@@U_Nil@std@@@?$_Tree@V?$_Tset_traits@UTelegram@@U?$less@UTelegram@@@std@@V?$allocator@UTelegram@@@3@$0A@@std@@@std@@IAE?AU?$pair@V?$_Tree_const_iterator@V?$_Tree_val@U?$_Tree_simple_types@UTelegram@@@std@@@std@@@std@@_N@1@_NABUTelegram@@U_Nil@1@@Z DD 00H
	DD	05H
	DD	06H
	DD	01H
	DD	FLAT:__catchsym$??$_Insert_nohint@ABUTelegram@@U_Nil@std@@@?$_Tree@V?$_Tset_traits@UTelegram@@U?$less@UTelegram@@@std@@V?$allocator@UTelegram@@@3@$0A@@std@@@std@@IAE?AU?$pair@V?$_Tree_const_iterator@V?$_Tree_val@U?$_Tree_simple_types@UTelegram@@@std@@@std@@@std@@_N@1@_NABUTelegram@@U_Nil@1@@Z$8
__ehfuncinfo$??$_Insert_nohint@ABUTelegram@@U_Nil@std@@@?$_Tree@V?$_Tset_traits@UTelegram@@U?$less@UTelegram@@@std@@V?$allocator@UTelegram@@@3@$0A@@std@@@std@@IAE?AU?$pair@V?$_Tree_const_iterator@V?$_Tree_val@U?$_Tree_simple_types@UTelegram@@@std@@@std@@@std@@_N@1@_NABUTelegram@@U_Nil@1@@Z DD 019930522H
	DD	07H
	DD	FLAT:__unwindtable$??$_Insert_nohint@ABUTelegram@@U_Nil@std@@@?$_Tree@V?$_Tset_traits@UTelegram@@U?$less@UTelegram@@@std@@V?$allocator@UTelegram@@@3@$0A@@std@@@std@@IAE?AU?$pair@V?$_Tree_const_iterator@V?$_Tree_val@U?$_Tree_simple_types@UTelegram@@@std@@@std@@@std@@_N@1@_NABUTelegram@@U_Nil@1@@Z
	DD	01H
	DD	FLAT:__tryblocktable$??$_Insert_nohint@ABUTelegram@@U_Nil@std@@@?$_Tree@V?$_Tset_traits@UTelegram@@U?$less@UTelegram@@@std@@V?$allocator@UTelegram@@@3@$0A@@std@@@std@@IAE?AU?$pair@V?$_Tree_const_iterator@V?$_Tree_val@U?$_Tree_simple_types@UTelegram@@@std@@@std@@@std@@_N@1@_NABUTelegram@@U_Nil@1@@Z
	DD	2 DUP(00H)
	DD	00H
	DD	01H
__unwindtable$??$_Insert_nohint@ABUTelegram@@U_Nil@std@@@?$_Tree@V?$_Tset_traits@UTelegram@@U?$less@UTelegram@@@std@@V?$allocator@UTelegram@@@3@$0A@@std@@@std@@IAE?AU?$pair@V?$_Tree_const_iterator@V?$_Tree_val@U?$_Tree_simple_types@UTelegram@@@std@@@std@@@std@@_N@1@_NABUTelegram@@U_Nil@1@@Z DD 0ffffffffH
	DD	00H
	DD	00H
	DD	FLAT:__unwindfunclet$??$_Insert_nohint@ABUTelegram@@U_Nil@std@@@?$_Tree@V?$_Tset_traits@UTelegram@@U?$less@UTelegram@@@std@@V?$allocator@UTelegram@@@3@$0A@@std@@@std@@IAE?AU?$pair@V?$_Tree_const_iterator@V?$_Tree_val@U?$_Tree_simple_types@UTelegram@@@std@@@std@@@std@@_N@1@_NABUTelegram@@U_Nil@1@@Z$2
	DD	00H
	DD	FLAT:__unwindfunclet$??$_Insert_nohint@ABUTelegram@@U_Nil@std@@@?$_Tree@V?$_Tset_traits@UTelegram@@U?$less@UTelegram@@@std@@V?$allocator@UTelegram@@@3@$0A@@std@@@std@@IAE?AU?$pair@V?$_Tree_const_iterator@V?$_Tree_val@U?$_Tree_simple_types@UTelegram@@@std@@@std@@@std@@_N@1@_NABUTelegram@@U_Nil@1@@Z$4
	DD	02H
	DD	FLAT:__unwindfunclet$??$_Insert_nohint@ABUTelegram@@U_Nil@std@@@?$_Tree@V?$_Tset_traits@UTelegram@@U?$less@UTelegram@@@std@@V?$allocator@UTelegram@@@3@$0A@@std@@@std@@IAE?AU?$pair@V?$_Tree_const_iterator@V?$_Tree_val@U?$_Tree_simple_types@UTelegram@@@std@@@std@@@std@@_N@1@_NABUTelegram@@U_Nil@1@@Z$5
	DD	02H
	DD	FLAT:__unwindfunclet$??$_Insert_nohint@ABUTelegram@@U_Nil@std@@@?$_Tree@V?$_Tset_traits@UTelegram@@U?$less@UTelegram@@@std@@V?$allocator@UTelegram@@@3@$0A@@std@@@std@@IAE?AU?$pair@V?$_Tree_const_iterator@V?$_Tree_val@U?$_Tree_simple_types@UTelegram@@@std@@@std@@@std@@_N@1@_NABUTelegram@@U_Nil@1@@Z$6
	DD	02H
	DD	FLAT:__unwindfunclet$??$_Insert_nohint@ABUTelegram@@U_Nil@std@@@?$_Tree@V?$_Tset_traits@UTelegram@@U?$less@UTelegram@@@std@@V?$allocator@UTelegram@@@3@$0A@@std@@@std@@IAE?AU?$pair@V?$_Tree_const_iterator@V?$_Tree_val@U?$_Tree_simple_types@UTelegram@@@std@@@std@@@std@@_N@1@_NABUTelegram@@U_Nil@1@@Z$7
	DD	0ffffffffH
	DD	00H
xdata$x	ENDS
;	COMDAT xdata$x
xdata$x	SEGMENT
__unwindtable$??E?$_Tree_const_iterator@V?$_Tree_val@U?$_Tree_simple_types@UTelegram@@@std@@@std@@@std@@QAE?AV01@H@Z DD 0ffffffffH
	DD	FLAT:__unwindfunclet$??E?$_Tree_const_iterator@V?$_Tree_val@U?$_Tree_simple_types@UTelegram@@@std@@@std@@@std@@QAE?AV01@H@Z$0
__ehfuncinfo$??E?$_Tree_const_iterator@V?$_Tree_val@U?$_Tree_simple_types@UTelegram@@@std@@@std@@@std@@QAE?AV01@H@Z DD 019930522H
	DD	01H
	DD	FLAT:__unwindtable$??E?$_Tree_const_iterator@V?$_Tree_val@U?$_Tree_simple_types@UTelegram@@@std@@@std@@@std@@QAE?AV01@H@Z
	DD	2 DUP(00H)
	DD	2 DUP(00H)
	DD	00H
	DD	01H
xdata$x	ENDS
;	COMDAT xdata$x
xdata$x	SEGMENT
__unwindtable$??0?$_Tree_unchecked_const_iterator@V?$_Tree_val@U?$_Tree_simple_types@UTelegram@@@std@@@std@@U_Iterator_base12@2@@std@@QAE@PAU?$_Tree_node@UTelegram@@PAX@1@PBV?$_Tree_val@U?$_Tree_simple_types@UTelegram@@@std@@@1@@Z DD 0ffffffffH
	DD	FLAT:__unwindfunclet$??0?$_Tree_unchecked_const_iterator@V?$_Tree_val@U?$_Tree_simple_types@UTelegram@@@std@@@std@@U_Iterator_base12@2@@std@@QAE@PAU?$_Tree_node@UTelegram@@PAX@1@PBV?$_Tree_val@U?$_Tree_simple_types@UTelegram@@@std@@@1@@Z$0
__ehfuncinfo$??0?$_Tree_unchecked_const_iterator@V?$_Tree_val@U?$_Tree_simple_types@UTelegram@@@std@@@std@@U_Iterator_base12@2@@std@@QAE@PAU?$_Tree_node@UTelegram@@PAX@1@PBV?$_Tree_val@U?$_Tree_simple_types@UTelegram@@@std@@@1@@Z DD 019930522H
	DD	01H
	DD	FLAT:__unwindtable$??0?$_Tree_unchecked_const_iterator@V?$_Tree_val@U?$_Tree_simple_types@UTelegram@@@std@@@std@@U_Iterator_base12@2@@std@@QAE@PAU?$_Tree_node@UTelegram@@PAX@1@PBV?$_Tree_val@U?$_Tree_simple_types@UTelegram@@@std@@@1@@Z
	DD	2 DUP(00H)
	DD	2 DUP(00H)
	DD	00H
	DD	01H
xdata$x	ENDS
xdata$x	SEGMENT
__unwindtable$?Instance@MessageDispatcher@@SAPAV1@XZ DD 0ffffffffH
	DD	FLAT:__unwindfunclet$?Instance@MessageDispatcher@@SAPAV1@XZ$0
__unwindtable$?DispatchDelayedMessages@MessageDispatcher@@QAEXXZ DD 0ffffffffH
	DD	FLAT:__unwindfunclet$?DispatchDelayedMessages@MessageDispatcher@@QAEXXZ$0
	DD	00H
	DD	FLAT:__unwindfunclet$?DispatchDelayedMessages@MessageDispatcher@@QAEXXZ$1
	DD	0ffffffffH
	DD	FLAT:__unwindfunclet$?DispatchDelayedMessages@MessageDispatcher@@QAEXXZ$2
__ehfuncinfo$?DispatchDelayedMessages@MessageDispatcher@@QAEXXZ DD 019930522H
	DD	03H
	DD	FLAT:__unwindtable$?DispatchDelayedMessages@MessageDispatcher@@QAEXXZ
	DD	2 DUP(00H)
	DD	2 DUP(00H)
	DD	00H
	DD	01H
__ehfuncinfo$?Instance@MessageDispatcher@@SAPAV1@XZ DD 019930522H
	DD	01H
	DD	FLAT:__unwindtable$?Instance@MessageDispatcher@@SAPAV1@XZ
	DD	2 DUP(00H)
	DD	2 DUP(00H)
	DD	00H
	DD	01H
xdata$x	ENDS
;	COMDAT xdata$x
xdata$x	SEGMENT
__unwindtable$?_Orphan_ptr@?$_Tree@V?$_Tset_traits@UTelegram@@U?$less@UTelegram@@@std@@V?$allocator@UTelegram@@@3@$0A@@std@@@std@@IAEXPAU?$_Tree_node@UTelegram@@PAX@2@@Z DD 0ffffffffH
	DD	FLAT:__unwindfunclet$?_Orphan_ptr@?$_Tree@V?$_Tset_traits@UTelegram@@U?$less@UTelegram@@@std@@V?$allocator@UTelegram@@@3@$0A@@std@@@std@@IAEXPAU?$_Tree_node@UTelegram@@PAX@2@@Z$0
__ehfuncinfo$?_Orphan_ptr@?$_Tree@V?$_Tset_traits@UTelegram@@U?$less@UTelegram@@@std@@V?$allocator@UTelegram@@@3@$0A@@std@@@std@@IAEXPAU?$_Tree_node@UTelegram@@PAX@2@@Z DD 019930522H
	DD	01H
	DD	FLAT:__unwindtable$?_Orphan_ptr@?$_Tree@V?$_Tset_traits@UTelegram@@U?$less@UTelegram@@@std@@V?$allocator@UTelegram@@@3@$0A@@std@@@std@@IAEXPAU?$_Tree_node@UTelegram@@PAX@2@@Z
	DD	2 DUP(00H)
	DD	2 DUP(00H)
	DD	00H
	DD	01H
xdata$x	ENDS
;	COMDAT xdata$x
xdata$x	SEGMENT
__ehfuncinfo$?clear@?$_Tree@V?$_Tset_traits@UTelegram@@U?$less@UTelegram@@@std@@V?$allocator@UTelegram@@@3@$0A@@std@@@std@@QAEXXZ DD 019930522H
	DD	00H
	DD	00H
	DD	2 DUP(00H)
	DD	2 DUP(00H)
	DD	00H
	DD	05H
xdata$x	ENDS
;	COMDAT xdata$x
xdata$x	SEGMENT
__unwindtable$?erase@?$_Tree@V?$_Tset_traits@UTelegram@@U?$less@UTelegram@@@std@@V?$allocator@UTelegram@@@3@$0A@@std@@@std@@QAE?AV?$_Tree_const_iterator@V?$_Tree_val@U?$_Tree_simple_types@UTelegram@@@std@@@std@@@2@V32@0@Z DD 0ffffffffH
	DD	FLAT:__unwindfunclet$?erase@?$_Tree@V?$_Tset_traits@UTelegram@@U?$less@UTelegram@@@std@@V?$allocator@UTelegram@@@3@$0A@@std@@@std@@QAE?AV?$_Tree_const_iterator@V?$_Tree_val@U?$_Tree_simple_types@UTelegram@@@std@@@std@@@2@V32@0@Z$0
	DD	00H
	DD	FLAT:__unwindfunclet$?erase@?$_Tree@V?$_Tset_traits@UTelegram@@U?$less@UTelegram@@@std@@V?$allocator@UTelegram@@@3@$0A@@std@@@std@@QAE?AV?$_Tree_const_iterator@V?$_Tree_val@U?$_Tree_simple_types@UTelegram@@@std@@@std@@@2@V32@0@Z$1
	DD	01H
	DD	FLAT:__unwindfunclet$?erase@?$_Tree@V?$_Tset_traits@UTelegram@@U?$less@UTelegram@@@std@@V?$allocator@UTelegram@@@3@$0A@@std@@@std@@QAE?AV?$_Tree_const_iterator@V?$_Tree_val@U?$_Tree_simple_types@UTelegram@@@std@@@std@@@2@V32@0@Z$2
	DD	02H
	DD	FLAT:__unwindfunclet$?erase@?$_Tree@V?$_Tset_traits@UTelegram@@U?$less@UTelegram@@@std@@V?$allocator@UTelegram@@@3@$0A@@std@@@std@@QAE?AV?$_Tree_const_iterator@V?$_Tree_val@U?$_Tree_simple_types@UTelegram@@@std@@@std@@@2@V32@0@Z$3
__ehfuncinfo$?erase@?$_Tree@V?$_Tset_traits@UTelegram@@U?$less@UTelegram@@@std@@V?$allocator@UTelegram@@@3@$0A@@std@@@std@@QAE?AV?$_Tree_const_iterator@V?$_Tree_val@U?$_Tree_simple_types@UTelegram@@@std@@@std@@@2@V32@0@Z DD 019930522H
	DD	04H
	DD	FLAT:__unwindtable$?erase@?$_Tree@V?$_Tset_traits@UTelegram@@U?$less@UTelegram@@@std@@V?$allocator@UTelegram@@@3@$0A@@std@@@std@@QAE?AV?$_Tree_const_iterator@V?$_Tree_val@U?$_Tree_simple_types@UTelegram@@@std@@@std@@@2@V32@0@Z
	DD	2 DUP(00H)
	DD	2 DUP(00H)
	DD	00H
	DD	01H
xdata$x	ENDS
;	COMDAT xdata$x
xdata$x	SEGMENT
__unwindtable$?erase@?$_Tree@V?$_Tset_traits@UTelegram@@U?$less@UTelegram@@@std@@V?$allocator@UTelegram@@@3@$0A@@std@@@std@@QAE?AV?$_Tree_const_iterator@V?$_Tree_val@U?$_Tree_simple_types@UTelegram@@@std@@@std@@@2@V32@@Z DD 0ffffffffH
	DD	FLAT:__unwindfunclet$?erase@?$_Tree@V?$_Tset_traits@UTelegram@@U?$less@UTelegram@@@std@@V?$allocator@UTelegram@@@3@$0A@@std@@@std@@QAE?AV?$_Tree_const_iterator@V?$_Tree_val@U?$_Tree_simple_types@UTelegram@@@std@@@std@@@2@V32@@Z$0
__ehfuncinfo$?erase@?$_Tree@V?$_Tset_traits@UTelegram@@U?$less@UTelegram@@@std@@V?$allocator@UTelegram@@@3@$0A@@std@@@std@@QAE?AV?$_Tree_const_iterator@V?$_Tree_val@U?$_Tree_simple_types@UTelegram@@@std@@@std@@@2@V32@@Z DD 019930522H
	DD	01H
	DD	FLAT:__unwindtable$?erase@?$_Tree@V?$_Tset_traits@UTelegram@@U?$less@UTelegram@@@std@@V?$allocator@UTelegram@@@3@$0A@@std@@@std@@QAE?AV?$_Tree_const_iterator@V?$_Tree_val@U?$_Tree_simple_types@UTelegram@@@std@@@std@@@2@V32@@Z
	DD	2 DUP(00H)
	DD	2 DUP(00H)
	DD	00H
	DD	01H
xdata$x	ENDS
;	COMDAT xdata$x
xdata$x	SEGMENT
__ehfuncinfo$?end@?$_Tree@V?$_Tset_traits@UTelegram@@U?$less@UTelegram@@@std@@V?$allocator@UTelegram@@@3@$0A@@std@@@std@@QAE?AV?$_Tree_const_iterator@V?$_Tree_val@U?$_Tree_simple_types@UTelegram@@@std@@@std@@@2@XZ DD 019930522H
	DD	00H
	DD	00H
	DD	2 DUP(00H)
	DD	2 DUP(00H)
	DD	00H
	DD	05H
xdata$x	ENDS
;	COMDAT xdata$x
xdata$x	SEGMENT
__ehfuncinfo$?begin@?$_Tree@V?$_Tset_traits@UTelegram@@U?$less@UTelegram@@@std@@V?$allocator@UTelegram@@@3@$0A@@std@@@std@@QAE?AV?$_Tree_const_iterator@V?$_Tree_val@U?$_Tree_simple_types@UTelegram@@@std@@@std@@@2@XZ DD 019930522H
	DD	00H
	DD	00H
	DD	2 DUP(00H)
	DD	2 DUP(00H)
	DD	00H
	DD	05H
xdata$x	ENDS
;	COMDAT xdata$x
xdata$x	SEGMENT
__ehfuncinfo$??1?$_Tree@V?$_Tset_traits@UTelegram@@U?$less@UTelegram@@@std@@V?$allocator@UTelegram@@@3@$0A@@std@@@std@@QAE@XZ DD 019930522H
	DD	00H
	DD	00H
	DD	2 DUP(00H)
	DD	2 DUP(00H)
	DD	00H
	DD	05H
xdata$x	ENDS
;	COMDAT xdata$x
xdata$x	SEGMENT
__catchsym$?_Buynode0@?$_Tree_comp_alloc@V?$_Tset_traits@UTelegram@@U?$less@UTelegram@@@std@@V?$allocator@UTelegram@@@3@$0A@@std@@@std@@QAEPAU?$_Tree_node@UTelegram@@PAX@2@XZ$2 DD 040H
	DD	00H
	DD	00H
	DD	FLAT:__catch$?_Buynode0@?$_Tree_comp_alloc@V?$_Tset_traits@UTelegram@@U?$less@UTelegram@@@std@@V?$allocator@UTelegram@@@3@$0A@@std@@@std@@QAEPAU?$_Tree_node@UTelegram@@PAX@2@XZ$0
__unwindtable$?_Buynode0@?$_Tree_comp_alloc@V?$_Tset_traits@UTelegram@@U?$less@UTelegram@@@std@@V?$allocator@UTelegram@@@3@$0A@@std@@@std@@QAEPAU?$_Tree_node@UTelegram@@PAX@2@XZ DD 0ffffffffH
	DD	00H
	DD	0ffffffffH
	DD	00H
__tryblocktable$?_Buynode0@?$_Tree_comp_alloc@V?$_Tset_traits@UTelegram@@U?$less@UTelegram@@@std@@V?$allocator@UTelegram@@@3@$0A@@std@@@std@@QAEPAU?$_Tree_node@UTelegram@@PAX@2@XZ DD 00H
	DD	00H
	DD	01H
	DD	01H
	DD	FLAT:__catchsym$?_Buynode0@?$_Tree_comp_alloc@V?$_Tset_traits@UTelegram@@U?$less@UTelegram@@@std@@V?$allocator@UTelegram@@@3@$0A@@std@@@std@@QAEPAU?$_Tree_node@UTelegram@@PAX@2@XZ$2
__ehfuncinfo$?_Buynode0@?$_Tree_comp_alloc@V?$_Tset_traits@UTelegram@@U?$less@UTelegram@@@std@@V?$allocator@UTelegram@@@3@$0A@@std@@@std@@QAEPAU?$_Tree_node@UTelegram@@PAX@2@XZ DD 019930522H
	DD	02H
	DD	FLAT:__unwindtable$?_Buynode0@?$_Tree_comp_alloc@V?$_Tset_traits@UTelegram@@U?$less@UTelegram@@@std@@V?$allocator@UTelegram@@@3@$0A@@std@@@std@@QAEPAU?$_Tree_node@UTelegram@@PAX@2@XZ
	DD	01H
	DD	FLAT:__tryblocktable$?_Buynode0@?$_Tree_comp_alloc@V?$_Tset_traits@UTelegram@@U?$less@UTelegram@@@std@@V?$allocator@UTelegram@@@3@$0A@@std@@@std@@QAEPAU?$_Tree_node@UTelegram@@PAX@2@XZ
	DD	2 DUP(00H)
	DD	00H
	DD	01H
xdata$x	ENDS
;	COMDAT xdata$x
xdata$x	SEGMENT
__catchsym$?_Buyheadnode@?$_Tree_comp_alloc@V?$_Tset_traits@UTelegram@@U?$less@UTelegram@@@std@@V?$allocator@UTelegram@@@3@$0A@@std@@@std@@QAEPAU?$_Tree_node@UTelegram@@PAX@2@XZ$2 DD 040H
	DD	00H
	DD	00H
	DD	FLAT:__catch$?_Buyheadnode@?$_Tree_comp_alloc@V?$_Tset_traits@UTelegram@@U?$less@UTelegram@@@std@@V?$allocator@UTelegram@@@3@$0A@@std@@@std@@QAEPAU?$_Tree_node@UTelegram@@PAX@2@XZ$0
__unwindtable$?_Buyheadnode@?$_Tree_comp_alloc@V?$_Tset_traits@UTelegram@@U?$less@UTelegram@@@std@@V?$allocator@UTelegram@@@3@$0A@@std@@@std@@QAEPAU?$_Tree_node@UTelegram@@PAX@2@XZ DD 0ffffffffH
	DD	00H
	DD	0ffffffffH
	DD	00H
__tryblocktable$?_Buyheadnode@?$_Tree_comp_alloc@V?$_Tset_traits@UTelegram@@U?$less@UTelegram@@@std@@V?$allocator@UTelegram@@@3@$0A@@std@@@std@@QAEPAU?$_Tree_node@UTelegram@@PAX@2@XZ DD 00H
	DD	00H
	DD	01H
	DD	01H
	DD	FLAT:__catchsym$?_Buyheadnode@?$_Tree_comp_alloc@V?$_Tset_traits@UTelegram@@U?$less@UTelegram@@@std@@V?$allocator@UTelegram@@@3@$0A@@std@@@std@@QAEPAU?$_Tree_node@UTelegram@@PAX@2@XZ$2
__ehfuncinfo$?_Buyheadnode@?$_Tree_comp_alloc@V?$_Tset_traits@UTelegram@@U?$less@UTelegram@@@std@@V?$allocator@UTelegram@@@3@$0A@@std@@@std@@QAEPAU?$_Tree_node@UTelegram@@PAX@2@XZ DD 019930522H
	DD	02H
	DD	FLAT:__unwindtable$?_Buyheadnode@?$_Tree_comp_alloc@V?$_Tset_traits@UTelegram@@U?$less@UTelegram@@@std@@V?$allocator@UTelegram@@@3@$0A@@std@@@std@@QAEPAU?$_Tree_node@UTelegram@@PAX@2@XZ
	DD	01H
	DD	FLAT:__tryblocktable$?_Buyheadnode@?$_Tree_comp_alloc@V?$_Tset_traits@UTelegram@@U?$less@UTelegram@@@std@@V?$allocator@UTelegram@@@3@$0A@@std@@@std@@QAEPAU?$_Tree_node@UTelegram@@PAX@2@XZ
	DD	2 DUP(00H)
	DD	00H
	DD	01H
xdata$x	ENDS
;	COMDAT xdata$x
xdata$x	SEGMENT
__ehfuncinfo$??1?$_Tree_comp_alloc@V?$_Tset_traits@UTelegram@@U?$less@UTelegram@@@std@@V?$allocator@UTelegram@@@3@$0A@@std@@@std@@QAE@XZ DD 019930522H
	DD	00H
	DD	00H
	DD	2 DUP(00H)
	DD	2 DUP(00H)
	DD	00H
	DD	05H
xdata$x	ENDS
;	COMDAT xdata$x
xdata$x	SEGMENT
__catchsym$?_Construct@?$_Tree_comp_alloc@V?$_Tset_traits@UTelegram@@U?$less@UTelegram@@@std@@V?$allocator@UTelegram@@@3@$0A@@std@@@std@@QAEXXZ$2 DD 040H
	DD	00H
	DD	00H
	DD	FLAT:__catch$?_Construct@?$_Tree_comp_alloc@V?$_Tset_traits@UTelegram@@U?$less@UTelegram@@@std@@V?$allocator@UTelegram@@@3@$0A@@std@@@std@@QAEXXZ$0
__unwindtable$?_Construct@?$_Tree_comp_alloc@V?$_Tset_traits@UTelegram@@U?$less@UTelegram@@@std@@V?$allocator@UTelegram@@@3@$0A@@std@@@std@@QAEXXZ DD 0ffffffffH
	DD	00H
	DD	0ffffffffH
	DD	00H
__tryblocktable$?_Construct@?$_Tree_comp_alloc@V?$_Tset_traits@UTelegram@@U?$less@UTelegram@@@std@@V?$allocator@UTelegram@@@3@$0A@@std@@@std@@QAEXXZ DD 00H
	DD	00H
	DD	01H
	DD	01H
	DD	FLAT:__catchsym$?_Construct@?$_Tree_comp_alloc@V?$_Tset_traits@UTelegram@@U?$less@UTelegram@@@std@@V?$allocator@UTelegram@@@3@$0A@@std@@@std@@QAEXXZ$2
__ehfuncinfo$?_Construct@?$_Tree_comp_alloc@V?$_Tset_traits@UTelegram@@U?$less@UTelegram@@@std@@V?$allocator@UTelegram@@@3@$0A@@std@@@std@@QAEXXZ DD 019930522H
	DD	02H
	DD	FLAT:__unwindtable$?_Construct@?$_Tree_comp_alloc@V?$_Tset_traits@UTelegram@@U?$less@UTelegram@@@std@@V?$allocator@UTelegram@@@3@$0A@@std@@@std@@QAEXXZ
	DD	01H
	DD	FLAT:__tryblocktable$?_Construct@?$_Tree_comp_alloc@V?$_Tset_traits@UTelegram@@U?$less@UTelegram@@@std@@V?$allocator@UTelegram@@@3@$0A@@std@@@std@@QAEXXZ
	DD	2 DUP(00H)
	DD	00H
	DD	01H
xdata$x	ENDS
;	COMDAT xdata$x
xdata$x	SEGMENT
__unwindtable$??0?$_Tree_comp_alloc@V?$_Tset_traits@UTelegram@@U?$less@UTelegram@@@std@@V?$allocator@UTelegram@@@3@$0A@@std@@@std@@QAE@ABU?$less@UTelegram@@@1@@Z DD 0ffffffffH
	DD	FLAT:__unwindfunclet$??0?$_Tree_comp_alloc@V?$_Tset_traits@UTelegram@@U?$less@UTelegram@@@std@@V?$allocator@UTelegram@@@3@$0A@@std@@@std@@QAE@ABU?$less@UTelegram@@@1@@Z$0
__ehfuncinfo$??0?$_Tree_comp_alloc@V?$_Tset_traits@UTelegram@@U?$less@UTelegram@@@std@@V?$allocator@UTelegram@@@3@$0A@@std@@@std@@QAE@ABU?$less@UTelegram@@@1@@Z DD 019930522H
	DD	01H
	DD	FLAT:__unwindtable$??0?$_Tree_comp_alloc@V?$_Tset_traits@UTelegram@@U?$less@UTelegram@@@std@@V?$allocator@UTelegram@@@3@$0A@@std@@@std@@QAE@ABU?$less@UTelegram@@@1@@Z
	DD	2 DUP(00H)
	DD	2 DUP(00H)
	DD	00H
	DD	01H
xdata$x	ENDS
;	COMDAT xdata$x
xdata$x	SEGMENT
__unwindtable$?_Adopt@_Iterator_base12@std@@QAEXPBU_Container_base12@2@@Z DD 0ffffffffH
	DD	FLAT:__unwindfunclet$?_Adopt@_Iterator_base12@std@@QAEXPBU_Container_base12@2@@Z$0
	DD	0ffffffffH
	DD	FLAT:__unwindfunclet$?_Adopt@_Iterator_base12@std@@QAEXPBU_Container_base12@2@@Z$1
__ehfuncinfo$?_Adopt@_Iterator_base12@std@@QAEXPBU_Container_base12@2@@Z DD 019930522H
	DD	02H
	DD	FLAT:__unwindtable$?_Adopt@_Iterator_base12@std@@QAEXPBU_Container_base12@2@@Z
	DD	2 DUP(00H)
	DD	2 DUP(00H)
	DD	00H
	DD	01H
xdata$x	ENDS
;	COMDAT xdata$x
xdata$x	SEGMENT
__ehfuncinfo$??1_Iterator_base12@std@@QAE@XZ DD 019930522H
	DD	00H
	DD	00H
	DD	2 DUP(00H)
	DD	2 DUP(00H)
	DD	00H
	DD	05H
xdata$x	ENDS
;	COMDAT xdata$x
xdata$x	SEGMENT
__unwindtable$??4_Iterator_base12@std@@QAEAAU01@ABU01@@Z DD 0ffffffffH
	DD	FLAT:__unwindfunclet$??4_Iterator_base12@std@@QAEAAU01@ABU01@@Z$0
__ehfuncinfo$??4_Iterator_base12@std@@QAEAAU01@ABU01@@Z DD 019930522H
	DD	01H
	DD	FLAT:__unwindtable$??4_Iterator_base12@std@@QAEAAU01@ABU01@@Z
	DD	2 DUP(00H)
	DD	2 DUP(00H)
	DD	00H
	DD	01H
xdata$x	ENDS
;	COMDAT xdata$x
xdata$x	SEGMENT
__ehfuncinfo$??1_Container_base12@std@@QAE@XZ DD 019930522H
	DD	00H
	DD	00H
	DD	2 DUP(00H)
	DD	2 DUP(00H)
	DD	00H
	DD	05H
xdata$x	ENDS
CRT$XCU	SEGMENT
?MaxDouble$initializer$@@3P6AXXZA DD FLAT:??__EMaxDouble@@YAXXZ ; MaxDouble$initializer$
CRT$XCU	ENDS
CRT$XCU	SEGMENT
?MinDouble$initializer$@@3P6AXXZA DD FLAT:??__EMinDouble@@YAXXZ ; MinDouble$initializer$
CRT$XCU	ENDS
CRT$XCU	SEGMENT
?MaxFloat$initializer$@@3P6AXXZA DD FLAT:??__EMaxFloat@@YAXXZ ; MaxFloat$initializer$
CRT$XCU	ENDS
CRT$XCU	SEGMENT
?MinFloat$initializer$@@3P6AXXZA DD FLAT:??__EMinFloat@@YAXXZ ; MinFloat$initializer$
CRT$XCU	ENDS
;	COMDAT CRT$XCU
CRT$XCU	SEGMENT
??id$initializer$@?$num_put@DV?$ostreambuf_iterator@DU?$char_traits@D@std@@@std@@@std@@2P6AXXZA@@3P6AXXZA DD FLAT:??__E?id@?$num_put@DV?$ostreambuf_iterator@DU?$char_traits@D@std@@@std@@@std@@2V0locale@2@A@@YAXXZ ; ??id$initializer$@?$num_put@DV?$ostreambuf_iterator@DU?$char_traits@D@std@@@std@@@std@@2P6AXXZA@@3P6AXXZA
CRT$XCU	ENDS
;	COMDAT CRT$XCU
CRT$XCU	SEGMENT
??id$initializer$@?$numpunct@D@std@@2P6AXXZA@@3P6AXXZA DD FLAT:??__E?id@?$numpunct@D@std@@2V0locale@2@A@@YAXXZ ; ??id$initializer$@?$numpunct@D@std@@2P6AXXZA@@3P6AXXZA
CRT$XCU	ENDS
; Function compile flags: /Odtp /RTCsu
; File c:\program files (x86)\microsoft visual studio 14.0\vc\include\xmemory0
;	COMDAT ??$construct@UTelegram@@ABU1@@?$allocator@U?$_Tree_node@UTelegram@@PAX@std@@@std@@QAEXPAUTelegram@@ABU2@@Z
_TEXT	SEGMENT
tv74 = -12						; size = 4
$T1 = -8						; size = 4
_this$ = -4						; size = 4
__Ptr$ = 8						; size = 4
_<_Args_0>$ = 12					; size = 4
??$construct@UTelegram@@ABU1@@?$allocator@U?$_Tree_node@UTelegram@@PAX@std@@@std@@QAEXPAUTelegram@@ABU2@@Z PROC ; std::allocator<std::_Tree_node<Telegram,void *> >::construct<Telegram,Telegram const &>, COMDAT
; _this$ = ecx

; 736  : 		{	// construct _Objty(_Types...) at _Ptr

	push	ebp
	mov	ebp, esp
	sub	esp, 12					; 0000000cH
	push	esi
	push	edi
	mov	DWORD PTR [ebp-12], -858993460		; ccccccccH
	mov	DWORD PTR [ebp-8], -858993460		; ccccccccH
	mov	DWORD PTR [ebp-4], -858993460		; ccccccccH
	mov	DWORD PTR _this$[ebp], ecx

; 737  : 		::new ((void *)_Ptr) _Objty(_STD forward<_Types>(_Args)...);

	mov	eax, DWORD PTR __Ptr$[ebp]
	push	eax
	push	32					; 00000020H
	call	??2@YAPAXIPAX@Z				; operator new
	add	esp, 8
	mov	DWORD PTR $T1[ebp], eax
	cmp	DWORD PTR $T1[ebp], 0
	je	SHORT $LN3@construct
	mov	ecx, DWORD PTR _<_Args_0>$[ebp]
	push	ecx
	call	??$forward@ABUTelegram@@@std@@YAABUTelegram@@ABU1@@Z ; std::forward<Telegram const &>
	add	esp, 4
	mov	ecx, 8
	mov	esi, eax
	mov	edi, DWORD PTR $T1[ebp]
	rep movsd
	mov	edx, DWORD PTR $T1[ebp]
	mov	DWORD PTR tv74[ebp], edx
	jmp	SHORT $LN1@construct
$LN3@construct:
	mov	DWORD PTR tv74[ebp], 0
$LN1@construct:

; 738  : 		}

	pop	edi
	pop	esi
	add	esp, 12					; 0000000cH
	cmp	ebp, esp
	call	__RTC_CheckEsp
	mov	esp, ebp
	pop	ebp
	ret	8
??$construct@UTelegram@@ABU1@@?$allocator@U?$_Tree_node@UTelegram@@PAX@std@@@std@@QAEXPAUTelegram@@ABU2@@Z ENDP ; std::allocator<std::_Tree_node<Telegram,void *> >::construct<Telegram,Telegram const &>
_TEXT	ENDS
; Function compile flags: /Odtp /RTCsu
; File c:\program files (x86)\microsoft visual studio 14.0\vc\include\xmemory0
;	COMDAT ??$construct@UTelegram@@ABU1@@?$allocator_traits@V?$allocator@U?$_Tree_node@UTelegram@@PAX@std@@@std@@@std@@SAXAAV?$allocator@U?$_Tree_node@UTelegram@@PAX@std@@@1@PAUTelegram@@ABU3@@Z
_TEXT	SEGMENT
__Al$ = 8						; size = 4
__Ptr$ = 12						; size = 4
_<_Args_0>$ = 16					; size = 4
??$construct@UTelegram@@ABU1@@?$allocator_traits@V?$allocator@U?$_Tree_node@UTelegram@@PAX@std@@@std@@@std@@SAXAAV?$allocator@U?$_Tree_node@UTelegram@@PAX@std@@@1@PAUTelegram@@ABU3@@Z PROC ; std::allocator_traits<std::allocator<std::_Tree_node<Telegram,void *> > >::construct<Telegram,Telegram const &>, COMDAT

; 856  : 		{	// construct _Objty(_Types...) at _Ptr

	push	ebp
	mov	ebp, esp

; 857  : 		_Al.construct(_Ptr, _STD forward<_Types>(_Args)...);

	mov	eax, DWORD PTR _<_Args_0>$[ebp]
	push	eax
	call	??$forward@ABUTelegram@@@std@@YAABUTelegram@@ABU1@@Z ; std::forward<Telegram const &>
	add	esp, 4
	push	eax
	mov	ecx, DWORD PTR __Ptr$[ebp]
	push	ecx
	mov	ecx, DWORD PTR __Al$[ebp]
	call	??$construct@UTelegram@@ABU1@@?$allocator@U?$_Tree_node@UTelegram@@PAX@std@@@std@@QAEXPAUTelegram@@ABU2@@Z ; std::allocator<std::_Tree_node<Telegram,void *> >::construct<Telegram,Telegram const &>

; 858  : 		}

	cmp	ebp, esp
	call	__RTC_CheckEsp
	pop	ebp
	ret	0
??$construct@UTelegram@@ABU1@@?$allocator_traits@V?$allocator@U?$_Tree_node@UTelegram@@PAX@std@@@std@@@std@@SAXAAV?$allocator@U?$_Tree_node@UTelegram@@PAX@std@@@1@PAUTelegram@@ABU3@@Z ENDP ; std::allocator_traits<std::allocator<std::_Tree_node<Telegram,void *> > >::construct<Telegram,Telegram const &>
_TEXT	ENDS
; Function compile flags: /Odtp /RTCsu
; File c:\program files (x86)\microsoft visual studio 14.0\vc\include\xmemory0
;	COMDAT ??$construct@UTelegram@@ABU1@@?$_Wrap_alloc@V?$allocator@U?$_Tree_node@UTelegram@@PAX@std@@@std@@@std@@QAEXPAUTelegram@@ABU2@@Z
_TEXT	SEGMENT
_this$ = -4						; size = 4
__Ptr$ = 8						; size = 4
_<_Args_0>$ = 12					; size = 4
??$construct@UTelegram@@ABU1@@?$_Wrap_alloc@V?$allocator@U?$_Tree_node@UTelegram@@PAX@std@@@std@@@std@@QAEXPAUTelegram@@ABU2@@Z PROC ; std::_Wrap_alloc<std::allocator<std::_Tree_node<Telegram,void *> > >::construct<Telegram,Telegram const &>, COMDAT
; _this$ = ecx

; 994  : 		{	// construct _Ty(_Types...) at _Ptr

	push	ebp
	mov	ebp, esp
	push	ecx
	mov	DWORD PTR [ebp-4], -858993460		; ccccccccH
	mov	DWORD PTR _this$[ebp], ecx

; 995  : 		_Mytraits::construct(*this, _Ptr,

	mov	eax, DWORD PTR _<_Args_0>$[ebp]
	push	eax
	call	??$forward@ABUTelegram@@@std@@YAABUTelegram@@ABU1@@Z ; std::forward<Telegram const &>
	add	esp, 4
	push	eax
	mov	ecx, DWORD PTR __Ptr$[ebp]
	push	ecx
	mov	edx, DWORD PTR _this$[ebp]
	push	edx
	call	??$construct@UTelegram@@ABU1@@?$allocator_traits@V?$allocator@U?$_Tree_node@UTelegram@@PAX@std@@@std@@@std@@SAXAAV?$allocator@U?$_Tree_node@UTelegram@@PAX@std@@@1@PAUTelegram@@ABU3@@Z ; std::allocator_traits<std::allocator<std::_Tree_node<Telegram,void *> > >::construct<Telegram,Telegram const &>
	add	esp, 12					; 0000000cH

; 996  : 			_STD forward<_Types>(_Args)...);
; 997  : 		}

	add	esp, 4
	cmp	ebp, esp
	call	__RTC_CheckEsp
	mov	esp, ebp
	pop	ebp
	ret	8
??$construct@UTelegram@@ABU1@@?$_Wrap_alloc@V?$allocator@U?$_Tree_node@UTelegram@@PAX@std@@@std@@@std@@QAEXPAUTelegram@@ABU2@@Z ENDP ; std::_Wrap_alloc<std::allocator<std::_Tree_node<Telegram,void *> > >::construct<Telegram,Telegram const &>
_TEXT	ENDS
; Function compile flags: /Odtp /RTCsu
; File c:\program files (x86)\microsoft visual studio 14.0\vc\include\xtree
;	COMDAT ??$_Buynode@ABUTelegram@@@?$_Tree_comp_alloc@V?$_Tset_traits@UTelegram@@U?$less@UTelegram@@@std@@V?$allocator@UTelegram@@@3@$0A@@std@@@std@@QAEPAU?$_Tree_node@UTelegram@@PAX@1@ABUTelegram@@@Z
_TEXT	SEGMENT
tv86 = -28						; size = 4
__Pnode$ = -24						; size = 4
_this$ = -20						; size = 4
__$EHRec$ = -16						; size = 16
_<_Val_0>$ = 8						; size = 4
??$_Buynode@ABUTelegram@@@?$_Tree_comp_alloc@V?$_Tset_traits@UTelegram@@U?$less@UTelegram@@@std@@V?$allocator@UTelegram@@@3@$0A@@std@@@std@@QAEPAU?$_Tree_node@UTelegram@@PAX@1@ABUTelegram@@@Z PROC ; std::_Tree_comp_alloc<std::_Tset_traits<Telegram,std::less<Telegram>,std::allocator<Telegram>,0> >::_Buynode<Telegram const &>, COMDAT
; _this$ = ecx

; 880  : 		{	// allocate a node with defaults and set links and value

	push	ebp
	mov	ebp, esp
	push	-1
	push	__ehhandler$??$_Buynode@ABUTelegram@@@?$_Tree_comp_alloc@V?$_Tset_traits@UTelegram@@U?$less@UTelegram@@@std@@V?$allocator@UTelegram@@@3@$0A@@std@@@std@@QAEPAU?$_Tree_node@UTelegram@@PAX@1@ABUTelegram@@@Z
	mov	eax, DWORD PTR fs:0
	push	eax
	push	ecx
	sub	esp, 12					; 0000000cH
	push	ebx
	push	esi
	push	edi
	mov	DWORD PTR [ebp-28], -858993460		; ccccccccH
	mov	DWORD PTR [ebp-24], -858993460		; ccccccccH
	mov	DWORD PTR [ebp-20], -858993460		; ccccccccH
	mov	eax, DWORD PTR ___security_cookie
	xor	eax, ebp
	push	eax
	lea	eax, DWORD PTR __$EHRec$[ebp+4]
	mov	DWORD PTR fs:0, eax
	mov	DWORD PTR __$EHRec$[ebp], esp
	mov	DWORD PTR _this$[ebp], ecx

; 881  : 		_Nodeptr _Pnode = _Buynode0();

	mov	ecx, DWORD PTR _this$[ebp]
	call	?_Buynode0@?$_Tree_comp_alloc@V?$_Tset_traits@UTelegram@@U?$less@UTelegram@@@std@@V?$allocator@UTelegram@@@3@$0A@@std@@@std@@QAEPAU?$_Tree_node@UTelegram@@PAX@2@XZ ; std::_Tree_comp_alloc<std::_Tset_traits<Telegram,std::less<Telegram>,std::allocator<Telegram>,0> >::_Buynode0
	mov	DWORD PTR __Pnode$[ebp], eax

; 882  : 
; 883  : 		this->_Color(_Pnode) = _Red;

	mov	eax, DWORD PTR __Pnode$[ebp]
	push	eax
	call	?_Color@?$_Tree_comp_alloc@V?$_Tset_traits@UTelegram@@U?$less@UTelegram@@@std@@V?$allocator@UTelegram@@@3@$0A@@std@@@std@@SAAADPAU?$_Tree_node@UTelegram@@PAX@2@@Z ; std::_Tree_comp_alloc<std::_Tset_traits<Telegram,std::less<Telegram>,std::allocator<Telegram>,0> >::_Color
	add	esp, 4
	mov	BYTE PTR [eax], 0

; 884  : 		this->_Isnil(_Pnode) = false;

	mov	ecx, DWORD PTR __Pnode$[ebp]
	push	ecx
	call	?_Isnil@?$_Tree_comp_alloc@V?$_Tset_traits@UTelegram@@U?$less@UTelegram@@@std@@V?$allocator@UTelegram@@@3@$0A@@std@@@std@@SAAADPAU?$_Tree_node@UTelegram@@PAX@2@@Z ; std::_Tree_comp_alloc<std::_Tset_traits<Telegram,std::less<Telegram>,std::allocator<Telegram>,0> >::_Isnil
	add	esp, 4
	mov	BYTE PTR [eax], 0

; 885  : 
; 886  : 		_TRY_BEGIN

	mov	DWORD PTR __$EHRec$[ebp+12], 0

; 887  : 		this->_Getal().construct(

	mov	edx, DWORD PTR __Pnode$[ebp]
	push	edx
	call	?_Myval@?$_Tree_comp_alloc@V?$_Tset_traits@UTelegram@@U?$less@UTelegram@@@std@@V?$allocator@UTelegram@@@3@$0A@@std@@@std@@SAAAUTelegram@@PAU?$_Tree_node@UTelegram@@PAX@2@@Z ; std::_Tree_comp_alloc<std::_Tset_traits<Telegram,std::less<Telegram>,std::allocator<Telegram>,0> >::_Myval
	add	esp, 4
	mov	DWORD PTR tv86[ebp], eax
	mov	eax, DWORD PTR _<_Val_0>$[ebp]
	push	eax
	call	??$forward@ABUTelegram@@@std@@YAABUTelegram@@ABU1@@Z ; std::forward<Telegram const &>
	add	esp, 4
	push	eax
	mov	ecx, DWORD PTR tv86[ebp]
	push	ecx
	call	??$addressof@UTelegram@@@std@@YAPAUTelegram@@AAU1@@Z ; std::addressof<Telegram>
	add	esp, 4
	push	eax
	mov	ecx, DWORD PTR _this$[ebp]
	call	?_Getal@?$_Tree_comp_alloc@V?$_Tset_traits@UTelegram@@U?$less@UTelegram@@@std@@V?$allocator@UTelegram@@@3@$0A@@std@@@std@@QAEAAU?$_Wrap_alloc@V?$allocator@U?$_Tree_node@UTelegram@@PAX@std@@@std@@@2@XZ ; std::_Tree_comp_alloc<std::_Tset_traits<Telegram,std::less<Telegram>,std::allocator<Telegram>,0> >::_Getal
	mov	ecx, eax
	call	??$construct@UTelegram@@ABU1@@?$_Wrap_alloc@V?$allocator@U?$_Tree_node@UTelegram@@PAX@std@@@std@@@std@@QAEXPAUTelegram@@ABU2@@Z ; std::_Wrap_alloc<std::allocator<std::_Tree_node<Telegram,void *> > >::construct<Telegram,Telegram const &>
	jmp	SHORT $LN4@Buynode
__catch$??$_Buynode@ABUTelegram@@@?$_Tree_comp_alloc@V?$_Tset_traits@UTelegram@@U?$less@UTelegram@@@std@@V?$allocator@UTelegram@@@3@$0A@@std@@@std@@QAEPAU?$_Tree_node@UTelegram@@PAX@1@ABUTelegram@@@Z$0:

; 888  : 			_STD addressof(_Myval(_Pnode)),
; 889  : 				_STD forward<_Valty>(_Val)...);
; 890  : 		_CATCH_ALL
; 891  : 		_Freenode0(_Pnode);

	mov	edx, DWORD PTR __Pnode$[ebp]
	push	edx
	mov	ecx, DWORD PTR _this$[ebp]
	call	?_Freenode0@?$_Tree_comp_alloc@V?$_Tset_traits@UTelegram@@U?$less@UTelegram@@@std@@V?$allocator@UTelegram@@@3@$0A@@std@@@std@@QAEXPAU?$_Tree_node@UTelegram@@PAX@2@@Z ; std::_Tree_comp_alloc<std::_Tset_traits<Telegram,std::less<Telegram>,std::allocator<Telegram>,0> >::_Freenode0

; 892  : 		_RERAISE;

	push	0
	push	0
	call	__CxxThrowException@8

; 893  : 		_CATCH_END

	mov	eax, $LN7@Buynode
	ret	0
$LN4@Buynode:
	mov	DWORD PTR __$EHRec$[ebp+12], -1
	jmp	SHORT __tryend$??$_Buynode@ABUTelegram@@@?$_Tree_comp_alloc@V?$_Tset_traits@UTelegram@@U?$less@UTelegram@@@std@@V?$allocator@UTelegram@@@3@$0A@@std@@@std@@QAEPAU?$_Tree_node@UTelegram@@PAX@1@ABUTelegram@@@Z$1
$LN7@Buynode:
	mov	DWORD PTR __$EHRec$[ebp+12], -1
__tryend$??$_Buynode@ABUTelegram@@@?$_Tree_comp_alloc@V?$_Tset_traits@UTelegram@@U?$less@UTelegram@@@std@@V?$allocator@UTelegram@@@3@$0A@@std@@@std@@QAEPAU?$_Tree_node@UTelegram@@PAX@1@ABUTelegram@@@Z$1:

; 894  : 
; 895  : 		return (_Pnode);

	mov	eax, DWORD PTR __Pnode$[ebp]
$LN3@Buynode:

; 896  : 		}

	mov	ecx, DWORD PTR __$EHRec$[ebp+4]
	mov	DWORD PTR fs:0, ecx
	pop	ecx
	pop	edi
	pop	esi
	pop	ebx
	add	esp, 28					; 0000001cH
	cmp	ebp, esp
	call	__RTC_CheckEsp
	mov	esp, ebp
	pop	ebp
	ret	4
_TEXT	ENDS
;	COMDAT text$x
text$x	SEGMENT
__ehhandler$??$_Buynode@ABUTelegram@@@?$_Tree_comp_alloc@V?$_Tset_traits@UTelegram@@U?$less@UTelegram@@@std@@V?$allocator@UTelegram@@@3@$0A@@std@@@std@@QAEPAU?$_Tree_node@UTelegram@@PAX@1@ABUTelegram@@@Z:
	mov	edx, DWORD PTR [esp+8]
	lea	eax, DWORD PTR [edx+12]
	mov	ecx, DWORD PTR [edx-32]
	xor	ecx, eax
	call	@__security_check_cookie@4
	mov	eax, OFFSET __ehfuncinfo$??$_Buynode@ABUTelegram@@@?$_Tree_comp_alloc@V?$_Tset_traits@UTelegram@@U?$less@UTelegram@@@std@@V?$allocator@UTelegram@@@3@$0A@@std@@@std@@QAEPAU?$_Tree_node@UTelegram@@PAX@1@ABUTelegram@@@Z
	jmp	___CxxFrameHandler3
text$x	ENDS
??$_Buynode@ABUTelegram@@@?$_Tree_comp_alloc@V?$_Tset_traits@UTelegram@@U?$less@UTelegram@@@std@@V?$allocator@UTelegram@@@3@$0A@@std@@@std@@QAEPAU?$_Tree_node@UTelegram@@PAX@1@ABUTelegram@@@Z ENDP ; std::_Tree_comp_alloc<std::_Tset_traits<Telegram,std::less<Telegram>,std::allocator<Telegram>,0> >::_Buynode<Telegram const &>
; Function compile flags: /Odtp /RTCsu
; File c:\program files (x86)\microsoft visual studio 14.0\vc\include\type_traits
;	COMDAT ??$forward@AAV?$_Tree_const_iterator@V?$_Tree_val@U?$_Tree_simple_types@UTelegram@@@std@@@std@@@std@@@std@@YAAAV?$_Tree_const_iterator@V?$_Tree_val@U?$_Tree_simple_types@UTelegram@@@std@@@std@@@0@AAV10@@Z
_TEXT	SEGMENT
__Arg$ = 8						; size = 4
??$forward@AAV?$_Tree_const_iterator@V?$_Tree_val@U?$_Tree_simple_types@UTelegram@@@std@@@std@@@std@@@std@@YAAAV?$_Tree_const_iterator@V?$_Tree_val@U?$_Tree_simple_types@UTelegram@@@std@@@std@@@0@AAV10@@Z PROC ; std::forward<std::_Tree_const_iterator<std::_Tree_val<std::_Tree_simple_types<Telegram> > > &>, COMDAT

; 1275 : 	{	// forward an lvalue as either an lvalue or an rvalue

	push	ebp
	mov	ebp, esp

; 1276 : 	return (static_cast<_Ty&&>(_Arg));

	mov	eax, DWORD PTR __Arg$[ebp]

; 1277 : 	}

	pop	ebp
	ret	0
??$forward@AAV?$_Tree_const_iterator@V?$_Tree_val@U?$_Tree_simple_types@UTelegram@@@std@@@std@@@std@@@std@@YAAAV?$_Tree_const_iterator@V?$_Tree_val@U?$_Tree_simple_types@UTelegram@@@std@@@std@@@0@AAV10@@Z ENDP ; std::forward<std::_Tree_const_iterator<std::_Tree_val<std::_Tree_simple_types<Telegram> > > &>
_TEXT	ENDS
; Function compile flags: /Odtp /RTCsu
; File c:\program files (x86)\microsoft visual studio 14.0\vc\include\type_traits
;	COMDAT ??$forward@_N@std@@YA$$QA_NAA_N@Z
_TEXT	SEGMENT
__Arg$ = 8						; size = 4
??$forward@_N@std@@YA$$QA_NAA_N@Z PROC			; std::forward<bool>, COMDAT

; 1275 : 	{	// forward an lvalue as either an lvalue or an rvalue

	push	ebp
	mov	ebp, esp

; 1276 : 	return (static_cast<_Ty&&>(_Arg));

	mov	eax, DWORD PTR __Arg$[ebp]

; 1277 : 	}

	pop	ebp
	ret	0
??$forward@_N@std@@YA$$QA_NAA_N@Z ENDP			; std::forward<bool>
_TEXT	ENDS
; Function compile flags: /Odtp /RTCsu
; File c:\program files (x86)\microsoft visual studio 14.0\vc\include\type_traits
;	COMDAT ??$forward@V?$_Tree_const_iterator@V?$_Tree_val@U?$_Tree_simple_types@UTelegram@@@std@@@std@@@std@@@std@@YA$$QAV?$_Tree_const_iterator@V?$_Tree_val@U?$_Tree_simple_types@UTelegram@@@std@@@std@@@0@AAV10@@Z
_TEXT	SEGMENT
__Arg$ = 8						; size = 4
??$forward@V?$_Tree_const_iterator@V?$_Tree_val@U?$_Tree_simple_types@UTelegram@@@std@@@std@@@std@@@std@@YA$$QAV?$_Tree_const_iterator@V?$_Tree_val@U?$_Tree_simple_types@UTelegram@@@std@@@std@@@0@AAV10@@Z PROC ; std::forward<std::_Tree_const_iterator<std::_Tree_val<std::_Tree_simple_types<Telegram> > > >, COMDAT

; 1275 : 	{	// forward an lvalue as either an lvalue or an rvalue

	push	ebp
	mov	ebp, esp

; 1276 : 	return (static_cast<_Ty&&>(_Arg));

	mov	eax, DWORD PTR __Arg$[ebp]

; 1277 : 	}

	pop	ebp
	ret	0
??$forward@V?$_Tree_const_iterator@V?$_Tree_val@U?$_Tree_simple_types@UTelegram@@@std@@@std@@@std@@@std@@YA$$QAV?$_Tree_const_iterator@V?$_Tree_val@U?$_Tree_simple_types@UTelegram@@@std@@@std@@@0@AAV10@@Z ENDP ; std::forward<std::_Tree_const_iterator<std::_Tree_val<std::_Tree_simple_types<Telegram> > > >
_TEXT	ENDS
; Function compile flags: /Odtp /RTCsu
; File c:\program files (x86)\microsoft visual studio 14.0\vc\include\xtree
;	COMDAT ??$_Buynode_if_nil@ABUTelegram@@@?$_Tree@V?$_Tset_traits@UTelegram@@U?$less@UTelegram@@@std@@V?$allocator@UTelegram@@@3@$0A@@std@@@std@@IAEPAU?$_Tree_node@UTelegram@@PAX@1@U_Nil@1@ABUTelegram@@@Z
_TEXT	SEGMENT
_this$ = -4						; size = 4
___formal$ = 8						; size = 1
__Val$ = 12						; size = 4
??$_Buynode_if_nil@ABUTelegram@@@?$_Tree@V?$_Tset_traits@UTelegram@@U?$less@UTelegram@@@std@@V?$allocator@UTelegram@@@3@$0A@@std@@@std@@IAEPAU?$_Tree_node@UTelegram@@PAX@1@U_Nil@1@ABUTelegram@@@Z PROC ; std::_Tree<std::_Tset_traits<Telegram,std::less<Telegram>,std::allocator<Telegram>,0> >::_Buynode_if_nil<Telegram const &>, COMDAT
; _this$ = ecx

; 1635 : 		{	// node doesn't exist, make it

	push	ebp
	mov	ebp, esp
	push	ecx
	mov	DWORD PTR [ebp-4], -858993460		; ccccccccH
	mov	DWORD PTR _this$[ebp], ecx

; 1636 : 		return (this->_Buynode(_STD forward<_Valty>(_Val)));

	mov	eax, DWORD PTR __Val$[ebp]
	push	eax
	call	??$forward@ABUTelegram@@@std@@YAABUTelegram@@ABU1@@Z ; std::forward<Telegram const &>
	add	esp, 4
	push	eax
	mov	ecx, DWORD PTR _this$[ebp]
	call	??$_Buynode@ABUTelegram@@@?$_Tree_comp_alloc@V?$_Tset_traits@UTelegram@@U?$less@UTelegram@@@std@@V?$allocator@UTelegram@@@3@$0A@@std@@@std@@QAEPAU?$_Tree_node@UTelegram@@PAX@1@ABUTelegram@@@Z ; std::_Tree_comp_alloc<std::_Tset_traits<Telegram,std::less<Telegram>,std::allocator<Telegram>,0> >::_Buynode<Telegram const &>

; 1637 : 		}

	add	esp, 4
	cmp	ebp, esp
	call	__RTC_CheckEsp
	mov	esp, ebp
	pop	ebp
	ret	8
??$_Buynode_if_nil@ABUTelegram@@@?$_Tree@V?$_Tset_traits@UTelegram@@U?$less@UTelegram@@@std@@V?$allocator@UTelegram@@@3@$0A@@std@@@std@@IAEPAU?$_Tree_node@UTelegram@@PAX@1@U_Nil@1@ABUTelegram@@@Z ENDP ; std::_Tree<std::_Tset_traits<Telegram,std::less<Telegram>,std::allocator<Telegram>,0> >::_Buynode_if_nil<Telegram const &>
_TEXT	ENDS
; Function compile flags: /Odtp /RTCsu
; File c:\program files (x86)\microsoft visual studio 14.0\vc\include\xmemory0
;	COMDAT ??$construct@PAU?$_Tree_node@UTelegram@@PAX@std@@AAPAU12@@?$allocator@U?$_Tree_node@UTelegram@@PAX@std@@@std@@QAEXPAPAU?$_Tree_node@UTelegram@@PAX@1@AAPAU21@@Z
_TEXT	SEGMENT
tv73 = -12						; size = 4
$T1 = -8						; size = 4
_this$ = -4						; size = 4
__Ptr$ = 8						; size = 4
_<_Args_0>$ = 12					; size = 4
??$construct@PAU?$_Tree_node@UTelegram@@PAX@std@@AAPAU12@@?$allocator@U?$_Tree_node@UTelegram@@PAX@std@@@std@@QAEXPAPAU?$_Tree_node@UTelegram@@PAX@1@AAPAU21@@Z PROC ; std::allocator<std::_Tree_node<Telegram,void *> >::construct<std::_Tree_node<Telegram,void *> *,std::_Tree_node<Telegram,void *> * &>, COMDAT
; _this$ = ecx

; 736  : 		{	// construct _Objty(_Types...) at _Ptr

	push	ebp
	mov	ebp, esp
	sub	esp, 12					; 0000000cH
	mov	DWORD PTR [ebp-12], -858993460		; ccccccccH
	mov	DWORD PTR [ebp-8], -858993460		; ccccccccH
	mov	DWORD PTR [ebp-4], -858993460		; ccccccccH
	mov	DWORD PTR _this$[ebp], ecx

; 737  : 		::new ((void *)_Ptr) _Objty(_STD forward<_Types>(_Args)...);

	mov	eax, DWORD PTR __Ptr$[ebp]
	push	eax
	push	4
	call	??2@YAPAXIPAX@Z				; operator new
	add	esp, 8
	mov	DWORD PTR $T1[ebp], eax
	cmp	DWORD PTR $T1[ebp], 0
	je	SHORT $LN3@construct
	mov	ecx, DWORD PTR _<_Args_0>$[ebp]
	push	ecx
	call	??$forward@AAPAU?$_Tree_node@UTelegram@@PAX@std@@@std@@YAAAPAU?$_Tree_node@UTelegram@@PAX@0@AAPAU10@@Z ; std::forward<std::_Tree_node<Telegram,void *> * &>
	add	esp, 4
	mov	edx, DWORD PTR $T1[ebp]
	mov	eax, DWORD PTR [eax]
	mov	DWORD PTR [edx], eax
	mov	ecx, DWORD PTR $T1[ebp]
	mov	DWORD PTR tv73[ebp], ecx
	jmp	SHORT $LN1@construct
$LN3@construct:
	mov	DWORD PTR tv73[ebp], 0
$LN1@construct:

; 738  : 		}

	add	esp, 12					; 0000000cH
	cmp	ebp, esp
	call	__RTC_CheckEsp
	mov	esp, ebp
	pop	ebp
	ret	8
??$construct@PAU?$_Tree_node@UTelegram@@PAX@std@@AAPAU12@@?$allocator@U?$_Tree_node@UTelegram@@PAX@std@@@std@@QAEXPAPAU?$_Tree_node@UTelegram@@PAX@1@AAPAU21@@Z ENDP ; std::allocator<std::_Tree_node<Telegram,void *> >::construct<std::_Tree_node<Telegram,void *> *,std::_Tree_node<Telegram,void *> * &>
_TEXT	ENDS
; Function compile flags: /Odtp /RTCsu
; File c:\program files (x86)\microsoft visual studio 14.0\vc\include\xmemory0
;	COMDAT ??$destroy@PAU?$_Tree_node@UTelegram@@PAX@std@@@?$allocator@U?$_Tree_node@UTelegram@@PAX@std@@@std@@QAEXPAPAU?$_Tree_node@UTelegram@@PAX@1@@Z
_TEXT	SEGMENT
_this$ = -4						; size = 4
__Ptr$ = 8						; size = 4
??$destroy@PAU?$_Tree_node@UTelegram@@PAX@std@@@?$allocator@U?$_Tree_node@UTelegram@@PAX@std@@@std@@QAEXPAPAU?$_Tree_node@UTelegram@@PAX@1@@Z PROC ; std::allocator<std::_Tree_node<Telegram,void *> >::destroy<std::_Tree_node<Telegram,void *> *>, COMDAT
; _this$ = ecx

; 743  : 		{	// destroy object at _Ptr

	push	ebp
	mov	ebp, esp
	push	ecx
	mov	DWORD PTR [ebp-4], -858993460		; ccccccccH
	mov	DWORD PTR _this$[ebp], ecx

; 744  : 		_Ptr->~_Uty();
; 745  : 		}

	mov	esp, ebp
	pop	ebp
	ret	4
??$destroy@PAU?$_Tree_node@UTelegram@@PAX@std@@@?$allocator@U?$_Tree_node@UTelegram@@PAX@std@@@std@@QAEXPAPAU?$_Tree_node@UTelegram@@PAX@1@@Z ENDP ; std::allocator<std::_Tree_node<Telegram,void *> >::destroy<std::_Tree_node<Telegram,void *> *>
_TEXT	ENDS
; Function compile flags: /Odtp /RTCsu
; File c:\program files (x86)\microsoft visual studio 14.0\vc\include\xmemory0
;	COMDAT ??$construct@U_Container_proxy@std@@U12@@?$allocator@U_Container_proxy@std@@@std@@QAEXPAU_Container_proxy@1@$$QAU21@@Z
_TEXT	SEGMENT
tv74 = -12						; size = 4
$T1 = -8						; size = 4
_this$ = -4						; size = 4
__Ptr$ = 8						; size = 4
_<_Args_0>$ = 12					; size = 4
??$construct@U_Container_proxy@std@@U12@@?$allocator@U_Container_proxy@std@@@std@@QAEXPAU_Container_proxy@1@$$QAU21@@Z PROC ; std::allocator<std::_Container_proxy>::construct<std::_Container_proxy,std::_Container_proxy>, COMDAT
; _this$ = ecx

; 736  : 		{	// construct _Objty(_Types...) at _Ptr

	push	ebp
	mov	ebp, esp
	sub	esp, 12					; 0000000cH
	mov	DWORD PTR [ebp-12], -858993460		; ccccccccH
	mov	DWORD PTR [ebp-8], -858993460		; ccccccccH
	mov	DWORD PTR [ebp-4], -858993460		; ccccccccH
	mov	DWORD PTR _this$[ebp], ecx

; 737  : 		::new ((void *)_Ptr) _Objty(_STD forward<_Types>(_Args)...);

	mov	eax, DWORD PTR __Ptr$[ebp]
	push	eax
	push	8
	call	??2@YAPAXIPAX@Z				; operator new
	add	esp, 8
	mov	DWORD PTR $T1[ebp], eax
	cmp	DWORD PTR $T1[ebp], 0
	je	SHORT $LN3@construct
	mov	ecx, DWORD PTR _<_Args_0>$[ebp]
	push	ecx
	call	??$forward@U_Container_proxy@std@@@std@@YA$$QAU_Container_proxy@0@AAU10@@Z ; std::forward<std::_Container_proxy>
	add	esp, 4
	mov	edx, DWORD PTR [eax]
	mov	eax, DWORD PTR [eax+4]
	mov	ecx, DWORD PTR $T1[ebp]
	mov	DWORD PTR [ecx], edx
	mov	DWORD PTR [ecx+4], eax
	mov	edx, DWORD PTR $T1[ebp]
	mov	DWORD PTR tv74[ebp], edx
	jmp	SHORT $LN1@construct
$LN3@construct:
	mov	DWORD PTR tv74[ebp], 0
$LN1@construct:

; 738  : 		}

	add	esp, 12					; 0000000cH
	cmp	ebp, esp
	call	__RTC_CheckEsp
	mov	esp, ebp
	pop	ebp
	ret	8
??$construct@U_Container_proxy@std@@U12@@?$allocator@U_Container_proxy@std@@@std@@QAEXPAU_Container_proxy@1@$$QAU21@@Z ENDP ; std::allocator<std::_Container_proxy>::construct<std::_Container_proxy,std::_Container_proxy>
_TEXT	ENDS
; Function compile flags: /Odtp /RTCsu
; File c:\program files (x86)\microsoft visual studio 14.0\vc\include\xmemory0
;	COMDAT ??$destroy@U_Container_proxy@std@@@?$allocator@U_Container_proxy@std@@@std@@QAEXPAU_Container_proxy@1@@Z
_TEXT	SEGMENT
_this$ = -4						; size = 4
__Ptr$ = 8						; size = 4
??$destroy@U_Container_proxy@std@@@?$allocator@U_Container_proxy@std@@@std@@QAEXPAU_Container_proxy@1@@Z PROC ; std::allocator<std::_Container_proxy>::destroy<std::_Container_proxy>, COMDAT
; _this$ = ecx

; 743  : 		{	// destroy object at _Ptr

	push	ebp
	mov	ebp, esp
	push	ecx
	mov	DWORD PTR [ebp-4], -858993460		; ccccccccH
	mov	DWORD PTR _this$[ebp], ecx

; 744  : 		_Ptr->~_Uty();
; 745  : 		}

	mov	esp, ebp
	pop	ebp
	ret	4
??$destroy@U_Container_proxy@std@@@?$allocator@U_Container_proxy@std@@@std@@QAEXPAU_Container_proxy@1@@Z ENDP ; std::allocator<std::_Container_proxy>::destroy<std::_Container_proxy>
_TEXT	ENDS
; Function compile flags: /Odtp /RTCsu
; File c:\program files (x86)\microsoft visual studio 14.0\vc\include\xmemory0
;	COMDAT ??$destroy@UTelegram@@@?$allocator@U?$_Tree_node@UTelegram@@PAX@std@@@std@@QAEXPAUTelegram@@@Z
_TEXT	SEGMENT
_this$ = -4						; size = 4
__Ptr$ = 8						; size = 4
??$destroy@UTelegram@@@?$allocator@U?$_Tree_node@UTelegram@@PAX@std@@@std@@QAEXPAUTelegram@@@Z PROC ; std::allocator<std::_Tree_node<Telegram,void *> >::destroy<Telegram>, COMDAT
; _this$ = ecx

; 743  : 		{	// destroy object at _Ptr

	push	ebp
	mov	ebp, esp
	push	ecx
	mov	DWORD PTR [ebp-4], -858993460		; ccccccccH
	mov	DWORD PTR _this$[ebp], ecx

; 744  : 		_Ptr->~_Uty();
; 745  : 		}

	mov	esp, ebp
	pop	ebp
	ret	4
??$destroy@UTelegram@@@?$allocator@U?$_Tree_node@UTelegram@@PAX@std@@@std@@QAEXPAUTelegram@@@Z ENDP ; std::allocator<std::_Tree_node<Telegram,void *> >::destroy<Telegram>
_TEXT	ENDS
; Function compile flags: /Odtp /RTCsu
; File c:\program files (x86)\microsoft visual studio 14.0\vc\include\utility
;	COMDAT ??$?0AAV?$_Tree_const_iterator@V?$_Tree_val@U?$_Tree_simple_types@UTelegram@@@std@@@std@@@std@@_NX$0A@@?$pair@V?$_Tree_const_iterator@V?$_Tree_val@U?$_Tree_simple_types@UTelegram@@@std@@@std@@@std@@_N@std@@QAE@AAV?$_Tree_const_iterator@V?$_Tree_val@U?$_Tree_simple_types@UTelegram@@@std@@@std@@@1@$$QA_N@Z
_TEXT	SEGMENT
_this$ = -4						; size = 4
__Val1$ = 8						; size = 4
__Val2$ = 12						; size = 4
??$?0AAV?$_Tree_const_iterator@V?$_Tree_val@U?$_Tree_simple_types@UTelegram@@@std@@@std@@@std@@_NX$0A@@?$pair@V?$_Tree_const_iterator@V?$_Tree_val@U?$_Tree_simple_types@UTelegram@@@std@@@std@@@std@@_N@std@@QAE@AAV?$_Tree_const_iterator@V?$_Tree_val@U?$_Tree_simple_types@UTelegram@@@std@@@std@@@1@$$QA_N@Z PROC ; std::pair<std::_Tree_const_iterator<std::_Tree_val<std::_Tree_simple_types<Telegram> > >,bool>::pair<std::_Tree_const_iterator<std::_Tree_val<std::_Tree_simple_types<Telegram> > >,bool><std::_Tree_const_iterator<std::_Tree_val<std::_Tree_simple_types<Telegram> > > &,bool,void,0>, COMDAT
; _this$ = ecx

; 172  : 		{	// construct from moved values

	push	ebp
	mov	ebp, esp
	push	ecx
	mov	DWORD PTR [ebp-4], -858993460		; ccccccccH
	mov	DWORD PTR _this$[ebp], ecx

; 170  : 		: first(_STD forward<_Other1>(_Val1)),

	mov	eax, DWORD PTR __Val1$[ebp]
	push	eax
	call	??$forward@AAV?$_Tree_const_iterator@V?$_Tree_val@U?$_Tree_simple_types@UTelegram@@@std@@@std@@@std@@@std@@YAAAV?$_Tree_const_iterator@V?$_Tree_val@U?$_Tree_simple_types@UTelegram@@@std@@@std@@@0@AAV10@@Z ; std::forward<std::_Tree_const_iterator<std::_Tree_val<std::_Tree_simple_types<Telegram> > > &>
	add	esp, 4
	push	eax
	mov	ecx, DWORD PTR _this$[ebp]
	call	??0?$_Tree_const_iterator@V?$_Tree_val@U?$_Tree_simple_types@UTelegram@@@std@@@std@@@std@@QAE@ABV01@@Z

; 171  : 				second(_STD forward<_Other2>(_Val2))

	mov	ecx, DWORD PTR __Val2$[ebp]
	push	ecx
	call	??$forward@_N@std@@YA$$QA_NAA_N@Z	; std::forward<bool>
	add	esp, 4
	mov	edx, DWORD PTR _this$[ebp]
	mov	al, BYTE PTR [eax]
	mov	BYTE PTR [edx+12], al

; 173  : 		}

	mov	eax, DWORD PTR _this$[ebp]
	add	esp, 4
	cmp	ebp, esp
	call	__RTC_CheckEsp
	mov	esp, ebp
	pop	ebp
	ret	8
??$?0AAV?$_Tree_const_iterator@V?$_Tree_val@U?$_Tree_simple_types@UTelegram@@@std@@@std@@@std@@_NX$0A@@?$pair@V?$_Tree_const_iterator@V?$_Tree_val@U?$_Tree_simple_types@UTelegram@@@std@@@std@@@std@@_N@std@@QAE@AAV?$_Tree_const_iterator@V?$_Tree_val@U?$_Tree_simple_types@UTelegram@@@std@@@std@@@1@$$QA_N@Z ENDP ; std::pair<std::_Tree_const_iterator<std::_Tree_val<std::_Tree_simple_types<Telegram> > >,bool>::pair<std::_Tree_const_iterator<std::_Tree_val<std::_Tree_simple_types<Telegram> > >,bool><std::_Tree_const_iterator<std::_Tree_val<std::_Tree_simple_types<Telegram> > > &,bool,void,0>
_TEXT	ENDS
; Function compile flags: /Odtp /RTCsu
; File c:\program files (x86)\microsoft visual studio 14.0\vc\include\utility
;	COMDAT ??$?0V?$_Tree_const_iterator@V?$_Tree_val@U?$_Tree_simple_types@UTelegram@@@std@@@std@@@std@@_NX$0A@@?$pair@V?$_Tree_const_iterator@V?$_Tree_val@U?$_Tree_simple_types@UTelegram@@@std@@@std@@@std@@_N@std@@QAE@$$QAV?$_Tree_const_iterator@V?$_Tree_val@U?$_Tree_simple_types@UTelegram@@@std@@@std@@@1@$$QA_N@Z
_TEXT	SEGMENT
_this$ = -4						; size = 4
__Val1$ = 8						; size = 4
__Val2$ = 12						; size = 4
??$?0V?$_Tree_const_iterator@V?$_Tree_val@U?$_Tree_simple_types@UTelegram@@@std@@@std@@@std@@_NX$0A@@?$pair@V?$_Tree_const_iterator@V?$_Tree_val@U?$_Tree_simple_types@UTelegram@@@std@@@std@@@std@@_N@std@@QAE@$$QAV?$_Tree_const_iterator@V?$_Tree_val@U?$_Tree_simple_types@UTelegram@@@std@@@std@@@1@$$QA_N@Z PROC ; std::pair<std::_Tree_const_iterator<std::_Tree_val<std::_Tree_simple_types<Telegram> > >,bool>::pair<std::_Tree_const_iterator<std::_Tree_val<std::_Tree_simple_types<Telegram> > >,bool><std::_Tree_const_iterator<std::_Tree_val<std::_Tree_simple_types<Telegram> > >,bool,void,0>, COMDAT
; _this$ = ecx

; 172  : 		{	// construct from moved values

	push	ebp
	mov	ebp, esp
	push	ecx
	mov	DWORD PTR [ebp-4], -858993460		; ccccccccH
	mov	DWORD PTR _this$[ebp], ecx

; 170  : 		: first(_STD forward<_Other1>(_Val1)),

	mov	eax, DWORD PTR __Val1$[ebp]
	push	eax
	call	??$forward@V?$_Tree_const_iterator@V?$_Tree_val@U?$_Tree_simple_types@UTelegram@@@std@@@std@@@std@@@std@@YA$$QAV?$_Tree_const_iterator@V?$_Tree_val@U?$_Tree_simple_types@UTelegram@@@std@@@std@@@0@AAV10@@Z ; std::forward<std::_Tree_const_iterator<std::_Tree_val<std::_Tree_simple_types<Telegram> > > >
	add	esp, 4
	push	eax
	mov	ecx, DWORD PTR _this$[ebp]
	call	??0?$_Tree_const_iterator@V?$_Tree_val@U?$_Tree_simple_types@UTelegram@@@std@@@std@@@std@@QAE@$$QAV01@@Z

; 171  : 				second(_STD forward<_Other2>(_Val2))

	mov	ecx, DWORD PTR __Val2$[ebp]
	push	ecx
	call	??$forward@_N@std@@YA$$QA_NAA_N@Z	; std::forward<bool>
	add	esp, 4
	mov	edx, DWORD PTR _this$[ebp]
	mov	al, BYTE PTR [eax]
	mov	BYTE PTR [edx+12], al

; 173  : 		}

	mov	eax, DWORD PTR _this$[ebp]
	add	esp, 4
	cmp	ebp, esp
	call	__RTC_CheckEsp
	mov	esp, ebp
	pop	ebp
	ret	8
??$?0V?$_Tree_const_iterator@V?$_Tree_val@U?$_Tree_simple_types@UTelegram@@@std@@@std@@@std@@_NX$0A@@?$pair@V?$_Tree_const_iterator@V?$_Tree_val@U?$_Tree_simple_types@UTelegram@@@std@@@std@@@std@@_N@std@@QAE@$$QAV?$_Tree_const_iterator@V?$_Tree_val@U?$_Tree_simple_types@UTelegram@@@std@@@std@@@1@$$QA_N@Z ENDP ; std::pair<std::_Tree_const_iterator<std::_Tree_val<std::_Tree_simple_types<Telegram> > >,bool>::pair<std::_Tree_const_iterator<std::_Tree_val<std::_Tree_simple_types<Telegram> > >,bool><std::_Tree_const_iterator<std::_Tree_val<std::_Tree_simple_types<Telegram> > >,bool,void,0>
_TEXT	ENDS
; Function compile flags: /Odtp /RTCsu
; File c:\program files (x86)\microsoft visual studio 14.0\vc\include\xtree
;	COMDAT ??$_Insert_at@ABUTelegram@@U_Nil@std@@@?$_Tree@V?$_Tset_traits@UTelegram@@U?$less@UTelegram@@@std@@V?$allocator@UTelegram@@@3@$0A@@std@@@std@@IAE?AV?$_Tree_const_iterator@V?$_Tree_val@U?$_Tree_simple_types@UTelegram@@@std@@@std@@@1@_NPAU?$_Tree_node@UTelegram@@PAX@1@ABUTelegram@@U_Nil@1@@Z
_TEXT	SEGMENT
tv89 = -20						; size = 4
$T1 = -16						; size = 4
__Pnode$2 = -12						; size = 4
__Newnode$ = -8						; size = 4
_this$ = -4						; size = 4
___$ReturnUdt$ = 8					; size = 4
__Addleft$ = 12						; size = 1
__Wherenode$ = 16					; size = 4
__Val$ = 20						; size = 4
__Node$ = 24						; size = 1
??$_Insert_at@ABUTelegram@@U_Nil@std@@@?$_Tree@V?$_Tset_traits@UTelegram@@U?$less@UTelegram@@@std@@V?$allocator@UTelegram@@@3@$0A@@std@@@std@@IAE?AV?$_Tree_const_iterator@V?$_Tree_val@U?$_Tree_simple_types@UTelegram@@@std@@@std@@@1@_NPAU?$_Tree_node@UTelegram@@PAX@1@ABUTelegram@@U_Nil@1@@Z PROC ; std::_Tree<std::_Tset_traits<Telegram,std::less<Telegram>,std::allocator<Telegram>,0> >::_Insert_at<Telegram const &,std::_Nil>, COMDAT
; _this$ = ecx

; 1827 : 		{	// add node with value next to _Wherenode, to left if _Addleft

	push	ebp
	mov	ebp, esp
	sub	esp, 20					; 00000014H
	push	esi
	mov	eax, -858993460				; ccccccccH
	mov	DWORD PTR [ebp-20], eax
	mov	DWORD PTR [ebp-16], eax
	mov	DWORD PTR [ebp-12], eax
	mov	DWORD PTR [ebp-8], eax
	mov	DWORD PTR [ebp-4], eax
	mov	DWORD PTR _this$[ebp], ecx
	mov	DWORD PTR $T1[ebp], 0

; 1828 : 		if (max_size() - 1 <= this->_Mysize())

	mov	ecx, DWORD PTR _this$[ebp]
	call	?max_size@?$_Tree@V?$_Tset_traits@UTelegram@@U?$less@UTelegram@@@std@@V?$allocator@UTelegram@@@3@$0A@@std@@@std@@QBEIXZ ; std::_Tree<std::_Tset_traits<Telegram,std::less<Telegram>,std::allocator<Telegram>,0> >::max_size
	mov	esi, eax
	sub	esi, 1
	mov	ecx, DWORD PTR _this$[ebp]
	call	?_Mysize@?$_Tree_comp_alloc@V?$_Tset_traits@UTelegram@@U?$less@UTelegram@@@std@@V?$allocator@UTelegram@@@3@$0A@@std@@@std@@QAEAAIXZ ; std::_Tree_comp_alloc<std::_Tset_traits<Telegram,std::less<Telegram>,std::allocator<Telegram>,0> >::_Mysize
	cmp	esi, DWORD PTR [eax]
	ja	SHORT $LN5@Insert_at

; 1829 : 			{	// tree would get too big, fail
; 1830 : 			_Destroy_if_not_nil(_Node);

	movzx	eax, BYTE PTR __Node$[ebp]
	push	eax
	mov	ecx, DWORD PTR _this$[ebp]
	call	?_Destroy_if_not_nil@?$_Tree@V?$_Tset_traits@UTelegram@@U?$less@UTelegram@@@std@@V?$allocator@UTelegram@@@3@$0A@@std@@@std@@IAEXU_Nil@2@@Z ; std::_Tree<std::_Tset_traits<Telegram,std::less<Telegram>,std::allocator<Telegram>,0> >::_Destroy_if_not_nil

; 1831 : 			_Xlength_error("map/set<T> too long");

	push	OFFSET ??_C@_0BE@JONHPENG@map?1set?$DMT?$DO?5too?5long?$AA@
	call	?_Xlength_error@std@@YAXPBD@Z		; std::_Xlength_error
$LN5@Insert_at:

; 1832 : 			}
; 1833 : 		_Nodeptr _Newnode = _Buynode_if_nil(_Node,

	mov	ecx, DWORD PTR __Val$[ebp]
	push	ecx
	call	??$forward@ABUTelegram@@@std@@YAABUTelegram@@ABU1@@Z ; std::forward<Telegram const &>
	add	esp, 4
	push	eax
	movzx	edx, BYTE PTR __Node$[ebp]
	push	edx
	mov	ecx, DWORD PTR _this$[ebp]
	call	??$_Buynode_if_nil@ABUTelegram@@@?$_Tree@V?$_Tset_traits@UTelegram@@U?$less@UTelegram@@@std@@V?$allocator@UTelegram@@@3@$0A@@std@@@std@@IAEPAU?$_Tree_node@UTelegram@@PAX@1@U_Nil@1@ABUTelegram@@@Z ; std::_Tree<std::_Tset_traits<Telegram,std::less<Telegram>,std::allocator<Telegram>,0> >::_Buynode_if_nil<Telegram const &>
	mov	DWORD PTR __Newnode$[ebp], eax

; 1834 : 			_STD forward<_Valty>(_Val));
; 1835 : 
; 1836 : 		++this->_Mysize();

	mov	ecx, DWORD PTR _this$[ebp]
	call	?_Mysize@?$_Tree_comp_alloc@V?$_Tset_traits@UTelegram@@U?$less@UTelegram@@@std@@V?$allocator@UTelegram@@@3@$0A@@std@@@std@@QAEAAIXZ ; std::_Tree_comp_alloc<std::_Tset_traits<Telegram,std::less<Telegram>,std::allocator<Telegram>,0> >::_Mysize
	mov	DWORD PTR tv89[ebp], eax
	mov	eax, DWORD PTR tv89[ebp]
	mov	ecx, DWORD PTR [eax]
	add	ecx, 1
	mov	edx, DWORD PTR tv89[ebp]
	mov	DWORD PTR [edx], ecx

; 1837 : 		_Newnode->_Parent = _Wherenode;

	mov	eax, DWORD PTR __Newnode$[ebp]
	mov	ecx, DWORD PTR __Wherenode$[ebp]
	mov	DWORD PTR [eax+4], ecx

; 1838 : 
; 1839 : 		if (_Wherenode == this->_Myhead())

	mov	ecx, DWORD PTR _this$[ebp]
	call	?_Myhead@?$_Tree_comp_alloc@V?$_Tset_traits@UTelegram@@U?$less@UTelegram@@@std@@V?$allocator@UTelegram@@@3@$0A@@std@@@std@@QAEAAPAU?$_Tree_node@UTelegram@@PAX@2@XZ ; std::_Tree_comp_alloc<std::_Tset_traits<Telegram,std::less<Telegram>,std::allocator<Telegram>,0> >::_Myhead
	mov	edx, DWORD PTR __Wherenode$[ebp]
	cmp	edx, DWORD PTR [eax]
	jne	SHORT $LN6@Insert_at

; 1840 : 			{	// first node in tree, just set head values
; 1841 : 			_Root() = _Newnode;

	mov	ecx, DWORD PTR _this$[ebp]
	call	?_Root@?$_Tree@V?$_Tset_traits@UTelegram@@U?$less@UTelegram@@@std@@V?$allocator@UTelegram@@@3@$0A@@std@@@std@@IBEAAPAU?$_Tree_node@UTelegram@@PAX@2@XZ ; std::_Tree<std::_Tset_traits<Telegram,std::less<Telegram>,std::allocator<Telegram>,0> >::_Root
	mov	ecx, DWORD PTR __Newnode$[ebp]
	mov	DWORD PTR [eax], ecx

; 1842 : 			_Lmost() = _Newnode;

	mov	ecx, DWORD PTR _this$[ebp]
	call	?_Lmost@?$_Tree@V?$_Tset_traits@UTelegram@@U?$less@UTelegram@@@std@@V?$allocator@UTelegram@@@3@$0A@@std@@@std@@IBEAAPAU?$_Tree_node@UTelegram@@PAX@2@XZ ; std::_Tree<std::_Tset_traits<Telegram,std::less<Telegram>,std::allocator<Telegram>,0> >::_Lmost
	mov	edx, DWORD PTR __Newnode$[ebp]
	mov	DWORD PTR [eax], edx

; 1843 : 			_Rmost() = _Newnode;

	mov	ecx, DWORD PTR _this$[ebp]
	call	?_Rmost@?$_Tree@V?$_Tset_traits@UTelegram@@U?$less@UTelegram@@@std@@V?$allocator@UTelegram@@@3@$0A@@std@@@std@@IBEAAPAU?$_Tree_node@UTelegram@@PAX@2@XZ ; std::_Tree<std::_Tset_traits<Telegram,std::less<Telegram>,std::allocator<Telegram>,0> >::_Rmost
	mov	ecx, DWORD PTR __Newnode$[ebp]
	mov	DWORD PTR [eax], ecx
	jmp	SHORT $LN7@Insert_at
$LN6@Insert_at:

; 1844 : 			}
; 1845 : 		else if (_Addleft)

	movzx	edx, BYTE PTR __Addleft$[ebp]
	test	edx, edx
	je	SHORT $LN8@Insert_at

; 1846 : 			{	// add to left of _Wherenode
; 1847 : 			this->_Left(_Wherenode) = _Newnode;

	mov	eax, DWORD PTR __Wherenode$[ebp]
	push	eax
	call	?_Left@?$_Tree_comp_alloc@V?$_Tset_traits@UTelegram@@U?$less@UTelegram@@@std@@V?$allocator@UTelegram@@@3@$0A@@std@@@std@@SAAAPAU?$_Tree_node@UTelegram@@PAX@2@PAU32@@Z ; std::_Tree_comp_alloc<std::_Tset_traits<Telegram,std::less<Telegram>,std::allocator<Telegram>,0> >::_Left
	add	esp, 4
	mov	ecx, DWORD PTR __Newnode$[ebp]
	mov	DWORD PTR [eax], ecx

; 1848 : 			if (_Wherenode == _Lmost())

	mov	ecx, DWORD PTR _this$[ebp]
	call	?_Lmost@?$_Tree@V?$_Tset_traits@UTelegram@@U?$less@UTelegram@@@std@@V?$allocator@UTelegram@@@3@$0A@@std@@@std@@IBEAAPAU?$_Tree_node@UTelegram@@PAX@2@XZ ; std::_Tree<std::_Tset_traits<Telegram,std::less<Telegram>,std::allocator<Telegram>,0> >::_Lmost
	mov	edx, DWORD PTR __Wherenode$[ebp]
	cmp	edx, DWORD PTR [eax]
	jne	SHORT $LN10@Insert_at

; 1849 : 				_Lmost() = _Newnode;

	mov	ecx, DWORD PTR _this$[ebp]
	call	?_Lmost@?$_Tree@V?$_Tset_traits@UTelegram@@U?$less@UTelegram@@@std@@V?$allocator@UTelegram@@@3@$0A@@std@@@std@@IBEAAPAU?$_Tree_node@UTelegram@@PAX@2@XZ ; std::_Tree<std::_Tset_traits<Telegram,std::less<Telegram>,std::allocator<Telegram>,0> >::_Lmost
	mov	ecx, DWORD PTR __Newnode$[ebp]
	mov	DWORD PTR [eax], ecx
$LN10@Insert_at:

; 1850 : 			}
; 1851 : 		else

	jmp	SHORT $LN7@Insert_at
$LN8@Insert_at:

; 1852 : 			{	// add to right of _Wherenode
; 1853 : 			this->_Right(_Wherenode) = _Newnode;

	mov	edx, DWORD PTR __Wherenode$[ebp]
	push	edx
	call	?_Right@?$_Tree_comp_alloc@V?$_Tset_traits@UTelegram@@U?$less@UTelegram@@@std@@V?$allocator@UTelegram@@@3@$0A@@std@@@std@@SAAAPAU?$_Tree_node@UTelegram@@PAX@2@PAU32@@Z ; std::_Tree_comp_alloc<std::_Tset_traits<Telegram,std::less<Telegram>,std::allocator<Telegram>,0> >::_Right
	add	esp, 4
	mov	ecx, DWORD PTR __Newnode$[ebp]
	mov	DWORD PTR [eax], ecx

; 1854 : 			if (_Wherenode == _Rmost())

	mov	ecx, DWORD PTR _this$[ebp]
	call	?_Rmost@?$_Tree@V?$_Tset_traits@UTelegram@@U?$less@UTelegram@@@std@@V?$allocator@UTelegram@@@3@$0A@@std@@@std@@IBEAAPAU?$_Tree_node@UTelegram@@PAX@2@XZ ; std::_Tree<std::_Tset_traits<Telegram,std::less<Telegram>,std::allocator<Telegram>,0> >::_Rmost
	mov	edx, DWORD PTR __Wherenode$[ebp]
	cmp	edx, DWORD PTR [eax]
	jne	SHORT $LN7@Insert_at

; 1855 : 				_Rmost() = _Newnode;

	mov	ecx, DWORD PTR _this$[ebp]
	call	?_Rmost@?$_Tree@V?$_Tset_traits@UTelegram@@U?$less@UTelegram@@@std@@V?$allocator@UTelegram@@@3@$0A@@std@@@std@@IBEAAPAU?$_Tree_node@UTelegram@@PAX@2@XZ ; std::_Tree<std::_Tset_traits<Telegram,std::less<Telegram>,std::allocator<Telegram>,0> >::_Rmost
	mov	ecx, DWORD PTR __Newnode$[ebp]
	mov	DWORD PTR [eax], ecx
$LN7@Insert_at:

; 1856 : 			}
; 1857 : 
; 1858 : 		for (_Nodeptr _Pnode = _Newnode;

	mov	edx, DWORD PTR __Newnode$[ebp]
	mov	DWORD PTR __Pnode$2[ebp], edx
$LN4@Insert_at:

; 1859 : 			this->_Color(this->_Parent(_Pnode)) == this->_Red; )

	mov	eax, DWORD PTR __Pnode$2[ebp]
	push	eax
	call	?_Parent@?$_Tree_comp_alloc@V?$_Tset_traits@UTelegram@@U?$less@UTelegram@@@std@@V?$allocator@UTelegram@@@3@$0A@@std@@@std@@SAAAPAU?$_Tree_node@UTelegram@@PAX@2@PAU32@@Z ; std::_Tree_comp_alloc<std::_Tset_traits<Telegram,std::less<Telegram>,std::allocator<Telegram>,0> >::_Parent
	add	esp, 4
	mov	ecx, DWORD PTR [eax]
	push	ecx
	call	?_Color@?$_Tree_comp_alloc@V?$_Tset_traits@UTelegram@@U?$less@UTelegram@@@std@@V?$allocator@UTelegram@@@3@$0A@@std@@@std@@SAAADPAU?$_Tree_node@UTelegram@@PAX@2@@Z ; std::_Tree_comp_alloc<std::_Tset_traits<Telegram,std::less<Telegram>,std::allocator<Telegram>,0> >::_Color
	add	esp, 4
	movsx	edx, BYTE PTR [eax]
	test	edx, edx
	jne	$LN3@Insert_at

; 1860 : 			if (this->_Parent(_Pnode)
; 1861 : 				== this->_Left(this->_Parent(this->_Parent(_Pnode))))

	mov	eax, DWORD PTR __Pnode$2[ebp]
	push	eax
	call	?_Parent@?$_Tree_comp_alloc@V?$_Tset_traits@UTelegram@@U?$less@UTelegram@@@std@@V?$allocator@UTelegram@@@3@$0A@@std@@@std@@SAAAPAU?$_Tree_node@UTelegram@@PAX@2@PAU32@@Z ; std::_Tree_comp_alloc<std::_Tset_traits<Telegram,std::less<Telegram>,std::allocator<Telegram>,0> >::_Parent
	add	esp, 4
	mov	esi, eax
	mov	ecx, DWORD PTR __Pnode$2[ebp]
	push	ecx
	call	?_Parent@?$_Tree_comp_alloc@V?$_Tset_traits@UTelegram@@U?$less@UTelegram@@@std@@V?$allocator@UTelegram@@@3@$0A@@std@@@std@@SAAAPAU?$_Tree_node@UTelegram@@PAX@2@PAU32@@Z ; std::_Tree_comp_alloc<std::_Tset_traits<Telegram,std::less<Telegram>,std::allocator<Telegram>,0> >::_Parent
	add	esp, 4
	mov	edx, DWORD PTR [eax]
	push	edx
	call	?_Parent@?$_Tree_comp_alloc@V?$_Tset_traits@UTelegram@@U?$less@UTelegram@@@std@@V?$allocator@UTelegram@@@3@$0A@@std@@@std@@SAAAPAU?$_Tree_node@UTelegram@@PAX@2@PAU32@@Z ; std::_Tree_comp_alloc<std::_Tset_traits<Telegram,std::less<Telegram>,std::allocator<Telegram>,0> >::_Parent
	add	esp, 4
	mov	eax, DWORD PTR [eax]
	push	eax
	call	?_Left@?$_Tree_comp_alloc@V?$_Tset_traits@UTelegram@@U?$less@UTelegram@@@std@@V?$allocator@UTelegram@@@3@$0A@@std@@@std@@SAAAPAU?$_Tree_node@UTelegram@@PAX@2@PAU32@@Z ; std::_Tree_comp_alloc<std::_Tset_traits<Telegram,std::less<Telegram>,std::allocator<Telegram>,0> >::_Left
	add	esp, 4
	mov	ecx, DWORD PTR [esi]
	cmp	ecx, DWORD PTR [eax]
	jne	$LN12@Insert_at

; 1862 : 				{	// fixup red-red in left subtree
; 1863 : 				_Wherenode =

	mov	edx, DWORD PTR __Pnode$2[ebp]
	push	edx
	call	?_Parent@?$_Tree_comp_alloc@V?$_Tset_traits@UTelegram@@U?$less@UTelegram@@@std@@V?$allocator@UTelegram@@@3@$0A@@std@@@std@@SAAAPAU?$_Tree_node@UTelegram@@PAX@2@PAU32@@Z ; std::_Tree_comp_alloc<std::_Tset_traits<Telegram,std::less<Telegram>,std::allocator<Telegram>,0> >::_Parent
	add	esp, 4
	mov	eax, DWORD PTR [eax]
	push	eax
	call	?_Parent@?$_Tree_comp_alloc@V?$_Tset_traits@UTelegram@@U?$less@UTelegram@@@std@@V?$allocator@UTelegram@@@3@$0A@@std@@@std@@SAAAPAU?$_Tree_node@UTelegram@@PAX@2@PAU32@@Z ; std::_Tree_comp_alloc<std::_Tset_traits<Telegram,std::less<Telegram>,std::allocator<Telegram>,0> >::_Parent
	add	esp, 4
	mov	ecx, DWORD PTR [eax]
	push	ecx
	call	?_Right@?$_Tree_comp_alloc@V?$_Tset_traits@UTelegram@@U?$less@UTelegram@@@std@@V?$allocator@UTelegram@@@3@$0A@@std@@@std@@SAAAPAU?$_Tree_node@UTelegram@@PAX@2@PAU32@@Z ; std::_Tree_comp_alloc<std::_Tset_traits<Telegram,std::less<Telegram>,std::allocator<Telegram>,0> >::_Right
	add	esp, 4
	mov	edx, DWORD PTR [eax]
	mov	DWORD PTR __Wherenode$[ebp], edx

; 1864 : 					this->_Right(this->_Parent(this->_Parent(_Pnode)));
; 1865 : 				if (this->_Color(_Wherenode) == this->_Red)

	mov	eax, DWORD PTR __Wherenode$[ebp]
	push	eax
	call	?_Color@?$_Tree_comp_alloc@V?$_Tset_traits@UTelegram@@U?$less@UTelegram@@@std@@V?$allocator@UTelegram@@@3@$0A@@std@@@std@@SAAADPAU?$_Tree_node@UTelegram@@PAX@2@@Z ; std::_Tree_comp_alloc<std::_Tset_traits<Telegram,std::less<Telegram>,std::allocator<Telegram>,0> >::_Color
	add	esp, 4
	movsx	ecx, BYTE PTR [eax]
	test	ecx, ecx
	jne	SHORT $LN14@Insert_at

; 1866 : 					{	// parent has two red children, blacken both
; 1867 : 					this->_Color(this->_Parent(_Pnode)) = this->_Black;

	mov	edx, DWORD PTR __Pnode$2[ebp]
	push	edx
	call	?_Parent@?$_Tree_comp_alloc@V?$_Tset_traits@UTelegram@@U?$less@UTelegram@@@std@@V?$allocator@UTelegram@@@3@$0A@@std@@@std@@SAAAPAU?$_Tree_node@UTelegram@@PAX@2@PAU32@@Z ; std::_Tree_comp_alloc<std::_Tset_traits<Telegram,std::less<Telegram>,std::allocator<Telegram>,0> >::_Parent
	add	esp, 4
	mov	eax, DWORD PTR [eax]
	push	eax
	call	?_Color@?$_Tree_comp_alloc@V?$_Tset_traits@UTelegram@@U?$less@UTelegram@@@std@@V?$allocator@UTelegram@@@3@$0A@@std@@@std@@SAAADPAU?$_Tree_node@UTelegram@@PAX@2@@Z ; std::_Tree_comp_alloc<std::_Tset_traits<Telegram,std::less<Telegram>,std::allocator<Telegram>,0> >::_Color
	add	esp, 4
	mov	BYTE PTR [eax], 1

; 1868 : 					this->_Color(_Wherenode) = this->_Black;

	mov	ecx, DWORD PTR __Wherenode$[ebp]
	push	ecx
	call	?_Color@?$_Tree_comp_alloc@V?$_Tset_traits@UTelegram@@U?$less@UTelegram@@@std@@V?$allocator@UTelegram@@@3@$0A@@std@@@std@@SAAADPAU?$_Tree_node@UTelegram@@PAX@2@@Z ; std::_Tree_comp_alloc<std::_Tset_traits<Telegram,std::less<Telegram>,std::allocator<Telegram>,0> >::_Color
	add	esp, 4
	mov	BYTE PTR [eax], 1

; 1869 : 					this->_Color(this->_Parent(this->_Parent(_Pnode)))

	mov	edx, DWORD PTR __Pnode$2[ebp]
	push	edx
	call	?_Parent@?$_Tree_comp_alloc@V?$_Tset_traits@UTelegram@@U?$less@UTelegram@@@std@@V?$allocator@UTelegram@@@3@$0A@@std@@@std@@SAAAPAU?$_Tree_node@UTelegram@@PAX@2@PAU32@@Z ; std::_Tree_comp_alloc<std::_Tset_traits<Telegram,std::less<Telegram>,std::allocator<Telegram>,0> >::_Parent
	add	esp, 4
	mov	eax, DWORD PTR [eax]
	push	eax
	call	?_Parent@?$_Tree_comp_alloc@V?$_Tset_traits@UTelegram@@U?$less@UTelegram@@@std@@V?$allocator@UTelegram@@@3@$0A@@std@@@std@@SAAAPAU?$_Tree_node@UTelegram@@PAX@2@PAU32@@Z ; std::_Tree_comp_alloc<std::_Tset_traits<Telegram,std::less<Telegram>,std::allocator<Telegram>,0> >::_Parent
	add	esp, 4
	mov	ecx, DWORD PTR [eax]
	push	ecx
	call	?_Color@?$_Tree_comp_alloc@V?$_Tset_traits@UTelegram@@U?$less@UTelegram@@@std@@V?$allocator@UTelegram@@@3@$0A@@std@@@std@@SAAADPAU?$_Tree_node@UTelegram@@PAX@2@@Z ; std::_Tree_comp_alloc<std::_Tset_traits<Telegram,std::less<Telegram>,std::allocator<Telegram>,0> >::_Color
	add	esp, 4
	mov	BYTE PTR [eax], 0

; 1870 : 						= this->_Red;
; 1871 : 					_Pnode = this->_Parent(this->_Parent(_Pnode));

	mov	edx, DWORD PTR __Pnode$2[ebp]
	push	edx
	call	?_Parent@?$_Tree_comp_alloc@V?$_Tset_traits@UTelegram@@U?$less@UTelegram@@@std@@V?$allocator@UTelegram@@@3@$0A@@std@@@std@@SAAAPAU?$_Tree_node@UTelegram@@PAX@2@PAU32@@Z ; std::_Tree_comp_alloc<std::_Tset_traits<Telegram,std::less<Telegram>,std::allocator<Telegram>,0> >::_Parent
	add	esp, 4
	mov	eax, DWORD PTR [eax]
	push	eax
	call	?_Parent@?$_Tree_comp_alloc@V?$_Tset_traits@UTelegram@@U?$less@UTelegram@@@std@@V?$allocator@UTelegram@@@3@$0A@@std@@@std@@SAAAPAU?$_Tree_node@UTelegram@@PAX@2@PAU32@@Z ; std::_Tree_comp_alloc<std::_Tset_traits<Telegram,std::less<Telegram>,std::allocator<Telegram>,0> >::_Parent
	add	esp, 4
	mov	ecx, DWORD PTR [eax]
	mov	DWORD PTR __Pnode$2[ebp], ecx

; 1872 : 					}
; 1873 : 				else

	jmp	$LN15@Insert_at
$LN14@Insert_at:

; 1874 : 					{	// parent has red and black children
; 1875 : 					if (_Pnode == this->_Right(this->_Parent(_Pnode)))

	mov	edx, DWORD PTR __Pnode$2[ebp]
	push	edx
	call	?_Parent@?$_Tree_comp_alloc@V?$_Tset_traits@UTelegram@@U?$less@UTelegram@@@std@@V?$allocator@UTelegram@@@3@$0A@@std@@@std@@SAAAPAU?$_Tree_node@UTelegram@@PAX@2@PAU32@@Z ; std::_Tree_comp_alloc<std::_Tset_traits<Telegram,std::less<Telegram>,std::allocator<Telegram>,0> >::_Parent
	add	esp, 4
	mov	eax, DWORD PTR [eax]
	push	eax
	call	?_Right@?$_Tree_comp_alloc@V?$_Tset_traits@UTelegram@@U?$less@UTelegram@@@std@@V?$allocator@UTelegram@@@3@$0A@@std@@@std@@SAAAPAU?$_Tree_node@UTelegram@@PAX@2@PAU32@@Z ; std::_Tree_comp_alloc<std::_Tset_traits<Telegram,std::less<Telegram>,std::allocator<Telegram>,0> >::_Right
	add	esp, 4
	mov	ecx, DWORD PTR __Pnode$2[ebp]
	cmp	ecx, DWORD PTR [eax]
	jne	SHORT $LN16@Insert_at

; 1876 : 						{	// rotate right child to left
; 1877 : 						_Pnode = this->_Parent(_Pnode);

	mov	edx, DWORD PTR __Pnode$2[ebp]
	push	edx
	call	?_Parent@?$_Tree_comp_alloc@V?$_Tset_traits@UTelegram@@U?$less@UTelegram@@@std@@V?$allocator@UTelegram@@@3@$0A@@std@@@std@@SAAAPAU?$_Tree_node@UTelegram@@PAX@2@PAU32@@Z ; std::_Tree_comp_alloc<std::_Tset_traits<Telegram,std::less<Telegram>,std::allocator<Telegram>,0> >::_Parent
	add	esp, 4
	mov	eax, DWORD PTR [eax]
	mov	DWORD PTR __Pnode$2[ebp], eax

; 1878 : 						_Lrotate(_Pnode);

	mov	ecx, DWORD PTR __Pnode$2[ebp]
	push	ecx
	mov	ecx, DWORD PTR _this$[ebp]
	call	?_Lrotate@?$_Tree@V?$_Tset_traits@UTelegram@@U?$less@UTelegram@@@std@@V?$allocator@UTelegram@@@3@$0A@@std@@@std@@IAEXPAU?$_Tree_node@UTelegram@@PAX@2@@Z ; std::_Tree<std::_Tset_traits<Telegram,std::less<Telegram>,std::allocator<Telegram>,0> >::_Lrotate
$LN16@Insert_at:

; 1879 : 						}
; 1880 : 					this->_Color(this->_Parent(_Pnode)) =

	mov	edx, DWORD PTR __Pnode$2[ebp]
	push	edx
	call	?_Parent@?$_Tree_comp_alloc@V?$_Tset_traits@UTelegram@@U?$less@UTelegram@@@std@@V?$allocator@UTelegram@@@3@$0A@@std@@@std@@SAAAPAU?$_Tree_node@UTelegram@@PAX@2@PAU32@@Z ; std::_Tree_comp_alloc<std::_Tset_traits<Telegram,std::less<Telegram>,std::allocator<Telegram>,0> >::_Parent
	add	esp, 4
	mov	eax, DWORD PTR [eax]
	push	eax
	call	?_Color@?$_Tree_comp_alloc@V?$_Tset_traits@UTelegram@@U?$less@UTelegram@@@std@@V?$allocator@UTelegram@@@3@$0A@@std@@@std@@SAAADPAU?$_Tree_node@UTelegram@@PAX@2@@Z ; std::_Tree_comp_alloc<std::_Tset_traits<Telegram,std::less<Telegram>,std::allocator<Telegram>,0> >::_Color
	add	esp, 4
	mov	BYTE PTR [eax], 1

; 1881 : 						this->_Black;	// propagate red up
; 1882 : 					this->_Color(this->_Parent(this->_Parent(_Pnode))) =

	mov	ecx, DWORD PTR __Pnode$2[ebp]
	push	ecx
	call	?_Parent@?$_Tree_comp_alloc@V?$_Tset_traits@UTelegram@@U?$less@UTelegram@@@std@@V?$allocator@UTelegram@@@3@$0A@@std@@@std@@SAAAPAU?$_Tree_node@UTelegram@@PAX@2@PAU32@@Z ; std::_Tree_comp_alloc<std::_Tset_traits<Telegram,std::less<Telegram>,std::allocator<Telegram>,0> >::_Parent
	add	esp, 4
	mov	edx, DWORD PTR [eax]
	push	edx
	call	?_Parent@?$_Tree_comp_alloc@V?$_Tset_traits@UTelegram@@U?$less@UTelegram@@@std@@V?$allocator@UTelegram@@@3@$0A@@std@@@std@@SAAAPAU?$_Tree_node@UTelegram@@PAX@2@PAU32@@Z ; std::_Tree_comp_alloc<std::_Tset_traits<Telegram,std::less<Telegram>,std::allocator<Telegram>,0> >::_Parent
	add	esp, 4
	mov	eax, DWORD PTR [eax]
	push	eax
	call	?_Color@?$_Tree_comp_alloc@V?$_Tset_traits@UTelegram@@U?$less@UTelegram@@@std@@V?$allocator@UTelegram@@@3@$0A@@std@@@std@@SAAADPAU?$_Tree_node@UTelegram@@PAX@2@@Z ; std::_Tree_comp_alloc<std::_Tset_traits<Telegram,std::less<Telegram>,std::allocator<Telegram>,0> >::_Color
	add	esp, 4
	mov	BYTE PTR [eax], 0

; 1883 : 						this->_Red;
; 1884 : 					_Rrotate(this->_Parent(this->_Parent(_Pnode)));

	mov	ecx, DWORD PTR __Pnode$2[ebp]
	push	ecx
	call	?_Parent@?$_Tree_comp_alloc@V?$_Tset_traits@UTelegram@@U?$less@UTelegram@@@std@@V?$allocator@UTelegram@@@3@$0A@@std@@@std@@SAAAPAU?$_Tree_node@UTelegram@@PAX@2@PAU32@@Z ; std::_Tree_comp_alloc<std::_Tset_traits<Telegram,std::less<Telegram>,std::allocator<Telegram>,0> >::_Parent
	add	esp, 4
	mov	edx, DWORD PTR [eax]
	push	edx
	call	?_Parent@?$_Tree_comp_alloc@V?$_Tset_traits@UTelegram@@U?$less@UTelegram@@@std@@V?$allocator@UTelegram@@@3@$0A@@std@@@std@@SAAAPAU?$_Tree_node@UTelegram@@PAX@2@PAU32@@Z ; std::_Tree_comp_alloc<std::_Tset_traits<Telegram,std::less<Telegram>,std::allocator<Telegram>,0> >::_Parent
	add	esp, 4
	mov	eax, DWORD PTR [eax]
	push	eax
	mov	ecx, DWORD PTR _this$[ebp]
	call	?_Rrotate@?$_Tree@V?$_Tset_traits@UTelegram@@U?$less@UTelegram@@@std@@V?$allocator@UTelegram@@@3@$0A@@std@@@std@@IAEXPAU?$_Tree_node@UTelegram@@PAX@2@@Z ; std::_Tree<std::_Tset_traits<Telegram,std::less<Telegram>,std::allocator<Telegram>,0> >::_Rrotate
$LN15@Insert_at:

; 1885 : 					}
; 1886 : 				}
; 1887 : 			else

	jmp	$LN13@Insert_at
$LN12@Insert_at:

; 1888 : 				{	// fixup red-red in right subtree
; 1889 : 				_Wherenode =

	mov	ecx, DWORD PTR __Pnode$2[ebp]
	push	ecx
	call	?_Parent@?$_Tree_comp_alloc@V?$_Tset_traits@UTelegram@@U?$less@UTelegram@@@std@@V?$allocator@UTelegram@@@3@$0A@@std@@@std@@SAAAPAU?$_Tree_node@UTelegram@@PAX@2@PAU32@@Z ; std::_Tree_comp_alloc<std::_Tset_traits<Telegram,std::less<Telegram>,std::allocator<Telegram>,0> >::_Parent
	add	esp, 4
	mov	edx, DWORD PTR [eax]
	push	edx
	call	?_Parent@?$_Tree_comp_alloc@V?$_Tset_traits@UTelegram@@U?$less@UTelegram@@@std@@V?$allocator@UTelegram@@@3@$0A@@std@@@std@@SAAAPAU?$_Tree_node@UTelegram@@PAX@2@PAU32@@Z ; std::_Tree_comp_alloc<std::_Tset_traits<Telegram,std::less<Telegram>,std::allocator<Telegram>,0> >::_Parent
	add	esp, 4
	mov	eax, DWORD PTR [eax]
	push	eax
	call	?_Left@?$_Tree_comp_alloc@V?$_Tset_traits@UTelegram@@U?$less@UTelegram@@@std@@V?$allocator@UTelegram@@@3@$0A@@std@@@std@@SAAAPAU?$_Tree_node@UTelegram@@PAX@2@PAU32@@Z ; std::_Tree_comp_alloc<std::_Tset_traits<Telegram,std::less<Telegram>,std::allocator<Telegram>,0> >::_Left
	add	esp, 4
	mov	ecx, DWORD PTR [eax]
	mov	DWORD PTR __Wherenode$[ebp], ecx

; 1890 : 					this->_Left(this->_Parent(this->_Parent(_Pnode)));
; 1891 : 				if (this->_Color(_Wherenode) == this->_Red)

	mov	edx, DWORD PTR __Wherenode$[ebp]
	push	edx
	call	?_Color@?$_Tree_comp_alloc@V?$_Tset_traits@UTelegram@@U?$less@UTelegram@@@std@@V?$allocator@UTelegram@@@3@$0A@@std@@@std@@SAAADPAU?$_Tree_node@UTelegram@@PAX@2@@Z ; std::_Tree_comp_alloc<std::_Tset_traits<Telegram,std::less<Telegram>,std::allocator<Telegram>,0> >::_Color
	add	esp, 4
	movsx	eax, BYTE PTR [eax]
	test	eax, eax
	jne	SHORT $LN17@Insert_at

; 1892 : 					{	// parent has two red children, blacken both
; 1893 : 					this->_Color(this->_Parent(_Pnode)) = this->_Black;

	mov	ecx, DWORD PTR __Pnode$2[ebp]
	push	ecx
	call	?_Parent@?$_Tree_comp_alloc@V?$_Tset_traits@UTelegram@@U?$less@UTelegram@@@std@@V?$allocator@UTelegram@@@3@$0A@@std@@@std@@SAAAPAU?$_Tree_node@UTelegram@@PAX@2@PAU32@@Z ; std::_Tree_comp_alloc<std::_Tset_traits<Telegram,std::less<Telegram>,std::allocator<Telegram>,0> >::_Parent
	add	esp, 4
	mov	edx, DWORD PTR [eax]
	push	edx
	call	?_Color@?$_Tree_comp_alloc@V?$_Tset_traits@UTelegram@@U?$less@UTelegram@@@std@@V?$allocator@UTelegram@@@3@$0A@@std@@@std@@SAAADPAU?$_Tree_node@UTelegram@@PAX@2@@Z ; std::_Tree_comp_alloc<std::_Tset_traits<Telegram,std::less<Telegram>,std::allocator<Telegram>,0> >::_Color
	add	esp, 4
	mov	BYTE PTR [eax], 1

; 1894 : 					this->_Color(_Wherenode) = this->_Black;

	mov	eax, DWORD PTR __Wherenode$[ebp]
	push	eax
	call	?_Color@?$_Tree_comp_alloc@V?$_Tset_traits@UTelegram@@U?$less@UTelegram@@@std@@V?$allocator@UTelegram@@@3@$0A@@std@@@std@@SAAADPAU?$_Tree_node@UTelegram@@PAX@2@@Z ; std::_Tree_comp_alloc<std::_Tset_traits<Telegram,std::less<Telegram>,std::allocator<Telegram>,0> >::_Color
	add	esp, 4
	mov	BYTE PTR [eax], 1

; 1895 : 					this->_Color(this->_Parent(this->_Parent(_Pnode))) =

	mov	ecx, DWORD PTR __Pnode$2[ebp]
	push	ecx
	call	?_Parent@?$_Tree_comp_alloc@V?$_Tset_traits@UTelegram@@U?$less@UTelegram@@@std@@V?$allocator@UTelegram@@@3@$0A@@std@@@std@@SAAAPAU?$_Tree_node@UTelegram@@PAX@2@PAU32@@Z ; std::_Tree_comp_alloc<std::_Tset_traits<Telegram,std::less<Telegram>,std::allocator<Telegram>,0> >::_Parent
	add	esp, 4
	mov	edx, DWORD PTR [eax]
	push	edx
	call	?_Parent@?$_Tree_comp_alloc@V?$_Tset_traits@UTelegram@@U?$less@UTelegram@@@std@@V?$allocator@UTelegram@@@3@$0A@@std@@@std@@SAAAPAU?$_Tree_node@UTelegram@@PAX@2@PAU32@@Z ; std::_Tree_comp_alloc<std::_Tset_traits<Telegram,std::less<Telegram>,std::allocator<Telegram>,0> >::_Parent
	add	esp, 4
	mov	eax, DWORD PTR [eax]
	push	eax
	call	?_Color@?$_Tree_comp_alloc@V?$_Tset_traits@UTelegram@@U?$less@UTelegram@@@std@@V?$allocator@UTelegram@@@3@$0A@@std@@@std@@SAAADPAU?$_Tree_node@UTelegram@@PAX@2@@Z ; std::_Tree_comp_alloc<std::_Tset_traits<Telegram,std::less<Telegram>,std::allocator<Telegram>,0> >::_Color
	add	esp, 4
	mov	BYTE PTR [eax], 0

; 1896 : 						this->_Red;
; 1897 : 					_Pnode = this->_Parent(this->_Parent(_Pnode));

	mov	ecx, DWORD PTR __Pnode$2[ebp]
	push	ecx
	call	?_Parent@?$_Tree_comp_alloc@V?$_Tset_traits@UTelegram@@U?$less@UTelegram@@@std@@V?$allocator@UTelegram@@@3@$0A@@std@@@std@@SAAAPAU?$_Tree_node@UTelegram@@PAX@2@PAU32@@Z ; std::_Tree_comp_alloc<std::_Tset_traits<Telegram,std::less<Telegram>,std::allocator<Telegram>,0> >::_Parent
	add	esp, 4
	mov	edx, DWORD PTR [eax]
	push	edx
	call	?_Parent@?$_Tree_comp_alloc@V?$_Tset_traits@UTelegram@@U?$less@UTelegram@@@std@@V?$allocator@UTelegram@@@3@$0A@@std@@@std@@SAAAPAU?$_Tree_node@UTelegram@@PAX@2@PAU32@@Z ; std::_Tree_comp_alloc<std::_Tset_traits<Telegram,std::less<Telegram>,std::allocator<Telegram>,0> >::_Parent
	add	esp, 4
	mov	eax, DWORD PTR [eax]
	mov	DWORD PTR __Pnode$2[ebp], eax

; 1898 : 					}
; 1899 : 				else

	jmp	$LN13@Insert_at
$LN17@Insert_at:

; 1900 : 					{	// parent has red and black children
; 1901 : 					if (_Pnode == this->_Left(this->_Parent(_Pnode)))

	mov	ecx, DWORD PTR __Pnode$2[ebp]
	push	ecx
	call	?_Parent@?$_Tree_comp_alloc@V?$_Tset_traits@UTelegram@@U?$less@UTelegram@@@std@@V?$allocator@UTelegram@@@3@$0A@@std@@@std@@SAAAPAU?$_Tree_node@UTelegram@@PAX@2@PAU32@@Z ; std::_Tree_comp_alloc<std::_Tset_traits<Telegram,std::less<Telegram>,std::allocator<Telegram>,0> >::_Parent
	add	esp, 4
	mov	edx, DWORD PTR [eax]
	push	edx
	call	?_Left@?$_Tree_comp_alloc@V?$_Tset_traits@UTelegram@@U?$less@UTelegram@@@std@@V?$allocator@UTelegram@@@3@$0A@@std@@@std@@SAAAPAU?$_Tree_node@UTelegram@@PAX@2@PAU32@@Z ; std::_Tree_comp_alloc<std::_Tset_traits<Telegram,std::less<Telegram>,std::allocator<Telegram>,0> >::_Left
	add	esp, 4
	mov	ecx, DWORD PTR __Pnode$2[ebp]
	cmp	ecx, DWORD PTR [eax]
	jne	SHORT $LN19@Insert_at

; 1902 : 						{	// rotate left child to right
; 1903 : 						_Pnode = this->_Parent(_Pnode);

	mov	edx, DWORD PTR __Pnode$2[ebp]
	push	edx
	call	?_Parent@?$_Tree_comp_alloc@V?$_Tset_traits@UTelegram@@U?$less@UTelegram@@@std@@V?$allocator@UTelegram@@@3@$0A@@std@@@std@@SAAAPAU?$_Tree_node@UTelegram@@PAX@2@PAU32@@Z ; std::_Tree_comp_alloc<std::_Tset_traits<Telegram,std::less<Telegram>,std::allocator<Telegram>,0> >::_Parent
	add	esp, 4
	mov	eax, DWORD PTR [eax]
	mov	DWORD PTR __Pnode$2[ebp], eax

; 1904 : 						_Rrotate(_Pnode);

	mov	ecx, DWORD PTR __Pnode$2[ebp]
	push	ecx
	mov	ecx, DWORD PTR _this$[ebp]
	call	?_Rrotate@?$_Tree@V?$_Tset_traits@UTelegram@@U?$less@UTelegram@@@std@@V?$allocator@UTelegram@@@3@$0A@@std@@@std@@IAEXPAU?$_Tree_node@UTelegram@@PAX@2@@Z ; std::_Tree<std::_Tset_traits<Telegram,std::less<Telegram>,std::allocator<Telegram>,0> >::_Rrotate
$LN19@Insert_at:

; 1905 : 						}
; 1906 : 					this->_Color(this->_Parent(_Pnode)) =

	mov	edx, DWORD PTR __Pnode$2[ebp]
	push	edx
	call	?_Parent@?$_Tree_comp_alloc@V?$_Tset_traits@UTelegram@@U?$less@UTelegram@@@std@@V?$allocator@UTelegram@@@3@$0A@@std@@@std@@SAAAPAU?$_Tree_node@UTelegram@@PAX@2@PAU32@@Z ; std::_Tree_comp_alloc<std::_Tset_traits<Telegram,std::less<Telegram>,std::allocator<Telegram>,0> >::_Parent
	add	esp, 4
	mov	eax, DWORD PTR [eax]
	push	eax
	call	?_Color@?$_Tree_comp_alloc@V?$_Tset_traits@UTelegram@@U?$less@UTelegram@@@std@@V?$allocator@UTelegram@@@3@$0A@@std@@@std@@SAAADPAU?$_Tree_node@UTelegram@@PAX@2@@Z ; std::_Tree_comp_alloc<std::_Tset_traits<Telegram,std::less<Telegram>,std::allocator<Telegram>,0> >::_Color
	add	esp, 4
	mov	BYTE PTR [eax], 1

; 1907 : 						this->_Black;	// propagate red up
; 1908 : 					this->_Color(this->_Parent(this->_Parent(_Pnode))) =

	mov	ecx, DWORD PTR __Pnode$2[ebp]
	push	ecx
	call	?_Parent@?$_Tree_comp_alloc@V?$_Tset_traits@UTelegram@@U?$less@UTelegram@@@std@@V?$allocator@UTelegram@@@3@$0A@@std@@@std@@SAAAPAU?$_Tree_node@UTelegram@@PAX@2@PAU32@@Z ; std::_Tree_comp_alloc<std::_Tset_traits<Telegram,std::less<Telegram>,std::allocator<Telegram>,0> >::_Parent
	add	esp, 4
	mov	edx, DWORD PTR [eax]
	push	edx
	call	?_Parent@?$_Tree_comp_alloc@V?$_Tset_traits@UTelegram@@U?$less@UTelegram@@@std@@V?$allocator@UTelegram@@@3@$0A@@std@@@std@@SAAAPAU?$_Tree_node@UTelegram@@PAX@2@PAU32@@Z ; std::_Tree_comp_alloc<std::_Tset_traits<Telegram,std::less<Telegram>,std::allocator<Telegram>,0> >::_Parent
	add	esp, 4
	mov	eax, DWORD PTR [eax]
	push	eax
	call	?_Color@?$_Tree_comp_alloc@V?$_Tset_traits@UTelegram@@U?$less@UTelegram@@@std@@V?$allocator@UTelegram@@@3@$0A@@std@@@std@@SAAADPAU?$_Tree_node@UTelegram@@PAX@2@@Z ; std::_Tree_comp_alloc<std::_Tset_traits<Telegram,std::less<Telegram>,std::allocator<Telegram>,0> >::_Color
	add	esp, 4
	mov	BYTE PTR [eax], 0

; 1909 : 						this->_Red;
; 1910 : 					_Lrotate(this->_Parent(this->_Parent(_Pnode)));

	mov	ecx, DWORD PTR __Pnode$2[ebp]
	push	ecx
	call	?_Parent@?$_Tree_comp_alloc@V?$_Tset_traits@UTelegram@@U?$less@UTelegram@@@std@@V?$allocator@UTelegram@@@3@$0A@@std@@@std@@SAAAPAU?$_Tree_node@UTelegram@@PAX@2@PAU32@@Z ; std::_Tree_comp_alloc<std::_Tset_traits<Telegram,std::less<Telegram>,std::allocator<Telegram>,0> >::_Parent
	add	esp, 4
	mov	edx, DWORD PTR [eax]
	push	edx
	call	?_Parent@?$_Tree_comp_alloc@V?$_Tset_traits@UTelegram@@U?$less@UTelegram@@@std@@V?$allocator@UTelegram@@@3@$0A@@std@@@std@@SAAAPAU?$_Tree_node@UTelegram@@PAX@2@PAU32@@Z ; std::_Tree_comp_alloc<std::_Tset_traits<Telegram,std::less<Telegram>,std::allocator<Telegram>,0> >::_Parent
	add	esp, 4
	mov	eax, DWORD PTR [eax]
	push	eax
	mov	ecx, DWORD PTR _this$[ebp]
	call	?_Lrotate@?$_Tree@V?$_Tset_traits@UTelegram@@U?$less@UTelegram@@@std@@V?$allocator@UTelegram@@@3@$0A@@std@@@std@@IAEXPAU?$_Tree_node@UTelegram@@PAX@2@@Z ; std::_Tree<std::_Tset_traits<Telegram,std::less<Telegram>,std::allocator<Telegram>,0> >::_Lrotate
$LN13@Insert_at:

; 1911 : 					}
; 1912 : 				}

	jmp	$LN4@Insert_at
$LN3@Insert_at:

; 1913 : 
; 1914 : 		this->_Color(_Root()) = this->_Black;	// root is always black

	mov	ecx, DWORD PTR _this$[ebp]
	call	?_Root@?$_Tree@V?$_Tset_traits@UTelegram@@U?$less@UTelegram@@@std@@V?$allocator@UTelegram@@@3@$0A@@std@@@std@@IBEAAPAU?$_Tree_node@UTelegram@@PAX@2@XZ ; std::_Tree<std::_Tset_traits<Telegram,std::less<Telegram>,std::allocator<Telegram>,0> >::_Root
	mov	ecx, DWORD PTR [eax]
	push	ecx
	call	?_Color@?$_Tree_comp_alloc@V?$_Tset_traits@UTelegram@@U?$less@UTelegram@@@std@@V?$allocator@UTelegram@@@3@$0A@@std@@@std@@SAAADPAU?$_Tree_node@UTelegram@@PAX@2@@Z ; std::_Tree_comp_alloc<std::_Tset_traits<Telegram,std::less<Telegram>,std::allocator<Telegram>,0> >::_Color
	add	esp, 4
	mov	BYTE PTR [eax], 1

; 1915 : 		return (iterator(_Newnode, &this->_Get_data()));

	mov	ecx, DWORD PTR _this$[ebp]
	call	?_Get_data@?$_Tree_comp_alloc@V?$_Tset_traits@UTelegram@@U?$less@UTelegram@@@std@@V?$allocator@UTelegram@@@3@$0A@@std@@@std@@QAEAAV?$_Tree_val@U?$_Tree_simple_types@UTelegram@@@std@@@2@XZ ; std::_Tree_comp_alloc<std::_Tset_traits<Telegram,std::less<Telegram>,std::allocator<Telegram>,0> >::_Get_data
	push	eax
	mov	edx, DWORD PTR __Newnode$[ebp]
	push	edx
	mov	ecx, DWORD PTR ___$ReturnUdt$[ebp]
	call	??0?$_Tree_const_iterator@V?$_Tree_val@U?$_Tree_simple_types@UTelegram@@@std@@@std@@@std@@QAE@PAU?$_Tree_node@UTelegram@@PAX@1@PBV?$_Tree_val@U?$_Tree_simple_types@UTelegram@@@std@@@1@@Z ; std::_Tree_const_iterator<std::_Tree_val<std::_Tree_simple_types<Telegram> > >::_Tree_const_iterator<std::_Tree_val<std::_Tree_simple_types<Telegram> > >
	mov	eax, DWORD PTR $T1[ebp]
	or	eax, 1
	mov	DWORD PTR $T1[ebp], eax
	mov	eax, DWORD PTR ___$ReturnUdt$[ebp]
$LN20@Insert_at:

; 1916 : 		}

	pop	esi
	add	esp, 20					; 00000014H
	cmp	ebp, esp
	call	__RTC_CheckEsp
	mov	esp, ebp
	pop	ebp
	ret	20					; 00000014H
??$_Insert_at@ABUTelegram@@U_Nil@std@@@?$_Tree@V?$_Tset_traits@UTelegram@@U?$less@UTelegram@@@std@@V?$allocator@UTelegram@@@3@$0A@@std@@@std@@IAE?AV?$_Tree_const_iterator@V?$_Tree_val@U?$_Tree_simple_types@UTelegram@@@std@@@std@@@1@_NPAU?$_Tree_node@UTelegram@@PAX@1@ABUTelegram@@U_Nil@1@@Z ENDP ; std::_Tree<std::_Tset_traits<Telegram,std::less<Telegram>,std::allocator<Telegram>,0> >::_Insert_at<Telegram const &,std::_Nil>
_TEXT	ENDS
; Function compile flags: /Odtp /RTCsu
; File c:\program files (x86)\microsoft visual studio 14.0\vc\include\type_traits
;	COMDAT ??$forward@ABUTelegram@@@std@@YAABUTelegram@@ABU1@@Z
_TEXT	SEGMENT
__Arg$ = 8						; size = 4
??$forward@ABUTelegram@@@std@@YAABUTelegram@@ABU1@@Z PROC ; std::forward<Telegram const &>, COMDAT

; 1275 : 	{	// forward an lvalue as either an lvalue or an rvalue

	push	ebp
	mov	ebp, esp

; 1276 : 	return (static_cast<_Ty&&>(_Arg));

	mov	eax, DWORD PTR __Arg$[ebp]

; 1277 : 	}

	pop	ebp
	ret	0
??$forward@ABUTelegram@@@std@@YAABUTelegram@@ABU1@@Z ENDP ; std::forward<Telegram const &>
_TEXT	ENDS
; Function compile flags: /Odtp /RTCsu
; File c:\program files (x86)\microsoft visual studio 14.0\vc\include\xutility
;	COMDAT ??$_Debug_lt_pred@AAU?$less@UTelegram@@@std@@ABUTelegram@@ABU3@@std@@YA_NAAU?$less@UTelegram@@@0@ABUTelegram@@1PB_WI@Z
_TEXT	SEGMENT
tv79 = -2						; size = 1
tv80 = -1						; size = 1
__Pred$ = 8						; size = 4
__Left$ = 12						; size = 4
__Right$ = 16						; size = 4
__File$ = 20						; size = 4
__Line$ = 24						; size = 4
??$_Debug_lt_pred@AAU?$less@UTelegram@@@std@@ABUTelegram@@ABU3@@std@@YA_NAAU?$less@UTelegram@@@0@ABUTelegram@@1PB_WI@Z PROC ; std::_Debug_lt_pred<std::less<Telegram> &,Telegram const &,Telegram const &>, COMDAT

; 895  : 	{	// test if _Pred(_Left, _Right) and _Pred is strict weak ordering

	push	ebp
	mov	ebp, esp
	push	ecx
	mov	DWORD PTR [ebp-4], -858993460		; ccccccccH

; 896  : 	return (!_Pred(_Left, _Right)

	mov	eax, DWORD PTR __Right$[ebp]
	push	eax
	mov	ecx, DWORD PTR __Left$[ebp]
	push	ecx
	mov	ecx, DWORD PTR __Pred$[ebp]
	call	??R?$less@UTelegram@@@std@@QBE_NABUTelegram@@0@Z ; std::less<Telegram>::operator()
	movzx	edx, al
	test	edx, edx
	jne	SHORT $LN5@Debug_lt_p
	mov	BYTE PTR tv80[ebp], 0
	jmp	SHORT $LN6@Debug_lt_p
$LN5@Debug_lt_p:
	mov	eax, DWORD PTR __Left$[ebp]
	push	eax
	mov	ecx, DWORD PTR __Right$[ebp]
	push	ecx
	mov	ecx, DWORD PTR __Pred$[ebp]
	call	??R?$less@UTelegram@@@std@@QBE_NABUTelegram@@0@Z ; std::less<Telegram>::operator()
	movzx	edx, al
	test	edx, edx
	je	SHORT $LN3@Debug_lt_p
	mov	eax, DWORD PTR __Line$[ebp]
	push	eax
	mov	ecx, DWORD PTR __File$[ebp]
	push	ecx
	push	OFFSET ??_C@_1CG@LEJCKCBB@?$AAi?$AAn?$AAv?$AAa?$AAl?$AAi?$AAd?$AA?5?$AAc?$AAo?$AAm?$AAp?$AAa?$AAr?$AAa?$AAt?$AAo?$AAr?$AA?$AA@
	call	?_Debug_message@std@@YAXPB_W0I@Z	; std::_Debug_message
	add	esp, 12					; 0000000cH
	mov	BYTE PTR tv79[ebp], 1
	jmp	SHORT $LN4@Debug_lt_p
$LN3@Debug_lt_p:
	mov	BYTE PTR tv79[ebp], 1
$LN4@Debug_lt_p:
	mov	dl, BYTE PTR tv79[ebp]
	mov	BYTE PTR tv80[ebp], dl
$LN6@Debug_lt_p:
	mov	al, BYTE PTR tv80[ebp]

; 897  : 		? false
; 898  : 		: _Pred(_Right, _Left)
; 899  : 			? (_DEBUG_ERROR2("invalid comparator", _File, _Line), true)
; 900  : 			: true);
; 901  : 	}

	add	esp, 4
	cmp	ebp, esp
	call	__RTC_CheckEsp
	mov	esp, ebp
	pop	ebp
	ret	0
??$_Debug_lt_pred@AAU?$less@UTelegram@@@std@@ABUTelegram@@ABU3@@std@@YA_NAAU?$less@UTelegram@@@0@ABUTelegram@@1PB_WI@Z ENDP ; std::_Debug_lt_pred<std::less<Telegram> &,Telegram const &,Telegram const &>
_TEXT	ENDS
; Function compile flags: /Odtp /RTCsu
; File c:\program files (x86)\microsoft visual studio 14.0\vc\include\xlocnum
;	COMDAT ??__E?id@?$numpunct@D@std@@2V0locale@2@A@@YAXXZ
text$di	SEGMENT
??__E?id@?$numpunct@D@std@@2V0locale@2@A@@YAXXZ PROC	; `dynamic initializer for 'std::numpunct<char>::id'', COMDAT

; 294  : 	__PURE_APPDOMAIN_GLOBAL locale::id numpunct<_Elem>::id;

	push	ebp
	mov	ebp, esp
	push	0
	mov	ecx, OFFSET ?id@?$numpunct@D@std@@2V0locale@2@A ; std::numpunct<char>::id
	call	??0id@locale@std@@QAE@I@Z		; std::locale::id::id
	cmp	ebp, esp
	call	__RTC_CheckEsp
	pop	ebp
	ret	0
??__E?id@?$numpunct@D@std@@2V0locale@2@A@@YAXXZ ENDP	; `dynamic initializer for 'std::numpunct<char>::id''
text$di	ENDS
; Function compile flags: /Odtp /RTCsu
; File c:\program files (x86)\microsoft visual studio 14.0\vc\include\xlocnum
;	COMDAT ??__E?id@?$num_put@DV?$ostreambuf_iterator@DU?$char_traits@D@std@@@std@@@std@@2V0locale@2@A@@YAXXZ
text$di	SEGMENT
??__E?id@?$num_put@DV?$ostreambuf_iterator@DU?$char_traits@D@std@@@std@@@std@@2V0locale@2@A@@YAXXZ PROC ; `dynamic initializer for 'std::num_put<char,std::ostreambuf_iterator<char,std::char_traits<char> > >::id'', COMDAT

; 1593 : 	__PURE_APPDOMAIN_GLOBAL locale::id num_put<_Elem, _OutIt>::id;

	push	ebp
	mov	ebp, esp
	push	0
	mov	ecx, OFFSET ?id@?$num_put@DV?$ostreambuf_iterator@DU?$char_traits@D@std@@@std@@@std@@2V0locale@2@A ; std::num_put<char,std::ostreambuf_iterator<char,std::char_traits<char> > >::id
	call	??0id@locale@std@@QAE@I@Z		; std::locale::id::id
	cmp	ebp, esp
	call	__RTC_CheckEsp
	pop	ebp
	ret	0
??__E?id@?$num_put@DV?$ostreambuf_iterator@DU?$char_traits@D@std@@@std@@@std@@2V0locale@2@A@@YAXXZ ENDP ; `dynamic initializer for 'std::num_put<char,std::ostreambuf_iterator<char,std::char_traits<char> > >::id''
text$di	ENDS
; Function compile flags: /Odtp /RTCsu
; File c:\program files (x86)\microsoft visual studio 14.0\vc\include\xmemory0
;	COMDAT ??$construct@PAU?$_Tree_node@UTelegram@@PAX@std@@AAPAU12@@?$allocator_traits@V?$allocator@U?$_Tree_node@UTelegram@@PAX@std@@@std@@@std@@SAXAAV?$allocator@U?$_Tree_node@UTelegram@@PAX@std@@@1@PAPAU?$_Tree_node@UTelegram@@PAX@1@AAPAU31@@Z
_TEXT	SEGMENT
__Al$ = 8						; size = 4
__Ptr$ = 12						; size = 4
_<_Args_0>$ = 16					; size = 4
??$construct@PAU?$_Tree_node@UTelegram@@PAX@std@@AAPAU12@@?$allocator_traits@V?$allocator@U?$_Tree_node@UTelegram@@PAX@std@@@std@@@std@@SAXAAV?$allocator@U?$_Tree_node@UTelegram@@PAX@std@@@1@PAPAU?$_Tree_node@UTelegram@@PAX@1@AAPAU31@@Z PROC ; std::allocator_traits<std::allocator<std::_Tree_node<Telegram,void *> > >::construct<std::_Tree_node<Telegram,void *> *,std::_Tree_node<Telegram,void *> * &>, COMDAT

; 856  : 		{	// construct _Objty(_Types...) at _Ptr

	push	ebp
	mov	ebp, esp

; 857  : 		_Al.construct(_Ptr, _STD forward<_Types>(_Args)...);

	mov	eax, DWORD PTR _<_Args_0>$[ebp]
	push	eax
	call	??$forward@AAPAU?$_Tree_node@UTelegram@@PAX@std@@@std@@YAAAPAU?$_Tree_node@UTelegram@@PAX@0@AAPAU10@@Z ; std::forward<std::_Tree_node<Telegram,void *> * &>
	add	esp, 4
	push	eax
	mov	ecx, DWORD PTR __Ptr$[ebp]
	push	ecx
	mov	ecx, DWORD PTR __Al$[ebp]
	call	??$construct@PAU?$_Tree_node@UTelegram@@PAX@std@@AAPAU12@@?$allocator@U?$_Tree_node@UTelegram@@PAX@std@@@std@@QAEXPAPAU?$_Tree_node@UTelegram@@PAX@1@AAPAU21@@Z ; std::allocator<std::_Tree_node<Telegram,void *> >::construct<std::_Tree_node<Telegram,void *> *,std::_Tree_node<Telegram,void *> * &>

; 858  : 		}

	cmp	ebp, esp
	call	__RTC_CheckEsp
	pop	ebp
	ret	0
??$construct@PAU?$_Tree_node@UTelegram@@PAX@std@@AAPAU12@@?$allocator_traits@V?$allocator@U?$_Tree_node@UTelegram@@PAX@std@@@std@@@std@@SAXAAV?$allocator@U?$_Tree_node@UTelegram@@PAX@std@@@1@PAPAU?$_Tree_node@UTelegram@@PAX@1@AAPAU31@@Z ENDP ; std::allocator_traits<std::allocator<std::_Tree_node<Telegram,void *> > >::construct<std::_Tree_node<Telegram,void *> *,std::_Tree_node<Telegram,void *> * &>
_TEXT	ENDS
; Function compile flags: /Odtp /RTCsu
; File c:\program files (x86)\microsoft visual studio 14.0\vc\include\type_traits
;	COMDAT ??$forward@AAPAU?$_Tree_node@UTelegram@@PAX@std@@@std@@YAAAPAU?$_Tree_node@UTelegram@@PAX@0@AAPAU10@@Z
_TEXT	SEGMENT
__Arg$ = 8						; size = 4
??$forward@AAPAU?$_Tree_node@UTelegram@@PAX@std@@@std@@YAAAPAU?$_Tree_node@UTelegram@@PAX@0@AAPAU10@@Z PROC ; std::forward<std::_Tree_node<Telegram,void *> * &>, COMDAT

; 1275 : 	{	// forward an lvalue as either an lvalue or an rvalue

	push	ebp
	mov	ebp, esp

; 1276 : 	return (static_cast<_Ty&&>(_Arg));

	mov	eax, DWORD PTR __Arg$[ebp]

; 1277 : 	}

	pop	ebp
	ret	0
??$forward@AAPAU?$_Tree_node@UTelegram@@PAX@std@@@std@@YAAAPAU?$_Tree_node@UTelegram@@PAX@0@AAPAU10@@Z ENDP ; std::forward<std::_Tree_node<Telegram,void *> * &>
_TEXT	ENDS
; Function compile flags: /Odtp /RTCsu
; File c:\program files (x86)\microsoft visual studio 14.0\vc\include\xutility
;	COMDAT ??$?0$$V@?$_Compressed_pair@U?$_Wrap_alloc@V?$allocator@U?$_Tree_node@UTelegram@@PAX@std@@@std@@@std@@V?$_Tree_val@U?$_Tree_simple_types@UTelegram@@@std@@@2@$00@std@@QAE@U_Zero_then_variadic_args_t@1@@Z
_TEXT	SEGMENT
_this$ = -4						; size = 4
___formal$ = 8						; size = 1
??$?0$$V@?$_Compressed_pair@U?$_Wrap_alloc@V?$allocator@U?$_Tree_node@UTelegram@@PAX@std@@@std@@@std@@V?$_Tree_val@U?$_Tree_simple_types@UTelegram@@@std@@@2@$00@std@@QAE@U_Zero_then_variadic_args_t@1@@Z PROC ; std::_Compressed_pair<std::_Wrap_alloc<std::allocator<std::_Tree_node<Telegram,void *> > >,std::_Tree_val<std::_Tree_simple_types<Telegram> >,1>::_Compressed_pair<std::_Wrap_alloc<std::allocator<std::_Tree_node<Telegram,void *> > >,std::_Tree_val<std::_Tree_simple_types<Telegram> >,1><>, COMDAT
; _this$ = ecx

; 280  : 		{	// construct from forwarded values

	push	ebp
	mov	ebp, esp
	push	ecx
	mov	DWORD PTR [ebp-4], -858993460		; ccccccccH
	mov	DWORD PTR _this$[ebp], ecx

; 279  : 		: _Ty1(), _Myval2(_STD forward<_Other2>(_Val2)...)

	mov	ecx, DWORD PTR _this$[ebp]
	call	??0?$_Wrap_alloc@V?$allocator@U?$_Tree_node@UTelegram@@PAX@std@@@std@@@std@@QAE@XZ ; std::_Wrap_alloc<std::allocator<std::_Tree_node<Telegram,void *> > >::_Wrap_alloc<std::allocator<std::_Tree_node<Telegram,void *> > >
	mov	ecx, DWORD PTR _this$[ebp]
	call	??0?$_Tree_val@U?$_Tree_simple_types@UTelegram@@@std@@@std@@QAE@XZ ; std::_Tree_val<std::_Tree_simple_types<Telegram> >::_Tree_val<std::_Tree_simple_types<Telegram> >

; 281  : 		}

	mov	eax, DWORD PTR _this$[ebp]
	add	esp, 4
	cmp	ebp, esp
	call	__RTC_CheckEsp
	mov	esp, ebp
	pop	ebp
	ret	4
??$?0$$V@?$_Compressed_pair@U?$_Wrap_alloc@V?$allocator@U?$_Tree_node@UTelegram@@PAX@std@@@std@@@std@@V?$_Tree_val@U?$_Tree_simple_types@UTelegram@@@std@@@2@$00@std@@QAE@U_Zero_then_variadic_args_t@1@@Z ENDP ; std::_Compressed_pair<std::_Wrap_alloc<std::allocator<std::_Tree_node<Telegram,void *> > >,std::_Tree_val<std::_Tree_simple_types<Telegram> >,1>::_Compressed_pair<std::_Wrap_alloc<std::allocator<std::_Tree_node<Telegram,void *> > >,std::_Tree_val<std::_Tree_simple_types<Telegram> >,1><>
_TEXT	ENDS
; Function compile flags: /Odtp /RTCsu
; File c:\program files (x86)\microsoft visual studio 14.0\vc\include\type_traits
;	COMDAT ??$forward@ABU?$less@UTelegram@@@std@@@std@@YAABU?$less@UTelegram@@@0@ABU10@@Z
_TEXT	SEGMENT
__Arg$ = 8						; size = 4
??$forward@ABU?$less@UTelegram@@@std@@@std@@YAABU?$less@UTelegram@@@0@ABU10@@Z PROC ; std::forward<std::less<Telegram> const &>, COMDAT

; 1275 : 	{	// forward an lvalue as either an lvalue or an rvalue

	push	ebp
	mov	ebp, esp

; 1276 : 	return (static_cast<_Ty&&>(_Arg));

	mov	eax, DWORD PTR __Arg$[ebp]

; 1277 : 	}

	pop	ebp
	ret	0
??$forward@ABU?$less@UTelegram@@@std@@@std@@YAABU?$less@UTelegram@@@0@ABU10@@Z ENDP ; std::forward<std::less<Telegram> const &>
_TEXT	ENDS
; Function compile flags: /Odtp /RTCsu
; File c:\program files (x86)\microsoft visual studio 14.0\vc\include\xmemory0
;	COMDAT ??$?0U?$_Tree_node@UTelegram@@PAX@std@@@?$allocator@U_Container_proxy@std@@@std@@QAE@ABV?$allocator@U?$_Tree_node@UTelegram@@PAX@std@@@1@@Z
_TEXT	SEGMENT
_this$ = -4						; size = 4
___formal$ = 8						; size = 4
??$?0U?$_Tree_node@UTelegram@@PAX@std@@@?$allocator@U_Container_proxy@std@@@std@@QAE@ABV?$allocator@U?$_Tree_node@UTelegram@@PAX@std@@@1@@Z PROC ; std::allocator<std::_Container_proxy>::allocator<std::_Container_proxy><std::_Tree_node<Telegram,void *> >, COMDAT
; _this$ = ecx

; 709  : 		{	// construct from a related allocator (do nothing)

	push	ebp
	mov	ebp, esp
	push	ecx
	mov	DWORD PTR [ebp-4], -858993460		; ccccccccH
	mov	DWORD PTR _this$[ebp], ecx

; 710  : 		}

	mov	eax, DWORD PTR _this$[ebp]
	mov	esp, ebp
	pop	ebp
	ret	4
??$?0U?$_Tree_node@UTelegram@@PAX@std@@@?$allocator@U_Container_proxy@std@@@std@@QAE@ABV?$allocator@U?$_Tree_node@UTelegram@@PAX@std@@@1@@Z ENDP ; std::allocator<std::_Container_proxy>::allocator<std::_Container_proxy><std::_Tree_node<Telegram,void *> >
_TEXT	ENDS
; Function compile flags: /Odtp /RTCsu
; File c:\program files (x86)\microsoft visual studio 14.0\vc\include\type_traits
;	COMDAT ??$forward@AAU?$_Wrap_alloc@V?$allocator@U?$_Tree_node@UTelegram@@PAX@std@@@std@@@std@@@std@@YAAAU?$_Wrap_alloc@V?$allocator@U?$_Tree_node@UTelegram@@PAX@std@@@std@@@0@AAU10@@Z
_TEXT	SEGMENT
__Arg$ = 8						; size = 4
??$forward@AAU?$_Wrap_alloc@V?$allocator@U?$_Tree_node@UTelegram@@PAX@std@@@std@@@std@@@std@@YAAAU?$_Wrap_alloc@V?$allocator@U?$_Tree_node@UTelegram@@PAX@std@@@std@@@0@AAU10@@Z PROC ; std::forward<std::_Wrap_alloc<std::allocator<std::_Tree_node<Telegram,void *> > > &>, COMDAT

; 1275 : 	{	// forward an lvalue as either an lvalue or an rvalue

	push	ebp
	mov	ebp, esp

; 1276 : 	return (static_cast<_Ty&&>(_Arg));

	mov	eax, DWORD PTR __Arg$[ebp]

; 1277 : 	}

	pop	ebp
	ret	0
??$forward@AAU?$_Wrap_alloc@V?$allocator@U?$_Tree_node@UTelegram@@PAX@std@@@std@@@std@@@std@@YAAAU?$_Wrap_alloc@V?$allocator@U?$_Tree_node@UTelegram@@PAX@std@@@std@@@0@AAU10@@Z ENDP ; std::forward<std::_Wrap_alloc<std::allocator<std::_Tree_node<Telegram,void *> > > &>
_TEXT	ENDS
; Function compile flags: /Odtp /RTCsu
; File c:\program files (x86)\microsoft visual studio 14.0\vc\include\xmemory0
;	COMDAT ??$destroy@PAU?$_Tree_node@UTelegram@@PAX@std@@@?$allocator_traits@V?$allocator@U?$_Tree_node@UTelegram@@PAX@std@@@std@@@std@@SAXAAV?$allocator@U?$_Tree_node@UTelegram@@PAX@std@@@1@PAPAU?$_Tree_node@UTelegram@@PAX@1@@Z
_TEXT	SEGMENT
__Al$ = 8						; size = 4
__Ptr$ = 12						; size = 4
??$destroy@PAU?$_Tree_node@UTelegram@@PAX@std@@@?$allocator_traits@V?$allocator@U?$_Tree_node@UTelegram@@PAX@std@@@std@@@std@@SAXAAV?$allocator@U?$_Tree_node@UTelegram@@PAX@std@@@1@PAPAU?$_Tree_node@UTelegram@@PAX@1@@Z PROC ; std::allocator_traits<std::allocator<std::_Tree_node<Telegram,void *> > >::destroy<std::_Tree_node<Telegram,void *> *>, COMDAT

; 863  : 		{	// destroy object at _Ptr

	push	ebp
	mov	ebp, esp

; 864  : 		_Al.destroy(_Ptr);

	mov	eax, DWORD PTR __Ptr$[ebp]
	push	eax
	mov	ecx, DWORD PTR __Al$[ebp]
	call	??$destroy@PAU?$_Tree_node@UTelegram@@PAX@std@@@?$allocator@U?$_Tree_node@UTelegram@@PAX@std@@@std@@QAEXPAPAU?$_Tree_node@UTelegram@@PAX@1@@Z ; std::allocator<std::_Tree_node<Telegram,void *> >::destroy<std::_Tree_node<Telegram,void *> *>

; 865  : 		}

	cmp	ebp, esp
	call	__RTC_CheckEsp
	pop	ebp
	ret	0
??$destroy@PAU?$_Tree_node@UTelegram@@PAX@std@@@?$allocator_traits@V?$allocator@U?$_Tree_node@UTelegram@@PAX@std@@@std@@@std@@SAXAAV?$allocator@U?$_Tree_node@UTelegram@@PAX@std@@@1@PAPAU?$_Tree_node@UTelegram@@PAX@1@@Z ENDP ; std::allocator_traits<std::allocator<std::_Tree_node<Telegram,void *> > >::destroy<std::_Tree_node<Telegram,void *> *>
_TEXT	ENDS
; Function compile flags: /Odtp /RTCsu
; File c:\program files (x86)\microsoft visual studio 14.0\vc\include\xmemory0
;	COMDAT ??$construct@U_Container_proxy@std@@U12@@?$allocator_traits@V?$allocator@U_Container_proxy@std@@@std@@@std@@SAXAAV?$allocator@U_Container_proxy@std@@@1@PAU_Container_proxy@1@$$QAU31@@Z
_TEXT	SEGMENT
__Al$ = 8						; size = 4
__Ptr$ = 12						; size = 4
_<_Args_0>$ = 16					; size = 4
??$construct@U_Container_proxy@std@@U12@@?$allocator_traits@V?$allocator@U_Container_proxy@std@@@std@@@std@@SAXAAV?$allocator@U_Container_proxy@std@@@1@PAU_Container_proxy@1@$$QAU31@@Z PROC ; std::allocator_traits<std::allocator<std::_Container_proxy> >::construct<std::_Container_proxy,std::_Container_proxy>, COMDAT

; 856  : 		{	// construct _Objty(_Types...) at _Ptr

	push	ebp
	mov	ebp, esp

; 857  : 		_Al.construct(_Ptr, _STD forward<_Types>(_Args)...);

	mov	eax, DWORD PTR _<_Args_0>$[ebp]
	push	eax
	call	??$forward@U_Container_proxy@std@@@std@@YA$$QAU_Container_proxy@0@AAU10@@Z ; std::forward<std::_Container_proxy>
	add	esp, 4
	push	eax
	mov	ecx, DWORD PTR __Ptr$[ebp]
	push	ecx
	mov	ecx, DWORD PTR __Al$[ebp]
	call	??$construct@U_Container_proxy@std@@U12@@?$allocator@U_Container_proxy@std@@@std@@QAEXPAU_Container_proxy@1@$$QAU21@@Z ; std::allocator<std::_Container_proxy>::construct<std::_Container_proxy,std::_Container_proxy>

; 858  : 		}

	cmp	ebp, esp
	call	__RTC_CheckEsp
	pop	ebp
	ret	0
??$construct@U_Container_proxy@std@@U12@@?$allocator_traits@V?$allocator@U_Container_proxy@std@@@std@@@std@@SAXAAV?$allocator@U_Container_proxy@std@@@1@PAU_Container_proxy@1@$$QAU31@@Z ENDP ; std::allocator_traits<std::allocator<std::_Container_proxy> >::construct<std::_Container_proxy,std::_Container_proxy>
_TEXT	ENDS
; Function compile flags: /Odtp /RTCsu
; File c:\program files (x86)\microsoft visual studio 14.0\vc\include\type_traits
;	COMDAT ??$forward@U_Container_proxy@std@@@std@@YA$$QAU_Container_proxy@0@AAU10@@Z
_TEXT	SEGMENT
__Arg$ = 8						; size = 4
??$forward@U_Container_proxy@std@@@std@@YA$$QAU_Container_proxy@0@AAU10@@Z PROC ; std::forward<std::_Container_proxy>, COMDAT

; 1275 : 	{	// forward an lvalue as either an lvalue or an rvalue

	push	ebp
	mov	ebp, esp

; 1276 : 	return (static_cast<_Ty&&>(_Arg));

	mov	eax, DWORD PTR __Arg$[ebp]

; 1277 : 	}

	pop	ebp
	ret	0
??$forward@U_Container_proxy@std@@@std@@YA$$QAU_Container_proxy@0@AAU10@@Z ENDP ; std::forward<std::_Container_proxy>
_TEXT	ENDS
; Function compile flags: /Odtp /RTCsu
; File c:\program files (x86)\microsoft visual studio 14.0\vc\include\type_traits
;	COMDAT ??$forward@U_Zero_then_variadic_args_t@std@@@std@@YA$$QAU_Zero_then_variadic_args_t@0@AAU10@@Z
_TEXT	SEGMENT
__Arg$ = 8						; size = 4
??$forward@U_Zero_then_variadic_args_t@std@@@std@@YA$$QAU_Zero_then_variadic_args_t@0@AAU10@@Z PROC ; std::forward<std::_Zero_then_variadic_args_t>, COMDAT

; 1275 : 	{	// forward an lvalue as either an lvalue or an rvalue

	push	ebp
	mov	ebp, esp

; 1276 : 	return (static_cast<_Ty&&>(_Arg));

	mov	eax, DWORD PTR __Arg$[ebp]

; 1277 : 	}

	pop	ebp
	ret	0
??$forward@U_Zero_then_variadic_args_t@std@@@std@@YA$$QAU_Zero_then_variadic_args_t@0@AAU10@@Z ENDP ; std::forward<std::_Zero_then_variadic_args_t>
_TEXT	ENDS
; Function compile flags: /Odtp /RTCsu
; File c:\program files (x86)\microsoft visual studio 14.0\vc\include\xmemory0
;	COMDAT ??$destroy@U_Container_proxy@std@@@?$allocator_traits@V?$allocator@U_Container_proxy@std@@@std@@@std@@SAXAAV?$allocator@U_Container_proxy@std@@@1@PAU_Container_proxy@1@@Z
_TEXT	SEGMENT
__Al$ = 8						; size = 4
__Ptr$ = 12						; size = 4
??$destroy@U_Container_proxy@std@@@?$allocator_traits@V?$allocator@U_Container_proxy@std@@@std@@@std@@SAXAAV?$allocator@U_Container_proxy@std@@@1@PAU_Container_proxy@1@@Z PROC ; std::allocator_traits<std::allocator<std::_Container_proxy> >::destroy<std::_Container_proxy>, COMDAT

; 863  : 		{	// destroy object at _Ptr

	push	ebp
	mov	ebp, esp

; 864  : 		_Al.destroy(_Ptr);

	mov	eax, DWORD PTR __Ptr$[ebp]
	push	eax
	mov	ecx, DWORD PTR __Al$[ebp]
	call	??$destroy@U_Container_proxy@std@@@?$allocator@U_Container_proxy@std@@@std@@QAEXPAU_Container_proxy@1@@Z ; std::allocator<std::_Container_proxy>::destroy<std::_Container_proxy>

; 865  : 		}

	cmp	ebp, esp
	call	__RTC_CheckEsp
	pop	ebp
	ret	0
??$destroy@U_Container_proxy@std@@@?$allocator_traits@V?$allocator@U_Container_proxy@std@@@std@@@std@@SAXAAV?$allocator@U_Container_proxy@std@@@1@PAU_Container_proxy@1@@Z ENDP ; std::allocator_traits<std::allocator<std::_Container_proxy> >::destroy<std::_Container_proxy>
_TEXT	ENDS
; Function compile flags: /Odtp /RTCsu
; File c:\program files (x86)\microsoft visual studio 14.0\vc\include\xmemory0
;	COMDAT ??$destroy@UTelegram@@@?$allocator_traits@V?$allocator@U?$_Tree_node@UTelegram@@PAX@std@@@std@@@std@@SAXAAV?$allocator@U?$_Tree_node@UTelegram@@PAX@std@@@1@PAUTelegram@@@Z
_TEXT	SEGMENT
__Al$ = 8						; size = 4
__Ptr$ = 12						; size = 4
??$destroy@UTelegram@@@?$allocator_traits@V?$allocator@U?$_Tree_node@UTelegram@@PAX@std@@@std@@@std@@SAXAAV?$allocator@U?$_Tree_node@UTelegram@@PAX@std@@@1@PAUTelegram@@@Z PROC ; std::allocator_traits<std::allocator<std::_Tree_node<Telegram,void *> > >::destroy<Telegram>, COMDAT

; 863  : 		{	// destroy object at _Ptr

	push	ebp
	mov	ebp, esp

; 864  : 		_Al.destroy(_Ptr);

	mov	eax, DWORD PTR __Ptr$[ebp]
	push	eax
	mov	ecx, DWORD PTR __Al$[ebp]
	call	??$destroy@UTelegram@@@?$allocator@U?$_Tree_node@UTelegram@@PAX@std@@@std@@QAEXPAUTelegram@@@Z ; std::allocator<std::_Tree_node<Telegram,void *> >::destroy<Telegram>

; 865  : 		}

	cmp	ebp, esp
	call	__RTC_CheckEsp
	pop	ebp
	ret	0
??$destroy@UTelegram@@@?$allocator_traits@V?$allocator@U?$_Tree_node@UTelegram@@PAX@std@@@std@@@std@@SAXAAV?$allocator@U?$_Tree_node@UTelegram@@PAX@std@@@1@PAUTelegram@@@Z ENDP ; std::allocator_traits<std::allocator<std::_Tree_node<Telegram,void *> > >::destroy<Telegram>
_TEXT	ENDS
; Function compile flags: /Odtp /RTCsu
; File c:\program files (x86)\microsoft visual studio 14.0\vc\include\type_traits
;	COMDAT ??$move@AAD@std@@YA$$QADAAD@Z
_TEXT	SEGMENT
__Arg$ = 8						; size = 4
??$move@AAD@std@@YA$$QADAAD@Z PROC			; std::move<char &>, COMDAT

; 1291 : 	{	// forward _Arg as movable

	push	ebp
	mov	ebp, esp

; 1292 : 	return (static_cast<typename remove_reference<_Ty>::type&&>(_Arg));

	mov	eax, DWORD PTR __Arg$[ebp]

; 1293 : 	}

	pop	ebp
	ret	0
??$move@AAD@std@@YA$$QADAAD@Z ENDP			; std::move<char &>
_TEXT	ENDS
; Function compile flags: /Odtp /RTCsu
; File c:\program files (x86)\microsoft visual studio 14.0\vc\include\xtree
;	COMDAT ??$_Insert_nohint@ABUTelegram@@U_Nil@std@@@?$_Tree@V?$_Tset_traits@UTelegram@@U?$less@UTelegram@@@std@@V?$allocator@UTelegram@@@3@$0A@@std@@@std@@IAE?AU?$pair@V?$_Tree_const_iterator@V?$_Tree_val@U?$_Tree_simple_types@UTelegram@@@std@@@std@@@std@@_N@1@_NABUTelegram@@U_Nil@1@@Z
_TEXT	SEGMENT
tv281 = -228						; size = 4
tv302 = -224						; size = 4
tv301 = -217						; size = 1
tv300 = -216						; size = 4
tv299 = -212						; size = 4
tv298 = -208						; size = 4
tv277 = -204						; size = 4
tv297 = -200						; size = 4
tv296 = -193						; size = 1
tv275 = -192						; size = 4
tv295 = -188						; size = 4
tv294 = -184						; size = 4
tv268 = -180						; size = 4
tv293 = -176						; size = 4
tv292 = -172						; size = 4
tv156 = -168						; size = 4
tv291 = -164						; size = 4
tv290 = -157						; size = 1
tv289 = -156						; size = 4
tv288 = -152						; size = 4
tv130 = -148						; size = 4
tv287 = -141						; size = 1
tv159 = -140						; size = 4
tv198 = -136						; size = 4
tv241 = -132						; size = 4
tv259 = -128						; size = 4
$T2 = -124						; size = 4
$T3 = -117						; size = 1
$T4 = -116						; size = 12
$T5 = -101						; size = 1
$T6 = -100						; size = 12
$T7 = -85						; size = 1
$T8 = -84						; size = 12
$T9 = -69						; size = 1
$T10 = -68						; size = 12
$T11 = -53						; size = 1
__Where$12 = -48					; size = 12
__Addleft$13 = -29					; size = 1
__Wherenode$14 = -28					; size = 4
__Trynode$15 = -24					; size = 4
_this$ = -20						; size = 4
__$EHRec$ = -16						; size = 16
___$ReturnUdt$ = 8					; size = 4
__Leftish$ = 12						; size = 1
__Val$ = 16						; size = 4
__Newnode$ = 20						; size = 1
??$_Insert_nohint@ABUTelegram@@U_Nil@std@@@?$_Tree@V?$_Tset_traits@UTelegram@@U?$less@UTelegram@@@std@@V?$allocator@UTelegram@@@3@$0A@@std@@@std@@IAE?AU?$pair@V?$_Tree_const_iterator@V?$_Tree_val@U?$_Tree_simple_types@UTelegram@@@std@@@std@@@std@@_N@1@_NABUTelegram@@U_Nil@1@@Z PROC ; std::_Tree<std::_Tset_traits<Telegram,std::less<Telegram>,std::allocator<Telegram>,0> >::_Insert_nohint<Telegram const &,std::_Nil>, COMDAT
; _this$ = ecx

; 1771 : 		{	// try to insert node, on left if _Leftish

	push	ebp
	mov	ebp, esp
	push	-1
	push	__ehhandler$??$_Insert_nohint@ABUTelegram@@U_Nil@std@@@?$_Tree@V?$_Tset_traits@UTelegram@@U?$less@UTelegram@@@std@@V?$allocator@UTelegram@@@3@$0A@@std@@@std@@IAE?AU?$pair@V?$_Tree_const_iterator@V?$_Tree_val@U?$_Tree_simple_types@UTelegram@@@std@@@std@@@std@@_N@1@_NABUTelegram@@U_Nil@1@@Z
	mov	eax, DWORD PTR fs:0
	push	eax
	push	ecx
	sub	esp, 212				; 000000d4H
	push	ebx
	push	esi
	push	edi
	push	ecx
	lea	edi, DWORD PTR [ebp-228]
	mov	ecx, 53					; 00000035H
	mov	eax, -858993460				; ccccccccH
	rep stosd
	pop	ecx
	mov	eax, DWORD PTR ___security_cookie
	xor	eax, ebp
	push	eax
	lea	eax, DWORD PTR __$EHRec$[ebp+4]
	mov	DWORD PTR fs:0, eax
	mov	DWORD PTR __$EHRec$[ebp], esp
	mov	DWORD PTR _this$[ebp], ecx
	mov	DWORD PTR $T2[ebp], 0

; 1772 : 		_TRY_BEGIN

	mov	DWORD PTR __$EHRec$[ebp+12], 0

; 1773 : 		_Nodeptr _Trynode = _Root();

	mov	ecx, DWORD PTR _this$[ebp]
	call	?_Root@?$_Tree@V?$_Tset_traits@UTelegram@@U?$less@UTelegram@@@std@@V?$allocator@UTelegram@@@3@$0A@@std@@@std@@IBEAAPAU?$_Tree_node@UTelegram@@PAX@2@XZ ; std::_Tree<std::_Tset_traits<Telegram,std::less<Telegram>,std::allocator<Telegram>,0> >::_Root
	mov	DWORD PTR tv259[ebp], eax
	mov	eax, DWORD PTR tv259[ebp]
	mov	ecx, DWORD PTR [eax]
	mov	DWORD PTR __Trynode$15[ebp], ecx

; 1774 : 		_Nodeptr _Wherenode = this->_Myhead();

	mov	ecx, DWORD PTR _this$[ebp]
	call	?_Myhead@?$_Tree_comp_alloc@V?$_Tset_traits@UTelegram@@U?$less@UTelegram@@@std@@V?$allocator@UTelegram@@@3@$0A@@std@@@std@@QAEAAPAU?$_Tree_node@UTelegram@@PAX@2@XZ ; std::_Tree_comp_alloc<std::_Tset_traits<Telegram,std::less<Telegram>,std::allocator<Telegram>,0> >::_Myhead
	mov	edx, DWORD PTR [eax]
	mov	DWORD PTR __Wherenode$14[ebp], edx

; 1775 : 		bool _Addleft = true;	// add to left of head if tree empty

	mov	BYTE PTR __Addleft$13[ebp], 1
$LN2@Insert_noh:

; 1776 : 
; 1777 : 		while (!this->_Isnil(_Trynode))

	mov	eax, DWORD PTR __Trynode$15[ebp]
	push	eax
	call	?_Isnil@?$_Tree_comp_alloc@V?$_Tset_traits@UTelegram@@U?$less@UTelegram@@@std@@V?$allocator@UTelegram@@@3@$0A@@std@@@std@@SAAADPAU?$_Tree_node@UTelegram@@PAX@2@@Z ; std::_Tree_comp_alloc<std::_Tset_traits<Telegram,std::less<Telegram>,std::allocator<Telegram>,0> >::_Isnil
	add	esp, 4
	mov	DWORD PTR tv241[ebp], eax
	mov	ecx, DWORD PTR tv241[ebp]
	movsx	edx, BYTE PTR [ecx]
	test	edx, edx
	jne	$LN3@Insert_noh

; 1778 : 			{	// look for leaf to insert before (_Addleft) or after
; 1779 : 			_Wherenode = _Trynode;

	mov	eax, DWORD PTR __Trynode$15[ebp]
	mov	DWORD PTR __Wherenode$14[ebp], eax

; 1780 : 			if (_Leftish)

	movzx	ecx, BYTE PTR __Leftish$[ebp]
	test	ecx, ecx
	je	SHORT $LN5@Insert_noh

; 1781 : 				_Addleft = !_DEBUG_LT_PRED(this->_Getcomp(),

	mov	edx, DWORD PTR __Val$[ebp]
	push	edx
	mov	ecx, DWORD PTR _this$[ebp]
	call	?_Kfn@?$_Tree@V?$_Tset_traits@UTelegram@@U?$less@UTelegram@@@std@@V?$allocator@UTelegram@@@3@$0A@@std@@@std@@IBEABUTelegram@@ABU3@@Z ; std::_Tree<std::_Tset_traits<Telegram,std::less<Telegram>,std::allocator<Telegram>,0> >::_Kfn
	mov	DWORD PTR tv198[ebp], eax
	mov	eax, DWORD PTR __Trynode$15[ebp]
	push	eax
	mov	ecx, DWORD PTR _this$[ebp]
	call	?_Key@?$_Tree@V?$_Tset_traits@UTelegram@@U?$less@UTelegram@@@std@@V?$allocator@UTelegram@@@3@$0A@@std@@@std@@IBEABUTelegram@@PAU?$_Tree_node@UTelegram@@PAX@2@@Z ; std::_Tree<std::_Tset_traits<Telegram,std::less<Telegram>,std::allocator<Telegram>,0> >::_Key
	mov	DWORD PTR tv159[ebp], eax
	push	1783					; 000006f7H
	push	OFFSET ??_C@_1IK@BEABFJGP@?$AAC?$AA?3?$AA?2?$AAP?$AAr?$AAo?$AAg?$AAr?$AAa?$AAm?$AA?5?$AAF?$AAi?$AAl?$AAe?$AAs?$AA?5?$AA?$CI?$AAx?$AA8?$AA6?$AA?$CJ?$AA?2?$AAM?$AAi?$AAc?$AAr?$AAo?$AAs?$AAo?$AAf?$AAt@
	mov	ecx, DWORD PTR tv198[ebp]
	push	ecx
	mov	edx, DWORD PTR tv159[ebp]
	push	edx
	mov	ecx, DWORD PTR _this$[ebp]
	call	?_Getcomp@?$_Tree_comp_alloc@V?$_Tset_traits@UTelegram@@U?$less@UTelegram@@@std@@V?$allocator@UTelegram@@@3@$0A@@std@@@std@@QAEAAU?$less@UTelegram@@@2@XZ ; std::_Tree_comp_alloc<std::_Tset_traits<Telegram,std::less<Telegram>,std::allocator<Telegram>,0> >::_Getcomp
	push	eax
	call	??$_Debug_lt_pred@AAU?$less@UTelegram@@@std@@ABUTelegram@@ABU3@@std@@YA_NAAU?$less@UTelegram@@@0@ABUTelegram@@1PB_WI@Z ; std::_Debug_lt_pred<std::less<Telegram> &,Telegram const &,Telegram const &>
	add	esp, 20					; 00000014H
	mov	BYTE PTR tv287[ebp], al
	movzx	eax, BYTE PTR tv287[ebp]
	test	eax, eax
	jne	SHORT $LN16@Insert_noh
	mov	DWORD PTR tv130[ebp], 1
	jmp	SHORT $LN17@Insert_noh
$LN16@Insert_noh:
	mov	DWORD PTR tv130[ebp], 0
$LN17@Insert_noh:
	mov	cl, BYTE PTR tv130[ebp]
	mov	BYTE PTR __Addleft$13[ebp], cl

; 1782 : 					this->_Key(_Trynode),
; 1783 : 					this->_Kfn(_Val));	// favor left end
; 1784 : 			else

	jmp	SHORT $LN6@Insert_noh
$LN5@Insert_noh:

; 1785 : 				_Addleft = _DEBUG_LT_PRED(this->_Getcomp(),

	mov	edx, DWORD PTR __Trynode$15[ebp]
	push	edx
	mov	ecx, DWORD PTR _this$[ebp]
	call	?_Key@?$_Tree@V?$_Tset_traits@UTelegram@@U?$less@UTelegram@@@std@@V?$allocator@UTelegram@@@3@$0A@@std@@@std@@IBEABUTelegram@@PAU?$_Tree_node@UTelegram@@PAX@2@@Z ; std::_Tree<std::_Tset_traits<Telegram,std::less<Telegram>,std::allocator<Telegram>,0> >::_Key
	mov	DWORD PTR tv288[ebp], eax
	mov	eax, DWORD PTR __Val$[ebp]
	push	eax
	mov	ecx, DWORD PTR _this$[ebp]
	call	?_Kfn@?$_Tree@V?$_Tset_traits@UTelegram@@U?$less@UTelegram@@@std@@V?$allocator@UTelegram@@@3@$0A@@std@@@std@@IBEABUTelegram@@ABU3@@Z ; std::_Tree<std::_Tset_traits<Telegram,std::less<Telegram>,std::allocator<Telegram>,0> >::_Kfn
	mov	DWORD PTR tv289[ebp], eax
	push	1787					; 000006fbH
	push	OFFSET ??_C@_1IK@BEABFJGP@?$AAC?$AA?3?$AA?2?$AAP?$AAr?$AAo?$AAg?$AAr?$AAa?$AAm?$AA?5?$AAF?$AAi?$AAl?$AAe?$AAs?$AA?5?$AA?$CI?$AAx?$AA8?$AA6?$AA?$CJ?$AA?2?$AAM?$AAi?$AAc?$AAr?$AAo?$AAs?$AAo?$AAf?$AAt@
	mov	ecx, DWORD PTR tv288[ebp]
	push	ecx
	mov	edx, DWORD PTR tv289[ebp]
	push	edx
	mov	ecx, DWORD PTR _this$[ebp]
	call	?_Getcomp@?$_Tree_comp_alloc@V?$_Tset_traits@UTelegram@@U?$less@UTelegram@@@std@@V?$allocator@UTelegram@@@3@$0A@@std@@@std@@QAEAAU?$less@UTelegram@@@2@XZ ; std::_Tree_comp_alloc<std::_Tset_traits<Telegram,std::less<Telegram>,std::allocator<Telegram>,0> >::_Getcomp
	push	eax
	call	??$_Debug_lt_pred@AAU?$less@UTelegram@@@std@@ABUTelegram@@ABU3@@std@@YA_NAAU?$less@UTelegram@@@0@ABUTelegram@@1PB_WI@Z ; std::_Debug_lt_pred<std::less<Telegram> &,Telegram const &,Telegram const &>
	add	esp, 20					; 00000014H
	mov	BYTE PTR tv290[ebp], al
	mov	al, BYTE PTR tv290[ebp]
	mov	BYTE PTR __Addleft$13[ebp], al
$LN6@Insert_noh:

; 1786 : 					this->_Kfn(_Val),
; 1787 : 					this->_Key(_Trynode));	// favor right end
; 1788 : 			_Trynode = _Addleft ? this->_Left(_Trynode)

	movzx	ecx, BYTE PTR __Addleft$13[ebp]
	test	ecx, ecx
	je	SHORT $LN18@Insert_noh
	mov	edx, DWORD PTR __Trynode$15[ebp]
	push	edx
	call	?_Left@?$_Tree_comp_alloc@V?$_Tset_traits@UTelegram@@U?$less@UTelegram@@@std@@V?$allocator@UTelegram@@@3@$0A@@std@@@std@@SAAAPAU?$_Tree_node@UTelegram@@PAX@2@PAU32@@Z ; std::_Tree_comp_alloc<std::_Tset_traits<Telegram,std::less<Telegram>,std::allocator<Telegram>,0> >::_Left
	add	esp, 4
	mov	DWORD PTR tv291[ebp], eax
	mov	eax, DWORD PTR tv291[ebp]
	mov	ecx, DWORD PTR [eax]
	mov	DWORD PTR tv156[ebp], ecx
	jmp	SHORT $LN19@Insert_noh
$LN18@Insert_noh:
	mov	edx, DWORD PTR __Trynode$15[ebp]
	push	edx
	call	?_Right@?$_Tree_comp_alloc@V?$_Tset_traits@UTelegram@@U?$less@UTelegram@@@std@@V?$allocator@UTelegram@@@3@$0A@@std@@@std@@SAAAPAU?$_Tree_node@UTelegram@@PAX@2@PAU32@@Z ; std::_Tree_comp_alloc<std::_Tset_traits<Telegram,std::less<Telegram>,std::allocator<Telegram>,0> >::_Right
	add	esp, 4
	mov	DWORD PTR tv292[ebp], eax
	mov	eax, DWORD PTR tv292[ebp]
	mov	ecx, DWORD PTR [eax]
	mov	DWORD PTR tv156[ebp], ecx
$LN19@Insert_noh:
	mov	edx, DWORD PTR tv156[ebp]
	mov	DWORD PTR __Trynode$15[ebp], edx

; 1789 : 				: this->_Right(_Trynode);
; 1790 : 			}

	jmp	$LN2@Insert_noh
$LN3@Insert_noh:

; 1791 : 
; 1792 : 		if (this->_Multi)

	xor	eax, eax
	je	SHORT $LN7@Insert_noh

; 1793 : 			return (_Pairib(_Insert_at(_Addleft, _Wherenode,

	mov	BYTE PTR $T11[ebp], 1
	movzx	ecx, BYTE PTR __Newnode$[ebp]
	push	ecx
	mov	edx, DWORD PTR __Val$[ebp]
	push	edx
	call	??$forward@ABUTelegram@@@std@@YAABUTelegram@@ABU1@@Z ; std::forward<Telegram const &>
	add	esp, 4
	push	eax
	mov	eax, DWORD PTR __Wherenode$14[ebp]
	push	eax
	movzx	ecx, BYTE PTR __Addleft$13[ebp]
	push	ecx
	lea	edx, DWORD PTR $T10[ebp]
	push	edx
	mov	ecx, DWORD PTR _this$[ebp]
	call	??$_Insert_at@ABUTelegram@@U_Nil@std@@@?$_Tree@V?$_Tset_traits@UTelegram@@U?$less@UTelegram@@@std@@V?$allocator@UTelegram@@@3@$0A@@std@@@std@@IAE?AV?$_Tree_const_iterator@V?$_Tree_val@U?$_Tree_simple_types@UTelegram@@@std@@@std@@@1@_NPAU?$_Tree_node@UTelegram@@PAX@1@ABUTelegram@@U_Nil@1@@Z ; std::_Tree<std::_Tset_traits<Telegram,std::less<Telegram>,std::allocator<Telegram>,0> >::_Insert_at<Telegram const &,std::_Nil>
	mov	DWORD PTR tv293[ebp], eax
	mov	eax, DWORD PTR tv293[ebp]
	mov	DWORD PTR tv268[ebp], eax
	mov	BYTE PTR __$EHRec$[ebp+12], 1
	lea	ecx, DWORD PTR $T11[ebp]
	push	ecx
	mov	edx, DWORD PTR tv268[ebp]
	push	edx
	mov	ecx, DWORD PTR ___$ReturnUdt$[ebp]
	call	??$?0V?$_Tree_const_iterator@V?$_Tree_val@U?$_Tree_simple_types@UTelegram@@@std@@@std@@@std@@_NX$0A@@?$pair@V?$_Tree_const_iterator@V?$_Tree_val@U?$_Tree_simple_types@UTelegram@@@std@@@std@@@std@@_N@std@@QAE@$$QAV?$_Tree_const_iterator@V?$_Tree_val@U?$_Tree_simple_types@UTelegram@@@std@@@std@@@1@$$QA_N@Z ; std::pair<std::_Tree_const_iterator<std::_Tree_val<std::_Tree_simple_types<Telegram> > >,bool>::pair<std::_Tree_const_iterator<std::_Tree_val<std::_Tree_simple_types<Telegram> > >,bool><std::_Tree_const_iterator<std::_Tree_val<std::_Tree_simple_types<Telegram> > >,bool,void,0>
	mov	eax, DWORD PTR $T2[ebp]
	or	eax, 1
	mov	DWORD PTR $T2[ebp], eax
	mov	BYTE PTR __$EHRec$[ebp+12], 0
	lea	ecx, DWORD PTR $T10[ebp]
	call	??1?$_Tree_const_iterator@V?$_Tree_val@U?$_Tree_simple_types@UTelegram@@@std@@@std@@@std@@QAE@XZ
	mov	eax, DWORD PTR ___$ReturnUdt$[ebp]
	jmp	$LN15@Insert_noh

; 1794 : 				_STD forward<_Valty>(_Val), _Newnode), true));
; 1795 : 		else

	jmp	$LN8@Insert_noh
$LN7@Insert_noh:

; 1796 : 			{	// insert only if unique
; 1797 : 			iterator _Where = iterator(_Wherenode, &this->_Get_data());

	mov	ecx, DWORD PTR _this$[ebp]
	call	?_Get_data@?$_Tree_comp_alloc@V?$_Tset_traits@UTelegram@@U?$less@UTelegram@@@std@@V?$allocator@UTelegram@@@3@$0A@@std@@@std@@QAEAAV?$_Tree_val@U?$_Tree_simple_types@UTelegram@@@std@@@2@XZ ; std::_Tree_comp_alloc<std::_Tset_traits<Telegram,std::less<Telegram>,std::allocator<Telegram>,0> >::_Get_data
	push	eax
	mov	ecx, DWORD PTR __Wherenode$14[ebp]
	push	ecx
	lea	ecx, DWORD PTR __Where$12[ebp]
	call	??0?$_Tree_const_iterator@V?$_Tree_val@U?$_Tree_simple_types@UTelegram@@@std@@@std@@@std@@QAE@PAU?$_Tree_node@UTelegram@@PAX@1@PBV?$_Tree_val@U?$_Tree_simple_types@UTelegram@@@std@@@1@@Z ; std::_Tree_const_iterator<std::_Tree_val<std::_Tree_simple_types<Telegram> > >::_Tree_const_iterator<std::_Tree_val<std::_Tree_simple_types<Telegram> > >
	mov	DWORD PTR tv294[ebp], eax
	mov	BYTE PTR __$EHRec$[ebp+12], 2

; 1798 : 			if (!_Addleft)

	movzx	edx, BYTE PTR __Addleft$13[ebp]
	test	edx, edx
	jne	SHORT $LN9@Insert_noh
	jmp	$LN10@Insert_noh
$LN9@Insert_noh:

; 1799 : 				;	// need to test if insert after is okay
; 1800 : 			else if (_Where == begin())

	lea	eax, DWORD PTR $T8[ebp]
	push	eax
	mov	ecx, DWORD PTR _this$[ebp]
	call	?begin@?$_Tree@V?$_Tset_traits@UTelegram@@U?$less@UTelegram@@@std@@V?$allocator@UTelegram@@@3@$0A@@std@@@std@@QAE?AV?$_Tree_const_iterator@V?$_Tree_val@U?$_Tree_simple_types@UTelegram@@@std@@@std@@@2@XZ ; std::_Tree<std::_Tset_traits<Telegram,std::less<Telegram>,std::allocator<Telegram>,0> >::begin
	mov	DWORD PTR tv295[ebp], eax
	mov	ecx, DWORD PTR tv295[ebp]
	mov	DWORD PTR tv275[ebp], ecx
	mov	BYTE PTR __$EHRec$[ebp+12], 3
	mov	edx, DWORD PTR tv275[ebp]
	push	edx
	lea	ecx, DWORD PTR __Where$12[ebp]
	call	??8?$_Tree_const_iterator@V?$_Tree_val@U?$_Tree_simple_types@UTelegram@@@std@@@std@@@std@@QBE_NABV01@@Z ; std::_Tree_const_iterator<std::_Tree_val<std::_Tree_simple_types<Telegram> > >::operator==
	mov	BYTE PTR tv296[ebp], al
	mov	al, BYTE PTR tv296[ebp]
	mov	BYTE PTR $T9[ebp], al
	mov	BYTE PTR __$EHRec$[ebp+12], 2
	lea	ecx, DWORD PTR $T8[ebp]
	call	??1?$_Tree_const_iterator@V?$_Tree_val@U?$_Tree_simple_types@UTelegram@@@std@@@std@@@std@@QAE@XZ
	movzx	ecx, BYTE PTR $T9[ebp]
	test	ecx, ecx
	je	SHORT $LN11@Insert_noh

; 1801 : 				return (_Pairib(_Insert_at(true, _Wherenode,

	mov	BYTE PTR $T7[ebp], 1
	movzx	edx, BYTE PTR __Newnode$[ebp]
	push	edx
	mov	eax, DWORD PTR __Val$[ebp]
	push	eax
	call	??$forward@ABUTelegram@@@std@@YAABUTelegram@@ABU1@@Z ; std::forward<Telegram const &>
	add	esp, 4
	push	eax
	mov	ecx, DWORD PTR __Wherenode$14[ebp]
	push	ecx
	push	1
	lea	edx, DWORD PTR $T6[ebp]
	push	edx
	mov	ecx, DWORD PTR _this$[ebp]
	call	??$_Insert_at@ABUTelegram@@U_Nil@std@@@?$_Tree@V?$_Tset_traits@UTelegram@@U?$less@UTelegram@@@std@@V?$allocator@UTelegram@@@3@$0A@@std@@@std@@IAE?AV?$_Tree_const_iterator@V?$_Tree_val@U?$_Tree_simple_types@UTelegram@@@std@@@std@@@1@_NPAU?$_Tree_node@UTelegram@@PAX@1@ABUTelegram@@U_Nil@1@@Z ; std::_Tree<std::_Tset_traits<Telegram,std::less<Telegram>,std::allocator<Telegram>,0> >::_Insert_at<Telegram const &,std::_Nil>
	mov	DWORD PTR tv297[ebp], eax
	mov	eax, DWORD PTR tv297[ebp]
	mov	DWORD PTR tv277[ebp], eax
	mov	BYTE PTR __$EHRec$[ebp+12], 4
	lea	ecx, DWORD PTR $T7[ebp]
	push	ecx
	mov	edx, DWORD PTR tv277[ebp]
	push	edx
	mov	ecx, DWORD PTR ___$ReturnUdt$[ebp]
	call	??$?0V?$_Tree_const_iterator@V?$_Tree_val@U?$_Tree_simple_types@UTelegram@@@std@@@std@@@std@@_NX$0A@@?$pair@V?$_Tree_const_iterator@V?$_Tree_val@U?$_Tree_simple_types@UTelegram@@@std@@@std@@@std@@_N@std@@QAE@$$QAV?$_Tree_const_iterator@V?$_Tree_val@U?$_Tree_simple_types@UTelegram@@@std@@@std@@@1@$$QA_N@Z ; std::pair<std::_Tree_const_iterator<std::_Tree_val<std::_Tree_simple_types<Telegram> > >,bool>::pair<std::_Tree_const_iterator<std::_Tree_val<std::_Tree_simple_types<Telegram> > >,bool><std::_Tree_const_iterator<std::_Tree_val<std::_Tree_simple_types<Telegram> > >,bool,void,0>
	mov	eax, DWORD PTR $T2[ebp]
	or	eax, 1
	mov	DWORD PTR $T2[ebp], eax
	mov	BYTE PTR __$EHRec$[ebp+12], 2
	lea	ecx, DWORD PTR $T6[ebp]
	call	??1?$_Tree_const_iterator@V?$_Tree_val@U?$_Tree_simple_types@UTelegram@@@std@@@std@@@std@@QAE@XZ
	mov	BYTE PTR __$EHRec$[ebp+12], 0
	lea	ecx, DWORD PTR __Where$12[ebp]
	call	??1?$_Tree_const_iterator@V?$_Tree_val@U?$_Tree_simple_types@UTelegram@@@std@@@std@@@std@@QAE@XZ
	mov	eax, DWORD PTR ___$ReturnUdt$[ebp]
	jmp	$LN15@Insert_noh

; 1802 : 					_STD forward<_Valty>(_Val), _Newnode), true));
; 1803 : 			else

	jmp	SHORT $LN10@Insert_noh
$LN11@Insert_noh:

; 1804 : 				--_Where;	// need to test if insert before is okay

	lea	ecx, DWORD PTR __Where$12[ebp]
	call	??F?$_Tree_const_iterator@V?$_Tree_val@U?$_Tree_simple_types@UTelegram@@@std@@@std@@@std@@QAEAAV01@XZ ; std::_Tree_const_iterator<std::_Tree_val<std::_Tree_simple_types<Telegram> > >::operator--
$LN10@Insert_noh:

; 1805 : 
; 1806 : 			if (_DEBUG_LT_PRED(this->_Getcomp(),

	mov	ecx, DWORD PTR __Val$[ebp]
	push	ecx
	mov	ecx, DWORD PTR _this$[ebp]
	call	?_Kfn@?$_Tree@V?$_Tset_traits@UTelegram@@U?$less@UTelegram@@@std@@V?$allocator@UTelegram@@@3@$0A@@std@@@std@@IBEABUTelegram@@ABU3@@Z ; std::_Tree<std::_Tset_traits<Telegram,std::less<Telegram>,std::allocator<Telegram>,0> >::_Kfn
	mov	DWORD PTR tv298[ebp], eax
	lea	ecx, DWORD PTR __Where$12[ebp]
	call	?_Mynode@?$_Tree_unchecked_const_iterator@V?$_Tree_val@U?$_Tree_simple_types@UTelegram@@@std@@@std@@U_Iterator_base12@2@@std@@QBEPAU?$_Tree_node@UTelegram@@PAX@2@XZ ; std::_Tree_unchecked_const_iterator<std::_Tree_val<std::_Tree_simple_types<Telegram> >,std::_Iterator_base12>::_Mynode
	mov	DWORD PTR tv299[ebp], eax
	mov	edx, DWORD PTR tv299[ebp]
	push	edx
	mov	ecx, DWORD PTR _this$[ebp]
	call	?_Key@?$_Tree@V?$_Tset_traits@UTelegram@@U?$less@UTelegram@@@std@@V?$allocator@UTelegram@@@3@$0A@@std@@@std@@IBEABUTelegram@@PAU?$_Tree_node@UTelegram@@PAX@2@@Z ; std::_Tree<std::_Tset_traits<Telegram,std::less<Telegram>,std::allocator<Telegram>,0> >::_Key
	mov	DWORD PTR tv300[ebp], eax
	push	1808					; 00000710H
	push	OFFSET ??_C@_1IK@BEABFJGP@?$AAC?$AA?3?$AA?2?$AAP?$AAr?$AAo?$AAg?$AAr?$AAa?$AAm?$AA?5?$AAF?$AAi?$AAl?$AAe?$AAs?$AA?5?$AA?$CI?$AAx?$AA8?$AA6?$AA?$CJ?$AA?2?$AAM?$AAi?$AAc?$AAr?$AAo?$AAs?$AAo?$AAf?$AAt@
	mov	eax, DWORD PTR tv298[ebp]
	push	eax
	mov	ecx, DWORD PTR tv300[ebp]
	push	ecx
	mov	ecx, DWORD PTR _this$[ebp]
	call	?_Getcomp@?$_Tree_comp_alloc@V?$_Tset_traits@UTelegram@@U?$less@UTelegram@@@std@@V?$allocator@UTelegram@@@3@$0A@@std@@@std@@QAEAAU?$less@UTelegram@@@2@XZ ; std::_Tree_comp_alloc<std::_Tset_traits<Telegram,std::less<Telegram>,std::allocator<Telegram>,0> >::_Getcomp
	push	eax
	call	??$_Debug_lt_pred@AAU?$less@UTelegram@@@std@@ABUTelegram@@ABU3@@std@@YA_NAAU?$less@UTelegram@@@0@ABUTelegram@@1PB_WI@Z ; std::_Debug_lt_pred<std::less<Telegram> &,Telegram const &,Telegram const &>
	add	esp, 20					; 00000014H
	mov	BYTE PTR tv301[ebp], al
	movzx	edx, BYTE PTR tv301[ebp]
	test	edx, edx
	je	SHORT $LN13@Insert_noh

; 1807 : 				this->_Key(_Where._Mynode()),
; 1808 : 				this->_Kfn(_Val)))
; 1809 : 				return (_Pairib(_Insert_at(_Addleft, _Wherenode,

	mov	BYTE PTR $T5[ebp], 1
	movzx	eax, BYTE PTR __Newnode$[ebp]
	push	eax
	mov	ecx, DWORD PTR __Val$[ebp]
	push	ecx
	call	??$forward@ABUTelegram@@@std@@YAABUTelegram@@ABU1@@Z ; std::forward<Telegram const &>
	add	esp, 4
	push	eax
	mov	edx, DWORD PTR __Wherenode$14[ebp]
	push	edx
	movzx	eax, BYTE PTR __Addleft$13[ebp]
	push	eax
	lea	ecx, DWORD PTR $T4[ebp]
	push	ecx
	mov	ecx, DWORD PTR _this$[ebp]
	call	??$_Insert_at@ABUTelegram@@U_Nil@std@@@?$_Tree@V?$_Tset_traits@UTelegram@@U?$less@UTelegram@@@std@@V?$allocator@UTelegram@@@3@$0A@@std@@@std@@IAE?AV?$_Tree_const_iterator@V?$_Tree_val@U?$_Tree_simple_types@UTelegram@@@std@@@std@@@1@_NPAU?$_Tree_node@UTelegram@@PAX@1@ABUTelegram@@U_Nil@1@@Z ; std::_Tree<std::_Tset_traits<Telegram,std::less<Telegram>,std::allocator<Telegram>,0> >::_Insert_at<Telegram const &,std::_Nil>
	mov	DWORD PTR tv302[ebp], eax
	mov	edx, DWORD PTR tv302[ebp]
	mov	DWORD PTR tv281[ebp], edx
	mov	BYTE PTR __$EHRec$[ebp+12], 5
	lea	eax, DWORD PTR $T5[ebp]
	push	eax
	mov	ecx, DWORD PTR tv281[ebp]
	push	ecx
	mov	ecx, DWORD PTR ___$ReturnUdt$[ebp]
	call	??$?0V?$_Tree_const_iterator@V?$_Tree_val@U?$_Tree_simple_types@UTelegram@@@std@@@std@@@std@@_NX$0A@@?$pair@V?$_Tree_const_iterator@V?$_Tree_val@U?$_Tree_simple_types@UTelegram@@@std@@@std@@@std@@_N@std@@QAE@$$QAV?$_Tree_const_iterator@V?$_Tree_val@U?$_Tree_simple_types@UTelegram@@@std@@@std@@@1@$$QA_N@Z ; std::pair<std::_Tree_const_iterator<std::_Tree_val<std::_Tree_simple_types<Telegram> > >,bool>::pair<std::_Tree_const_iterator<std::_Tree_val<std::_Tree_simple_types<Telegram> > >,bool><std::_Tree_const_iterator<std::_Tree_val<std::_Tree_simple_types<Telegram> > >,bool,void,0>
	mov	edx, DWORD PTR $T2[ebp]
	or	edx, 1
	mov	DWORD PTR $T2[ebp], edx
	mov	BYTE PTR __$EHRec$[ebp+12], 2
	lea	ecx, DWORD PTR $T4[ebp]
	call	??1?$_Tree_const_iterator@V?$_Tree_val@U?$_Tree_simple_types@UTelegram@@@std@@@std@@@std@@QAE@XZ
	mov	BYTE PTR __$EHRec$[ebp+12], 0
	lea	ecx, DWORD PTR __Where$12[ebp]
	call	??1?$_Tree_const_iterator@V?$_Tree_val@U?$_Tree_simple_types@UTelegram@@@std@@@std@@@std@@QAE@XZ
	mov	eax, DWORD PTR ___$ReturnUdt$[ebp]
	jmp	SHORT $LN15@Insert_noh

; 1810 : 					_STD forward<_Valty>(_Val), _Newnode), true));
; 1811 : 			else

	jmp	SHORT $LN14@Insert_noh
$LN13@Insert_noh:

; 1812 : 				{	// duplicate, don't insert
; 1813 : 				_Destroy_if_not_nil(_Newnode);

	movzx	eax, BYTE PTR __Newnode$[ebp]
	push	eax
	mov	ecx, DWORD PTR _this$[ebp]
	call	?_Destroy_if_not_nil@?$_Tree@V?$_Tset_traits@UTelegram@@U?$less@UTelegram@@@std@@V?$allocator@UTelegram@@@3@$0A@@std@@@std@@IAEXU_Nil@2@@Z ; std::_Tree<std::_Tset_traits<Telegram,std::less<Telegram>,std::allocator<Telegram>,0> >::_Destroy_if_not_nil

; 1814 : 				return (_Pairib(_Where, false));

	mov	BYTE PTR $T3[ebp], 0
	lea	ecx, DWORD PTR $T3[ebp]
	push	ecx
	lea	edx, DWORD PTR __Where$12[ebp]
	push	edx
	mov	ecx, DWORD PTR ___$ReturnUdt$[ebp]
	call	??$?0AAV?$_Tree_const_iterator@V?$_Tree_val@U?$_Tree_simple_types@UTelegram@@@std@@@std@@@std@@_NX$0A@@?$pair@V?$_Tree_const_iterator@V?$_Tree_val@U?$_Tree_simple_types@UTelegram@@@std@@@std@@@std@@_N@std@@QAE@AAV?$_Tree_const_iterator@V?$_Tree_val@U?$_Tree_simple_types@UTelegram@@@std@@@std@@@1@$$QA_N@Z ; std::pair<std::_Tree_const_iterator<std::_Tree_val<std::_Tree_simple_types<Telegram> > >,bool>::pair<std::_Tree_const_iterator<std::_Tree_val<std::_Tree_simple_types<Telegram> > >,bool><std::_Tree_const_iterator<std::_Tree_val<std::_Tree_simple_types<Telegram> > > &,bool,void,0>
	mov	eax, DWORD PTR $T2[ebp]
	or	eax, 1
	mov	DWORD PTR $T2[ebp], eax
	mov	BYTE PTR __$EHRec$[ebp+12], 0
	lea	ecx, DWORD PTR __Where$12[ebp]
	call	??1?$_Tree_const_iterator@V?$_Tree_val@U?$_Tree_simple_types@UTelegram@@@std@@@std@@@std@@QAE@XZ
	mov	eax, DWORD PTR ___$ReturnUdt$[ebp]
	jmp	SHORT $LN15@Insert_noh
$LN14@Insert_noh:

; 1815 : 				}
; 1816 : 			}

	mov	BYTE PTR __$EHRec$[ebp+12], 0
	lea	ecx, DWORD PTR __Where$12[ebp]
	call	??1?$_Tree_const_iterator@V?$_Tree_val@U?$_Tree_simple_types@UTelegram@@@std@@@std@@@std@@QAE@XZ
$LN8@Insert_noh:
	jmp	SHORT $LN20@Insert_noh
__catch$??$_Insert_nohint@ABUTelegram@@U_Nil@std@@@?$_Tree@V?$_Tset_traits@UTelegram@@U?$less@UTelegram@@@std@@V?$allocator@UTelegram@@@3@$0A@@std@@@std@@IAE?AU?$pair@V?$_Tree_const_iterator@V?$_Tree_val@U?$_Tree_simple_types@UTelegram@@@std@@@std@@@std@@_N@1@_NABUTelegram@@U_Nil@1@@Z$0:

; 1817 : 		_CATCH_ALL
; 1818 : 		_Destroy_if_not_nil(_Newnode);

	movzx	ecx, BYTE PTR __Newnode$[ebp]
	push	ecx
	mov	ecx, DWORD PTR _this$[ebp]
	call	?_Destroy_if_not_nil@?$_Tree@V?$_Tset_traits@UTelegram@@U?$less@UTelegram@@@std@@V?$allocator@UTelegram@@@3@$0A@@std@@@std@@IAEXU_Nil@2@@Z ; std::_Tree<std::_Tset_traits<Telegram,std::less<Telegram>,std::allocator<Telegram>,0> >::_Destroy_if_not_nil

; 1819 : 		_RERAISE;

	push	0
	push	0
	call	__CxxThrowException@8

; 1820 : 		_CATCH_END

	mov	eax, $LN30@Insert_noh
	ret	0
$LN20@Insert_noh:
	mov	DWORD PTR __$EHRec$[ebp+12], -1
	jmp	SHORT $LN15@Insert_noh
$LN30@Insert_noh:
	mov	DWORD PTR __$EHRec$[ebp+12], -1
$LN15@Insert_noh:

; 1821 : 		}

	push	edx
	mov	ecx, ebp
	push	eax
	lea	edx, DWORD PTR $LN34@Insert_noh
	call	@_RTC_CheckStackVars@8
	pop	eax
	pop	edx
	mov	ecx, DWORD PTR __$EHRec$[ebp+4]
	mov	DWORD PTR fs:0, ecx
	pop	ecx
	pop	edi
	pop	esi
	pop	ebx
	add	esp, 228				; 000000e4H
	cmp	ebp, esp
	call	__RTC_CheckEsp
	mov	esp, ebp
	pop	ebp
	ret	16					; 00000010H
$LN34@Insert_noh:
	DD	1
	DD	$LN33@Insert_noh
$LN33@Insert_noh:
	DD	-48					; ffffffd0H
	DD	12					; 0000000cH
	DD	$LN31@Insert_noh
$LN31@Insert_noh:
	DB	95					; 0000005fH
	DB	87					; 00000057H
	DB	104					; 00000068H
	DB	101					; 00000065H
	DB	114					; 00000072H
	DB	101					; 00000065H
	DB	0
_TEXT	ENDS
;	COMDAT text$x
text$x	SEGMENT
__unwindfunclet$??$_Insert_nohint@ABUTelegram@@U_Nil@std@@@?$_Tree@V?$_Tset_traits@UTelegram@@U?$less@UTelegram@@@std@@V?$allocator@UTelegram@@@3@$0A@@std@@@std@@IAE?AU?$pair@V?$_Tree_const_iterator@V?$_Tree_val@U?$_Tree_simple_types@UTelegram@@@std@@@std@@@std@@_N@1@_NABUTelegram@@U_Nil@1@@Z$2:
	lea	ecx, DWORD PTR $T10[ebp]
	jmp	??1?$_Tree_const_iterator@V?$_Tree_val@U?$_Tree_simple_types@UTelegram@@@std@@@std@@@std@@QAE@XZ
__unwindfunclet$??$_Insert_nohint@ABUTelegram@@U_Nil@std@@@?$_Tree@V?$_Tset_traits@UTelegram@@U?$less@UTelegram@@@std@@V?$allocator@UTelegram@@@3@$0A@@std@@@std@@IAE?AU?$pair@V?$_Tree_const_iterator@V?$_Tree_val@U?$_Tree_simple_types@UTelegram@@@std@@@std@@@std@@_N@1@_NABUTelegram@@U_Nil@1@@Z$4:
	lea	ecx, DWORD PTR __Where$12[ebp]
	jmp	??1?$_Tree_const_iterator@V?$_Tree_val@U?$_Tree_simple_types@UTelegram@@@std@@@std@@@std@@QAE@XZ
__unwindfunclet$??$_Insert_nohint@ABUTelegram@@U_Nil@std@@@?$_Tree@V?$_Tset_traits@UTelegram@@U?$less@UTelegram@@@std@@V?$allocator@UTelegram@@@3@$0A@@std@@@std@@IAE?AU?$pair@V?$_Tree_const_iterator@V?$_Tree_val@U?$_Tree_simple_types@UTelegram@@@std@@@std@@@std@@_N@1@_NABUTelegram@@U_Nil@1@@Z$5:
	lea	ecx, DWORD PTR $T8[ebp]
	jmp	??1?$_Tree_const_iterator@V?$_Tree_val@U?$_Tree_simple_types@UTelegram@@@std@@@std@@@std@@QAE@XZ
__unwindfunclet$??$_Insert_nohint@ABUTelegram@@U_Nil@std@@@?$_Tree@V?$_Tset_traits@UTelegram@@U?$less@UTelegram@@@std@@V?$allocator@UTelegram@@@3@$0A@@std@@@std@@IAE?AU?$pair@V?$_Tree_const_iterator@V?$_Tree_val@U?$_Tree_simple_types@UTelegram@@@std@@@std@@@std@@_N@1@_NABUTelegram@@U_Nil@1@@Z$6:
	lea	ecx, DWORD PTR $T6[ebp]
	jmp	??1?$_Tree_const_iterator@V?$_Tree_val@U?$_Tree_simple_types@UTelegram@@@std@@@std@@@std@@QAE@XZ
__unwindfunclet$??$_Insert_nohint@ABUTelegram@@U_Nil@std@@@?$_Tree@V?$_Tset_traits@UTelegram@@U?$less@UTelegram@@@std@@V?$allocator@UTelegram@@@3@$0A@@std@@@std@@IAE?AU?$pair@V?$_Tree_const_iterator@V?$_Tree_val@U?$_Tree_simple_types@UTelegram@@@std@@@std@@@std@@_N@1@_NABUTelegram@@U_Nil@1@@Z$7:
	lea	ecx, DWORD PTR $T4[ebp]
	jmp	??1?$_Tree_const_iterator@V?$_Tree_val@U?$_Tree_simple_types@UTelegram@@@std@@@std@@@std@@QAE@XZ
__ehhandler$??$_Insert_nohint@ABUTelegram@@U_Nil@std@@@?$_Tree@V?$_Tset_traits@UTelegram@@U?$less@UTelegram@@@std@@V?$allocator@UTelegram@@@3@$0A@@std@@@std@@IAE?AU?$pair@V?$_Tree_const_iterator@V?$_Tree_val@U?$_Tree_simple_types@UTelegram@@@std@@@std@@@std@@_N@1@_NABUTelegram@@U_Nil@1@@Z:
	mov	edx, DWORD PTR [esp+8]
	lea	eax, DWORD PTR [edx+12]
	mov	ecx, DWORD PTR [edx-232]
	xor	ecx, eax
	call	@__security_check_cookie@4
	mov	eax, OFFSET __ehfuncinfo$??$_Insert_nohint@ABUTelegram@@U_Nil@std@@@?$_Tree@V?$_Tset_traits@UTelegram@@U?$less@UTelegram@@@std@@V?$allocator@UTelegram@@@3@$0A@@std@@@std@@IAE?AU?$pair@V?$_Tree_const_iterator@V?$_Tree_val@U?$_Tree_simple_types@UTelegram@@@std@@@std@@@std@@_N@1@_NABUTelegram@@U_Nil@1@@Z
	jmp	___CxxFrameHandler3
text$x	ENDS
??$_Insert_nohint@ABUTelegram@@U_Nil@std@@@?$_Tree@V?$_Tset_traits@UTelegram@@U?$less@UTelegram@@@std@@V?$allocator@UTelegram@@@3@$0A@@std@@@std@@IAE?AU?$pair@V?$_Tree_const_iterator@V?$_Tree_val@U?$_Tree_simple_types@UTelegram@@@std@@@std@@@std@@_N@1@_NABUTelegram@@U_Nil@1@@Z ENDP ; std::_Tree<std::_Tset_traits<Telegram,std::less<Telegram>,std::allocator<Telegram>,0> >::_Insert_nohint<Telegram const &,std::_Nil>
; Function compile flags: /Odtp /RTCsu
; File c:\program files (x86)\microsoft visual studio 14.0\vc\include\xmemory0
;	COMDAT ??$construct@PAU?$_Tree_node@UTelegram@@PAX@std@@AAPAU12@@?$_Wrap_alloc@V?$allocator@U?$_Tree_node@UTelegram@@PAX@std@@@std@@@std@@QAEXPAPAU?$_Tree_node@UTelegram@@PAX@1@AAPAU21@@Z
_TEXT	SEGMENT
_this$ = -4						; size = 4
__Ptr$ = 8						; size = 4
_<_Args_0>$ = 12					; size = 4
??$construct@PAU?$_Tree_node@UTelegram@@PAX@std@@AAPAU12@@?$_Wrap_alloc@V?$allocator@U?$_Tree_node@UTelegram@@PAX@std@@@std@@@std@@QAEXPAPAU?$_Tree_node@UTelegram@@PAX@1@AAPAU21@@Z PROC ; std::_Wrap_alloc<std::allocator<std::_Tree_node<Telegram,void *> > >::construct<std::_Tree_node<Telegram,void *> *,std::_Tree_node<Telegram,void *> * &>, COMDAT
; _this$ = ecx

; 994  : 		{	// construct _Ty(_Types...) at _Ptr

	push	ebp
	mov	ebp, esp
	push	ecx
	mov	DWORD PTR [ebp-4], -858993460		; ccccccccH
	mov	DWORD PTR _this$[ebp], ecx

; 995  : 		_Mytraits::construct(*this, _Ptr,

	mov	eax, DWORD PTR _<_Args_0>$[ebp]
	push	eax
	call	??$forward@AAPAU?$_Tree_node@UTelegram@@PAX@std@@@std@@YAAAPAU?$_Tree_node@UTelegram@@PAX@0@AAPAU10@@Z ; std::forward<std::_Tree_node<Telegram,void *> * &>
	add	esp, 4
	push	eax
	mov	ecx, DWORD PTR __Ptr$[ebp]
	push	ecx
	mov	edx, DWORD PTR _this$[ebp]
	push	edx
	call	??$construct@PAU?$_Tree_node@UTelegram@@PAX@std@@AAPAU12@@?$allocator_traits@V?$allocator@U?$_Tree_node@UTelegram@@PAX@std@@@std@@@std@@SAXAAV?$allocator@U?$_Tree_node@UTelegram@@PAX@std@@@1@PAPAU?$_Tree_node@UTelegram@@PAX@1@AAPAU31@@Z ; std::allocator_traits<std::allocator<std::_Tree_node<Telegram,void *> > >::construct<std::_Tree_node<Telegram,void *> *,std::_Tree_node<Telegram,void *> * &>
	add	esp, 12					; 0000000cH

; 996  : 			_STD forward<_Types>(_Args)...);
; 997  : 		}

	add	esp, 4
	cmp	ebp, esp
	call	__RTC_CheckEsp
	mov	esp, ebp
	pop	ebp
	ret	8
??$construct@PAU?$_Tree_node@UTelegram@@PAX@std@@AAPAU12@@?$_Wrap_alloc@V?$allocator@U?$_Tree_node@UTelegram@@PAX@std@@@std@@@std@@QAEXPAPAU?$_Tree_node@UTelegram@@PAX@1@AAPAU21@@Z ENDP ; std::_Wrap_alloc<std::allocator<std::_Tree_node<Telegram,void *> > >::construct<std::_Tree_node<Telegram,void *> *,std::_Tree_node<Telegram,void *> * &>
_TEXT	ENDS
; Function compile flags: /Odtp /RTCsu
; File c:\program files (x86)\microsoft visual studio 14.0\vc\include\xstddef
;	COMDAT ??$addressof@U_Container_proxy@std@@@std@@YAPAU_Container_proxy@0@AAU10@@Z
_TEXT	SEGMENT
__Val$ = 8						; size = 4
??$addressof@U_Container_proxy@std@@@std@@YAPAU_Container_proxy@0@AAU10@@Z PROC ; std::addressof<std::_Container_proxy>, COMDAT

; 724  : 	{	// return address of _Val

	push	ebp
	mov	ebp, esp

; 725  : 	return (__builtin_addressof(_Val));

	mov	eax, DWORD PTR __Val$[ebp]

; 726  : 	}

	pop	ebp
	ret	0
??$addressof@U_Container_proxy@std@@@std@@YAPAU_Container_proxy@0@AAU10@@Z ENDP ; std::addressof<std::_Container_proxy>
_TEXT	ENDS
; Function compile flags: /Odtp /RTCsu
; File c:\program files (x86)\microsoft visual studio 14.0\vc\include\xmemory0
;	COMDAT ?pointer_to@?$pointer_traits@PAU_Container_proxy@std@@@std@@SAPAU_Container_proxy@2@AAU32@@Z
_TEXT	SEGMENT
__Val$ = 8						; size = 4
?pointer_to@?$pointer_traits@PAU_Container_proxy@std@@@std@@SAPAU_Container_proxy@2@AAU32@@Z PROC ; std::pointer_traits<std::_Container_proxy *>::pointer_to, COMDAT

; 279  : 		{	// convert raw reference to pointer

	push	ebp
	mov	ebp, esp

; 280  : 		return (_STD addressof(_Val));

	mov	eax, DWORD PTR __Val$[ebp]
	push	eax
	call	??$addressof@U_Container_proxy@std@@@std@@YAPAU_Container_proxy@0@AAU10@@Z ; std::addressof<std::_Container_proxy>
	add	esp, 4

; 281  : 		}

	cmp	ebp, esp
	call	__RTC_CheckEsp
	pop	ebp
	ret	0
?pointer_to@?$pointer_traits@PAU_Container_proxy@std@@@std@@SAPAU_Container_proxy@2@AAU32@@Z ENDP ; std::pointer_traits<std::_Container_proxy *>::pointer_to
_TEXT	ENDS
; Function compile flags: /Odtp /RTCsu
; File c:\program files (x86)\microsoft visual studio 14.0\vc\include\xutility
;	COMDAT ??$?0ABU?$less@UTelegram@@@std@@U_Zero_then_variadic_args_t@1@@?$_Compressed_pair@U?$less@UTelegram@@@std@@V?$_Compressed_pair@U?$_Wrap_alloc@V?$allocator@U?$_Tree_node@UTelegram@@PAX@std@@@std@@@std@@V?$_Tree_val@U?$_Tree_simple_types@UTelegram@@@std@@@2@$00@2@$00@std@@QAE@U_One_then_variadic_args_t@1@ABU?$less@UTelegram@@@1@$$QAU_Zero_then_variadic_args_t@1@@Z
_TEXT	SEGMENT
_this$ = -4						; size = 4
___formal$ = 8						; size = 1
__Val1$ = 12						; size = 4
_<_Val2_0>$ = 16					; size = 4
??$?0ABU?$less@UTelegram@@@std@@U_Zero_then_variadic_args_t@1@@?$_Compressed_pair@U?$less@UTelegram@@@std@@V?$_Compressed_pair@U?$_Wrap_alloc@V?$allocator@U?$_Tree_node@UTelegram@@PAX@std@@@std@@@std@@V?$_Tree_val@U?$_Tree_simple_types@UTelegram@@@std@@@2@$00@2@$00@std@@QAE@U_One_then_variadic_args_t@1@ABU?$less@UTelegram@@@1@$$QAU_Zero_then_variadic_args_t@1@@Z PROC ; std::_Compressed_pair<std::less<Telegram>,std::_Compressed_pair<std::_Wrap_alloc<std::allocator<std::_Tree_node<Telegram,void *> > >,std::_Tree_val<std::_Tree_simple_types<Telegram> >,1>,1>::_Compressed_pair<std::less<Telegram>,std::_Compressed_pair<std::_Wrap_alloc<std::allocator<std::_Tree_node<Telegram,void *> > >,std::_Tree_val<std::_Tree_simple_types<Telegram> >,1>,1><std::less<Telegram> const &,std::_Zero_then_variadic_args_t>, COMDAT
; _this$ = ecx

; 289  : 		{	// construct from forwarded values

	push	ebp
	mov	ebp, esp
	push	ecx
	mov	DWORD PTR [ebp-4], -858993460		; ccccccccH
	mov	DWORD PTR _this$[ebp], ecx

; 287  : 		: _Ty1(_STD forward<_Other1>(_Val1)),

	mov	eax, DWORD PTR __Val1$[ebp]
	push	eax
	call	??$forward@ABU?$less@UTelegram@@@std@@@std@@YAABU?$less@UTelegram@@@0@ABU10@@Z ; std::forward<std::less<Telegram> const &>
	add	esp, 4

; 288  : 			_Myval2(_STD forward<_Other2>(_Val2)...)

	mov	ecx, DWORD PTR _<_Val2_0>$[ebp]
	push	ecx
	call	??$forward@U_Zero_then_variadic_args_t@std@@@std@@YA$$QAU_Zero_then_variadic_args_t@0@AAU10@@Z ; std::forward<std::_Zero_then_variadic_args_t>
	add	esp, 4
	mov	dl, BYTE PTR [eax]
	movzx	eax, dl
	push	eax
	mov	ecx, DWORD PTR _this$[ebp]
	call	??$?0$$V@?$_Compressed_pair@U?$_Wrap_alloc@V?$allocator@U?$_Tree_node@UTelegram@@PAX@std@@@std@@@std@@V?$_Tree_val@U?$_Tree_simple_types@UTelegram@@@std@@@2@$00@std@@QAE@U_Zero_then_variadic_args_t@1@@Z ; std::_Compressed_pair<std::_Wrap_alloc<std::allocator<std::_Tree_node<Telegram,void *> > >,std::_Tree_val<std::_Tree_simple_types<Telegram> >,1>::_Compressed_pair<std::_Wrap_alloc<std::allocator<std::_Tree_node<Telegram,void *> > >,std::_Tree_val<std::_Tree_simple_types<Telegram> >,1><>

; 290  : 		}

	mov	eax, DWORD PTR _this$[ebp]
	add	esp, 4
	cmp	ebp, esp
	call	__RTC_CheckEsp
	mov	esp, ebp
	pop	ebp
	ret	12					; 0000000cH
??$?0ABU?$less@UTelegram@@@std@@U_Zero_then_variadic_args_t@1@@?$_Compressed_pair@U?$less@UTelegram@@@std@@V?$_Compressed_pair@U?$_Wrap_alloc@V?$allocator@U?$_Tree_node@UTelegram@@PAX@std@@@std@@@std@@V?$_Tree_val@U?$_Tree_simple_types@UTelegram@@@std@@@2@$00@2@$00@std@@QAE@U_One_then_variadic_args_t@1@ABU?$less@UTelegram@@@1@$$QAU_Zero_then_variadic_args_t@1@@Z ENDP ; std::_Compressed_pair<std::less<Telegram>,std::_Compressed_pair<std::_Wrap_alloc<std::allocator<std::_Tree_node<Telegram,void *> > >,std::_Tree_val<std::_Tree_simple_types<Telegram> >,1>,1>::_Compressed_pair<std::less<Telegram>,std::_Compressed_pair<std::_Wrap_alloc<std::allocator<std::_Tree_node<Telegram,void *> > >,std::_Tree_val<std::_Tree_simple_types<Telegram> >,1>,1><std::less<Telegram> const &,std::_Zero_then_variadic_args_t>
_TEXT	ENDS
; Function compile flags: /Odtp /RTCsu
; File c:\program files (x86)\microsoft visual studio 14.0\vc\include\xmemory0
;	COMDAT ??$?0AAU?$_Wrap_alloc@V?$allocator@U?$_Tree_node@UTelegram@@PAX@std@@@std@@@std@@@?$_Wrap_alloc@V?$allocator@U_Container_proxy@std@@@std@@@std@@QAE@AAU?$_Wrap_alloc@V?$allocator@U?$_Tree_node@UTelegram@@PAX@std@@@std@@@1@@Z
_TEXT	SEGMENT
_this$ = -4						; size = 4
__Right$ = 8						; size = 4
??$?0AAU?$_Wrap_alloc@V?$allocator@U?$_Tree_node@UTelegram@@PAX@std@@@std@@@std@@@?$_Wrap_alloc@V?$allocator@U_Container_proxy@std@@@std@@@std@@QAE@AAU?$_Wrap_alloc@V?$allocator@U?$_Tree_node@UTelegram@@PAX@std@@@std@@@1@@Z PROC ; std::_Wrap_alloc<std::allocator<std::_Container_proxy> >::_Wrap_alloc<std::allocator<std::_Container_proxy> ><std::_Wrap_alloc<std::allocator<std::_Tree_node<Telegram,void *> > > &>, COMDAT
; _this$ = ecx

; 952  : 		{	// construct from a related allocator

	push	ebp
	mov	ebp, esp
	push	ecx
	mov	DWORD PTR [ebp-4], -858993460		; ccccccccH
	mov	DWORD PTR _this$[ebp], ecx

; 951  : 		: _Mybase(_STD forward<_Other>(_Right))

	mov	eax, DWORD PTR __Right$[ebp]
	push	eax
	call	??$forward@AAU?$_Wrap_alloc@V?$allocator@U?$_Tree_node@UTelegram@@PAX@std@@@std@@@std@@@std@@YAAAU?$_Wrap_alloc@V?$allocator@U?$_Tree_node@UTelegram@@PAX@std@@@std@@@0@AAU10@@Z ; std::forward<std::_Wrap_alloc<std::allocator<std::_Tree_node<Telegram,void *> > > &>
	add	esp, 4
	push	eax
	mov	ecx, DWORD PTR _this$[ebp]
	call	??$?0U?$_Tree_node@UTelegram@@PAX@std@@@?$allocator@U_Container_proxy@std@@@std@@QAE@ABV?$allocator@U?$_Tree_node@UTelegram@@PAX@std@@@1@@Z ; std::allocator<std::_Container_proxy>::allocator<std::_Container_proxy><std::_Tree_node<Telegram,void *> >

; 953  : 		}

	mov	eax, DWORD PTR _this$[ebp]
	add	esp, 4
	cmp	ebp, esp
	call	__RTC_CheckEsp
	mov	esp, ebp
	pop	ebp
	ret	4
??$?0AAU?$_Wrap_alloc@V?$allocator@U?$_Tree_node@UTelegram@@PAX@std@@@std@@@std@@@?$_Wrap_alloc@V?$allocator@U_Container_proxy@std@@@std@@@std@@QAE@AAU?$_Wrap_alloc@V?$allocator@U?$_Tree_node@UTelegram@@PAX@std@@@std@@@1@@Z ENDP ; std::_Wrap_alloc<std::allocator<std::_Container_proxy> >::_Wrap_alloc<std::allocator<std::_Container_proxy> ><std::_Wrap_alloc<std::allocator<std::_Tree_node<Telegram,void *> > > &>
_TEXT	ENDS
; Function compile flags: /Odtp /RTCsu
; File c:\program files (x86)\microsoft visual studio 14.0\vc\include\xmemory0
;	COMDAT ??$destroy@PAU?$_Tree_node@UTelegram@@PAX@std@@@?$_Wrap_alloc@V?$allocator@U?$_Tree_node@UTelegram@@PAX@std@@@std@@@std@@QAEXPAPAU?$_Tree_node@UTelegram@@PAX@1@@Z
_TEXT	SEGMENT
_this$ = -4						; size = 4
__Ptr$ = 8						; size = 4
??$destroy@PAU?$_Tree_node@UTelegram@@PAX@std@@@?$_Wrap_alloc@V?$allocator@U?$_Tree_node@UTelegram@@PAX@std@@@std@@@std@@QAEXPAPAU?$_Tree_node@UTelegram@@PAX@1@@Z PROC ; std::_Wrap_alloc<std::allocator<std::_Tree_node<Telegram,void *> > >::destroy<std::_Tree_node<Telegram,void *> *>, COMDAT
; _this$ = ecx

; 1002 : 		{	// destroy object at _Ptr

	push	ebp
	mov	ebp, esp
	push	ecx
	mov	DWORD PTR [ebp-4], -858993460		; ccccccccH
	mov	DWORD PTR _this$[ebp], ecx

; 1003 : 		_Mytraits::destroy(*this, _Ptr);

	mov	eax, DWORD PTR __Ptr$[ebp]
	push	eax
	mov	ecx, DWORD PTR _this$[ebp]
	push	ecx
	call	??$destroy@PAU?$_Tree_node@UTelegram@@PAX@std@@@?$allocator_traits@V?$allocator@U?$_Tree_node@UTelegram@@PAX@std@@@std@@@std@@SAXAAV?$allocator@U?$_Tree_node@UTelegram@@PAX@std@@@1@PAPAU?$_Tree_node@UTelegram@@PAX@1@@Z ; std::allocator_traits<std::allocator<std::_Tree_node<Telegram,void *> > >::destroy<std::_Tree_node<Telegram,void *> *>
	add	esp, 8

; 1004 : 		}

	add	esp, 4
	cmp	ebp, esp
	call	__RTC_CheckEsp
	mov	esp, ebp
	pop	ebp
	ret	4
??$destroy@PAU?$_Tree_node@UTelegram@@PAX@std@@@?$_Wrap_alloc@V?$allocator@U?$_Tree_node@UTelegram@@PAX@std@@@std@@@std@@QAEXPAPAU?$_Tree_node@UTelegram@@PAX@1@@Z ENDP ; std::_Wrap_alloc<std::allocator<std::_Tree_node<Telegram,void *> > >::destroy<std::_Tree_node<Telegram,void *> *>
_TEXT	ENDS
; Function compile flags: /Odtp /RTCsu
; File c:\program files (x86)\microsoft visual studio 14.0\vc\include\xstddef
;	COMDAT ??$addressof@PAU?$_Tree_node@UTelegram@@PAX@std@@@std@@YAPAPAU?$_Tree_node@UTelegram@@PAX@0@AAPAU10@@Z
_TEXT	SEGMENT
__Val$ = 8						; size = 4
??$addressof@PAU?$_Tree_node@UTelegram@@PAX@std@@@std@@YAPAPAU?$_Tree_node@UTelegram@@PAX@0@AAPAU10@@Z PROC ; std::addressof<std::_Tree_node<Telegram,void *> *>, COMDAT

; 724  : 	{	// return address of _Val

	push	ebp
	mov	ebp, esp

; 725  : 	return (__builtin_addressof(_Val));

	mov	eax, DWORD PTR __Val$[ebp]

; 726  : 	}

	pop	ebp
	ret	0
??$addressof@PAU?$_Tree_node@UTelegram@@PAX@std@@@std@@YAPAPAU?$_Tree_node@UTelegram@@PAX@0@AAPAU10@@Z ENDP ; std::addressof<std::_Tree_node<Telegram,void *> *>
_TEXT	ENDS
; Function compile flags: /Odtp /RTCsu
; File c:\program files (x86)\microsoft visual studio 14.0\vc\include\xmemory0
;	COMDAT ??$construct@U_Container_proxy@std@@U12@@?$_Wrap_alloc@V?$allocator@U_Container_proxy@std@@@std@@@std@@QAEXPAU_Container_proxy@1@$$QAU21@@Z
_TEXT	SEGMENT
_this$ = -4						; size = 4
__Ptr$ = 8						; size = 4
_<_Args_0>$ = 12					; size = 4
??$construct@U_Container_proxy@std@@U12@@?$_Wrap_alloc@V?$allocator@U_Container_proxy@std@@@std@@@std@@QAEXPAU_Container_proxy@1@$$QAU21@@Z PROC ; std::_Wrap_alloc<std::allocator<std::_Container_proxy> >::construct<std::_Container_proxy,std::_Container_proxy>, COMDAT
; _this$ = ecx

; 994  : 		{	// construct _Ty(_Types...) at _Ptr

	push	ebp
	mov	ebp, esp
	push	ecx
	mov	DWORD PTR [ebp-4], -858993460		; ccccccccH
	mov	DWORD PTR _this$[ebp], ecx

; 995  : 		_Mytraits::construct(*this, _Ptr,

	mov	eax, DWORD PTR _<_Args_0>$[ebp]
	push	eax
	call	??$forward@U_Container_proxy@std@@@std@@YA$$QAU_Container_proxy@0@AAU10@@Z ; std::forward<std::_Container_proxy>
	add	esp, 4
	push	eax
	mov	ecx, DWORD PTR __Ptr$[ebp]
	push	ecx
	mov	edx, DWORD PTR _this$[ebp]
	push	edx
	call	??$construct@U_Container_proxy@std@@U12@@?$allocator_traits@V?$allocator@U_Container_proxy@std@@@std@@@std@@SAXAAV?$allocator@U_Container_proxy@std@@@1@PAU_Container_proxy@1@$$QAU31@@Z ; std::allocator_traits<std::allocator<std::_Container_proxy> >::construct<std::_Container_proxy,std::_Container_proxy>
	add	esp, 12					; 0000000cH

; 996  : 			_STD forward<_Types>(_Args)...);
; 997  : 		}

	add	esp, 4
	cmp	ebp, esp
	call	__RTC_CheckEsp
	mov	esp, ebp
	pop	ebp
	ret	8
??$construct@U_Container_proxy@std@@U12@@?$_Wrap_alloc@V?$allocator@U_Container_proxy@std@@@std@@@std@@QAEXPAU_Container_proxy@1@$$QAU21@@Z ENDP ; std::_Wrap_alloc<std::allocator<std::_Container_proxy> >::construct<std::_Container_proxy,std::_Container_proxy>
_TEXT	ENDS
; Function compile flags: /Odtp /RTCsu
; File c:\program files (x86)\microsoft visual studio 14.0\vc\include\xstddef
;	COMDAT ??$_Unfancy@U_Container_proxy@std@@@std@@YAPAU_Container_proxy@0@PAU10@@Z
_TEXT	SEGMENT
__Ptr$ = 8						; size = 4
??$_Unfancy@U_Container_proxy@std@@@std@@YAPAU_Container_proxy@0@PAU10@@Z PROC ; std::_Unfancy<std::_Container_proxy>, COMDAT

; 739  : 	{	// do nothing for plain pointers

	push	ebp
	mov	ebp, esp

; 740  : 	return (_Ptr);

	mov	eax, DWORD PTR __Ptr$[ebp]

; 741  : 	}

	pop	ebp
	ret	0
??$_Unfancy@U_Container_proxy@std@@@std@@YAPAU_Container_proxy@0@PAU10@@Z ENDP ; std::_Unfancy<std::_Container_proxy>
_TEXT	ENDS
; Function compile flags: /Odtp /RTCsu
; File c:\program files (x86)\microsoft visual studio 14.0\vc\include\xmemory0
;	COMDAT ??$destroy@U_Container_proxy@std@@@?$_Wrap_alloc@V?$allocator@U_Container_proxy@std@@@std@@@std@@QAEXPAU_Container_proxy@1@@Z
_TEXT	SEGMENT
_this$ = -4						; size = 4
__Ptr$ = 8						; size = 4
??$destroy@U_Container_proxy@std@@@?$_Wrap_alloc@V?$allocator@U_Container_proxy@std@@@std@@@std@@QAEXPAU_Container_proxy@1@@Z PROC ; std::_Wrap_alloc<std::allocator<std::_Container_proxy> >::destroy<std::_Container_proxy>, COMDAT
; _this$ = ecx

; 1002 : 		{	// destroy object at _Ptr

	push	ebp
	mov	ebp, esp
	push	ecx
	mov	DWORD PTR [ebp-4], -858993460		; ccccccccH
	mov	DWORD PTR _this$[ebp], ecx

; 1003 : 		_Mytraits::destroy(*this, _Ptr);

	mov	eax, DWORD PTR __Ptr$[ebp]
	push	eax
	mov	ecx, DWORD PTR _this$[ebp]
	push	ecx
	call	??$destroy@U_Container_proxy@std@@@?$allocator_traits@V?$allocator@U_Container_proxy@std@@@std@@@std@@SAXAAV?$allocator@U_Container_proxy@std@@@1@PAU_Container_proxy@1@@Z ; std::allocator_traits<std::allocator<std::_Container_proxy> >::destroy<std::_Container_proxy>
	add	esp, 8

; 1004 : 		}

	add	esp, 4
	cmp	ebp, esp
	call	__RTC_CheckEsp
	mov	esp, ebp
	pop	ebp
	ret	4
??$destroy@U_Container_proxy@std@@@?$_Wrap_alloc@V?$allocator@U_Container_proxy@std@@@std@@@std@@QAEXPAU_Container_proxy@1@@Z ENDP ; std::_Wrap_alloc<std::allocator<std::_Container_proxy> >::destroy<std::_Container_proxy>
_TEXT	ENDS
; Function compile flags: /Odtp /RTCsu
; File c:\program files (x86)\microsoft visual studio 14.0\vc\include\xmemory0
;	COMDAT ?deallocate@?$_Wrap_alloc@V?$allocator@U_Container_proxy@std@@@std@@@std@@QAEXPAU_Container_proxy@2@I@Z
_TEXT	SEGMENT
_this$ = -4						; size = 4
__Ptr$ = 8						; size = 4
__Count$ = 12						; size = 4
?deallocate@?$_Wrap_alloc@V?$allocator@U_Container_proxy@std@@@std@@@std@@QAEXPAU_Container_proxy@2@I@Z PROC ; std::_Wrap_alloc<std::allocator<std::_Container_proxy> >::deallocate, COMDAT
; _this$ = ecx

; 986  : 		{	// deallocate object at _Ptr, ignore size

	push	ebp
	mov	ebp, esp
	push	ecx
	mov	DWORD PTR [ebp-4], -858993460		; ccccccccH
	mov	DWORD PTR _this$[ebp], ecx

; 987  : 		_Mybase::deallocate(_Ptr, _Count);

	mov	eax, DWORD PTR __Count$[ebp]
	push	eax
	mov	ecx, DWORD PTR __Ptr$[ebp]
	push	ecx
	mov	ecx, DWORD PTR _this$[ebp]
	call	?deallocate@?$allocator@U_Container_proxy@std@@@std@@QAEXPAU_Container_proxy@2@I@Z ; std::allocator<std::_Container_proxy>::deallocate

; 988  : 		}

	add	esp, 4
	cmp	ebp, esp
	call	__RTC_CheckEsp
	mov	esp, ebp
	pop	ebp
	ret	8
?deallocate@?$_Wrap_alloc@V?$allocator@U_Container_proxy@std@@@std@@@std@@QAEXPAU_Container_proxy@2@I@Z ENDP ; std::_Wrap_alloc<std::allocator<std::_Container_proxy> >::deallocate
_TEXT	ENDS
; Function compile flags: /Odtp /RTCsu
; File c:\program files (x86)\microsoft visual studio 14.0\vc\include\xmemory0
;	COMDAT ?allocate@?$_Wrap_alloc@V?$allocator@U_Container_proxy@std@@@std@@@std@@QAEPAU_Container_proxy@2@I@Z
_TEXT	SEGMENT
_this$ = -4						; size = 4
__Count$ = 8						; size = 4
?allocate@?$_Wrap_alloc@V?$allocator@U_Container_proxy@std@@@std@@@std@@QAEPAU_Container_proxy@2@I@Z PROC ; std::_Wrap_alloc<std::allocator<std::_Container_proxy> >::allocate, COMDAT
; _this$ = ecx

; 975  : 		{	// allocate array of _Count elements

	push	ebp
	mov	ebp, esp
	push	ecx
	mov	DWORD PTR [ebp-4], -858993460		; ccccccccH
	mov	DWORD PTR _this$[ebp], ecx

; 976  : 		return (_Mybase::allocate(_Count));

	mov	eax, DWORD PTR __Count$[ebp]
	push	eax
	mov	ecx, DWORD PTR _this$[ebp]
	call	?allocate@?$allocator@U_Container_proxy@std@@@std@@QAEPAU_Container_proxy@2@I@Z ; std::allocator<std::_Container_proxy>::allocate

; 977  : 		}

	add	esp, 4
	cmp	ebp, esp
	call	__RTC_CheckEsp
	mov	esp, ebp
	pop	ebp
	ret	4
?allocate@?$_Wrap_alloc@V?$allocator@U_Container_proxy@std@@@std@@@std@@QAEPAU_Container_proxy@2@I@Z ENDP ; std::_Wrap_alloc<std::allocator<std::_Container_proxy> >::allocate
_TEXT	ENDS
; Function compile flags: /Odtp /RTCsu
; File c:\program files (x86)\microsoft visual studio 14.0\vc\include\xmemory0
;	COMDAT ?address@?$_Wrap_alloc@V?$allocator@U_Container_proxy@std@@@std@@@std@@QBEPAU_Container_proxy@2@AAU32@@Z
_TEXT	SEGMENT
_this$ = -4						; size = 4
__Val$ = 8						; size = 4
?address@?$_Wrap_alloc@V?$allocator@U_Container_proxy@std@@@std@@@std@@QBEPAU_Container_proxy@2@AAU32@@Z PROC ; std::_Wrap_alloc<std::allocator<std::_Container_proxy> >::address, COMDAT
; _this$ = ecx

; 925  : 		{	// return address of mutable _Val

	push	ebp
	mov	ebp, esp
	push	ecx
	mov	DWORD PTR [ebp-4], -858993460		; ccccccccH
	mov	DWORD PTR _this$[ebp], ecx

; 926  : 		return (pointer_traits<pointer>::pointer_to(_Val));

	mov	eax, DWORD PTR __Val$[ebp]
	push	eax
	call	?pointer_to@?$pointer_traits@PAU_Container_proxy@std@@@std@@SAPAU_Container_proxy@2@AAU32@@Z ; std::pointer_traits<std::_Container_proxy *>::pointer_to
	add	esp, 4

; 927  : 		}

	add	esp, 4
	cmp	ebp, esp
	call	__RTC_CheckEsp
	mov	esp, ebp
	pop	ebp
	ret	4
?address@?$_Wrap_alloc@V?$allocator@U_Container_proxy@std@@@std@@@std@@QBEPAU_Container_proxy@2@AAU32@@Z ENDP ; std::_Wrap_alloc<std::allocator<std::_Container_proxy> >::address
_TEXT	ENDS
; Function compile flags: /Odtp /RTCsu
; File c:\program files (x86)\microsoft visual studio 14.0\vc\include\xmemory0
;	COMDAT ?allocate@?$allocator@U_Container_proxy@std@@@std@@QAEPAU_Container_proxy@2@I@Z
_TEXT	SEGMENT
_this$ = -4						; size = 4
__Count$ = 8						; size = 4
?allocate@?$allocator@U_Container_proxy@std@@@std@@QAEPAU_Container_proxy@2@I@Z PROC ; std::allocator<std::_Container_proxy>::allocate, COMDAT
; _this$ = ecx

; 724  : 		{	// allocate array of _Count elements

	push	ebp
	mov	ebp, esp
	push	ecx
	mov	DWORD PTR [ebp-4], -858993460		; ccccccccH
	mov	DWORD PTR _this$[ebp], ecx

; 725  : 		return (static_cast<pointer>(_Allocate(_Count, sizeof (_Ty))));

	push	1
	push	8
	mov	eax, DWORD PTR __Count$[ebp]
	push	eax
	call	?_Allocate@std@@YAPAXII_N@Z		; std::_Allocate
	add	esp, 12					; 0000000cH

; 726  : 		}

	add	esp, 4
	cmp	ebp, esp
	call	__RTC_CheckEsp
	mov	esp, ebp
	pop	ebp
	ret	4
?allocate@?$allocator@U_Container_proxy@std@@@std@@QAEPAU_Container_proxy@2@I@Z ENDP ; std::allocator<std::_Container_proxy>::allocate
_TEXT	ENDS
; Function compile flags: /Odtp /RTCsu
; File c:\program files (x86)\microsoft visual studio 14.0\vc\include\xmemory0
;	COMDAT ?deallocate@?$allocator@U_Container_proxy@std@@@std@@QAEXPAU_Container_proxy@2@I@Z
_TEXT	SEGMENT
_this$ = -4						; size = 4
__Ptr$ = 8						; size = 4
__Count$ = 12						; size = 4
?deallocate@?$allocator@U_Container_proxy@std@@@std@@QAEXPAU_Container_proxy@2@I@Z PROC ; std::allocator<std::_Container_proxy>::deallocate, COMDAT
; _this$ = ecx

; 719  : 		{	// deallocate object at _Ptr

	push	ebp
	mov	ebp, esp
	push	ecx
	mov	DWORD PTR [ebp-4], -858993460		; ccccccccH
	mov	DWORD PTR _this$[ebp], ecx

; 720  : 		_Deallocate(_Ptr, _Count, sizeof (_Ty));

	push	8
	mov	eax, DWORD PTR __Count$[ebp]
	push	eax
	mov	ecx, DWORD PTR __Ptr$[ebp]
	push	ecx
	call	?_Deallocate@std@@YAXPAXII@Z		; std::_Deallocate
	add	esp, 12					; 0000000cH

; 721  : 		}

	add	esp, 4
	cmp	ebp, esp
	call	__RTC_CheckEsp
	mov	esp, ebp
	pop	ebp
	ret	8
?deallocate@?$allocator@U_Container_proxy@std@@@std@@QAEXPAU_Container_proxy@2@I@Z ENDP ; std::allocator<std::_Container_proxy>::deallocate
_TEXT	ENDS
; Function compile flags: /Odtp /RTCsu
; File c:\program files (x86)\microsoft visual studio 14.0\vc\include\xstddef
;	COMDAT ??$addressof@$$CBUTelegram@@@std@@YAPBUTelegram@@ABU1@@Z
_TEXT	SEGMENT
__Val$ = 8						; size = 4
??$addressof@$$CBUTelegram@@@std@@YAPBUTelegram@@ABU1@@Z PROC ; std::addressof<Telegram const >, COMDAT

; 724  : 	{	// return address of _Val

	push	ebp
	mov	ebp, esp

; 725  : 	return (__builtin_addressof(_Val));

	mov	eax, DWORD PTR __Val$[ebp]

; 726  : 	}

	pop	ebp
	ret	0
??$addressof@$$CBUTelegram@@@std@@YAPBUTelegram@@ABU1@@Z ENDP ; std::addressof<Telegram const >
_TEXT	ENDS
; Function compile flags: /Odtp /RTCsu
; File c:\program files (x86)\microsoft visual studio 14.0\vc\include\xmemory0
;	COMDAT ??$destroy@UTelegram@@@?$_Wrap_alloc@V?$allocator@U?$_Tree_node@UTelegram@@PAX@std@@@std@@@std@@QAEXPAUTelegram@@@Z
_TEXT	SEGMENT
_this$ = -4						; size = 4
__Ptr$ = 8						; size = 4
??$destroy@UTelegram@@@?$_Wrap_alloc@V?$allocator@U?$_Tree_node@UTelegram@@PAX@std@@@std@@@std@@QAEXPAUTelegram@@@Z PROC ; std::_Wrap_alloc<std::allocator<std::_Tree_node<Telegram,void *> > >::destroy<Telegram>, COMDAT
; _this$ = ecx

; 1002 : 		{	// destroy object at _Ptr

	push	ebp
	mov	ebp, esp
	push	ecx
	mov	DWORD PTR [ebp-4], -858993460		; ccccccccH
	mov	DWORD PTR _this$[ebp], ecx

; 1003 : 		_Mytraits::destroy(*this, _Ptr);

	mov	eax, DWORD PTR __Ptr$[ebp]
	push	eax
	mov	ecx, DWORD PTR _this$[ebp]
	push	ecx
	call	??$destroy@UTelegram@@@?$allocator_traits@V?$allocator@U?$_Tree_node@UTelegram@@PAX@std@@@std@@@std@@SAXAAV?$allocator@U?$_Tree_node@UTelegram@@PAX@std@@@1@PAUTelegram@@@Z ; std::allocator_traits<std::allocator<std::_Tree_node<Telegram,void *> > >::destroy<Telegram>
	add	esp, 8

; 1004 : 		}

	add	esp, 4
	cmp	ebp, esp
	call	__RTC_CheckEsp
	mov	esp, ebp
	pop	ebp
	ret	4
??$destroy@UTelegram@@@?$_Wrap_alloc@V?$allocator@U?$_Tree_node@UTelegram@@PAX@std@@@std@@@std@@QAEXPAUTelegram@@@Z ENDP ; std::_Wrap_alloc<std::allocator<std::_Tree_node<Telegram,void *> > >::destroy<Telegram>
_TEXT	ENDS
; Function compile flags: /Odtp /RTCsu
; File c:\program files (x86)\microsoft visual studio 14.0\vc\include\xstddef
;	COMDAT ??$addressof@UTelegram@@@std@@YAPAUTelegram@@AAU1@@Z
_TEXT	SEGMENT
__Val$ = 8						; size = 4
??$addressof@UTelegram@@@std@@YAPAUTelegram@@AAU1@@Z PROC ; std::addressof<Telegram>, COMDAT

; 724  : 	{	// return address of _Val

	push	ebp
	mov	ebp, esp

; 725  : 	return (__builtin_addressof(_Val));

	mov	eax, DWORD PTR __Val$[ebp]

; 726  : 	}

	pop	ebp
	ret	0
??$addressof@UTelegram@@@std@@YAPAUTelegram@@AAU1@@Z ENDP ; std::addressof<Telegram>
_TEXT	ENDS
; Function compile flags: /Odtp /RTCsu
; File c:\program files (x86)\microsoft visual studio 14.0\vc\include\utility
;	COMDAT ??$swap@DX@std@@YAXAAD0@Z
_TEXT	SEGMENT
__Tmp$ = -5						; size = 1
__Left$ = 8						; size = 4
__Right$ = 12						; size = 4
??$swap@DX@std@@YAXAAD0@Z PROC				; std::swap<char,void>, COMDAT

; 48   : 	{	// exchange values stored at _Left and _Right

	push	ebp
	mov	ebp, esp
	sub	esp, 12					; 0000000cH
	mov	DWORD PTR [ebp-12], -858993460		; ccccccccH
	mov	DWORD PTR [ebp-8], -858993460		; ccccccccH
	mov	DWORD PTR [ebp-4], -858993460		; ccccccccH

; 49   : 	_Ty _Tmp = _STD move(_Left);

	mov	eax, DWORD PTR __Left$[ebp]
	push	eax
	call	??$move@AAD@std@@YA$$QADAAD@Z		; std::move<char &>
	add	esp, 4
	mov	cl, BYTE PTR [eax]
	mov	BYTE PTR __Tmp$[ebp], cl

; 50   : 	_Left = _STD move(_Right);

	mov	edx, DWORD PTR __Right$[ebp]
	push	edx
	call	??$move@AAD@std@@YA$$QADAAD@Z		; std::move<char &>
	add	esp, 4
	mov	ecx, DWORD PTR __Left$[ebp]
	mov	dl, BYTE PTR [eax]
	mov	BYTE PTR [ecx], dl

; 51   : 	_Right = _STD move(_Tmp);

	lea	eax, DWORD PTR __Tmp$[ebp]
	push	eax
	call	??$move@AAD@std@@YA$$QADAAD@Z		; std::move<char &>
	add	esp, 4
	mov	ecx, DWORD PTR __Right$[ebp]
	mov	dl, BYTE PTR [eax]
	mov	BYTE PTR [ecx], dl

; 52   : 	}

	push	edx
	mov	ecx, ebp
	push	eax
	lea	edx, DWORD PTR $LN5@swap
	call	@_RTC_CheckStackVars@8
	pop	eax
	pop	edx
	add	esp, 12					; 0000000cH
	cmp	ebp, esp
	call	__RTC_CheckEsp
	mov	esp, ebp
	pop	ebp
	ret	0
	npad	3
$LN5@swap:
	DD	1
	DD	$LN4@swap
$LN4@swap:
	DD	-5					; fffffffbH
	DD	1
	DD	$LN3@swap
$LN3@swap:
	DB	95					; 0000005fH
	DB	84					; 00000054H
	DB	109					; 0000006dH
	DB	112					; 00000070H
	DB	0
??$swap@DX@std@@YAXAAD0@Z ENDP				; std::swap<char,void>
_TEXT	ENDS
; Function compile flags: /Odtp /RTCsu
; File c:\program files (x86)\microsoft visual studio 14.0\vc\include\xmemory0
;	COMDAT ?pointer_to@?$pointer_traits@PBUTelegram@@@std@@SAPBUTelegram@@ABU3@@Z
_TEXT	SEGMENT
__Val$ = 8						; size = 4
?pointer_to@?$pointer_traits@PBUTelegram@@@std@@SAPBUTelegram@@ABU3@@Z PROC ; std::pointer_traits<Telegram const *>::pointer_to, COMDAT

; 279  : 		{	// convert raw reference to pointer

	push	ebp
	mov	ebp, esp

; 280  : 		return (_STD addressof(_Val));

	mov	eax, DWORD PTR __Val$[ebp]
	push	eax
	call	??$addressof@$$CBUTelegram@@@std@@YAPBUTelegram@@ABU1@@Z ; std::addressof<Telegram const >
	add	esp, 4

; 281  : 		}

	cmp	ebp, esp
	call	__RTC_CheckEsp
	pop	ebp
	ret	0
?pointer_to@?$pointer_traits@PBUTelegram@@@std@@SAPBUTelegram@@ABU3@@Z ENDP ; std::pointer_traits<Telegram const *>::pointer_to
_TEXT	ENDS
; Function compile flags: /Odtp /RTCsu
;	COMDAT ??1?$pair@V?$_Tree_const_iterator@V?$_Tree_val@U?$_Tree_simple_types@UTelegram@@@std@@@std@@@std@@_N@std@@QAE@XZ
_TEXT	SEGMENT
_this$ = -4						; size = 4
??1?$pair@V?$_Tree_const_iterator@V?$_Tree_val@U?$_Tree_simple_types@UTelegram@@@std@@@std@@@std@@_N@std@@QAE@XZ PROC ; std::pair<std::_Tree_const_iterator<std::_Tree_val<std::_Tree_simple_types<Telegram> > >,bool>::~pair<std::_Tree_const_iterator<std::_Tree_val<std::_Tree_simple_types<Telegram> > >,bool>, COMDAT
; _this$ = ecx
	push	ebp
	mov	ebp, esp
	push	ecx
	mov	DWORD PTR [ebp-4], -858993460		; ccccccccH
	mov	DWORD PTR _this$[ebp], ecx
	mov	ecx, DWORD PTR _this$[ebp]
	call	??1?$_Tree_const_iterator@V?$_Tree_val@U?$_Tree_simple_types@UTelegram@@@std@@@std@@@std@@QAE@XZ
	add	esp, 4
	cmp	ebp, esp
	call	__RTC_CheckEsp
	mov	esp, ebp
	pop	ebp
	ret	0
??1?$pair@V?$_Tree_const_iterator@V?$_Tree_val@U?$_Tree_simple_types@UTelegram@@@std@@@std@@@std@@_N@std@@QAE@XZ ENDP ; std::pair<std::_Tree_const_iterator<std::_Tree_val<std::_Tree_simple_types<Telegram> > >,bool>::~pair<std::_Tree_const_iterator<std::_Tree_val<std::_Tree_simple_types<Telegram> > >,bool>
_TEXT	ENDS
; Function compile flags: /Odtp /RTCsu
;	COMDAT ??0?$_Tree_const_iterator@V?$_Tree_val@U?$_Tree_simple_types@UTelegram@@@std@@@std@@@std@@QAE@$$QAV01@@Z
_TEXT	SEGMENT
_this$ = -4						; size = 4
___that$ = 8						; size = 4
??0?$_Tree_const_iterator@V?$_Tree_val@U?$_Tree_simple_types@UTelegram@@@std@@@std@@@std@@QAE@$$QAV01@@Z PROC ; std::_Tree_const_iterator<std::_Tree_val<std::_Tree_simple_types<Telegram> > >::_Tree_const_iterator<std::_Tree_val<std::_Tree_simple_types<Telegram> > >, COMDAT
; _this$ = ecx
	push	ebp
	mov	ebp, esp
	push	ecx
	mov	DWORD PTR [ebp-4], -858993460		; ccccccccH
	mov	DWORD PTR _this$[ebp], ecx
	mov	eax, DWORD PTR ___that$[ebp]
	push	eax
	mov	ecx, DWORD PTR _this$[ebp]
	call	??0?$_Tree_unchecked_const_iterator@V?$_Tree_val@U?$_Tree_simple_types@UTelegram@@@std@@@std@@U_Iterator_base12@2@@std@@QAE@$$QAV01@@Z
	mov	eax, DWORD PTR _this$[ebp]
	add	esp, 4
	cmp	ebp, esp
	call	__RTC_CheckEsp
	mov	esp, ebp
	pop	ebp
	ret	4
??0?$_Tree_const_iterator@V?$_Tree_val@U?$_Tree_simple_types@UTelegram@@@std@@@std@@@std@@QAE@$$QAV01@@Z ENDP ; std::_Tree_const_iterator<std::_Tree_val<std::_Tree_simple_types<Telegram> > >::_Tree_const_iterator<std::_Tree_val<std::_Tree_simple_types<Telegram> > >
_TEXT	ENDS
; Function compile flags: /Odtp /RTCsu
;	COMDAT ??0?$_Tree_const_iterator@V?$_Tree_val@U?$_Tree_simple_types@UTelegram@@@std@@@std@@@std@@QAE@ABV01@@Z
_TEXT	SEGMENT
_this$ = -4						; size = 4
___that$ = 8						; size = 4
??0?$_Tree_const_iterator@V?$_Tree_val@U?$_Tree_simple_types@UTelegram@@@std@@@std@@@std@@QAE@ABV01@@Z PROC ; std::_Tree_const_iterator<std::_Tree_val<std::_Tree_simple_types<Telegram> > >::_Tree_const_iterator<std::_Tree_val<std::_Tree_simple_types<Telegram> > >, COMDAT
; _this$ = ecx
	push	ebp
	mov	ebp, esp
	push	ecx
	mov	DWORD PTR [ebp-4], -858993460		; ccccccccH
	mov	DWORD PTR _this$[ebp], ecx
	mov	eax, DWORD PTR ___that$[ebp]
	push	eax
	mov	ecx, DWORD PTR _this$[ebp]
	call	??0?$_Tree_unchecked_const_iterator@V?$_Tree_val@U?$_Tree_simple_types@UTelegram@@@std@@@std@@U_Iterator_base12@2@@std@@QAE@ABV01@@Z
	mov	eax, DWORD PTR _this$[ebp]
	add	esp, 4
	cmp	ebp, esp
	call	__RTC_CheckEsp
	mov	esp, ebp
	pop	ebp
	ret	4
??0?$_Tree_const_iterator@V?$_Tree_val@U?$_Tree_simple_types@UTelegram@@@std@@@std@@@std@@QAE@ABV01@@Z ENDP ; std::_Tree_const_iterator<std::_Tree_val<std::_Tree_simple_types<Telegram> > >::_Tree_const_iterator<std::_Tree_val<std::_Tree_simple_types<Telegram> > >
_TEXT	ENDS
; Function compile flags: /Odtp /RTCsu
;	COMDAT ??1?$_Tree_const_iterator@V?$_Tree_val@U?$_Tree_simple_types@UTelegram@@@std@@@std@@@std@@QAE@XZ
_TEXT	SEGMENT
_this$ = -4						; size = 4
??1?$_Tree_const_iterator@V?$_Tree_val@U?$_Tree_simple_types@UTelegram@@@std@@@std@@@std@@QAE@XZ PROC ; std::_Tree_const_iterator<std::_Tree_val<std::_Tree_simple_types<Telegram> > >::~_Tree_const_iterator<std::_Tree_val<std::_Tree_simple_types<Telegram> > >, COMDAT
; _this$ = ecx
	push	ebp
	mov	ebp, esp
	push	ecx
	mov	DWORD PTR [ebp-4], -858993460		; ccccccccH
	mov	DWORD PTR _this$[ebp], ecx
	mov	ecx, DWORD PTR _this$[ebp]
	call	??1?$_Tree_unchecked_const_iterator@V?$_Tree_val@U?$_Tree_simple_types@UTelegram@@@std@@@std@@U_Iterator_base12@2@@std@@QAE@XZ
	add	esp, 4
	cmp	ebp, esp
	call	__RTC_CheckEsp
	mov	esp, ebp
	pop	ebp
	ret	0
??1?$_Tree_const_iterator@V?$_Tree_val@U?$_Tree_simple_types@UTelegram@@@std@@@std@@@std@@QAE@XZ ENDP ; std::_Tree_const_iterator<std::_Tree_val<std::_Tree_simple_types<Telegram> > >::~_Tree_const_iterator<std::_Tree_val<std::_Tree_simple_types<Telegram> > >
_TEXT	ENDS
; Function compile flags: /Odtp /RTCsu
; File c:\program files (x86)\microsoft visual studio 14.0\vc\include\xtree
;	COMDAT ??9?$_Tree_const_iterator@V?$_Tree_val@U?$_Tree_simple_types@UTelegram@@@std@@@std@@@std@@QBE_NABV01@@Z
_TEXT	SEGMENT
tv69 = -8						; size = 4
_this$ = -4						; size = 4
__Right$ = 8						; size = 4
??9?$_Tree_const_iterator@V?$_Tree_val@U?$_Tree_simple_types@UTelegram@@@std@@@std@@@std@@QBE_NABV01@@Z PROC ; std::_Tree_const_iterator<std::_Tree_val<std::_Tree_simple_types<Telegram> > >::operator!=, COMDAT
; _this$ = ecx

; 340  : 		{	// test for iterator inequality

	push	ebp
	mov	ebp, esp
	sub	esp, 8
	mov	DWORD PTR [ebp-8], -858993460		; ccccccccH
	mov	DWORD PTR [ebp-4], -858993460		; ccccccccH
	mov	DWORD PTR _this$[ebp], ecx

; 341  : 		return (!(*this == _Right));

	mov	eax, DWORD PTR __Right$[ebp]
	push	eax
	mov	ecx, DWORD PTR _this$[ebp]
	call	??8?$_Tree_const_iterator@V?$_Tree_val@U?$_Tree_simple_types@UTelegram@@@std@@@std@@@std@@QBE_NABV01@@Z ; std::_Tree_const_iterator<std::_Tree_val<std::_Tree_simple_types<Telegram> > >::operator==
	movzx	ecx, al
	test	ecx, ecx
	jne	SHORT $LN3@operator
	mov	DWORD PTR tv69[ebp], 1
	jmp	SHORT $LN4@operator
$LN3@operator:
	mov	DWORD PTR tv69[ebp], 0
$LN4@operator:
	mov	al, BYTE PTR tv69[ebp]

; 342  : 		}

	add	esp, 8
	cmp	ebp, esp
	call	__RTC_CheckEsp
	mov	esp, ebp
	pop	ebp
	ret	4
??9?$_Tree_const_iterator@V?$_Tree_val@U?$_Tree_simple_types@UTelegram@@@std@@@std@@@std@@QBE_NABV01@@Z ENDP ; std::_Tree_const_iterator<std::_Tree_val<std::_Tree_simple_types<Telegram> > >::operator!=
_TEXT	ENDS
; Function compile flags: /Odtp /RTCsu
; File c:\program files (x86)\microsoft visual studio 14.0\vc\include\xtree
;	COMDAT ??8?$_Tree_const_iterator@V?$_Tree_val@U?$_Tree_simple_types@UTelegram@@@std@@@std@@@std@@QBE_NABV01@@Z
_TEXT	SEGMENT
tv139 = -8						; size = 4
_this$ = -4						; size = 4
__Right$ = 8						; size = 4
??8?$_Tree_const_iterator@V?$_Tree_val@U?$_Tree_simple_types@UTelegram@@@std@@@std@@@std@@QBE_NABV01@@Z PROC ; std::_Tree_const_iterator<std::_Tree_val<std::_Tree_simple_types<Telegram> > >::operator==, COMDAT
; _this$ = ecx

; 324  : 		{	// test for iterator equality

	push	ebp
	mov	ebp, esp
	sub	esp, 8
	push	esi
	mov	DWORD PTR [ebp-8], -858993460		; ccccccccH
	mov	DWORD PTR [ebp-4], -858993460		; ccccccccH
	mov	DWORD PTR _this$[ebp], ecx

; 325  :  #if _ITERATOR_DEBUG_LEVEL == 2
; 326  : 		if (this->_Getcont() != _Right._Getcont())

	mov	ecx, DWORD PTR _this$[ebp]
	call	?_Getcont@_Iterator_base12@std@@QBEPBU_Container_base12@2@XZ ; std::_Iterator_base12::_Getcont
	mov	esi, eax
	mov	ecx, DWORD PTR __Right$[ebp]
	call	?_Getcont@_Iterator_base12@std@@QBEPBU_Container_base12@2@XZ ; std::_Iterator_base12::_Getcont
	cmp	esi, eax
	je	SHORT $LN2@operator

; 327  : 			{	// report error
; 328  : 			_DEBUG_ERROR("map/set iterators incompatible");

	push	328					; 00000148H
	push	OFFSET ??_C@_1IK@BEABFJGP@?$AAC?$AA?3?$AA?2?$AAP?$AAr?$AAo?$AAg?$AAr?$AAa?$AAm?$AA?5?$AAF?$AAi?$AAl?$AAe?$AAs?$AA?5?$AA?$CI?$AAx?$AA8?$AA6?$AA?$CJ?$AA?2?$AAM?$AAi?$AAc?$AAr?$AAo?$AAs?$AAo?$AAf?$AAt@
	push	OFFSET ??_C@_1DO@CFEEPGGJ@?$AAm?$AAa?$AAp?$AA?1?$AAs?$AAe?$AAt?$AA?5?$AAi?$AAt?$AAe?$AAr?$AAa?$AAt?$AAo?$AAr?$AAs?$AA?5?$AAi?$AAn?$AAc?$AAo?$AAm?$AAp?$AAa?$AAt?$AAi?$AAb?$AAl?$AAe?$AA?$AA@
	call	?_Debug_message@std@@YAXPB_W0I@Z	; std::_Debug_message
	add	esp, 12					; 0000000cH

; 329  : 			_SCL_SECURE_INVALID_ARGUMENT;

	mov	eax, OFFSET ??_C@_0CI@FNPHFCCM@Standard?5C?$CL?$CL?5Libraries?5Invalid?5A@
	test	eax, eax
	je	SHORT $LN4@operator
	xor	ecx, ecx
	jne	SHORT $LN5@operator
$LN4@operator:
	push	OFFSET ??_C@_1FO@GJIHNDLM@?$AA?$CC?$AAS?$AAt?$AAa?$AAn?$AAd?$AAa?$AAr?$AAd?$AA?5?$AAC?$AA?$CL?$AA?$CL?$AA?5?$AAL?$AAi?$AAb?$AAr?$AAa?$AAr?$AAi?$AAe?$AAs?$AA?5?$AAI?$AAn?$AAv?$AAa?$AAl?$AAi?$AAd?$AA?5@
	push	OFFSET ??_C@_17CNPHIMPH@?$AA?$CF?$AAl?$AAs?$AA?$AA@
	push	0
	push	329					; 00000149H
	push	OFFSET ??_C@_1IK@BEABFJGP@?$AAC?$AA?3?$AA?2?$AAP?$AAr?$AAo?$AAg?$AAr?$AAa?$AAm?$AA?5?$AAF?$AAi?$AAl?$AAe?$AAs?$AA?5?$AA?$CI?$AAx?$AA8?$AA6?$AA?$CJ?$AA?2?$AAM?$AAi?$AAc?$AAr?$AAo?$AAs?$AAo?$AAf?$AAt@
	push	2
	call	__CrtDbgReportW
	add	esp, 24					; 00000018H
	cmp	eax, 1
	jne	SHORT $LN5@operator
	int	3
$LN5@operator:
	push	0
	push	329					; 00000149H
	push	OFFSET ??_C@_1IK@BEABFJGP@?$AAC?$AA?3?$AA?2?$AAP?$AAr?$AAo?$AAg?$AAr?$AAa?$AAm?$AA?5?$AAF?$AAi?$AAl?$AAe?$AAs?$AA?5?$AA?$CI?$AAx?$AA8?$AA6?$AA?$CJ?$AA?2?$AAM?$AAi?$AAc?$AAr?$AAo?$AAs?$AAo?$AAf?$AAt@
	push	OFFSET ??_C@_1OA@LGDDNOIK@?$AAs?$AAt?$AAd?$AA?3?$AA?3?$AA_?$AAT?$AAr?$AAe?$AAe?$AA_?$AAc?$AAo?$AAn?$AAs?$AAt?$AA_?$AAi?$AAt?$AAe?$AAr?$AAa?$AAt?$AAo?$AAr?$AA?$DM?$AAc?$AAl?$AAa?$AAs?$AAs?$AA?5@
	push	OFFSET ??_C@_1CG@JNLFBNGN@?$AA?$CC?$AAi?$AAn?$AAv?$AAa?$AAl?$AAi?$AAd?$AA?5?$AAa?$AAr?$AAg?$AAu?$AAm?$AAe?$AAn?$AAt?$AA?$CC?$AA?$AA@
	call	__invalid_parameter
	add	esp, 20					; 00000014H
$LN2@operator:

; 330  : 			}
; 331  : 
; 332  :  #elif _ITERATOR_DEBUG_LEVEL == 1
; 333  : 		_SCL_SECURE_VALIDATE(this->_Getcont() == _Right._Getcont());
; 334  :  #endif /* _ITERATOR_DEBUG_LEVEL */
; 335  : 
; 336  : 		return (this->_Ptr == _Right._Ptr);

	mov	eax, DWORD PTR _this$[ebp]
	mov	ecx, DWORD PTR __Right$[ebp]
	mov	edx, DWORD PTR [eax+8]
	cmp	edx, DWORD PTR [ecx+8]
	jne	SHORT $LN6@operator
	mov	DWORD PTR tv139[ebp], 1
	jmp	SHORT $LN7@operator
$LN6@operator:
	mov	DWORD PTR tv139[ebp], 0
$LN7@operator:
	mov	al, BYTE PTR tv139[ebp]

; 337  : 		}

	pop	esi
	add	esp, 8
	cmp	ebp, esp
	call	__RTC_CheckEsp
	mov	esp, ebp
	pop	ebp
	ret	4
??8?$_Tree_const_iterator@V?$_Tree_val@U?$_Tree_simple_types@UTelegram@@@std@@@std@@@std@@QBE_NABV01@@Z ENDP ; std::_Tree_const_iterator<std::_Tree_val<std::_Tree_simple_types<Telegram> > >::operator==
_TEXT	ENDS
; Function compile flags: /Odtp /RTCsu
; File c:\program files (x86)\microsoft visual studio 14.0\vc\include\xtree
;	COMDAT ??F?$_Tree_const_iterator@V?$_Tree_val@U?$_Tree_simple_types@UTelegram@@@std@@@std@@@std@@QAEAAV01@XZ
_TEXT	SEGMENT
__Ptrsav$ = -8						; size = 4
_this$ = -4						; size = 4
??F?$_Tree_const_iterator@V?$_Tree_val@U?$_Tree_simple_types@UTelegram@@@std@@@std@@@std@@QAEAAV01@XZ PROC ; std::_Tree_const_iterator<std::_Tree_val<std::_Tree_simple_types<Telegram> > >::operator--, COMDAT
; _this$ = ecx

; 285  : 		{	// predecrement

	push	ebp
	mov	ebp, esp
	sub	esp, 8
	mov	DWORD PTR [ebp-8], -858993460		; ccccccccH
	mov	DWORD PTR [ebp-4], -858993460		; ccccccccH
	mov	DWORD PTR _this$[ebp], ecx

; 286  :  #if _ITERATOR_DEBUG_LEVEL == 2
; 287  : 		if (this->_Getcont() == 0
; 288  : 			|| this->_Ptr == nullptr_t{})

	mov	ecx, DWORD PTR _this$[ebp]
	call	?_Getcont@_Iterator_base12@std@@QBEPBU_Container_base12@2@XZ ; std::_Iterator_base12::_Getcont
	test	eax, eax
	je	SHORT $LN3@operator
	mov	eax, DWORD PTR _this$[ebp]
	cmp	DWORD PTR [eax+8], 0
	jne	SHORT $LN2@operator
$LN3@operator:

; 289  : 			{	// report error
; 290  : 			_DEBUG_ERROR("map/set iterator not decrementable");

	push	290					; 00000122H
	push	OFFSET ??_C@_1IK@BEABFJGP@?$AAC?$AA?3?$AA?2?$AAP?$AAr?$AAo?$AAg?$AAr?$AAa?$AAm?$AA?5?$AAF?$AAi?$AAl?$AAe?$AAs?$AA?5?$AA?$CI?$AAx?$AA8?$AA6?$AA?$CJ?$AA?2?$AAM?$AAi?$AAc?$AAr?$AAo?$AAs?$AAo?$AAf?$AAt@
	push	OFFSET ??_C@_1EG@OKCGOALM@?$AAm?$AAa?$AAp?$AA?1?$AAs?$AAe?$AAt?$AA?5?$AAi?$AAt?$AAe?$AAr?$AAa?$AAt?$AAo?$AAr?$AA?5?$AAn?$AAo?$AAt?$AA?5?$AAd?$AAe?$AAc?$AAr?$AAe?$AAm?$AAe?$AAn?$AAt?$AAa?$AAb@
	call	?_Debug_message@std@@YAXPB_W0I@Z	; std::_Debug_message
	add	esp, 12					; 0000000cH

; 291  : 			_SCL_SECURE_OUT_OF_RANGE;

	mov	ecx, OFFSET ??_C@_0CE@OFMIGAMM@Standard?5C?$CL?$CL?5Libraries?5Out?5of?5Ra@
	test	ecx, ecx
	je	SHORT $LN6@operator
	xor	edx, edx
	jne	SHORT $LN7@operator
$LN6@operator:
	push	OFFSET ??_C@_1FG@IBPIFFN@?$AA?$CC?$AAS?$AAt?$AAa?$AAn?$AAd?$AAa?$AAr?$AAd?$AA?5?$AAC?$AA?$CL?$AA?$CL?$AA?5?$AAL?$AAi?$AAb?$AAr?$AAa?$AAr?$AAi?$AAe?$AAs?$AA?5?$AAO?$AAu?$AAt?$AA?5?$AAo?$AAf?$AA?5?$AAR@
	push	OFFSET ??_C@_17CNPHIMPH@?$AA?$CF?$AAl?$AAs?$AA?$AA@
	push	0
	push	291					; 00000123H
	push	OFFSET ??_C@_1IK@BEABFJGP@?$AAC?$AA?3?$AA?2?$AAP?$AAr?$AAo?$AAg?$AAr?$AAa?$AAm?$AA?5?$AAF?$AAi?$AAl?$AAe?$AAs?$AA?5?$AA?$CI?$AAx?$AA8?$AA6?$AA?$CJ?$AA?2?$AAM?$AAi?$AAc?$AAr?$AAo?$AAs?$AAo?$AAf?$AAt@
	push	2
	call	__CrtDbgReportW
	add	esp, 24					; 00000018H
	cmp	eax, 1
	jne	SHORT $LN7@operator
	int	3
$LN7@operator:
	push	0
	push	291					; 00000123H
	push	OFFSET ??_C@_1IK@BEABFJGP@?$AAC?$AA?3?$AA?2?$AAP?$AAr?$AAo?$AAg?$AAr?$AAa?$AAm?$AA?5?$AAF?$AAi?$AAl?$AAe?$AAs?$AA?5?$AA?$CI?$AAx?$AA8?$AA6?$AA?$CJ?$AA?2?$AAM?$AAi?$AAc?$AAr?$AAo?$AAs?$AAo?$AAf?$AAt@
	push	OFFSET ??_C@_1OA@OFPMILIO@?$AAs?$AAt?$AAd?$AA?3?$AA?3?$AA_?$AAT?$AAr?$AAe?$AAe?$AA_?$AAc?$AAo?$AAn?$AAs?$AAt?$AA_?$AAi?$AAt?$AAe?$AAr?$AAa?$AAt?$AAo?$AAr?$AA?$DM?$AAc?$AAl?$AAa?$AAs?$AAs?$AA?5@
	push	OFFSET ??_C@_1BO@MEPPHOO@?$AA?$CC?$AAo?$AAu?$AAt?$AA?5?$AAo?$AAf?$AA?5?$AAr?$AAa?$AAn?$AAg?$AAe?$AA?$CC?$AA?$AA@
	call	__invalid_parameter
	add	esp, 20					; 00000014H
$LN2@operator:

; 292  : 			}
; 293  : 
; 294  : 		_Nodeptr _Ptrsav = this->_Ptr;

	mov	ecx, DWORD PTR _this$[ebp]
	mov	edx, DWORD PTR [ecx+8]
	mov	DWORD PTR __Ptrsav$[ebp], edx

; 295  : 		--static_cast<_Mybase&>(*this);

	mov	ecx, DWORD PTR _this$[ebp]
	call	??F?$_Tree_unchecked_const_iterator@V?$_Tree_val@U?$_Tree_simple_types@UTelegram@@@std@@@std@@U_Iterator_base12@2@@std@@QAEAAV01@XZ ; std::_Tree_unchecked_const_iterator<std::_Tree_val<std::_Tree_simple_types<Telegram> >,std::_Iterator_base12>::operator--

; 296  : 		if (_Ptrsav == this->_Ptr)

	mov	eax, DWORD PTR _this$[ebp]
	mov	ecx, DWORD PTR __Ptrsav$[ebp]
	cmp	ecx, DWORD PTR [eax+8]
	jne	SHORT $LN4@operator

; 297  : 			{	// report error
; 298  : 			_DEBUG_ERROR("map/set iterator not decrementable");

	push	298					; 0000012aH
	push	OFFSET ??_C@_1IK@BEABFJGP@?$AAC?$AA?3?$AA?2?$AAP?$AAr?$AAo?$AAg?$AAr?$AAa?$AAm?$AA?5?$AAF?$AAi?$AAl?$AAe?$AAs?$AA?5?$AA?$CI?$AAx?$AA8?$AA6?$AA?$CJ?$AA?2?$AAM?$AAi?$AAc?$AAr?$AAo?$AAs?$AAo?$AAf?$AAt@
	push	OFFSET ??_C@_1EG@OKCGOALM@?$AAm?$AAa?$AAp?$AA?1?$AAs?$AAe?$AAt?$AA?5?$AAi?$AAt?$AAe?$AAr?$AAa?$AAt?$AAo?$AAr?$AA?5?$AAn?$AAo?$AAt?$AA?5?$AAd?$AAe?$AAc?$AAr?$AAe?$AAm?$AAe?$AAn?$AAt?$AAa?$AAb@
	call	?_Debug_message@std@@YAXPB_W0I@Z	; std::_Debug_message
	add	esp, 12					; 0000000cH

; 299  : 			_SCL_SECURE_OUT_OF_RANGE;

	mov	edx, OFFSET ??_C@_0CE@OFMIGAMM@Standard?5C?$CL?$CL?5Libraries?5Out?5of?5Ra@
	test	edx, edx
	je	SHORT $LN8@operator
	xor	eax, eax
	jne	SHORT $LN9@operator
$LN8@operator:
	push	OFFSET ??_C@_1FG@IBPIFFN@?$AA?$CC?$AAS?$AAt?$AAa?$AAn?$AAd?$AAa?$AAr?$AAd?$AA?5?$AAC?$AA?$CL?$AA?$CL?$AA?5?$AAL?$AAi?$AAb?$AAr?$AAa?$AAr?$AAi?$AAe?$AAs?$AA?5?$AAO?$AAu?$AAt?$AA?5?$AAo?$AAf?$AA?5?$AAR@
	push	OFFSET ??_C@_17CNPHIMPH@?$AA?$CF?$AAl?$AAs?$AA?$AA@
	push	0
	push	299					; 0000012bH
	push	OFFSET ??_C@_1IK@BEABFJGP@?$AAC?$AA?3?$AA?2?$AAP?$AAr?$AAo?$AAg?$AAr?$AAa?$AAm?$AA?5?$AAF?$AAi?$AAl?$AAe?$AAs?$AA?5?$AA?$CI?$AAx?$AA8?$AA6?$AA?$CJ?$AA?2?$AAM?$AAi?$AAc?$AAr?$AAo?$AAs?$AAo?$AAf?$AAt@
	push	2
	call	__CrtDbgReportW
	add	esp, 24					; 00000018H
	cmp	eax, 1
	jne	SHORT $LN9@operator
	int	3
$LN9@operator:
	push	0
	push	299					; 0000012bH
	push	OFFSET ??_C@_1IK@BEABFJGP@?$AAC?$AA?3?$AA?2?$AAP?$AAr?$AAo?$AAg?$AAr?$AAa?$AAm?$AA?5?$AAF?$AAi?$AAl?$AAe?$AAs?$AA?5?$AA?$CI?$AAx?$AA8?$AA6?$AA?$CJ?$AA?2?$AAM?$AAi?$AAc?$AAr?$AAo?$AAs?$AAo?$AAf?$AAt@
	push	OFFSET ??_C@_1OA@OFPMILIO@?$AAs?$AAt?$AAd?$AA?3?$AA?3?$AA_?$AAT?$AAr?$AAe?$AAe?$AA_?$AAc?$AAo?$AAn?$AAs?$AAt?$AA_?$AAi?$AAt?$AAe?$AAr?$AAa?$AAt?$AAo?$AAr?$AA?$DM?$AAc?$AAl?$AAa?$AAs?$AAs?$AA?5@
	push	OFFSET ??_C@_1BO@MEPPHOO@?$AA?$CC?$AAo?$AAu?$AAt?$AA?5?$AAo?$AAf?$AA?5?$AAr?$AAa?$AAn?$AAg?$AAe?$AA?$CC?$AA?$AA@
	call	__invalid_parameter
	add	esp, 20					; 00000014H
$LN4@operator:

; 300  : 			}
; 301  : 
; 302  :  #elif _ITERATOR_DEBUG_LEVEL == 1
; 303  : 		_SCL_SECURE_VALIDATE(this->_Getcont() != 0 && this->_Ptr != nullptr_t{});
; 304  : 
; 305  : 		_Nodeptr _Ptrsav = this->_Ptr;
; 306  : 		--static_cast<_Mybase&>(*this);
; 307  : 		_SCL_SECURE_VALIDATE(_Ptrsav != this->_Ptr);
; 308  : 
; 309  :  #else /* _ITERATOR_DEBUG_LEVEL == 0 */
; 310  : 		--static_cast<_Mybase&>(*this);
; 311  :  #endif /* _ITERATOR_DEBUG_LEVEL */
; 312  : 
; 313  : 		return (*this);

	mov	eax, DWORD PTR _this$[ebp]

; 314  : 		}

	add	esp, 8
	cmp	ebp, esp
	call	__RTC_CheckEsp
	mov	esp, ebp
	pop	ebp
	ret	0
??F?$_Tree_const_iterator@V?$_Tree_val@U?$_Tree_simple_types@UTelegram@@@std@@@std@@@std@@QAEAAV01@XZ ENDP ; std::_Tree_const_iterator<std::_Tree_val<std::_Tree_simple_types<Telegram> > >::operator--
_TEXT	ENDS
; Function compile flags: /Odtp /RTCsu
; File c:\program files (x86)\microsoft visual studio 14.0\vc\include\xtree
;	COMDAT ??E?$_Tree_const_iterator@V?$_Tree_val@U?$_Tree_simple_types@UTelegram@@@std@@@std@@@std@@QAE?AV01@H@Z
_TEXT	SEGMENT
$T2 = -40						; size = 4
__Tmp$ = -32						; size = 12
_this$ = -16						; size = 4
__$EHRec$ = -12						; size = 12
___$ReturnUdt$ = 8					; size = 4
___formal$ = 12						; size = 4
??E?$_Tree_const_iterator@V?$_Tree_val@U?$_Tree_simple_types@UTelegram@@@std@@@std@@@std@@QAE?AV01@H@Z PROC ; std::_Tree_const_iterator<std::_Tree_val<std::_Tree_simple_types<Telegram> > >::operator++, COMDAT
; _this$ = ecx

; 278  : 		{	// postincrement

	push	ebp
	mov	ebp, esp
	push	-1
	push	__ehhandler$??E?$_Tree_const_iterator@V?$_Tree_val@U?$_Tree_simple_types@UTelegram@@@std@@@std@@@std@@QAE?AV01@H@Z
	mov	eax, DWORD PTR fs:0
	push	eax
	sub	esp, 28					; 0000001cH
	mov	eax, -858993460				; ccccccccH
	mov	DWORD PTR [ebp-40], eax
	mov	DWORD PTR [ebp-36], eax
	mov	DWORD PTR [ebp-32], eax
	mov	DWORD PTR [ebp-28], eax
	mov	DWORD PTR [ebp-24], eax
	mov	DWORD PTR [ebp-20], eax
	mov	DWORD PTR [ebp-16], eax
	mov	eax, DWORD PTR ___security_cookie
	xor	eax, ebp
	push	eax
	lea	eax, DWORD PTR __$EHRec$[ebp]
	mov	DWORD PTR fs:0, eax
	mov	DWORD PTR _this$[ebp], ecx
	mov	DWORD PTR $T2[ebp], 0

; 279  : 		_Myiter _Tmp = *this;

	mov	eax, DWORD PTR _this$[ebp]
	push	eax
	lea	ecx, DWORD PTR __Tmp$[ebp]
	call	??0?$_Tree_const_iterator@V?$_Tree_val@U?$_Tree_simple_types@UTelegram@@@std@@@std@@@std@@QAE@ABV01@@Z
	mov	DWORD PTR __$EHRec$[ebp+8], 0

; 280  : 		++*this;

	mov	ecx, DWORD PTR _this$[ebp]
	call	??E?$_Tree_const_iterator@V?$_Tree_val@U?$_Tree_simple_types@UTelegram@@@std@@@std@@@std@@QAEAAV01@XZ ; std::_Tree_const_iterator<std::_Tree_val<std::_Tree_simple_types<Telegram> > >::operator++

; 281  : 		return (_Tmp);

	lea	ecx, DWORD PTR __Tmp$[ebp]
	push	ecx
	mov	ecx, DWORD PTR ___$ReturnUdt$[ebp]
	call	??0?$_Tree_const_iterator@V?$_Tree_val@U?$_Tree_simple_types@UTelegram@@@std@@@std@@@std@@QAE@$$QAV01@@Z
	mov	edx, DWORD PTR $T2[ebp]
	or	edx, 1
	mov	DWORD PTR $T2[ebp], edx
	mov	DWORD PTR __$EHRec$[ebp+8], -1
	lea	ecx, DWORD PTR __Tmp$[ebp]
	call	??1?$_Tree_const_iterator@V?$_Tree_val@U?$_Tree_simple_types@UTelegram@@@std@@@std@@@std@@QAE@XZ
	mov	eax, DWORD PTR ___$ReturnUdt$[ebp]

; 282  : 		}

	push	edx
	mov	ecx, ebp
	push	eax
	lea	edx, DWORD PTR $LN9@operator
	call	@_RTC_CheckStackVars@8
	pop	eax
	pop	edx
	mov	ecx, DWORD PTR __$EHRec$[ebp]
	mov	DWORD PTR fs:0, ecx
	pop	ecx
	add	esp, 40					; 00000028H
	cmp	ebp, esp
	call	__RTC_CheckEsp
	mov	esp, ebp
	pop	ebp
	ret	8
	npad	1
$LN9@operator:
	DD	1
	DD	$LN8@operator
$LN8@operator:
	DD	-32					; ffffffe0H
	DD	12					; 0000000cH
	DD	$LN6@operator
$LN6@operator:
	DB	95					; 0000005fH
	DB	84					; 00000054H
	DB	109					; 0000006dH
	DB	112					; 00000070H
	DB	0
_TEXT	ENDS
;	COMDAT text$x
text$x	SEGMENT
__unwindfunclet$??E?$_Tree_const_iterator@V?$_Tree_val@U?$_Tree_simple_types@UTelegram@@@std@@@std@@@std@@QAE?AV01@H@Z$0:
	lea	ecx, DWORD PTR __Tmp$[ebp]
	jmp	??1?$_Tree_const_iterator@V?$_Tree_val@U?$_Tree_simple_types@UTelegram@@@std@@@std@@@std@@QAE@XZ
__ehhandler$??E?$_Tree_const_iterator@V?$_Tree_val@U?$_Tree_simple_types@UTelegram@@@std@@@std@@@std@@QAE?AV01@H@Z:
	mov	edx, DWORD PTR [esp+8]
	lea	eax, DWORD PTR [edx+12]
	mov	ecx, DWORD PTR [edx-32]
	xor	ecx, eax
	call	@__security_check_cookie@4
	mov	eax, OFFSET __ehfuncinfo$??E?$_Tree_const_iterator@V?$_Tree_val@U?$_Tree_simple_types@UTelegram@@@std@@@std@@@std@@QAE?AV01@H@Z
	jmp	___CxxFrameHandler3
text$x	ENDS
??E?$_Tree_const_iterator@V?$_Tree_val@U?$_Tree_simple_types@UTelegram@@@std@@@std@@@std@@QAE?AV01@H@Z ENDP ; std::_Tree_const_iterator<std::_Tree_val<std::_Tree_simple_types<Telegram> > >::operator++
; Function compile flags: /Odtp /RTCsu
; File c:\program files (x86)\microsoft visual studio 14.0\vc\include\xtree
;	COMDAT ??E?$_Tree_const_iterator@V?$_Tree_val@U?$_Tree_simple_types@UTelegram@@@std@@@std@@@std@@QAEAAV01@XZ
_TEXT	SEGMENT
_this$ = -4						; size = 4
??E?$_Tree_const_iterator@V?$_Tree_val@U?$_Tree_simple_types@UTelegram@@@std@@@std@@@std@@QAEAAV01@XZ PROC ; std::_Tree_const_iterator<std::_Tree_val<std::_Tree_simple_types<Telegram> > >::operator++, COMDAT
; _this$ = ecx

; 258  : 		{	// preincrement

	push	ebp
	mov	ebp, esp
	push	ecx
	mov	DWORD PTR [ebp-4], -858993460		; ccccccccH
	mov	DWORD PTR _this$[ebp], ecx

; 259  :  #if _ITERATOR_DEBUG_LEVEL == 2
; 260  : 		if (this->_Getcont() == 0
; 261  : 			|| this->_Ptr == nullptr_t{}
; 262  : 			|| _Mytree::_Isnil(this->_Ptr))

	mov	ecx, DWORD PTR _this$[ebp]
	call	?_Getcont@_Iterator_base12@std@@QBEPBU_Container_base12@2@XZ ; std::_Iterator_base12::_Getcont
	test	eax, eax
	je	SHORT $LN3@operator
	mov	eax, DWORD PTR _this$[ebp]
	cmp	DWORD PTR [eax+8], 0
	je	SHORT $LN3@operator
	mov	ecx, DWORD PTR _this$[ebp]
	mov	edx, DWORD PTR [ecx+8]
	push	edx
	call	?_Isnil@?$_Tree_val@U?$_Tree_simple_types@UTelegram@@@std@@@std@@SAAADPAU?$_Tree_node@UTelegram@@PAX@2@@Z ; std::_Tree_val<std::_Tree_simple_types<Telegram> >::_Isnil
	add	esp, 4
	movsx	eax, BYTE PTR [eax]
	test	eax, eax
	je	SHORT $LN2@operator
$LN3@operator:

; 263  : 			{	// report error
; 264  : 			_DEBUG_ERROR("map/set iterator not incrementable");

	push	264					; 00000108H
	push	OFFSET ??_C@_1IK@BEABFJGP@?$AAC?$AA?3?$AA?2?$AAP?$AAr?$AAo?$AAg?$AAr?$AAa?$AAm?$AA?5?$AAF?$AAi?$AAl?$AAe?$AAs?$AA?5?$AA?$CI?$AAx?$AA8?$AA6?$AA?$CJ?$AA?2?$AAM?$AAi?$AAc?$AAr?$AAo?$AAs?$AAo?$AAf?$AAt@
	push	OFFSET ??_C@_1EG@EHJFMBHJ@?$AAm?$AAa?$AAp?$AA?1?$AAs?$AAe?$AAt?$AA?5?$AAi?$AAt?$AAe?$AAr?$AAa?$AAt?$AAo?$AAr?$AA?5?$AAn?$AAo?$AAt?$AA?5?$AAi?$AAn?$AAc?$AAr?$AAe?$AAm?$AAe?$AAn?$AAt?$AAa?$AAb@
	call	?_Debug_message@std@@YAXPB_W0I@Z	; std::_Debug_message
	add	esp, 12					; 0000000cH

; 265  : 			_SCL_SECURE_OUT_OF_RANGE;

	mov	ecx, OFFSET ??_C@_0CE@OFMIGAMM@Standard?5C?$CL?$CL?5Libraries?5Out?5of?5Ra@
	test	ecx, ecx
	je	SHORT $LN5@operator
	xor	edx, edx
	jne	SHORT $LN6@operator
$LN5@operator:
	push	OFFSET ??_C@_1FG@IBPIFFN@?$AA?$CC?$AAS?$AAt?$AAa?$AAn?$AAd?$AAa?$AAr?$AAd?$AA?5?$AAC?$AA?$CL?$AA?$CL?$AA?5?$AAL?$AAi?$AAb?$AAr?$AAa?$AAr?$AAi?$AAe?$AAs?$AA?5?$AAO?$AAu?$AAt?$AA?5?$AAo?$AAf?$AA?5?$AAR@
	push	OFFSET ??_C@_17CNPHIMPH@?$AA?$CF?$AAl?$AAs?$AA?$AA@
	push	0
	push	265					; 00000109H
	push	OFFSET ??_C@_1IK@BEABFJGP@?$AAC?$AA?3?$AA?2?$AAP?$AAr?$AAo?$AAg?$AAr?$AAa?$AAm?$AA?5?$AAF?$AAi?$AAl?$AAe?$AAs?$AA?5?$AA?$CI?$AAx?$AA8?$AA6?$AA?$CJ?$AA?2?$AAM?$AAi?$AAc?$AAr?$AAo?$AAs?$AAo?$AAf?$AAt@
	push	2
	call	__CrtDbgReportW
	add	esp, 24					; 00000018H
	cmp	eax, 1
	jne	SHORT $LN6@operator
	int	3
$LN6@operator:
	push	0
	push	265					; 00000109H
	push	OFFSET ??_C@_1IK@BEABFJGP@?$AAC?$AA?3?$AA?2?$AAP?$AAr?$AAo?$AAg?$AAr?$AAa?$AAm?$AA?5?$AAF?$AAi?$AAl?$AAe?$AAs?$AA?5?$AA?$CI?$AAx?$AA8?$AA6?$AA?$CJ?$AA?2?$AAM?$AAi?$AAc?$AAr?$AAo?$AAs?$AAo?$AAf?$AAt@
	push	OFFSET ??_C@_1OA@BGMODHEP@?$AAs?$AAt?$AAd?$AA?3?$AA?3?$AA_?$AAT?$AAr?$AAe?$AAe?$AA_?$AAc?$AAo?$AAn?$AAs?$AAt?$AA_?$AAi?$AAt?$AAe?$AAr?$AAa?$AAt?$AAo?$AAr?$AA?$DM?$AAc?$AAl?$AAa?$AAs?$AAs?$AA?5@
	push	OFFSET ??_C@_1BO@MEPPHOO@?$AA?$CC?$AAo?$AAu?$AAt?$AA?5?$AAo?$AAf?$AA?5?$AAr?$AAa?$AAn?$AAg?$AAe?$AA?$CC?$AA?$AA@
	call	__invalid_parameter
	add	esp, 20					; 00000014H
$LN2@operator:

; 266  : 			}
; 267  : 
; 268  :  #elif _ITERATOR_DEBUG_LEVEL == 1
; 269  : 		_SCL_SECURE_VALIDATE(this->_Getcont() != 0 && this->_Ptr != nullptr_t{});
; 270  : 		_SCL_SECURE_VALIDATE_RANGE(!_Mytree::_Isnil(this->_Ptr));
; 271  :  #endif /* _ITERATOR_DEBUG_LEVEL */
; 272  : 
; 273  : 		++static_cast<_Mybase&>(*this);

	mov	ecx, DWORD PTR _this$[ebp]
	call	??E?$_Tree_unchecked_const_iterator@V?$_Tree_val@U?$_Tree_simple_types@UTelegram@@@std@@@std@@U_Iterator_base12@2@@std@@QAEAAV01@XZ ; std::_Tree_unchecked_const_iterator<std::_Tree_val<std::_Tree_simple_types<Telegram> >,std::_Iterator_base12>::operator++

; 274  : 		return (*this);

	mov	eax, DWORD PTR _this$[ebp]

; 275  : 		}

	add	esp, 4
	cmp	ebp, esp
	call	__RTC_CheckEsp
	mov	esp, ebp
	pop	ebp
	ret	0
??E?$_Tree_const_iterator@V?$_Tree_val@U?$_Tree_simple_types@UTelegram@@@std@@@std@@@std@@QAEAAV01@XZ ENDP ; std::_Tree_const_iterator<std::_Tree_val<std::_Tree_simple_types<Telegram> > >::operator++
_TEXT	ENDS
; Function compile flags: /Odtp /RTCsu
; File c:\program files (x86)\microsoft visual studio 14.0\vc\include\xtree
;	COMDAT ??C?$_Tree_const_iterator@V?$_Tree_val@U?$_Tree_simple_types@UTelegram@@@std@@@std@@@std@@QBEPBUTelegram@@XZ
_TEXT	SEGMENT
_this$ = -4						; size = 4
??C?$_Tree_const_iterator@V?$_Tree_val@U?$_Tree_simple_types@UTelegram@@@std@@@std@@@std@@QBEPBUTelegram@@XZ PROC ; std::_Tree_const_iterator<std::_Tree_val<std::_Tree_simple_types<Telegram> > >::operator->, COMDAT
; _this$ = ecx

; 253  : 		{	// return pointer to class object

	push	ebp
	mov	ebp, esp
	push	ecx
	mov	DWORD PTR [ebp-4], -858993460		; ccccccccH
	mov	DWORD PTR _this$[ebp], ecx

; 254  : 		return (pointer_traits<pointer>::pointer_to(**this));

	mov	ecx, DWORD PTR _this$[ebp]
	call	??D?$_Tree_const_iterator@V?$_Tree_val@U?$_Tree_simple_types@UTelegram@@@std@@@std@@@std@@QBEABUTelegram@@XZ ; std::_Tree_const_iterator<std::_Tree_val<std::_Tree_simple_types<Telegram> > >::operator*
	push	eax
	call	?pointer_to@?$pointer_traits@PBUTelegram@@@std@@SAPBUTelegram@@ABU3@@Z ; std::pointer_traits<Telegram const *>::pointer_to
	add	esp, 4

; 255  : 		}

	add	esp, 4
	cmp	ebp, esp
	call	__RTC_CheckEsp
	mov	esp, ebp
	pop	ebp
	ret	0
??C?$_Tree_const_iterator@V?$_Tree_val@U?$_Tree_simple_types@UTelegram@@@std@@@std@@@std@@QBEPBUTelegram@@XZ ENDP ; std::_Tree_const_iterator<std::_Tree_val<std::_Tree_simple_types<Telegram> > >::operator->
_TEXT	ENDS
; Function compile flags: /Odtp /RTCsu
; File c:\program files (x86)\microsoft visual studio 14.0\vc\include\xtree
;	COMDAT ??D?$_Tree_const_iterator@V?$_Tree_val@U?$_Tree_simple_types@UTelegram@@@std@@@std@@@std@@QBEABUTelegram@@XZ
_TEXT	SEGMENT
__Mycont$ = -8						; size = 4
_this$ = -4						; size = 4
??D?$_Tree_const_iterator@V?$_Tree_val@U?$_Tree_simple_types@UTelegram@@@std@@@std@@@std@@QBEABUTelegram@@XZ PROC ; std::_Tree_const_iterator<std::_Tree_val<std::_Tree_simple_types<Telegram> > >::operator*, COMDAT
; _this$ = ecx

; 231  : 		{	// return designated value

	push	ebp
	mov	ebp, esp
	sub	esp, 8
	mov	DWORD PTR [ebp-8], -858993460		; ccccccccH
	mov	DWORD PTR [ebp-4], -858993460		; ccccccccH
	mov	DWORD PTR _this$[ebp], ecx

; 232  :  #if _ITERATOR_DEBUG_LEVEL == 2
; 233  : 		const auto _Mycont = static_cast<const _Mytree *>(this->_Getcont());

	mov	ecx, DWORD PTR _this$[ebp]
	call	?_Getcont@_Iterator_base12@std@@QBEPBU_Container_base12@2@XZ ; std::_Iterator_base12::_Getcont
	mov	DWORD PTR __Mycont$[ebp], eax

; 234  : 		if (_Mycont == 0
; 235  : 			|| this->_Ptr == nullptr_t{}
; 236  : 			|| this->_Ptr == _Mycont->_Myhead)

	cmp	DWORD PTR __Mycont$[ebp], 0
	je	SHORT $LN3@operator
	mov	eax, DWORD PTR _this$[ebp]
	cmp	DWORD PTR [eax+8], 0
	je	SHORT $LN3@operator
	mov	ecx, DWORD PTR _this$[ebp]
	mov	edx, DWORD PTR __Mycont$[ebp]
	mov	eax, DWORD PTR [ecx+8]
	cmp	eax, DWORD PTR [edx+4]
	jne	SHORT $LN2@operator
$LN3@operator:

; 237  : 			{	// report error
; 238  : 			_DEBUG_ERROR("map/set iterator not dereferencable");

	push	238					; 000000eeH
	push	OFFSET ??_C@_1IK@BEABFJGP@?$AAC?$AA?3?$AA?2?$AAP?$AAr?$AAo?$AAg?$AAr?$AAa?$AAm?$AA?5?$AAF?$AAi?$AAl?$AAe?$AAs?$AA?5?$AA?$CI?$AAx?$AA8?$AA6?$AA?$CJ?$AA?2?$AAM?$AAi?$AAc?$AAr?$AAo?$AAs?$AAo?$AAf?$AAt@
	push	OFFSET ??_C@_1EI@FHEHNNNM@?$AAm?$AAa?$AAp?$AA?1?$AAs?$AAe?$AAt?$AA?5?$AAi?$AAt?$AAe?$AAr?$AAa?$AAt?$AAo?$AAr?$AA?5?$AAn?$AAo?$AAt?$AA?5?$AAd?$AAe?$AAr?$AAe?$AAf?$AAe?$AAr?$AAe?$AAn?$AAc?$AAa@
	call	?_Debug_message@std@@YAXPB_W0I@Z	; std::_Debug_message
	add	esp, 12					; 0000000cH

; 239  : 			_SCL_SECURE_OUT_OF_RANGE;

	mov	ecx, OFFSET ??_C@_0CE@OFMIGAMM@Standard?5C?$CL?$CL?5Libraries?5Out?5of?5Ra@
	test	ecx, ecx
	je	SHORT $LN5@operator
	xor	edx, edx
	jne	SHORT $LN6@operator
$LN5@operator:
	push	OFFSET ??_C@_1FG@IBPIFFN@?$AA?$CC?$AAS?$AAt?$AAa?$AAn?$AAd?$AAa?$AAr?$AAd?$AA?5?$AAC?$AA?$CL?$AA?$CL?$AA?5?$AAL?$AAi?$AAb?$AAr?$AAa?$AAr?$AAi?$AAe?$AAs?$AA?5?$AAO?$AAu?$AAt?$AA?5?$AAo?$AAf?$AA?5?$AAR@
	push	OFFSET ??_C@_17CNPHIMPH@?$AA?$CF?$AAl?$AAs?$AA?$AA@
	push	0
	push	239					; 000000efH
	push	OFFSET ??_C@_1IK@BEABFJGP@?$AAC?$AA?3?$AA?2?$AAP?$AAr?$AAo?$AAg?$AAr?$AAa?$AAm?$AA?5?$AAF?$AAi?$AAl?$AAe?$AAs?$AA?5?$AA?$CI?$AAx?$AA8?$AA6?$AA?$CJ?$AA?2?$AAM?$AAi?$AAc?$AAr?$AAo?$AAs?$AAo?$AAf?$AAt@
	push	2
	call	__CrtDbgReportW
	add	esp, 24					; 00000018H
	cmp	eax, 1
	jne	SHORT $LN6@operator
	int	3
$LN6@operator:
	push	0
	push	239					; 000000efH
	push	OFFSET ??_C@_1IK@BEABFJGP@?$AAC?$AA?3?$AA?2?$AAP?$AAr?$AAo?$AAg?$AAr?$AAa?$AAm?$AA?5?$AAF?$AAi?$AAl?$AAe?$AAs?$AA?5?$AA?$CI?$AAx?$AA8?$AA6?$AA?$CJ?$AA?2?$AAM?$AAi?$AAc?$AAr?$AAo?$AAs?$AAo?$AAf?$AAt@
	push	OFFSET ??_C@_1NO@FBLHDHCP@?$AAs?$AAt?$AAd?$AA?3?$AA?3?$AA_?$AAT?$AAr?$AAe?$AAe?$AA_?$AAc?$AAo?$AAn?$AAs?$AAt?$AA_?$AAi?$AAt?$AAe?$AAr?$AAa?$AAt?$AAo?$AAr?$AA?$DM?$AAc?$AAl?$AAa?$AAs?$AAs?$AA?5@
	push	OFFSET ??_C@_1BO@MEPPHOO@?$AA?$CC?$AAo?$AAu?$AAt?$AA?5?$AAo?$AAf?$AA?5?$AAr?$AAa?$AAn?$AAg?$AAe?$AA?$CC?$AA?$AA@
	call	__invalid_parameter
	add	esp, 20					; 00000014H
$LN2@operator:

; 240  : 			}
; 241  : 
; 242  :  #elif _ITERATOR_DEBUG_LEVEL == 1
; 243  : 		_SCL_SECURE_VALIDATE(this->_Ptr != nullptr_t{});
; 244  : 		const auto _Mycont = static_cast<const _Mytree *>(this->_Getcont());
; 245  : 		_SCL_SECURE_VALIDATE(_Mycont != 0);
; 246  : 		_SCL_SECURE_VALIDATE_RANGE(this->_Ptr != _Mycont->_Myhead);
; 247  :  #endif /* _ITERATOR_DEBUG_LEVEL */
; 248  : 
; 249  : 		return (_Mytree::_Myval(this->_Ptr));

	mov	ecx, DWORD PTR _this$[ebp]
	mov	edx, DWORD PTR [ecx+8]
	push	edx
	call	?_Myval@?$_Tree_val@U?$_Tree_simple_types@UTelegram@@@std@@@std@@SAAAUTelegram@@PAU?$_Tree_node@UTelegram@@PAX@2@@Z ; std::_Tree_val<std::_Tree_simple_types<Telegram> >::_Myval
	add	esp, 4

; 250  : 		}

	add	esp, 8
	cmp	ebp, esp
	call	__RTC_CheckEsp
	mov	esp, ebp
	pop	ebp
	ret	0
??D?$_Tree_const_iterator@V?$_Tree_val@U?$_Tree_simple_types@UTelegram@@@std@@@std@@@std@@QBEABUTelegram@@XZ ENDP ; std::_Tree_const_iterator<std::_Tree_val<std::_Tree_simple_types<Telegram> > >::operator*
_TEXT	ENDS
; Function compile flags: /Odtp /RTCsu
; File c:\program files (x86)\microsoft visual studio 14.0\vc\include\xtree
;	COMDAT ??0?$_Tree_const_iterator@V?$_Tree_val@U?$_Tree_simple_types@UTelegram@@@std@@@std@@@std@@QAE@PAU?$_Tree_node@UTelegram@@PAX@1@PBV?$_Tree_val@U?$_Tree_simple_types@UTelegram@@@std@@@1@@Z
_TEXT	SEGMENT
_this$ = -4						; size = 4
__Pnode$ = 8						; size = 4
__Plist$ = 12						; size = 4
??0?$_Tree_const_iterator@V?$_Tree_val@U?$_Tree_simple_types@UTelegram@@@std@@@std@@@std@@QAE@PAU?$_Tree_node@UTelegram@@PAX@1@PBV?$_Tree_val@U?$_Tree_simple_types@UTelegram@@@std@@@1@@Z PROC ; std::_Tree_const_iterator<std::_Tree_val<std::_Tree_simple_types<Telegram> > >::_Tree_const_iterator<std::_Tree_val<std::_Tree_simple_types<Telegram> > >, COMDAT
; _this$ = ecx

; 214  : 		{	// construct with node pointer _Pnode

	push	ebp
	mov	ebp, esp
	push	ecx
	mov	DWORD PTR [ebp-4], -858993460		; ccccccccH
	mov	DWORD PTR _this$[ebp], ecx

; 213  : 		: _Mybase(_Pnode, _Plist)

	mov	eax, DWORD PTR __Plist$[ebp]
	push	eax
	mov	ecx, DWORD PTR __Pnode$[ebp]
	push	ecx
	mov	ecx, DWORD PTR _this$[ebp]
	call	??0?$_Tree_unchecked_const_iterator@V?$_Tree_val@U?$_Tree_simple_types@UTelegram@@@std@@@std@@U_Iterator_base12@2@@std@@QAE@PAU?$_Tree_node@UTelegram@@PAX@1@PBV?$_Tree_val@U?$_Tree_simple_types@UTelegram@@@std@@@1@@Z ; std::_Tree_unchecked_const_iterator<std::_Tree_val<std::_Tree_simple_types<Telegram> >,std::_Iterator_base12>::_Tree_unchecked_const_iterator<std::_Tree_val<std::_Tree_simple_types<Telegram> >,std::_Iterator_base12>

; 215  : 		}

	mov	eax, DWORD PTR _this$[ebp]
	add	esp, 4
	cmp	ebp, esp
	call	__RTC_CheckEsp
	mov	esp, ebp
	pop	ebp
	ret	8
??0?$_Tree_const_iterator@V?$_Tree_val@U?$_Tree_simple_types@UTelegram@@@std@@@std@@@std@@QAE@PAU?$_Tree_node@UTelegram@@PAX@1@PBV?$_Tree_val@U?$_Tree_simple_types@UTelegram@@@std@@@1@@Z ENDP ; std::_Tree_const_iterator<std::_Tree_val<std::_Tree_simple_types<Telegram> > >::_Tree_const_iterator<std::_Tree_val<std::_Tree_simple_types<Telegram> > >
_TEXT	ENDS
; Function compile flags: /Odtp /RTCsu
;	COMDAT ??0?$_Tree_unchecked_const_iterator@V?$_Tree_val@U?$_Tree_simple_types@UTelegram@@@std@@@std@@U_Iterator_base12@2@@std@@QAE@$$QAV01@@Z
_TEXT	SEGMENT
_this$ = -4						; size = 4
___that$ = 8						; size = 4
??0?$_Tree_unchecked_const_iterator@V?$_Tree_val@U?$_Tree_simple_types@UTelegram@@@std@@@std@@U_Iterator_base12@2@@std@@QAE@$$QAV01@@Z PROC ; std::_Tree_unchecked_const_iterator<std::_Tree_val<std::_Tree_simple_types<Telegram> >,std::_Iterator_base12>::_Tree_unchecked_const_iterator<std::_Tree_val<std::_Tree_simple_types<Telegram> >,std::_Iterator_base12>, COMDAT
; _this$ = ecx
	push	ebp
	mov	ebp, esp
	push	ecx
	mov	DWORD PTR [ebp-4], -858993460		; ccccccccH
	mov	DWORD PTR _this$[ebp], ecx
	mov	eax, DWORD PTR ___that$[ebp]
	push	eax
	mov	ecx, DWORD PTR _this$[ebp]
	call	??0?$_Iterator012@Ubidirectional_iterator_tag@std@@UTelegram@@HPBU3@ABU3@U_Iterator_base12@2@@std@@QAE@$$QAU01@@Z
	mov	ecx, DWORD PTR _this$[ebp]
	mov	edx, DWORD PTR ___that$[ebp]
	mov	eax, DWORD PTR [edx+8]
	mov	DWORD PTR [ecx+8], eax
	mov	eax, DWORD PTR _this$[ebp]
	add	esp, 4
	cmp	ebp, esp
	call	__RTC_CheckEsp
	mov	esp, ebp
	pop	ebp
	ret	4
??0?$_Tree_unchecked_const_iterator@V?$_Tree_val@U?$_Tree_simple_types@UTelegram@@@std@@@std@@U_Iterator_base12@2@@std@@QAE@$$QAV01@@Z ENDP ; std::_Tree_unchecked_const_iterator<std::_Tree_val<std::_Tree_simple_types<Telegram> >,std::_Iterator_base12>::_Tree_unchecked_const_iterator<std::_Tree_val<std::_Tree_simple_types<Telegram> >,std::_Iterator_base12>
_TEXT	ENDS
; Function compile flags: /Odtp /RTCsu
;	COMDAT ??0?$_Tree_unchecked_const_iterator@V?$_Tree_val@U?$_Tree_simple_types@UTelegram@@@std@@@std@@U_Iterator_base12@2@@std@@QAE@ABV01@@Z
_TEXT	SEGMENT
_this$ = -4						; size = 4
___that$ = 8						; size = 4
??0?$_Tree_unchecked_const_iterator@V?$_Tree_val@U?$_Tree_simple_types@UTelegram@@@std@@@std@@U_Iterator_base12@2@@std@@QAE@ABV01@@Z PROC ; std::_Tree_unchecked_const_iterator<std::_Tree_val<std::_Tree_simple_types<Telegram> >,std::_Iterator_base12>::_Tree_unchecked_const_iterator<std::_Tree_val<std::_Tree_simple_types<Telegram> >,std::_Iterator_base12>, COMDAT
; _this$ = ecx
	push	ebp
	mov	ebp, esp
	push	ecx
	mov	DWORD PTR [ebp-4], -858993460		; ccccccccH
	mov	DWORD PTR _this$[ebp], ecx
	mov	eax, DWORD PTR ___that$[ebp]
	push	eax
	mov	ecx, DWORD PTR _this$[ebp]
	call	??0?$_Iterator012@Ubidirectional_iterator_tag@std@@UTelegram@@HPBU3@ABU3@U_Iterator_base12@2@@std@@QAE@ABU01@@Z
	mov	ecx, DWORD PTR _this$[ebp]
	mov	edx, DWORD PTR ___that$[ebp]
	mov	eax, DWORD PTR [edx+8]
	mov	DWORD PTR [ecx+8], eax
	mov	eax, DWORD PTR _this$[ebp]
	add	esp, 4
	cmp	ebp, esp
	call	__RTC_CheckEsp
	mov	esp, ebp
	pop	ebp
	ret	4
??0?$_Tree_unchecked_const_iterator@V?$_Tree_val@U?$_Tree_simple_types@UTelegram@@@std@@@std@@U_Iterator_base12@2@@std@@QAE@ABV01@@Z ENDP ; std::_Tree_unchecked_const_iterator<std::_Tree_val<std::_Tree_simple_types<Telegram> >,std::_Iterator_base12>::_Tree_unchecked_const_iterator<std::_Tree_val<std::_Tree_simple_types<Telegram> >,std::_Iterator_base12>
_TEXT	ENDS
; Function compile flags: /Odtp /RTCsu
;	COMDAT ??1?$_Tree_unchecked_const_iterator@V?$_Tree_val@U?$_Tree_simple_types@UTelegram@@@std@@@std@@U_Iterator_base12@2@@std@@QAE@XZ
_TEXT	SEGMENT
_this$ = -4						; size = 4
??1?$_Tree_unchecked_const_iterator@V?$_Tree_val@U?$_Tree_simple_types@UTelegram@@@std@@@std@@U_Iterator_base12@2@@std@@QAE@XZ PROC ; std::_Tree_unchecked_const_iterator<std::_Tree_val<std::_Tree_simple_types<Telegram> >,std::_Iterator_base12>::~_Tree_unchecked_const_iterator<std::_Tree_val<std::_Tree_simple_types<Telegram> >,std::_Iterator_base12>, COMDAT
; _this$ = ecx
	push	ebp
	mov	ebp, esp
	push	ecx
	mov	DWORD PTR [ebp-4], -858993460		; ccccccccH
	mov	DWORD PTR _this$[ebp], ecx
	mov	ecx, DWORD PTR _this$[ebp]
	call	??1?$_Iterator012@Ubidirectional_iterator_tag@std@@UTelegram@@HPBU3@ABU3@U_Iterator_base12@2@@std@@QAE@XZ
	add	esp, 4
	cmp	ebp, esp
	call	__RTC_CheckEsp
	mov	esp, ebp
	pop	ebp
	ret	0
??1?$_Tree_unchecked_const_iterator@V?$_Tree_val@U?$_Tree_simple_types@UTelegram@@@std@@@std@@U_Iterator_base12@2@@std@@QAE@XZ ENDP ; std::_Tree_unchecked_const_iterator<std::_Tree_val<std::_Tree_simple_types<Telegram> >,std::_Iterator_base12>::~_Tree_unchecked_const_iterator<std::_Tree_val<std::_Tree_simple_types<Telegram> >,std::_Iterator_base12>
_TEXT	ENDS
; Function compile flags: /Odtp /RTCsu
; File c:\program files (x86)\microsoft visual studio 14.0\vc\include\xtree
;	COMDAT ?_Mynode@?$_Tree_unchecked_const_iterator@V?$_Tree_val@U?$_Tree_simple_types@UTelegram@@@std@@@std@@U_Iterator_base12@2@@std@@QBEPAU?$_Tree_node@UTelegram@@PAX@2@XZ
_TEXT	SEGMENT
_this$ = -4						; size = 4
?_Mynode@?$_Tree_unchecked_const_iterator@V?$_Tree_val@U?$_Tree_simple_types@UTelegram@@@std@@@std@@U_Iterator_base12@2@@std@@QBEPAU?$_Tree_node@UTelegram@@PAX@2@XZ PROC ; std::_Tree_unchecked_const_iterator<std::_Tree_val<std::_Tree_simple_types<Telegram> >,std::_Iterator_base12>::_Mynode, COMDAT
; _this$ = ecx

; 122  : 		{	// return node pointer

	push	ebp
	mov	ebp, esp
	push	ecx
	mov	DWORD PTR [ebp-4], -858993460		; ccccccccH
	mov	DWORD PTR _this$[ebp], ecx

; 123  : 		return (_Ptr);

	mov	eax, DWORD PTR _this$[ebp]
	mov	eax, DWORD PTR [eax+8]

; 124  : 		}

	mov	esp, ebp
	pop	ebp
	ret	0
?_Mynode@?$_Tree_unchecked_const_iterator@V?$_Tree_val@U?$_Tree_simple_types@UTelegram@@@std@@@std@@U_Iterator_base12@2@@std@@QBEPAU?$_Tree_node@UTelegram@@PAX@2@XZ ENDP ; std::_Tree_unchecked_const_iterator<std::_Tree_val<std::_Tree_simple_types<Telegram> >,std::_Iterator_base12>::_Mynode
_TEXT	ENDS
; Function compile flags: /Odtp /RTCsu
; File c:\program files (x86)\microsoft visual studio 14.0\vc\include\xtree
;	COMDAT ??F?$_Tree_unchecked_const_iterator@V?$_Tree_val@U?$_Tree_simple_types@UTelegram@@@std@@@std@@U_Iterator_base12@2@@std@@QAEAAV01@XZ
_TEXT	SEGMENT
__Pnode$1 = -8						; size = 4
_this$ = -4						; size = 4
??F?$_Tree_unchecked_const_iterator@V?$_Tree_val@U?$_Tree_simple_types@UTelegram@@@std@@@std@@U_Iterator_base12@2@@std@@QAEAAV01@XZ PROC ; std::_Tree_unchecked_const_iterator<std::_Tree_val<std::_Tree_simple_types<Telegram> >,std::_Iterator_base12>::operator--, COMDAT
; _this$ = ecx

; 84   : 		{	// predecrement

	push	ebp
	mov	ebp, esp
	sub	esp, 8
	mov	DWORD PTR [ebp-8], -858993460		; ccccccccH
	mov	DWORD PTR [ebp-4], -858993460		; ccccccccH
	mov	DWORD PTR _this$[ebp], ecx

; 85   : 		if (_Mytree::_Isnil(_Ptr))

	mov	eax, DWORD PTR _this$[ebp]
	mov	ecx, DWORD PTR [eax+8]
	push	ecx
	call	?_Isnil@?$_Tree_val@U?$_Tree_simple_types@UTelegram@@@std@@@std@@SAAADPAU?$_Tree_node@UTelegram@@PAX@2@@Z ; std::_Tree_val<std::_Tree_simple_types<Telegram> >::_Isnil
	add	esp, 4
	movsx	edx, BYTE PTR [eax]
	test	edx, edx
	je	SHORT $LN4@operator

; 86   : 			_Ptr = _Mytree::_Right(_Ptr);	// end() ==> rightmost

	mov	eax, DWORD PTR _this$[ebp]
	mov	ecx, DWORD PTR [eax+8]
	push	ecx
	call	?_Right@?$_Tree_val@U?$_Tree_simple_types@UTelegram@@@std@@@std@@SAAAPAU?$_Tree_node@UTelegram@@PAX@2@PAU32@@Z ; std::_Tree_val<std::_Tree_simple_types<Telegram> >::_Right
	add	esp, 4
	mov	edx, DWORD PTR _this$[ebp]
	mov	eax, DWORD PTR [eax]
	mov	DWORD PTR [edx+8], eax
	jmp	$LN5@operator
$LN4@operator:

; 87   : 		else if (!_Mytree::_Isnil(_Mytree::_Left(_Ptr)))

	mov	ecx, DWORD PTR _this$[ebp]
	mov	edx, DWORD PTR [ecx+8]
	push	edx
	call	?_Left@?$_Tree_val@U?$_Tree_simple_types@UTelegram@@@std@@@std@@SAAAPAU?$_Tree_node@UTelegram@@PAX@2@PAU32@@Z ; std::_Tree_val<std::_Tree_simple_types<Telegram> >::_Left
	add	esp, 4
	mov	eax, DWORD PTR [eax]
	push	eax
	call	?_Isnil@?$_Tree_val@U?$_Tree_simple_types@UTelegram@@@std@@@std@@SAAADPAU?$_Tree_node@UTelegram@@PAX@2@@Z ; std::_Tree_val<std::_Tree_simple_types<Telegram> >::_Isnil
	add	esp, 4
	movsx	ecx, BYTE PTR [eax]
	test	ecx, ecx
	jne	SHORT $LN2@operator

; 88   : 			_Ptr = _Mytree::_Max(

	mov	edx, DWORD PTR _this$[ebp]
	mov	eax, DWORD PTR [edx+8]
	push	eax
	call	?_Left@?$_Tree_val@U?$_Tree_simple_types@UTelegram@@@std@@@std@@SAAAPAU?$_Tree_node@UTelegram@@PAX@2@PAU32@@Z ; std::_Tree_val<std::_Tree_simple_types<Telegram> >::_Left
	add	esp, 4
	mov	ecx, DWORD PTR [eax]
	push	ecx
	call	?_Max@?$_Tree_val@U?$_Tree_simple_types@UTelegram@@@std@@@std@@SAPAU?$_Tree_node@UTelegram@@PAX@2@PAU32@@Z ; std::_Tree_val<std::_Tree_simple_types<Telegram> >::_Max
	add	esp, 4
	mov	edx, DWORD PTR _this$[ebp]
	mov	DWORD PTR [edx+8], eax

; 89   : 				_Mytree::_Left(_Ptr));	// ==> largest of left subtree
; 90   : 		else

	jmp	SHORT $LN5@operator
$LN2@operator:

; 91   : 			{	// climb looking for left subtree
; 92   : 			_Nodeptr _Pnode;
; 93   : 			while (!_Mytree::_Isnil(_Pnode = _Mytree::_Parent(_Ptr))
; 94   : 				&& _Ptr == _Mytree::_Left(_Pnode))

	mov	eax, DWORD PTR _this$[ebp]
	mov	ecx, DWORD PTR [eax+8]
	push	ecx
	call	?_Parent@?$_Tree_val@U?$_Tree_simple_types@UTelegram@@@std@@@std@@SAAAPAU?$_Tree_node@UTelegram@@PAX@2@PAU32@@Z ; std::_Tree_val<std::_Tree_simple_types<Telegram> >::_Parent
	add	esp, 4
	mov	edx, DWORD PTR [eax]
	mov	DWORD PTR __Pnode$1[ebp], edx
	mov	eax, DWORD PTR __Pnode$1[ebp]
	push	eax
	call	?_Isnil@?$_Tree_val@U?$_Tree_simple_types@UTelegram@@@std@@@std@@SAAADPAU?$_Tree_node@UTelegram@@PAX@2@@Z ; std::_Tree_val<std::_Tree_simple_types<Telegram> >::_Isnil
	add	esp, 4
	movsx	ecx, BYTE PTR [eax]
	test	ecx, ecx
	jne	SHORT $LN3@operator
	mov	edx, DWORD PTR __Pnode$1[ebp]
	push	edx
	call	?_Left@?$_Tree_val@U?$_Tree_simple_types@UTelegram@@@std@@@std@@SAAAPAU?$_Tree_node@UTelegram@@PAX@2@PAU32@@Z ; std::_Tree_val<std::_Tree_simple_types<Telegram> >::_Left
	add	esp, 4
	mov	ecx, DWORD PTR _this$[ebp]
	mov	edx, DWORD PTR [ecx+8]
	cmp	edx, DWORD PTR [eax]
	jne	SHORT $LN3@operator

; 95   : 				_Ptr = _Pnode;	// ==> parent while left subtree

	mov	eax, DWORD PTR _this$[ebp]
	mov	ecx, DWORD PTR __Pnode$1[ebp]
	mov	DWORD PTR [eax+8], ecx
	jmp	SHORT $LN2@operator
$LN3@operator:

; 96   : 			if (_Mytree::_Isnil(_Ptr))

	mov	edx, DWORD PTR _this$[ebp]
	mov	eax, DWORD PTR [edx+8]
	push	eax
	call	?_Isnil@?$_Tree_val@U?$_Tree_simple_types@UTelegram@@@std@@@std@@SAAADPAU?$_Tree_node@UTelegram@@PAX@2@@Z ; std::_Tree_val<std::_Tree_simple_types<Telegram> >::_Isnil
	add	esp, 4
	movsx	ecx, BYTE PTR [eax]
	test	ecx, ecx
	je	SHORT $LN8@operator

; 97   : 				;	// begin() shouldn't be decremented, don't move
; 98   : 			else

	jmp	SHORT $LN5@operator
$LN8@operator:

; 99   : 				_Ptr = _Pnode;	// ==> parent if not head

	mov	edx, DWORD PTR _this$[ebp]
	mov	eax, DWORD PTR __Pnode$1[ebp]
	mov	DWORD PTR [edx+8], eax
$LN5@operator:

; 100  : 			}
; 101  : 		return (*this);

	mov	eax, DWORD PTR _this$[ebp]

; 102  : 		}

	add	esp, 8
	cmp	ebp, esp
	call	__RTC_CheckEsp
	mov	esp, ebp
	pop	ebp
	ret	0
??F?$_Tree_unchecked_const_iterator@V?$_Tree_val@U?$_Tree_simple_types@UTelegram@@@std@@@std@@U_Iterator_base12@2@@std@@QAEAAV01@XZ ENDP ; std::_Tree_unchecked_const_iterator<std::_Tree_val<std::_Tree_simple_types<Telegram> >,std::_Iterator_base12>::operator--
_TEXT	ENDS
; Function compile flags: /Odtp /RTCsu
; File c:\program files (x86)\microsoft visual studio 14.0\vc\include\xtree
;	COMDAT ??E?$_Tree_unchecked_const_iterator@V?$_Tree_val@U?$_Tree_simple_types@UTelegram@@@std@@@std@@U_Iterator_base12@2@@std@@QAEAAV01@XZ
_TEXT	SEGMENT
__Pnode$1 = -8						; size = 4
_this$ = -4						; size = 4
??E?$_Tree_unchecked_const_iterator@V?$_Tree_val@U?$_Tree_simple_types@UTelegram@@@std@@@std@@U_Iterator_base12@2@@std@@QAEAAV01@XZ PROC ; std::_Tree_unchecked_const_iterator<std::_Tree_val<std::_Tree_simple_types<Telegram> >,std::_Iterator_base12>::operator++, COMDAT
; _this$ = ecx

; 59   : 		{	// preincrement

	push	ebp
	mov	ebp, esp
	sub	esp, 8
	mov	DWORD PTR [ebp-8], -858993460		; ccccccccH
	mov	DWORD PTR [ebp-4], -858993460		; ccccccccH
	mov	DWORD PTR _this$[ebp], ecx

; 60   : 		if (_Mytree::_Isnil(_Ptr))

	mov	eax, DWORD PTR _this$[ebp]
	mov	ecx, DWORD PTR [eax+8]
	push	ecx
	call	?_Isnil@?$_Tree_val@U?$_Tree_simple_types@UTelegram@@@std@@@std@@SAAADPAU?$_Tree_node@UTelegram@@PAX@2@@Z ; std::_Tree_val<std::_Tree_simple_types<Telegram> >::_Isnil
	add	esp, 4
	movsx	edx, BYTE PTR [eax]
	test	edx, edx
	je	SHORT $LN4@operator
	jmp	$LN5@operator
$LN4@operator:

; 61   : 			;	// end() shouldn't be incremented, don't move
; 62   : 		else if (!_Mytree::_Isnil(_Mytree::_Right(_Ptr)))

	mov	eax, DWORD PTR _this$[ebp]
	mov	ecx, DWORD PTR [eax+8]
	push	ecx
	call	?_Right@?$_Tree_val@U?$_Tree_simple_types@UTelegram@@@std@@@std@@SAAAPAU?$_Tree_node@UTelegram@@PAX@2@PAU32@@Z ; std::_Tree_val<std::_Tree_simple_types<Telegram> >::_Right
	add	esp, 4
	mov	edx, DWORD PTR [eax]
	push	edx
	call	?_Isnil@?$_Tree_val@U?$_Tree_simple_types@UTelegram@@@std@@@std@@SAAADPAU?$_Tree_node@UTelegram@@PAX@2@@Z ; std::_Tree_val<std::_Tree_simple_types<Telegram> >::_Isnil
	add	esp, 4
	movsx	eax, BYTE PTR [eax]
	test	eax, eax
	jne	SHORT $LN2@operator

; 63   : 			_Ptr = _Mytree::_Min(

	mov	ecx, DWORD PTR _this$[ebp]
	mov	edx, DWORD PTR [ecx+8]
	push	edx
	call	?_Right@?$_Tree_val@U?$_Tree_simple_types@UTelegram@@@std@@@std@@SAAAPAU?$_Tree_node@UTelegram@@PAX@2@PAU32@@Z ; std::_Tree_val<std::_Tree_simple_types<Telegram> >::_Right
	add	esp, 4
	mov	eax, DWORD PTR [eax]
	push	eax
	call	?_Min@?$_Tree_val@U?$_Tree_simple_types@UTelegram@@@std@@@std@@SAPAU?$_Tree_node@UTelegram@@PAX@2@PAU32@@Z ; std::_Tree_val<std::_Tree_simple_types<Telegram> >::_Min
	add	esp, 4
	mov	ecx, DWORD PTR _this$[ebp]
	mov	DWORD PTR [ecx+8], eax

; 64   : 				_Mytree::_Right(_Ptr));	// ==> smallest of right subtree
; 65   : 		else

	jmp	SHORT $LN5@operator
$LN2@operator:

; 66   : 			{	// climb looking for right subtree
; 67   : 			_Nodeptr _Pnode;
; 68   : 			while (!_Mytree::_Isnil(_Pnode = _Mytree::_Parent(_Ptr))
; 69   : 				&& _Ptr == _Mytree::_Right(_Pnode))

	mov	edx, DWORD PTR _this$[ebp]
	mov	eax, DWORD PTR [edx+8]
	push	eax
	call	?_Parent@?$_Tree_val@U?$_Tree_simple_types@UTelegram@@@std@@@std@@SAAAPAU?$_Tree_node@UTelegram@@PAX@2@PAU32@@Z ; std::_Tree_val<std::_Tree_simple_types<Telegram> >::_Parent
	add	esp, 4
	mov	ecx, DWORD PTR [eax]
	mov	DWORD PTR __Pnode$1[ebp], ecx
	mov	edx, DWORD PTR __Pnode$1[ebp]
	push	edx
	call	?_Isnil@?$_Tree_val@U?$_Tree_simple_types@UTelegram@@@std@@@std@@SAAADPAU?$_Tree_node@UTelegram@@PAX@2@@Z ; std::_Tree_val<std::_Tree_simple_types<Telegram> >::_Isnil
	add	esp, 4
	movsx	eax, BYTE PTR [eax]
	test	eax, eax
	jne	SHORT $LN3@operator
	mov	ecx, DWORD PTR __Pnode$1[ebp]
	push	ecx
	call	?_Right@?$_Tree_val@U?$_Tree_simple_types@UTelegram@@@std@@@std@@SAAAPAU?$_Tree_node@UTelegram@@PAX@2@PAU32@@Z ; std::_Tree_val<std::_Tree_simple_types<Telegram> >::_Right
	add	esp, 4
	mov	edx, DWORD PTR _this$[ebp]
	mov	ecx, DWORD PTR [edx+8]
	cmp	ecx, DWORD PTR [eax]
	jne	SHORT $LN3@operator

; 70   : 				_Ptr = _Pnode;	// ==> parent while right subtree

	mov	edx, DWORD PTR _this$[ebp]
	mov	eax, DWORD PTR __Pnode$1[ebp]
	mov	DWORD PTR [edx+8], eax
	jmp	SHORT $LN2@operator
$LN3@operator:

; 71   : 			_Ptr = _Pnode;	// ==> parent (head if end())

	mov	ecx, DWORD PTR _this$[ebp]
	mov	edx, DWORD PTR __Pnode$1[ebp]
	mov	DWORD PTR [ecx+8], edx
$LN5@operator:

; 72   : 			}
; 73   : 		return (*this);

	mov	eax, DWORD PTR _this$[ebp]

; 74   : 		}

	add	esp, 8
	cmp	ebp, esp
	call	__RTC_CheckEsp
	mov	esp, ebp
	pop	ebp
	ret	0
??E?$_Tree_unchecked_const_iterator@V?$_Tree_val@U?$_Tree_simple_types@UTelegram@@@std@@@std@@U_Iterator_base12@2@@std@@QAEAAV01@XZ ENDP ; std::_Tree_unchecked_const_iterator<std::_Tree_val<std::_Tree_simple_types<Telegram> >,std::_Iterator_base12>::operator++
_TEXT	ENDS
; Function compile flags: /Odtp /RTCsu
; File c:\program files (x86)\microsoft visual studio 14.0\vc\include\xtree
;	COMDAT ??0?$_Tree_unchecked_const_iterator@V?$_Tree_val@U?$_Tree_simple_types@UTelegram@@@std@@@std@@U_Iterator_base12@2@@std@@QAE@PAU?$_Tree_node@UTelegram@@PAX@1@PBV?$_Tree_val@U?$_Tree_simple_types@UTelegram@@@std@@@1@@Z
_TEXT	SEGMENT
_this$ = -16						; size = 4
__$EHRec$ = -12						; size = 12
__Pnode$ = 8						; size = 4
__Plist$ = 12						; size = 4
??0?$_Tree_unchecked_const_iterator@V?$_Tree_val@U?$_Tree_simple_types@UTelegram@@@std@@@std@@U_Iterator_base12@2@@std@@QAE@PAU?$_Tree_node@UTelegram@@PAX@1@PBV?$_Tree_val@U?$_Tree_simple_types@UTelegram@@@std@@@1@@Z PROC ; std::_Tree_unchecked_const_iterator<std::_Tree_val<std::_Tree_simple_types<Telegram> >,std::_Iterator_base12>::_Tree_unchecked_const_iterator<std::_Tree_val<std::_Tree_simple_types<Telegram> >,std::_Iterator_base12>, COMDAT
; _this$ = ecx

; 44   : 		{	// construct with node pointer _Pnode

	push	ebp
	mov	ebp, esp
	push	-1
	push	__ehhandler$??0?$_Tree_unchecked_const_iterator@V?$_Tree_val@U?$_Tree_simple_types@UTelegram@@@std@@@std@@U_Iterator_base12@2@@std@@QAE@PAU?$_Tree_node@UTelegram@@PAX@1@PBV?$_Tree_val@U?$_Tree_simple_types@UTelegram@@@std@@@1@@Z
	mov	eax, DWORD PTR fs:0
	push	eax
	push	ecx
	mov	DWORD PTR [ebp-16], -858993460		; ccccccccH
	mov	eax, DWORD PTR ___security_cookie
	xor	eax, ebp
	push	eax
	lea	eax, DWORD PTR __$EHRec$[ebp]
	mov	DWORD PTR fs:0, eax
	mov	DWORD PTR _this$[ebp], ecx
	mov	ecx, DWORD PTR _this$[ebp]
	call	??0?$_Iterator012@Ubidirectional_iterator_tag@std@@UTelegram@@HPBU3@ABU3@U_Iterator_base12@2@@std@@QAE@XZ
	mov	DWORD PTR __$EHRec$[ebp+8], 0

; 43   : 		: _Ptr(_Pnode)

	mov	eax, DWORD PTR _this$[ebp]
	mov	ecx, DWORD PTR __Pnode$[ebp]
	mov	DWORD PTR [eax+8], ecx

; 45   : 		this->_Adopt(_Plist);

	mov	edx, DWORD PTR __Plist$[ebp]
	push	edx
	mov	ecx, DWORD PTR _this$[ebp]
	call	?_Adopt@_Iterator_base12@std@@QAEXPBU_Container_base12@2@@Z ; std::_Iterator_base12::_Adopt

; 46   : 		}

	mov	DWORD PTR __$EHRec$[ebp+8], -1
	mov	eax, DWORD PTR _this$[ebp]
	mov	ecx, DWORD PTR __$EHRec$[ebp]
	mov	DWORD PTR fs:0, ecx
	pop	ecx
	add	esp, 16					; 00000010H
	cmp	ebp, esp
	call	__RTC_CheckEsp
	mov	esp, ebp
	pop	ebp
	ret	8
_TEXT	ENDS
;	COMDAT text$x
text$x	SEGMENT
__unwindfunclet$??0?$_Tree_unchecked_const_iterator@V?$_Tree_val@U?$_Tree_simple_types@UTelegram@@@std@@@std@@U_Iterator_base12@2@@std@@QAE@PAU?$_Tree_node@UTelegram@@PAX@1@PBV?$_Tree_val@U?$_Tree_simple_types@UTelegram@@@std@@@1@@Z$0:
	mov	ecx, DWORD PTR _this$[ebp]
	jmp	??1?$_Iterator012@Ubidirectional_iterator_tag@std@@UTelegram@@HPBU3@ABU3@U_Iterator_base12@2@@std@@QAE@XZ
__ehhandler$??0?$_Tree_unchecked_const_iterator@V?$_Tree_val@U?$_Tree_simple_types@UTelegram@@@std@@@std@@U_Iterator_base12@2@@std@@QAE@PAU?$_Tree_node@UTelegram@@PAX@1@PBV?$_Tree_val@U?$_Tree_simple_types@UTelegram@@@std@@@1@@Z:
	mov	edx, DWORD PTR [esp+8]
	lea	eax, DWORD PTR [edx+12]
	mov	ecx, DWORD PTR [edx-8]
	xor	ecx, eax
	call	@__security_check_cookie@4
	mov	eax, OFFSET __ehfuncinfo$??0?$_Tree_unchecked_const_iterator@V?$_Tree_val@U?$_Tree_simple_types@UTelegram@@@std@@@std@@U_Iterator_base12@2@@std@@QAE@PAU?$_Tree_node@UTelegram@@PAX@1@PBV?$_Tree_val@U?$_Tree_simple_types@UTelegram@@@std@@@1@@Z
	jmp	___CxxFrameHandler3
text$x	ENDS
??0?$_Tree_unchecked_const_iterator@V?$_Tree_val@U?$_Tree_simple_types@UTelegram@@@std@@@std@@U_Iterator_base12@2@@std@@QAE@PAU?$_Tree_node@UTelegram@@PAX@1@PBV?$_Tree_val@U?$_Tree_simple_types@UTelegram@@@std@@@1@@Z ENDP ; std::_Tree_unchecked_const_iterator<std::_Tree_val<std::_Tree_simple_types<Telegram> >,std::_Iterator_base12>::_Tree_unchecked_const_iterator<std::_Tree_val<std::_Tree_simple_types<Telegram> >,std::_Iterator_base12>
; Function compile flags: /Odtp /RTCsu
;	COMDAT ??0?$_Iterator012@Ubidirectional_iterator_tag@std@@UTelegram@@HPBU3@ABU3@U_Iterator_base12@2@@std@@QAE@$$QAU01@@Z
_TEXT	SEGMENT
_this$ = -4						; size = 4
___that$ = 8						; size = 4
??0?$_Iterator012@Ubidirectional_iterator_tag@std@@UTelegram@@HPBU3@ABU3@U_Iterator_base12@2@@std@@QAE@$$QAU01@@Z PROC ; std::_Iterator012<std::bidirectional_iterator_tag,Telegram,int,Telegram const *,Telegram const &,std::_Iterator_base12>::_Iterator012<std::bidirectional_iterator_tag,Telegram,int,Telegram const *,Telegram const &,std::_Iterator_base12>, COMDAT
; _this$ = ecx
	push	ebp
	mov	ebp, esp
	push	ecx
	mov	DWORD PTR [ebp-4], -858993460		; ccccccccH
	mov	DWORD PTR _this$[ebp], ecx
	mov	eax, DWORD PTR ___that$[ebp]
	push	eax
	mov	ecx, DWORD PTR _this$[ebp]
	call	??0_Iterator_base12@std@@QAE@ABU01@@Z	; std::_Iterator_base12::_Iterator_base12
	mov	eax, DWORD PTR _this$[ebp]
	add	esp, 4
	cmp	ebp, esp
	call	__RTC_CheckEsp
	mov	esp, ebp
	pop	ebp
	ret	4
??0?$_Iterator012@Ubidirectional_iterator_tag@std@@UTelegram@@HPBU3@ABU3@U_Iterator_base12@2@@std@@QAE@$$QAU01@@Z ENDP ; std::_Iterator012<std::bidirectional_iterator_tag,Telegram,int,Telegram const *,Telegram const &,std::_Iterator_base12>::_Iterator012<std::bidirectional_iterator_tag,Telegram,int,Telegram const *,Telegram const &,std::_Iterator_base12>
_TEXT	ENDS
; Function compile flags: /Odtp /RTCsu
;	COMDAT ??0?$_Iterator012@Ubidirectional_iterator_tag@std@@UTelegram@@HPBU3@ABU3@U_Iterator_base12@2@@std@@QAE@ABU01@@Z
_TEXT	SEGMENT
_this$ = -4						; size = 4
___that$ = 8						; size = 4
??0?$_Iterator012@Ubidirectional_iterator_tag@std@@UTelegram@@HPBU3@ABU3@U_Iterator_base12@2@@std@@QAE@ABU01@@Z PROC ; std::_Iterator012<std::bidirectional_iterator_tag,Telegram,int,Telegram const *,Telegram const &,std::_Iterator_base12>::_Iterator012<std::bidirectional_iterator_tag,Telegram,int,Telegram const *,Telegram const &,std::_Iterator_base12>, COMDAT
; _this$ = ecx
	push	ebp
	mov	ebp, esp
	push	ecx
	mov	DWORD PTR [ebp-4], -858993460		; ccccccccH
	mov	DWORD PTR _this$[ebp], ecx
	mov	eax, DWORD PTR ___that$[ebp]
	push	eax
	mov	ecx, DWORD PTR _this$[ebp]
	call	??0_Iterator_base12@std@@QAE@ABU01@@Z	; std::_Iterator_base12::_Iterator_base12
	mov	eax, DWORD PTR _this$[ebp]
	add	esp, 4
	cmp	ebp, esp
	call	__RTC_CheckEsp
	mov	esp, ebp
	pop	ebp
	ret	4
??0?$_Iterator012@Ubidirectional_iterator_tag@std@@UTelegram@@HPBU3@ABU3@U_Iterator_base12@2@@std@@QAE@ABU01@@Z ENDP ; std::_Iterator012<std::bidirectional_iterator_tag,Telegram,int,Telegram const *,Telegram const &,std::_Iterator_base12>::_Iterator012<std::bidirectional_iterator_tag,Telegram,int,Telegram const *,Telegram const &,std::_Iterator_base12>
_TEXT	ENDS
; Function compile flags: /Odtp /RTCsu
;	COMDAT ??1?$_Iterator012@Ubidirectional_iterator_tag@std@@UTelegram@@HPBU3@ABU3@U_Iterator_base12@2@@std@@QAE@XZ
_TEXT	SEGMENT
_this$ = -4						; size = 4
??1?$_Iterator012@Ubidirectional_iterator_tag@std@@UTelegram@@HPBU3@ABU3@U_Iterator_base12@2@@std@@QAE@XZ PROC ; std::_Iterator012<std::bidirectional_iterator_tag,Telegram,int,Telegram const *,Telegram const &,std::_Iterator_base12>::~_Iterator012<std::bidirectional_iterator_tag,Telegram,int,Telegram const *,Telegram const &,std::_Iterator_base12>, COMDAT
; _this$ = ecx
	push	ebp
	mov	ebp, esp
	push	ecx
	mov	DWORD PTR [ebp-4], -858993460		; ccccccccH
	mov	DWORD PTR _this$[ebp], ecx
	mov	ecx, DWORD PTR _this$[ebp]
	call	??1_Iterator_base12@std@@QAE@XZ		; std::_Iterator_base12::~_Iterator_base12
	add	esp, 4
	cmp	ebp, esp
	call	__RTC_CheckEsp
	mov	esp, ebp
	pop	ebp
	ret	0
??1?$_Iterator012@Ubidirectional_iterator_tag@std@@UTelegram@@HPBU3@ABU3@U_Iterator_base12@2@@std@@QAE@XZ ENDP ; std::_Iterator012<std::bidirectional_iterator_tag,Telegram,int,Telegram const *,Telegram const &,std::_Iterator_base12>::~_Iterator012<std::bidirectional_iterator_tag,Telegram,int,Telegram const *,Telegram const &,std::_Iterator_base12>
_TEXT	ENDS
; Function compile flags: /Odtp /RTCsu
;	COMDAT ??0?$_Iterator012@Ubidirectional_iterator_tag@std@@UTelegram@@HPBU3@ABU3@U_Iterator_base12@2@@std@@QAE@XZ
_TEXT	SEGMENT
_this$ = -4						; size = 4
??0?$_Iterator012@Ubidirectional_iterator_tag@std@@UTelegram@@HPBU3@ABU3@U_Iterator_base12@2@@std@@QAE@XZ PROC ; std::_Iterator012<std::bidirectional_iterator_tag,Telegram,int,Telegram const *,Telegram const &,std::_Iterator_base12>::_Iterator012<std::bidirectional_iterator_tag,Telegram,int,Telegram const *,Telegram const &,std::_Iterator_base12>, COMDAT
; _this$ = ecx
	push	ebp
	mov	ebp, esp
	push	ecx
	mov	DWORD PTR [ebp-4], -858993460		; ccccccccH
	mov	DWORD PTR _this$[ebp], ecx
	mov	ecx, DWORD PTR _this$[ebp]
	call	??0_Iterator_base12@std@@QAE@XZ		; std::_Iterator_base12::_Iterator_base12
	mov	eax, DWORD PTR _this$[ebp]
	add	esp, 4
	cmp	ebp, esp
	call	__RTC_CheckEsp
	mov	esp, ebp
	pop	ebp
	ret	0
??0?$_Iterator012@Ubidirectional_iterator_tag@std@@UTelegram@@HPBU3@ABU3@U_Iterator_base12@2@@std@@QAE@XZ ENDP ; std::_Iterator012<std::bidirectional_iterator_tag,Telegram,int,Telegram const *,Telegram const &,std::_Iterator_base12>::_Iterator012<std::bidirectional_iterator_tag,Telegram,int,Telegram const *,Telegram const &,std::_Iterator_base12>
_TEXT	ENDS
; Function compile flags: /Odtp /RTCsu
; File c:\program files (x86)\microsoft visual studio 14.0\vc\include\xtree
;	COMDAT ??$insert@$0A@$0A@@?$_Tree@V?$_Tset_traits@UTelegram@@U?$less@UTelegram@@@std@@V?$allocator@UTelegram@@@3@$0A@@std@@@std@@QAE?AU?$pair@V?$_Tree_const_iterator@V?$_Tree_val@U?$_Tree_simple_types@UTelegram@@@std@@@std@@@std@@_N@1@ABUTelegram@@@Z
_TEXT	SEGMENT
$T1 = -12						; size = 4
$T2 = -5						; size = 1
_this$ = -4						; size = 4
___$ReturnUdt$ = 8					; size = 4
__Val$ = 12						; size = 4
??$insert@$0A@$0A@@?$_Tree@V?$_Tset_traits@UTelegram@@U?$less@UTelegram@@@std@@V?$allocator@UTelegram@@@3@$0A@@std@@@std@@QAE?AU?$pair@V?$_Tree_const_iterator@V?$_Tree_val@U?$_Tree_simple_types@UTelegram@@@std@@@std@@@std@@_N@1@ABUTelegram@@@Z PROC ; std::_Tree<std::_Tset_traits<Telegram,std::less<Telegram>,std::allocator<Telegram>,0> >::insert<0,0>, COMDAT
; _this$ = ecx

; 1203 : 		{	// try to insert node with value _Val, favoring right side

	push	ebp
	mov	ebp, esp
	sub	esp, 12					; 0000000cH
	mov	DWORD PTR [ebp-12], -858993460		; ccccccccH
	mov	DWORD PTR [ebp-8], -858993460		; ccccccccH
	mov	DWORD PTR [ebp-4], -858993460		; ccccccccH
	mov	DWORD PTR _this$[ebp], ecx
	mov	DWORD PTR $T1[ebp], 0

; 1204 : 		return (_Insert_nohint(false,

	movzx	eax, BYTE PTR $T2[ebp]
	push	eax
	mov	ecx, DWORD PTR __Val$[ebp]
	push	ecx
	push	0
	mov	edx, DWORD PTR ___$ReturnUdt$[ebp]
	push	edx
	mov	ecx, DWORD PTR _this$[ebp]
	call	??$_Insert_nohint@ABUTelegram@@U_Nil@std@@@?$_Tree@V?$_Tset_traits@UTelegram@@U?$less@UTelegram@@@std@@V?$allocator@UTelegram@@@3@$0A@@std@@@std@@IAE?AU?$pair@V?$_Tree_const_iterator@V?$_Tree_val@U?$_Tree_simple_types@UTelegram@@@std@@@std@@@std@@_N@1@_NABUTelegram@@U_Nil@1@@Z ; std::_Tree<std::_Tset_traits<Telegram,std::less<Telegram>,std::allocator<Telegram>,0> >::_Insert_nohint<Telegram const &,std::_Nil>
	mov	eax, DWORD PTR $T1[ebp]
	or	eax, 1
	mov	DWORD PTR $T1[ebp], eax
	mov	eax, DWORD PTR ___$ReturnUdt$[ebp]

; 1205 : 			_Val, _Nil()));
; 1206 : 		}

	add	esp, 12					; 0000000cH
	cmp	ebp, esp
	call	__RTC_CheckEsp
	mov	esp, ebp
	pop	ebp
	ret	8
??$insert@$0A@$0A@@?$_Tree@V?$_Tset_traits@UTelegram@@U?$less@UTelegram@@@std@@V?$allocator@UTelegram@@@3@$0A@@std@@@std@@QAE?AU?$pair@V?$_Tree_const_iterator@V?$_Tree_val@U?$_Tree_simple_types@UTelegram@@@std@@@std@@@std@@_N@1@ABUTelegram@@@Z ENDP ; std::_Tree<std::_Tset_traits<Telegram,std::less<Telegram>,std::allocator<Telegram>,0> >::insert<0,0>
_TEXT	ENDS
; Function compile flags: /Odtp /RTCsu
;	COMDAT ??__Finstance@?1??Instance@MessageDispatcher@@SAPAV1@XZ@YAXXZ
text$yd	SEGMENT
??__Finstance@?1??Instance@MessageDispatcher@@SAPAV1@XZ@YAXXZ PROC ; `MessageDispatcher::Instance'::`2'::`dynamic atexit destructor for 'instance'', COMDAT
	push	ebp
	mov	ebp, esp
	mov	ecx, OFFSET ?instance@?1??Instance@MessageDispatcher@@SAPAV2@XZ@4V2@A
	call	??1MessageDispatcher@@QAE@XZ
	cmp	ebp, esp
	call	__RTC_CheckEsp
	pop	ebp
	ret	0
??__Finstance@?1??Instance@MessageDispatcher@@SAPAV1@XZ@YAXXZ ENDP ; `MessageDispatcher::Instance'::`2'::`dynamic atexit destructor for 'instance''
text$yd	ENDS
; Function compile flags: /Odtp /RTCsu
; File e:\documents\cours\git\raven\common\misc\framecounter.h
;	COMDAT ?GetCurrentFrame@FrameCounter@@QAEJXZ
_TEXT	SEGMENT
_this$ = -4						; size = 4
?GetCurrentFrame@FrameCounter@@QAEJXZ PROC		; FrameCounter::GetCurrentFrame, COMDAT
; _this$ = ecx

; 27   :   long GetCurrentFrame(){return m_lCount;}

	push	ebp
	mov	ebp, esp
	push	ecx
	mov	DWORD PTR [ebp-4], -858993460		; ccccccccH
	mov	DWORD PTR _this$[ebp], ecx
	mov	eax, DWORD PTR _this$[ebp]
	mov	eax, DWORD PTR [eax]
	mov	esp, ebp
	pop	ebp
	ret	0
?GetCurrentFrame@FrameCounter@@QAEJXZ ENDP		; FrameCounter::GetCurrentFrame
_TEXT	ENDS
; Function compile flags: /Odtp /RTCsu
; File e:\documents\cours\git\raven\common\misc\utils.h
;	COMDAT ??__EMinFloat@@YAXXZ
text$di	SEGMENT
??__EMinFloat@@YAXXZ PROC				; `dynamic initializer for 'MinFloat'', COMDAT

; 27   : const float   MinFloat  = (std::numeric_limits<float>::min)();

	push	ebp
	mov	ebp, esp
	call	?min@?$numeric_limits@M@std@@SAMXZ	; std::numeric_limits<float>::min
	fstp	DWORD PTR ?MinFloat@@3MB
	cmp	ebp, esp
	call	__RTC_CheckEsp
	pop	ebp
	ret	0
??__EMinFloat@@YAXXZ ENDP				; `dynamic initializer for 'MinFloat''
text$di	ENDS
; Function compile flags: /Odtp /RTCsu
; File e:\documents\cours\git\raven\common\misc\utils.h
;	COMDAT ??__EMaxFloat@@YAXXZ
text$di	SEGMENT
??__EMaxFloat@@YAXXZ PROC				; `dynamic initializer for 'MaxFloat'', COMDAT

; 26   : const float   MaxFloat  = (std::numeric_limits<float>::max)();

	push	ebp
	mov	ebp, esp
	call	?max@?$numeric_limits@M@std@@SAMXZ	; std::numeric_limits<float>::max
	fstp	DWORD PTR ?MaxFloat@@3MB
	cmp	ebp, esp
	call	__RTC_CheckEsp
	pop	ebp
	ret	0
??__EMaxFloat@@YAXXZ ENDP				; `dynamic initializer for 'MaxFloat''
text$di	ENDS
; Function compile flags: /Odtp /RTCsu
; File e:\documents\cours\git\raven\common\misc\utils.h
;	COMDAT ??__EMinDouble@@YAXXZ
text$di	SEGMENT
??__EMinDouble@@YAXXZ PROC				; `dynamic initializer for 'MinDouble'', COMDAT

; 25   : const double  MinDouble = (std::numeric_limits<double>::min)();

	push	ebp
	mov	ebp, esp
	call	?min@?$numeric_limits@N@std@@SANXZ	; std::numeric_limits<double>::min
	fstp	QWORD PTR ?MinDouble@@3NB
	cmp	ebp, esp
	call	__RTC_CheckEsp
	pop	ebp
	ret	0
??__EMinDouble@@YAXXZ ENDP				; `dynamic initializer for 'MinDouble''
text$di	ENDS
; Function compile flags: /Odtp /RTCsu
; File e:\documents\cours\git\raven\common\misc\utils.h
;	COMDAT ??__EMaxDouble@@YAXXZ
text$di	SEGMENT
??__EMaxDouble@@YAXXZ PROC				; `dynamic initializer for 'MaxDouble'', COMDAT

; 24   : const double  MaxDouble = (std::numeric_limits<double>::max)();

	push	ebp
	mov	ebp, esp
	call	?max@?$numeric_limits@N@std@@SANXZ	; std::numeric_limits<double>::max
	fstp	QWORD PTR ?MaxDouble@@3NB
	cmp	ebp, esp
	call	__RTC_CheckEsp
	pop	ebp
	ret	0
??__EMaxDouble@@YAXXZ ENDP				; `dynamic initializer for 'MaxDouble''
text$di	ENDS
; Function compile flags: /Odtp /RTCsu
; File e:\documents\cours\git\raven\common\misc\utils.h
;	COMDAT ??__EMaxInt@@YAXXZ
text$di	SEGMENT
??__EMaxInt@@YAXXZ PROC					; `dynamic initializer for 'MaxInt'', COMDAT

; 23   : const int     MaxInt    = (std::numeric_limits<int>::max)();

	push	ebp
	mov	ebp, esp
	call	?max@?$numeric_limits@H@std@@SAHXZ	; std::numeric_limits<int>::max
	mov	DWORD PTR ?MaxInt@@3HB, eax
	cmp	ebp, esp
	call	__RTC_CheckEsp
	pop	ebp
	ret	0
??__EMaxInt@@YAXXZ ENDP					; `dynamic initializer for 'MaxInt''
text$di	ENDS
; Function compile flags: /Odtp /RTCsu
;	COMDAT ??1MessageDispatcher@@QAE@XZ
_TEXT	SEGMENT
_this$ = -4						; size = 4
??1MessageDispatcher@@QAE@XZ PROC			; MessageDispatcher::~MessageDispatcher, COMDAT
; _this$ = ecx
	push	ebp
	mov	ebp, esp
	push	ecx
	mov	DWORD PTR [ebp-4], -858993460		; ccccccccH
	mov	DWORD PTR _this$[ebp], ecx
	mov	ecx, DWORD PTR _this$[ebp]
	call	??1?$set@UTelegram@@U?$less@UTelegram@@@std@@V?$allocator@UTelegram@@@3@@std@@QAE@XZ
	add	esp, 4
	cmp	ebp, esp
	call	__RTC_CheckEsp
	mov	esp, ebp
	pop	ebp
	ret	0
??1MessageDispatcher@@QAE@XZ ENDP			; MessageDispatcher::~MessageDispatcher
_TEXT	ENDS
; Function compile flags: /Odtp /RTCsu
; File e:\documents\cours\git\raven\common\messaging\messagedispatcher.cpp
_TEXT	SEGMENT
tv207 = -128						; size = 4
tv206 = -124						; size = 4
tv204 = -120						; size = 4
tv217 = -116						; size = 4
tv137 = -112						; size = 4
tv198 = -108						; size = 4
tv213 = -104						; size = 4
tv193 = -100						; size = 4
tv209 = -96						; size = 4
$T2 = -92						; size = 4
$T3 = -88						; size = 12
$T4 = -76						; size = 4
$T5 = -72						; size = 12
$T6 = -60						; size = 12
$T7 = -48						; size = 12
$T8 = -33						; size = 1
_pReceiver$9 = -32					; size = 4
_telegram$10 = -28					; size = 4
_CurrentTime$ = -24					; size = 8
_this$ = -16						; size = 4
__$EHRec$ = -12						; size = 12
?DispatchDelayedMessages@MessageDispatcher@@QAEXXZ PROC	; MessageDispatcher::DispatchDelayedMessages
; _this$ = ecx

; 104  : { 

	push	ebp
	mov	ebp, esp
	push	-1
	push	__ehhandler$?DispatchDelayedMessages@MessageDispatcher@@QAEXXZ
	mov	eax, DWORD PTR fs:0
	push	eax
	sub	esp, 116				; 00000074H
	push	edi
	push	ecx
	lea	edi, DWORD PTR [ebp-128]
	mov	ecx, 29					; 0000001dH
	mov	eax, -858993460				; ccccccccH
	rep stosd
	pop	ecx
	mov	eax, DWORD PTR ___security_cookie
	xor	eax, ebp
	push	eax
	lea	eax, DWORD PTR __$EHRec$[ebp]
	mov	DWORD PTR fs:0, eax
	mov	DWORD PTR _this$[ebp], ecx
	mov	DWORD PTR $T2[ebp], 0

; 105  :   //first get current time
; 106  :   double CurrentTime = TickCounter->GetCurrentFrame(); 

	call	?Instance@FrameCounter@@SAPAV1@XZ	; FrameCounter::Instance
	mov	ecx, eax
	call	?GetCurrentFrame@FrameCounter@@QAEJXZ	; FrameCounter::GetCurrentFrame
	cvtsi2sd xmm0, eax
	movsd	QWORD PTR _CurrentTime$[ebp], xmm0
$LN2@DispatchDe:

; 107  : 
; 108  :   //now peek at the queue to see if any telegrams need dispatching.
; 109  :   //remove all telegrams from the front of the queue that have gone
; 110  :   //past their sell by date
; 111  :   while( !PriorityQ.empty() &&
; 112  : 	     (PriorityQ.begin()->DispatchTime < CurrentTime) && 

	mov	ecx, DWORD PTR _this$[ebp]
	call	?empty@?$_Tree@V?$_Tset_traits@UTelegram@@U?$less@UTelegram@@@std@@V?$allocator@UTelegram@@@3@$0A@@std@@@std@@QBE_NXZ ; std::_Tree<std::_Tset_traits<Telegram,std::less<Telegram>,std::allocator<Telegram>,0> >::empty
	movzx	eax, al
	test	eax, eax
	jne	SHORT $LN5@DispatchDe
	lea	ecx, DWORD PTR $T7[ebp]
	push	ecx
	mov	ecx, DWORD PTR _this$[ebp]
	call	?begin@?$_Tree@V?$_Tset_traits@UTelegram@@U?$less@UTelegram@@@std@@V?$allocator@UTelegram@@@3@$0A@@std@@@std@@QAE?AV?$_Tree_const_iterator@V?$_Tree_val@U?$_Tree_simple_types@UTelegram@@@std@@@std@@@2@XZ ; std::_Tree<std::_Tset_traits<Telegram,std::less<Telegram>,std::allocator<Telegram>,0> >::begin
	mov	DWORD PTR tv209[ebp], eax
	mov	edx, DWORD PTR tv209[ebp]
	mov	DWORD PTR tv193[ebp], edx
	mov	DWORD PTR __$EHRec$[ebp+8], 0
	mov	eax, DWORD PTR $T2[ebp]
	or	eax, 1
	mov	DWORD PTR $T2[ebp], eax
	mov	ecx, DWORD PTR tv193[ebp]
	call	??C?$_Tree_const_iterator@V?$_Tree_val@U?$_Tree_simple_types@UTelegram@@@std@@@std@@@std@@QBEPBUTelegram@@XZ ; std::_Tree_const_iterator<std::_Tree_val<std::_Tree_simple_types<Telegram> > >::operator->
	movsd	xmm0, QWORD PTR _CurrentTime$[ebp]
	comisd	xmm0, QWORD PTR [eax+16]
	jbe	SHORT $LN5@DispatchDe
	lea	ecx, DWORD PTR $T6[ebp]
	push	ecx
	mov	ecx, DWORD PTR _this$[ebp]
	call	?begin@?$_Tree@V?$_Tset_traits@UTelegram@@U?$less@UTelegram@@@std@@V?$allocator@UTelegram@@@3@$0A@@std@@@std@@QAE?AV?$_Tree_const_iterator@V?$_Tree_val@U?$_Tree_simple_types@UTelegram@@@std@@@std@@@2@XZ ; std::_Tree<std::_Tset_traits<Telegram,std::less<Telegram>,std::allocator<Telegram>,0> >::begin
	mov	DWORD PTR tv213[ebp], eax
	mov	edx, DWORD PTR tv213[ebp]
	mov	DWORD PTR tv198[ebp], edx
	mov	DWORD PTR __$EHRec$[ebp+8], 1
	mov	eax, DWORD PTR $T2[ebp]
	or	eax, 2
	mov	DWORD PTR $T2[ebp], eax
	mov	ecx, DWORD PTR tv198[ebp]
	call	??C?$_Tree_const_iterator@V?$_Tree_val@U?$_Tree_simple_types@UTelegram@@@std@@@std@@@std@@QBEPBUTelegram@@XZ ; std::_Tree_const_iterator<std::_Tree_val<std::_Tree_simple_types<Telegram> > >::operator->
	movsd	xmm0, QWORD PTR [eax+16]
	comisd	xmm0, QWORD PTR __real@0000000000000000
	jbe	SHORT $LN5@DispatchDe
	mov	DWORD PTR tv137[ebp], 1
	jmp	SHORT $LN6@DispatchDe
$LN5@DispatchDe:
	mov	DWORD PTR tv137[ebp], 0
$LN6@DispatchDe:
	mov	cl, BYTE PTR tv137[ebp]
	mov	BYTE PTR $T8[ebp], cl
	mov	DWORD PTR __$EHRec$[ebp+8], 0
	mov	edx, DWORD PTR $T2[ebp]
	and	edx, 2
	je	SHORT $LN11@DispatchDe
	and	DWORD PTR $T2[ebp], -3			; fffffffdH
	lea	ecx, DWORD PTR $T6[ebp]
	call	??1?$_Tree_const_iterator@V?$_Tree_val@U?$_Tree_simple_types@UTelegram@@@std@@@std@@@std@@QAE@XZ
$LN11@DispatchDe:
	mov	DWORD PTR __$EHRec$[ebp+8], -1
	mov	eax, DWORD PTR $T2[ebp]
	and	eax, 1
	je	SHORT $LN12@DispatchDe
	and	DWORD PTR $T2[ebp], -2			; fffffffeH
	lea	ecx, DWORD PTR $T7[ebp]
	call	??1?$_Tree_const_iterator@V?$_Tree_val@U?$_Tree_simple_types@UTelegram@@@std@@@std@@@std@@QAE@XZ
$LN12@DispatchDe:
	movzx	ecx, BYTE PTR $T8[ebp]
	test	ecx, ecx
	je	$LN3@DispatchDe

; 113  :          (PriorityQ.begin()->DispatchTime > 0) )
; 114  :   {
; 115  :     //read the telegram from the front of the queue
; 116  :     const Telegram& telegram = *PriorityQ.begin();

	lea	edx, DWORD PTR $T5[ebp]
	push	edx
	mov	ecx, DWORD PTR _this$[ebp]
	call	?begin@?$_Tree@V?$_Tset_traits@UTelegram@@U?$less@UTelegram@@@std@@V?$allocator@UTelegram@@@3@$0A@@std@@@std@@QAE?AV?$_Tree_const_iterator@V?$_Tree_val@U?$_Tree_simple_types@UTelegram@@@std@@@std@@@2@XZ ; std::_Tree<std::_Tset_traits<Telegram,std::less<Telegram>,std::allocator<Telegram>,0> >::begin
	mov	DWORD PTR tv217[ebp], eax
	mov	eax, DWORD PTR tv217[ebp]
	mov	DWORD PTR tv204[ebp], eax
	mov	DWORD PTR __$EHRec$[ebp+8], 2
	mov	ecx, DWORD PTR tv204[ebp]
	call	??D?$_Tree_const_iterator@V?$_Tree_val@U?$_Tree_simple_types@UTelegram@@@std@@@std@@@std@@QBEABUTelegram@@XZ ; std::_Tree_const_iterator<std::_Tree_val<std::_Tree_simple_types<Telegram> > >::operator*
	mov	DWORD PTR _telegram$10[ebp], eax
	mov	DWORD PTR __$EHRec$[ebp+8], -1
	lea	ecx, DWORD PTR $T5[ebp]
	call	??1?$_Tree_const_iterator@V?$_Tree_val@U?$_Tree_simple_types@UTelegram@@@std@@@std@@@std@@QAE@XZ

; 117  : 
; 118  :     //find the recipient
; 119  :     BaseGameEntity* pReceiver = EntityMgr->GetEntityFromID(telegram.Receiver);

	mov	ecx, DWORD PTR _telegram$10[ebp]
	mov	edx, DWORD PTR [ecx+4]
	push	edx
	call	?Instance@EntityManager@@SAPAV1@XZ	; EntityManager::Instance
	mov	ecx, eax
	call	?GetEntityFromID@EntityManager@@QBEPAVBaseGameEntity@@H@Z ; EntityManager::GetEntityFromID
	mov	DWORD PTR _pReceiver$9[ebp], eax

; 120  : 
; 121  :     #ifdef SHOW_MESSAGING_INFO
; 122  :     debug_con << "\nQueued telegram ready for dispatch: Sent to " 
; 123  :          << pReceiver->ID() << ". Msg is "<< telegram.Msg << "";
; 124  :     #endif
; 125  : 
; 126  :     //send the telegram to the recipient
; 127  :     Discharge(pReceiver, telegram);

	mov	eax, DWORD PTR _telegram$10[ebp]
	push	eax
	mov	ecx, DWORD PTR _pReceiver$9[ebp]
	push	ecx
	mov	ecx, DWORD PTR _this$[ebp]
	call	?Discharge@MessageDispatcher@@AAEXPAVBaseGameEntity@@ABUTelegram@@@Z ; MessageDispatcher::Discharge

; 128  : 
; 129  : 	//remove it from the queue
; 130  :     PriorityQ.erase(PriorityQ.begin());

	sub	esp, 12					; 0000000cH
	mov	edx, esp
	mov	DWORD PTR $T4[ebp], esp
	push	edx
	mov	ecx, DWORD PTR _this$[ebp]
	call	?begin@?$_Tree@V?$_Tset_traits@UTelegram@@U?$less@UTelegram@@@std@@V?$allocator@UTelegram@@@3@$0A@@std@@@std@@QAE?AV?$_Tree_const_iterator@V?$_Tree_val@U?$_Tree_simple_types@UTelegram@@@std@@@std@@@2@XZ ; std::_Tree<std::_Tset_traits<Telegram,std::less<Telegram>,std::allocator<Telegram>,0> >::begin
	mov	DWORD PTR tv206[ebp], eax
	lea	eax, DWORD PTR $T3[ebp]
	push	eax
	mov	ecx, DWORD PTR _this$[ebp]
	call	?erase@?$_Tree@V?$_Tset_traits@UTelegram@@U?$less@UTelegram@@@std@@V?$allocator@UTelegram@@@3@$0A@@std@@@std@@QAE?AV?$_Tree_const_iterator@V?$_Tree_val@U?$_Tree_simple_types@UTelegram@@@std@@@std@@@2@V32@@Z ; std::_Tree<std::_Tset_traits<Telegram,std::less<Telegram>,std::allocator<Telegram>,0> >::erase
	mov	DWORD PTR tv207[ebp], eax
	lea	ecx, DWORD PTR $T3[ebp]
	call	??1?$_Tree_const_iterator@V?$_Tree_val@U?$_Tree_simple_types@UTelegram@@@std@@@std@@@std@@QAE@XZ

; 131  :   }

	jmp	$LN2@DispatchDe
$LN3@DispatchDe:

; 132  : }

	mov	ecx, DWORD PTR __$EHRec$[ebp]
	mov	DWORD PTR fs:0, ecx
	pop	ecx
	pop	edi
	add	esp, 128				; 00000080H
	cmp	ebp, esp
	call	__RTC_CheckEsp
	mov	esp, ebp
	pop	ebp
	ret	0
_TEXT	ENDS
text$x	SEGMENT
__unwindfunclet$?DispatchDelayedMessages@MessageDispatcher@@QAEXXZ$0:
	mov	eax, DWORD PTR $T2[ebp]
	and	eax, 1
	je	$LN8@DispatchDe
	and	DWORD PTR $T2[ebp], -2			; fffffffeH
	lea	ecx, DWORD PTR $T7[ebp]
	jmp	??1?$_Tree_const_iterator@V?$_Tree_val@U?$_Tree_simple_types@UTelegram@@@std@@@std@@@std@@QAE@XZ
$LN8@DispatchDe:
	ret	0
__unwindfunclet$?DispatchDelayedMessages@MessageDispatcher@@QAEXXZ$1:
	mov	eax, DWORD PTR $T2[ebp]
	and	eax, 2
	je	$LN10@DispatchDe
	and	DWORD PTR $T2[ebp], -3			; fffffffdH
	lea	ecx, DWORD PTR $T6[ebp]
	jmp	??1?$_Tree_const_iterator@V?$_Tree_val@U?$_Tree_simple_types@UTelegram@@@std@@@std@@@std@@QAE@XZ
$LN10@DispatchDe:
	ret	0
__unwindfunclet$?DispatchDelayedMessages@MessageDispatcher@@QAEXXZ$2:
	lea	ecx, DWORD PTR $T5[ebp]
	jmp	??1?$_Tree_const_iterator@V?$_Tree_val@U?$_Tree_simple_types@UTelegram@@@std@@@std@@@std@@QAE@XZ
__ehhandler$?DispatchDelayedMessages@MessageDispatcher@@QAEXXZ:
	mov	edx, DWORD PTR [esp+8]
	lea	eax, DWORD PTR [edx+12]
	mov	ecx, DWORD PTR [edx-124]
	xor	ecx, eax
	call	@__security_check_cookie@4
	mov	eax, OFFSET __ehfuncinfo$?DispatchDelayedMessages@MessageDispatcher@@QAEXXZ
	jmp	___CxxFrameHandler3
text$x	ENDS
?DispatchDelayedMessages@MessageDispatcher@@QAEXXZ ENDP	; MessageDispatcher::DispatchDelayedMessages
; Function compile flags: /Odtp /RTCsu
; File e:\documents\cours\git\raven\common\messaging\messagedispatcher.cpp
_TEXT	SEGMENT
$T1 = -72						; size = 16
_CurrentTime$2 = -56					; size = 8
_telegram$ = -44					; size = 32
_pReceiver$ = -8					; size = 4
_this$ = -4						; size = 4
_delay$ = 8						; size = 8
_sender$ = 16						; size = 4
_receiver$ = 20						; size = 4
_msg$ = 24						; size = 4
_AdditionalInfo$ = 28					; size = 4
?DispatchMsg@MessageDispatcher@@QAEXNHHHPAX@Z PROC	; MessageDispatcher::DispatchMsg
; _this$ = ecx

; 49   : {

	push	ebp
	mov	ebp, esp
	sub	esp, 72					; 00000048H
	push	edi
	push	ecx
	lea	edi, DWORD PTR [ebp-72]
	mov	ecx, 18					; 00000012H
	mov	eax, -858993460				; ccccccccH
	rep stosd
	pop	ecx
	mov	DWORD PTR _this$[ebp], ecx

; 50   : 
; 51   :   //get a pointer to the receiver
; 52   :   BaseGameEntity* pReceiver = EntityMgr->GetEntityFromID(receiver);

	mov	eax, DWORD PTR _receiver$[ebp]
	push	eax
	call	?Instance@EntityManager@@SAPAV1@XZ	; EntityManager::Instance
	mov	ecx, eax
	call	?GetEntityFromID@EntityManager@@QBEPAVBaseGameEntity@@H@Z ; EntityManager::GetEntityFromID
	mov	DWORD PTR _pReceiver$[ebp], eax

; 53   : 
; 54   :   //make sure the receiver is valid
; 55   :   if (pReceiver == NULL)

	cmp	DWORD PTR _pReceiver$[ebp], 0
	jne	SHORT $LN2@DispatchMs

; 56   :   {
; 57   :     #ifdef SHOW_MESSAGING_INFO
; 58   :     debug_con << "\nWarning! No Receiver with ID of " << receiver << " found" << "";
; 59   :     #endif
; 60   : 
; 61   :     return;

	jmp	SHORT $LN1@DispatchMs
$LN2@DispatchMs:

; 62   :   }
; 63   :   
; 64   :   //create the telegram
; 65   :   Telegram telegram(0, sender, receiver, msg, AdditionalInfo);

	mov	ecx, DWORD PTR _AdditionalInfo$[ebp]
	push	ecx
	mov	edx, DWORD PTR _msg$[ebp]
	push	edx
	mov	eax, DWORD PTR _receiver$[ebp]
	push	eax
	mov	ecx, DWORD PTR _sender$[ebp]
	push	ecx
	sub	esp, 8
	xorps	xmm0, xmm0
	movsd	QWORD PTR [esp], xmm0
	lea	ecx, DWORD PTR _telegram$[ebp]
	call	??0Telegram@@QAE@NHHHPAX@Z		; Telegram::Telegram

; 66   :   
; 67   :   //if there is no delay, route telegram immediately                       
; 68   :   if (delay <= 0.0)                                                        

	xorps	xmm0, xmm0
	comisd	xmm0, QWORD PTR _delay$[ebp]
	jb	SHORT $LN3@DispatchMs

; 69   :   {
; 70   :     #ifdef SHOW_MESSAGING_INFO
; 71   :     debug_con << "\nTelegram dispatched at time: " << TickCounter->GetCurrentFrame()
; 72   :          << " by " << sender << " for " << receiver 
; 73   :          << ". Msg is " << msg << "";
; 74   :     #endif
; 75   : 
; 76   :     //send the telegram to the recipient
; 77   :     Discharge(pReceiver, telegram);

	lea	edx, DWORD PTR _telegram$[ebp]
	push	edx
	mov	eax, DWORD PTR _pReceiver$[ebp]
	push	eax
	mov	ecx, DWORD PTR _this$[ebp]
	call	?Discharge@MessageDispatcher@@AAEXPAVBaseGameEntity@@ABUTelegram@@@Z ; MessageDispatcher::Discharge

; 78   :   }
; 79   : 
; 80   :   //else calculate the time when the telegram should be dispatched
; 81   :   else

	jmp	SHORT $LN4@DispatchMs
$LN3@DispatchMs:

; 82   :   {
; 83   :     double CurrentTime = TickCounter->GetCurrentFrame(); 

	call	?Instance@FrameCounter@@SAPAV1@XZ	; FrameCounter::Instance
	mov	ecx, eax
	call	?GetCurrentFrame@FrameCounter@@QAEJXZ	; FrameCounter::GetCurrentFrame
	cvtsi2sd xmm0, eax
	movsd	QWORD PTR _CurrentTime$2[ebp], xmm0

; 84   : 
; 85   :     telegram.DispatchTime = CurrentTime + delay;

	movsd	xmm0, QWORD PTR _CurrentTime$2[ebp]
	addsd	xmm0, QWORD PTR _delay$[ebp]
	movsd	QWORD PTR _telegram$[ebp+16], xmm0

; 86   : 
; 87   :     //and put it in the queue
; 88   :     PriorityQ.insert(telegram);   

	lea	ecx, DWORD PTR _telegram$[ebp]
	push	ecx
	lea	edx, DWORD PTR $T1[ebp]
	push	edx
	mov	ecx, DWORD PTR _this$[ebp]
	call	??$insert@$0A@$0A@@?$_Tree@V?$_Tset_traits@UTelegram@@U?$less@UTelegram@@@std@@V?$allocator@UTelegram@@@3@$0A@@std@@@std@@QAE?AU?$pair@V?$_Tree_const_iterator@V?$_Tree_val@U?$_Tree_simple_types@UTelegram@@@std@@@std@@@std@@_N@1@ABUTelegram@@@Z ; std::_Tree<std::_Tset_traits<Telegram,std::less<Telegram>,std::allocator<Telegram>,0> >::insert<0,0>
	lea	ecx, DWORD PTR $T1[ebp]
	call	??1?$pair@V?$_Tree_const_iterator@V?$_Tree_val@U?$_Tree_simple_types@UTelegram@@@std@@@std@@@std@@_N@std@@QAE@XZ
$LN4@DispatchMs:
$LN1@DispatchMs:

; 89   : 
; 90   :     #ifdef SHOW_MESSAGING_INFO
; 91   :     debug_con << "\nDelayed telegram from " << sender << " recorded at time " 
; 92   :             << TickCounter->GetCurrentFrame() << " for " << receiver
; 93   :             << ". Msg is " << msg << "";
; 94   :     #endif
; 95   :   }
; 96   : }

	push	edx
	mov	ecx, ebp
	push	eax
	lea	edx, DWORD PTR $LN9@DispatchMs
	call	@_RTC_CheckStackVars@8
	pop	eax
	pop	edx
	pop	edi
	add	esp, 72					; 00000048H
	cmp	ebp, esp
	call	__RTC_CheckEsp
	mov	esp, ebp
	pop	ebp
	ret	24					; 00000018H
	npad	1
$LN9@DispatchMs:
	DD	1
	DD	$LN8@DispatchMs
$LN8@DispatchMs:
	DD	-44					; ffffffd4H
	DD	32					; 00000020H
	DD	$LN7@DispatchMs
$LN7@DispatchMs:
	DB	116					; 00000074H
	DB	101					; 00000065H
	DB	108					; 0000006cH
	DB	101					; 00000065H
	DB	103					; 00000067H
	DB	114					; 00000072H
	DB	97					; 00000061H
	DB	109					; 0000006dH
	DB	0
?DispatchMsg@MessageDispatcher@@QAEXNHHHPAX@Z ENDP	; MessageDispatcher::DispatchMsg
_TEXT	ENDS
; Function compile flags: /Odtp /RTCsu
; File e:\documents\cours\git\raven\common\messaging\messagedispatcher.cpp
_TEXT	SEGMENT
__$EHRec$ = -12						; size = 12
?Instance@MessageDispatcher@@SAPAV1@XZ PROC		; MessageDispatcher::Instance

; 17   : {

	push	ebp
	mov	ebp, esp
	push	-1
	push	__ehhandler$?Instance@MessageDispatcher@@SAPAV1@XZ
	mov	eax, DWORD PTR fs:0
	push	eax
	mov	eax, DWORD PTR ___security_cookie
	xor	eax, ebp
	push	eax
	lea	eax, DWORD PTR __$EHRec$[ebp]
	mov	DWORD PTR fs:0, eax

; 18   :   static MessageDispatcher instance; 

	mov	eax, DWORD PTR __tls_index
	mov	ecx, DWORD PTR fs:__tls_array
	mov	edx, DWORD PTR [ecx+eax*4]
	mov	eax, DWORD PTR ?$TSS0@?1??Instance@MessageDispatcher@@SAPAV2@XZ@4HA
	cmp	eax, DWORD PTR __Init_thread_epoch[edx]
	jle	SHORT $LN2@Instance
	push	OFFSET ?$TSS0@?1??Instance@MessageDispatcher@@SAPAV2@XZ@4HA
	call	__Init_thread_header
	add	esp, 4
	cmp	DWORD PTR ?$TSS0@?1??Instance@MessageDispatcher@@SAPAV2@XZ@4HA, -1
	jne	SHORT $LN2@Instance
	mov	DWORD PTR __$EHRec$[ebp+8], 0
	mov	ecx, OFFSET ?instance@?1??Instance@MessageDispatcher@@SAPAV2@XZ@4V2@A
	call	??0MessageDispatcher@@AAE@XZ		; MessageDispatcher::MessageDispatcher
	push	OFFSET ??__Finstance@?1??Instance@MessageDispatcher@@SAPAV1@XZ@YAXXZ ; `MessageDispatcher::Instance'::`2'::`dynamic atexit destructor for 'instance''
	call	_atexit
	add	esp, 4
	mov	DWORD PTR __$EHRec$[ebp+8], -1
	push	OFFSET ?$TSS0@?1??Instance@MessageDispatcher@@SAPAV2@XZ@4HA
	call	__Init_thread_footer
	add	esp, 4
$LN2@Instance:

; 19   :   
; 20   :   return &instance;

	mov	eax, OFFSET ?instance@?1??Instance@MessageDispatcher@@SAPAV2@XZ@4V2@A

; 21   : }

	mov	ecx, DWORD PTR __$EHRec$[ebp]
	mov	DWORD PTR fs:0, ecx
	pop	ecx
	add	esp, 12					; 0000000cH
	cmp	ebp, esp
	call	__RTC_CheckEsp
	mov	esp, ebp
	pop	ebp
	ret	0
_TEXT	ENDS
text$x	SEGMENT
__unwindfunclet$?Instance@MessageDispatcher@@SAPAV1@XZ$0:
	push	OFFSET ?$TSS0@?1??Instance@MessageDispatcher@@SAPAV2@XZ@4HA
	call	__Init_thread_abort
	pop	ecx
	ret	0
__ehhandler$?Instance@MessageDispatcher@@SAPAV1@XZ:
	mov	edx, DWORD PTR [esp+8]
	lea	eax, DWORD PTR [edx+12]
	mov	ecx, DWORD PTR [edx-4]
	xor	ecx, eax
	call	@__security_check_cookie@4
	mov	eax, OFFSET __ehfuncinfo$?Instance@MessageDispatcher@@SAPAV1@XZ
	jmp	___CxxFrameHandler3
text$x	ENDS
?Instance@MessageDispatcher@@SAPAV1@XZ ENDP		; MessageDispatcher::Instance
; Function compile flags: /Odtp /RTCsu
; File e:\documents\cours\git\raven\common\messaging\messagedispatcher.h
;	COMDAT ??0MessageDispatcher@@AAE@XZ
_TEXT	SEGMENT
_this$ = -4						; size = 4
??0MessageDispatcher@@AAE@XZ PROC			; MessageDispatcher::MessageDispatcher, COMDAT
; _this$ = ecx

; 47   :   MessageDispatcher(){}

	push	ebp
	mov	ebp, esp
	push	ecx
	mov	DWORD PTR [ebp-4], -858993460		; ccccccccH
	mov	DWORD PTR _this$[ebp], ecx
	mov	ecx, DWORD PTR _this$[ebp]
	call	??0?$set@UTelegram@@U?$less@UTelegram@@@std@@V?$allocator@UTelegram@@@3@@std@@QAE@XZ ; std::set<Telegram,std::less<Telegram>,std::allocator<Telegram> >::set<Telegram,std::less<Telegram>,std::allocator<Telegram> >
	mov	eax, DWORD PTR _this$[ebp]
	add	esp, 4
	cmp	ebp, esp
	call	__RTC_CheckEsp
	mov	esp, ebp
	pop	ebp
	ret	0
??0MessageDispatcher@@AAE@XZ ENDP			; MessageDispatcher::MessageDispatcher
_TEXT	ENDS
; Function compile flags: /Odtp /RTCsu
; File e:\documents\cours\git\raven\common\messaging\messagedispatcher.cpp
_TEXT	SEGMENT
_this$ = -4						; size = 4
_pReceiver$ = 8						; size = 4
_telegram$ = 12						; size = 4
?Discharge@MessageDispatcher@@AAEXPAVBaseGameEntity@@ABUTelegram@@@Z PROC ; MessageDispatcher::Discharge
; _this$ = ecx

; 28   : {

	push	ebp
	mov	ebp, esp
	push	ecx
	push	esi
	mov	DWORD PTR [ebp-4], -858993460		; ccccccccH
	mov	DWORD PTR _this$[ebp], ecx

; 29   :   if (!pReceiver->HandleMessage(telegram))

	mov	esi, esp
	mov	eax, DWORD PTR _telegram$[ebp]
	push	eax
	mov	ecx, DWORD PTR _pReceiver$[ebp]
	mov	edx, DWORD PTR [ecx]
	mov	ecx, DWORD PTR _pReceiver$[ebp]
	mov	eax, DWORD PTR [edx+12]
	call	eax
	cmp	esi, esp
	call	__RTC_CheckEsp

; 30   :   {
; 31   :     //telegram could not be handled
; 32   :     #ifdef SHOW_MESSAGING_INFO
; 33   :     debug_con << "Message not handled" << "";
; 34   :     #endif
; 35   :   }
; 36   : }

	pop	esi
	add	esp, 4
	cmp	ebp, esp
	call	__RTC_CheckEsp
	mov	esp, ebp
	pop	ebp
	ret	8
?Discharge@MessageDispatcher@@AAEXPAVBaseGameEntity@@ABUTelegram@@@Z ENDP ; MessageDispatcher::Discharge
_TEXT	ENDS
; Function compile flags: /Odtp /RTCsu
;	COMDAT ??1?$set@UTelegram@@U?$less@UTelegram@@@std@@V?$allocator@UTelegram@@@3@@std@@QAE@XZ
_TEXT	SEGMENT
_this$ = -4						; size = 4
??1?$set@UTelegram@@U?$less@UTelegram@@@std@@V?$allocator@UTelegram@@@3@@std@@QAE@XZ PROC ; std::set<Telegram,std::less<Telegram>,std::allocator<Telegram> >::~set<Telegram,std::less<Telegram>,std::allocator<Telegram> >, COMDAT
; _this$ = ecx
	push	ebp
	mov	ebp, esp
	push	ecx
	mov	DWORD PTR [ebp-4], -858993460		; ccccccccH
	mov	DWORD PTR _this$[ebp], ecx
	mov	ecx, DWORD PTR _this$[ebp]
	call	??1?$_Tree@V?$_Tset_traits@UTelegram@@U?$less@UTelegram@@@std@@V?$allocator@UTelegram@@@3@$0A@@std@@@std@@QAE@XZ ; std::_Tree<std::_Tset_traits<Telegram,std::less<Telegram>,std::allocator<Telegram>,0> >::~_Tree<std::_Tset_traits<Telegram,std::less<Telegram>,std::allocator<Telegram>,0> >
	add	esp, 4
	cmp	ebp, esp
	call	__RTC_CheckEsp
	mov	esp, ebp
	pop	ebp
	ret	0
??1?$set@UTelegram@@U?$less@UTelegram@@@std@@V?$allocator@UTelegram@@@3@@std@@QAE@XZ ENDP ; std::set<Telegram,std::less<Telegram>,std::allocator<Telegram> >::~set<Telegram,std::less<Telegram>,std::allocator<Telegram> >
_TEXT	ENDS
; Function compile flags: /Odtp /RTCsu
; File c:\program files (x86)\microsoft visual studio 14.0\vc\include\set
;	COMDAT ??0?$set@UTelegram@@U?$less@UTelegram@@@std@@V?$allocator@UTelegram@@@3@@std@@QAE@XZ
_TEXT	SEGMENT
$T1 = -5						; size = 1
_this$ = -4						; size = 4
??0?$set@UTelegram@@U?$less@UTelegram@@@std@@V?$allocator@UTelegram@@@3@@std@@QAE@XZ PROC ; std::set<Telegram,std::less<Telegram>,std::allocator<Telegram> >::set<Telegram,std::less<Telegram>,std::allocator<Telegram> >, COMDAT
; _this$ = ecx

; 69   : 		{	// construct empty set from defaults

	push	ebp
	mov	ebp, esp
	sub	esp, 8
	mov	DWORD PTR [ebp-8], -858993460		; ccccccccH
	mov	DWORD PTR [ebp-4], -858993460		; ccccccccH
	mov	DWORD PTR _this$[ebp], ecx

; 68   : 		: _Mybase(key_compare())

	lea	eax, DWORD PTR $T1[ebp]
	push	eax
	mov	ecx, DWORD PTR _this$[ebp]
	call	??0?$_Tree@V?$_Tset_traits@UTelegram@@U?$less@UTelegram@@@std@@V?$allocator@UTelegram@@@3@$0A@@std@@@std@@QAE@ABU?$less@UTelegram@@@1@@Z ; std::_Tree<std::_Tset_traits<Telegram,std::less<Telegram>,std::allocator<Telegram>,0> >::_Tree<std::_Tset_traits<Telegram,std::less<Telegram>,std::allocator<Telegram>,0> >

; 70   : 		}

	mov	eax, DWORD PTR _this$[ebp]
	add	esp, 8
	cmp	ebp, esp
	call	__RTC_CheckEsp
	mov	esp, ebp
	pop	ebp
	ret	0
??0?$set@UTelegram@@U?$less@UTelegram@@@std@@V?$allocator@UTelegram@@@3@@std@@QAE@XZ ENDP ; std::set<Telegram,std::less<Telegram>,std::allocator<Telegram> >::set<Telegram,std::less<Telegram>,std::allocator<Telegram> >
_TEXT	ENDS
; Function compile flags: /Odtp /RTCsu
; File c:\program files (x86)\microsoft visual studio 14.0\vc\include\xtree
;	COMDAT ?_Key@?$_Tree@V?$_Tset_traits@UTelegram@@U?$less@UTelegram@@@std@@V?$allocator@UTelegram@@@3@$0A@@std@@@std@@IBEABUTelegram@@PAU?$_Tree_node@UTelegram@@PAX@2@@Z
_TEXT	SEGMENT
_this$ = -4						; size = 4
__Pnode$ = 8						; size = 4
?_Key@?$_Tree@V?$_Tset_traits@UTelegram@@U?$less@UTelegram@@@std@@V?$allocator@UTelegram@@@3@$0A@@std@@@std@@IBEABUTelegram@@PAU?$_Tree_node@UTelegram@@PAX@2@@Z PROC ; std::_Tree<std::_Tset_traits<Telegram,std::less<Telegram>,std::allocator<Telegram>,0> >::_Key, COMDAT
; _this$ = ecx

; 2177 : 		{	// return reference to key in node

	push	ebp
	mov	ebp, esp
	push	ecx
	mov	DWORD PTR [ebp-4], -858993460		; ccccccccH
	mov	DWORD PTR _this$[ebp], ecx

; 2178 : 		return ((const key_type&)this->_Kfn(this->_Myval(_Pnode)));

	mov	eax, DWORD PTR __Pnode$[ebp]
	push	eax
	call	?_Myval@?$_Tree_comp_alloc@V?$_Tset_traits@UTelegram@@U?$less@UTelegram@@@std@@V?$allocator@UTelegram@@@3@$0A@@std@@@std@@SAAAUTelegram@@PAU?$_Tree_node@UTelegram@@PAX@2@@Z ; std::_Tree_comp_alloc<std::_Tset_traits<Telegram,std::less<Telegram>,std::allocator<Telegram>,0> >::_Myval
	add	esp, 4
	push	eax
	mov	ecx, DWORD PTR _this$[ebp]
	call	?_Kfn@?$_Tree@V?$_Tset_traits@UTelegram@@U?$less@UTelegram@@@std@@V?$allocator@UTelegram@@@3@$0A@@std@@@std@@IBEABUTelegram@@ABU3@@Z ; std::_Tree<std::_Tset_traits<Telegram,std::less<Telegram>,std::allocator<Telegram>,0> >::_Kfn

; 2179 : 		}

	add	esp, 4
	cmp	ebp, esp
	call	__RTC_CheckEsp
	mov	esp, ebp
	pop	ebp
	ret	4
?_Key@?$_Tree@V?$_Tset_traits@UTelegram@@U?$less@UTelegram@@@std@@V?$allocator@UTelegram@@@3@$0A@@std@@@std@@IBEABUTelegram@@PAU?$_Tree_node@UTelegram@@PAX@2@@Z ENDP ; std::_Tree<std::_Tset_traits<Telegram,std::less<Telegram>,std::allocator<Telegram>,0> >::_Key
_TEXT	ENDS
; Function compile flags: /Odtp /RTCsu
; File c:\program files (x86)\microsoft visual studio 14.0\vc\include\xtree
;	COMDAT ?_Kfn@?$_Tree@V?$_Tset_traits@UTelegram@@U?$less@UTelegram@@@std@@V?$allocator@UTelegram@@@3@$0A@@std@@@std@@IBEABUTelegram@@ABU3@@Z
_TEXT	SEGMENT
_this$ = -4						; size = 4
__Val$ = 8						; size = 4
?_Kfn@?$_Tree@V?$_Tset_traits@UTelegram@@U?$less@UTelegram@@@std@@V?$allocator@UTelegram@@@3@$0A@@std@@@std@@IBEABUTelegram@@ABU3@@Z PROC ; std::_Tree<std::_Tset_traits<Telegram,std::less<Telegram>,std::allocator<Telegram>,0> >::_Kfn, COMDAT
; _this$ = ecx

; 2172 : 		{	// get key from value

	push	ebp
	mov	ebp, esp
	push	ecx
	mov	DWORD PTR [ebp-4], -858993460		; ccccccccH
	mov	DWORD PTR _this$[ebp], ecx

; 2173 : 		return (_Traits::_Kfn(_Val));

	mov	eax, DWORD PTR __Val$[ebp]
	push	eax
	call	?_Kfn@?$_Tset_traits@UTelegram@@U?$less@UTelegram@@@std@@V?$allocator@UTelegram@@@3@$0A@@std@@SAABUTelegram@@ABU3@@Z ; std::_Tset_traits<Telegram,std::less<Telegram>,std::allocator<Telegram>,0>::_Kfn
	add	esp, 4

; 2174 : 		}

	add	esp, 4
	cmp	ebp, esp
	call	__RTC_CheckEsp
	mov	esp, ebp
	pop	ebp
	ret	4
?_Kfn@?$_Tree@V?$_Tset_traits@UTelegram@@U?$less@UTelegram@@@std@@V?$allocator@UTelegram@@@3@$0A@@std@@@std@@IBEABUTelegram@@ABU3@@Z ENDP ; std::_Tree<std::_Tset_traits<Telegram,std::less<Telegram>,std::allocator<Telegram>,0> >::_Kfn
_TEXT	ENDS
; Function compile flags: /Odtp /RTCsu
; File c:\program files (x86)\microsoft visual studio 14.0\vc\include\xtree
;	COMDAT ?_Tidy@?$_Tree@V?$_Tset_traits@UTelegram@@U?$less@UTelegram@@@std@@V?$allocator@UTelegram@@@3@$0A@@std@@@std@@IAEXXZ
_TEXT	SEGMENT
tv129 = -36						; size = 4
tv132 = -32						; size = 4
tv128 = -28						; size = 4
$T1 = -24						; size = 12
$T2 = -12						; size = 4
$T3 = -8						; size = 4
_this$ = -4						; size = 4
?_Tidy@?$_Tree@V?$_Tset_traits@UTelegram@@U?$less@UTelegram@@@std@@V?$allocator@UTelegram@@@3@$0A@@std@@@std@@IAEXXZ PROC ; std::_Tree<std::_Tset_traits<Telegram,std::less<Telegram>,std::allocator<Telegram>,0> >::_Tidy, COMDAT
; _this$ = ecx

; 2167 : 		{	// free all storage

	push	ebp
	mov	ebp, esp
	sub	esp, 36					; 00000024H
	mov	eax, -858993460				; ccccccccH
	mov	DWORD PTR [ebp-36], eax
	mov	DWORD PTR [ebp-32], eax
	mov	DWORD PTR [ebp-28], eax
	mov	DWORD PTR [ebp-24], eax
	mov	DWORD PTR [ebp-20], eax
	mov	DWORD PTR [ebp-16], eax
	mov	DWORD PTR [ebp-12], eax
	mov	DWORD PTR [ebp-8], eax
	mov	DWORD PTR [ebp-4], eax
	mov	DWORD PTR _this$[ebp], ecx

; 2168 : 		erase(begin(), end());

	sub	esp, 12					; 0000000cH
	mov	eax, esp
	mov	DWORD PTR $T3[ebp], esp
	push	eax
	mov	ecx, DWORD PTR _this$[ebp]
	call	?end@?$_Tree@V?$_Tset_traits@UTelegram@@U?$less@UTelegram@@@std@@V?$allocator@UTelegram@@@3@$0A@@std@@@std@@QAE?AV?$_Tree_const_iterator@V?$_Tree_val@U?$_Tree_simple_types@UTelegram@@@std@@@std@@@2@XZ ; std::_Tree<std::_Tset_traits<Telegram,std::less<Telegram>,std::allocator<Telegram>,0> >::end
	mov	DWORD PTR tv128[ebp], eax
	sub	esp, 12					; 0000000cH
	mov	ecx, esp
	mov	DWORD PTR $T2[ebp], esp
	push	ecx
	mov	ecx, DWORD PTR _this$[ebp]
	call	?begin@?$_Tree@V?$_Tset_traits@UTelegram@@U?$less@UTelegram@@@std@@V?$allocator@UTelegram@@@3@$0A@@std@@@std@@QAE?AV?$_Tree_const_iterator@V?$_Tree_val@U?$_Tree_simple_types@UTelegram@@@std@@@std@@@2@XZ ; std::_Tree<std::_Tset_traits<Telegram,std::less<Telegram>,std::allocator<Telegram>,0> >::begin
	mov	DWORD PTR tv132[ebp], eax
	lea	edx, DWORD PTR $T1[ebp]
	push	edx
	mov	ecx, DWORD PTR _this$[ebp]
	call	?erase@?$_Tree@V?$_Tset_traits@UTelegram@@U?$less@UTelegram@@@std@@V?$allocator@UTelegram@@@3@$0A@@std@@@std@@QAE?AV?$_Tree_const_iterator@V?$_Tree_val@U?$_Tree_simple_types@UTelegram@@@std@@@std@@@2@V32@0@Z ; std::_Tree<std::_Tset_traits<Telegram,std::less<Telegram>,std::allocator<Telegram>,0> >::erase
	mov	DWORD PTR tv129[ebp], eax
	lea	ecx, DWORD PTR $T1[ebp]
	call	??1?$_Tree_const_iterator@V?$_Tree_val@U?$_Tree_simple_types@UTelegram@@@std@@@std@@@std@@QAE@XZ

; 2169 : 		}

	add	esp, 36					; 00000024H
	cmp	ebp, esp
	call	__RTC_CheckEsp
	mov	esp, ebp
	pop	ebp
	ret	0
?_Tidy@?$_Tree@V?$_Tset_traits@UTelegram@@U?$less@UTelegram@@@std@@V?$allocator@UTelegram@@@3@$0A@@std@@@std@@IAEXXZ ENDP ; std::_Tree<std::_Tset_traits<Telegram,std::less<Telegram>,std::allocator<Telegram>,0> >::_Tidy
_TEXT	ENDS
; Function compile flags: /Odtp /RTCsu
; File c:\program files (x86)\microsoft visual studio 14.0\vc\include\xtree
;	COMDAT ?_Orphan_ptr@?$_Tree@V?$_Tset_traits@UTelegram@@U?$less@UTelegram@@@std@@V?$allocator@UTelegram@@@3@$0A@@std@@@std@@IAEXPAU?$_Tree_node@UTelegram@@PAX@2@@Z
_TEXT	SEGMENT
__Pnext$ = -32						; size = 4
__Lock$ = -24						; size = 4
_this$ = -16						; size = 4
__$EHRec$ = -12						; size = 12
__Ptr$ = 8						; size = 4
?_Orphan_ptr@?$_Tree@V?$_Tset_traits@UTelegram@@U?$less@UTelegram@@@std@@V?$allocator@UTelegram@@@3@$0A@@std@@@std@@IAEXPAU?$_Tree_node@UTelegram@@PAX@2@@Z PROC ; std::_Tree<std::_Tset_traits<Telegram,std::less<Telegram>,std::allocator<Telegram>,0> >::_Orphan_ptr, COMDAT
; _this$ = ecx

; 2150 : 		{	// orphan iterators with specified node pointers

	push	ebp
	mov	ebp, esp
	push	-1
	push	__ehhandler$?_Orphan_ptr@?$_Tree@V?$_Tset_traits@UTelegram@@U?$less@UTelegram@@@std@@V?$allocator@UTelegram@@@3@$0A@@std@@@std@@IAEXPAU?$_Tree_node@UTelegram@@PAX@2@@Z
	mov	eax, DWORD PTR fs:0
	push	eax
	sub	esp, 20					; 00000014H
	push	esi
	mov	eax, -858993460				; ccccccccH
	mov	DWORD PTR [ebp-32], eax
	mov	DWORD PTR [ebp-28], eax
	mov	DWORD PTR [ebp-24], eax
	mov	DWORD PTR [ebp-20], eax
	mov	DWORD PTR [ebp-16], eax
	mov	eax, DWORD PTR ___security_cookie
	xor	eax, ebp
	push	eax
	lea	eax, DWORD PTR __$EHRec$[ebp]
	mov	DWORD PTR fs:0, eax
	mov	DWORD PTR _this$[ebp], ecx

; 2151 : 		_Lockit _Lock(_LOCK_DEBUG);

	push	3
	lea	ecx, DWORD PTR __Lock$[ebp]
	call	??0_Lockit@std@@QAE@H@Z			; std::_Lockit::_Lockit
	mov	DWORD PTR __$EHRec$[ebp+8], 0

; 2152 : 		const_iterator **_Pnext = (const_iterator **)this->_Getpfirst();

	mov	ecx, DWORD PTR _this$[ebp]
	call	?_Getpfirst@?$_Tree_comp_alloc@V?$_Tset_traits@UTelegram@@U?$less@UTelegram@@@std@@V?$allocator@UTelegram@@@3@$0A@@std@@@std@@QBEPAPAU_Iterator_base12@2@XZ ; std::_Tree_comp_alloc<std::_Tset_traits<Telegram,std::less<Telegram>,std::allocator<Telegram>,0> >::_Getpfirst
	mov	DWORD PTR __Pnext$[ebp], eax

; 2153 : 		if (_Pnext != 0)

	cmp	DWORD PTR __Pnext$[ebp], 0
	je	SHORT $LN4@Orphan_ptr
$LN2@Orphan_ptr:

; 2154 : 			while (*_Pnext != 0)

	mov	eax, DWORD PTR __Pnext$[ebp]
	cmp	DWORD PTR [eax], 0
	je	SHORT $LN4@Orphan_ptr

; 2155 : 				if ((*_Pnext)->_Ptr == this->_Myhead()
; 2156 : 					|| _Ptr != nullptr_t{} && (*_Pnext)->_Ptr != _Ptr)

	mov	ecx, DWORD PTR __Pnext$[ebp]
	mov	esi, DWORD PTR [ecx]
	mov	ecx, DWORD PTR _this$[ebp]
	call	?_Myhead@?$_Tree_comp_alloc@V?$_Tset_traits@UTelegram@@U?$less@UTelegram@@@std@@V?$allocator@UTelegram@@@3@$0A@@std@@@std@@QAEAAPAU?$_Tree_node@UTelegram@@PAX@2@XZ ; std::_Tree_comp_alloc<std::_Tset_traits<Telegram,std::less<Telegram>,std::allocator<Telegram>,0> >::_Myhead
	mov	edx, DWORD PTR [esi+8]
	cmp	edx, DWORD PTR [eax]
	je	SHORT $LN7@Orphan_ptr
	cmp	DWORD PTR __Ptr$[ebp], 0
	je	SHORT $LN5@Orphan_ptr
	mov	eax, DWORD PTR __Pnext$[ebp]
	mov	ecx, DWORD PTR [eax]
	mov	edx, DWORD PTR [ecx+8]
	cmp	edx, DWORD PTR __Ptr$[ebp]
	je	SHORT $LN5@Orphan_ptr
$LN7@Orphan_ptr:

; 2157 : 					_Pnext = (const_iterator **)(*_Pnext)->_Getpnext();

	mov	eax, DWORD PTR __Pnext$[ebp]
	mov	ecx, DWORD PTR [eax]
	call	?_Getpnext@_Iterator_base12@std@@QAEPAPAU12@XZ ; std::_Iterator_base12::_Getpnext
	mov	DWORD PTR __Pnext$[ebp], eax

; 2158 : 				else

	jmp	SHORT $LN6@Orphan_ptr
$LN5@Orphan_ptr:

; 2159 : 					{	// orphan the iterator
; 2160 : 					(*_Pnext)->_Clrcont();

	mov	ecx, DWORD PTR __Pnext$[ebp]
	mov	ecx, DWORD PTR [ecx]
	call	?_Clrcont@_Iterator_base12@std@@QAEXXZ	; std::_Iterator_base12::_Clrcont

; 2161 : 					*_Pnext = *(const_iterator **)(*_Pnext)->_Getpnext();

	mov	edx, DWORD PTR __Pnext$[ebp]
	mov	ecx, DWORD PTR [edx]
	call	?_Getpnext@_Iterator_base12@std@@QAEPAPAU12@XZ ; std::_Iterator_base12::_Getpnext
	mov	ecx, DWORD PTR __Pnext$[ebp]
	mov	edx, DWORD PTR [eax]
	mov	DWORD PTR [ecx], edx
$LN6@Orphan_ptr:

; 2162 : 					}

	jmp	SHORT $LN2@Orphan_ptr
$LN4@Orphan_ptr:

; 2163 : 		}

	mov	DWORD PTR __$EHRec$[ebp+8], -1
	lea	ecx, DWORD PTR __Lock$[ebp]
	call	??1_Lockit@std@@QAE@XZ			; std::_Lockit::~_Lockit
	push	edx
	mov	ecx, ebp
	push	eax
	lea	edx, DWORD PTR $LN13@Orphan_ptr
	call	@_RTC_CheckStackVars@8
	pop	eax
	pop	edx
	mov	ecx, DWORD PTR __$EHRec$[ebp]
	mov	DWORD PTR fs:0, ecx
	pop	ecx
	pop	esi
	add	esp, 32					; 00000020H
	cmp	ebp, esp
	call	__RTC_CheckEsp
	mov	esp, ebp
	pop	ebp
	ret	4
	npad	2
$LN13@Orphan_ptr:
	DD	1
	DD	$LN12@Orphan_ptr
$LN12@Orphan_ptr:
	DD	-24					; ffffffe8H
	DD	4
	DD	$LN10@Orphan_ptr
$LN10@Orphan_ptr:
	DB	95					; 0000005fH
	DB	76					; 0000004cH
	DB	111					; 0000006fH
	DB	99					; 00000063H
	DB	107					; 0000006bH
	DB	0
_TEXT	ENDS
;	COMDAT text$x
text$x	SEGMENT
__unwindfunclet$?_Orphan_ptr@?$_Tree@V?$_Tset_traits@UTelegram@@U?$less@UTelegram@@@std@@V?$allocator@UTelegram@@@3@$0A@@std@@@std@@IAEXPAU?$_Tree_node@UTelegram@@PAX@2@@Z$0:
	lea	ecx, DWORD PTR __Lock$[ebp]
	jmp	??1_Lockit@std@@QAE@XZ			; std::_Lockit::~_Lockit
__ehhandler$?_Orphan_ptr@?$_Tree@V?$_Tset_traits@UTelegram@@U?$less@UTelegram@@@std@@V?$allocator@UTelegram@@@3@$0A@@std@@@std@@IAEXPAU?$_Tree_node@UTelegram@@PAX@2@@Z:
	mov	edx, DWORD PTR [esp+8]
	lea	eax, DWORD PTR [edx+12]
	mov	ecx, DWORD PTR [edx-28]
	xor	ecx, eax
	call	@__security_check_cookie@4
	mov	eax, OFFSET __ehfuncinfo$?_Orphan_ptr@?$_Tree@V?$_Tset_traits@UTelegram@@U?$less@UTelegram@@@std@@V?$allocator@UTelegram@@@3@$0A@@std@@@std@@IAEXPAU?$_Tree_node@UTelegram@@PAX@2@@Z
	jmp	___CxxFrameHandler3
text$x	ENDS
?_Orphan_ptr@?$_Tree@V?$_Tset_traits@UTelegram@@U?$less@UTelegram@@@std@@V?$allocator@UTelegram@@@3@$0A@@std@@@std@@IAEXPAU?$_Tree_node@UTelegram@@PAX@2@@Z ENDP ; std::_Tree<std::_Tset_traits<Telegram,std::less<Telegram>,std::allocator<Telegram>,0> >::_Orphan_ptr
; Function compile flags: /Odtp /RTCsu
; File c:\program files (x86)\microsoft visual studio 14.0\vc\include\xtree
;	COMDAT ?_Rrotate@?$_Tree@V?$_Tset_traits@UTelegram@@U?$less@UTelegram@@@std@@V?$allocator@UTelegram@@@3@$0A@@std@@@std@@IAEXPAU?$_Tree_node@UTelegram@@PAX@2@@Z
_TEXT	SEGMENT
__Pnode$ = -8						; size = 4
_this$ = -4						; size = 4
__Wherenode$ = 8					; size = 4
?_Rrotate@?$_Tree@V?$_Tset_traits@UTelegram@@U?$less@UTelegram@@@std@@V?$allocator@UTelegram@@@3@$0A@@std@@@std@@IAEXPAU?$_Tree_node@UTelegram@@PAX@2@@Z PROC ; std::_Tree<std::_Tset_traits<Telegram,std::less<Telegram>,std::allocator<Telegram>,0> >::_Rrotate, COMDAT
; _this$ = ecx

; 2111 : 		{	// promote left node to root of subtree

	push	ebp
	mov	ebp, esp
	sub	esp, 8
	push	esi
	mov	DWORD PTR [ebp-8], -858993460		; ccccccccH
	mov	DWORD PTR [ebp-4], -858993460		; ccccccccH
	mov	DWORD PTR _this$[ebp], ecx

; 2112 : 		_Nodeptr _Pnode = this->_Left(_Wherenode);

	mov	eax, DWORD PTR __Wherenode$[ebp]
	push	eax
	call	?_Left@?$_Tree_comp_alloc@V?$_Tset_traits@UTelegram@@U?$less@UTelegram@@@std@@V?$allocator@UTelegram@@@3@$0A@@std@@@std@@SAAAPAU?$_Tree_node@UTelegram@@PAX@2@PAU32@@Z ; std::_Tree_comp_alloc<std::_Tset_traits<Telegram,std::less<Telegram>,std::allocator<Telegram>,0> >::_Left
	add	esp, 4
	mov	ecx, DWORD PTR [eax]
	mov	DWORD PTR __Pnode$[ebp], ecx

; 2113 : 		this->_Left(_Wherenode) = this->_Right(_Pnode);

	mov	edx, DWORD PTR __Pnode$[ebp]
	push	edx
	call	?_Right@?$_Tree_comp_alloc@V?$_Tset_traits@UTelegram@@U?$less@UTelegram@@@std@@V?$allocator@UTelegram@@@3@$0A@@std@@@std@@SAAAPAU?$_Tree_node@UTelegram@@PAX@2@PAU32@@Z ; std::_Tree_comp_alloc<std::_Tset_traits<Telegram,std::less<Telegram>,std::allocator<Telegram>,0> >::_Right
	add	esp, 4
	mov	esi, eax
	mov	eax, DWORD PTR __Wherenode$[ebp]
	push	eax
	call	?_Left@?$_Tree_comp_alloc@V?$_Tset_traits@UTelegram@@U?$less@UTelegram@@@std@@V?$allocator@UTelegram@@@3@$0A@@std@@@std@@SAAAPAU?$_Tree_node@UTelegram@@PAX@2@PAU32@@Z ; std::_Tree_comp_alloc<std::_Tset_traits<Telegram,std::less<Telegram>,std::allocator<Telegram>,0> >::_Left
	add	esp, 4
	mov	ecx, DWORD PTR [esi]
	mov	DWORD PTR [eax], ecx

; 2114 : 
; 2115 : 		if (!this->_Isnil(this->_Right(_Pnode)))

	mov	edx, DWORD PTR __Pnode$[ebp]
	push	edx
	call	?_Right@?$_Tree_comp_alloc@V?$_Tset_traits@UTelegram@@U?$less@UTelegram@@@std@@V?$allocator@UTelegram@@@3@$0A@@std@@@std@@SAAAPAU?$_Tree_node@UTelegram@@PAX@2@PAU32@@Z ; std::_Tree_comp_alloc<std::_Tset_traits<Telegram,std::less<Telegram>,std::allocator<Telegram>,0> >::_Right
	add	esp, 4
	mov	eax, DWORD PTR [eax]
	push	eax
	call	?_Isnil@?$_Tree_comp_alloc@V?$_Tset_traits@UTelegram@@U?$less@UTelegram@@@std@@V?$allocator@UTelegram@@@3@$0A@@std@@@std@@SAAADPAU?$_Tree_node@UTelegram@@PAX@2@@Z ; std::_Tree_comp_alloc<std::_Tset_traits<Telegram,std::less<Telegram>,std::allocator<Telegram>,0> >::_Isnil
	add	esp, 4
	movsx	ecx, BYTE PTR [eax]
	test	ecx, ecx
	jne	SHORT $LN2@Rrotate

; 2116 : 			this->_Parent(this->_Right(_Pnode)) = _Wherenode;

	mov	edx, DWORD PTR __Pnode$[ebp]
	push	edx
	call	?_Right@?$_Tree_comp_alloc@V?$_Tset_traits@UTelegram@@U?$less@UTelegram@@@std@@V?$allocator@UTelegram@@@3@$0A@@std@@@std@@SAAAPAU?$_Tree_node@UTelegram@@PAX@2@PAU32@@Z ; std::_Tree_comp_alloc<std::_Tset_traits<Telegram,std::less<Telegram>,std::allocator<Telegram>,0> >::_Right
	add	esp, 4
	mov	eax, DWORD PTR [eax]
	push	eax
	call	?_Parent@?$_Tree_comp_alloc@V?$_Tset_traits@UTelegram@@U?$less@UTelegram@@@std@@V?$allocator@UTelegram@@@3@$0A@@std@@@std@@SAAAPAU?$_Tree_node@UTelegram@@PAX@2@PAU32@@Z ; std::_Tree_comp_alloc<std::_Tset_traits<Telegram,std::less<Telegram>,std::allocator<Telegram>,0> >::_Parent
	add	esp, 4
	mov	ecx, DWORD PTR __Wherenode$[ebp]
	mov	DWORD PTR [eax], ecx
$LN2@Rrotate:

; 2117 : 		this->_Parent(_Pnode) = this->_Parent(_Wherenode);

	mov	edx, DWORD PTR __Wherenode$[ebp]
	push	edx
	call	?_Parent@?$_Tree_comp_alloc@V?$_Tset_traits@UTelegram@@U?$less@UTelegram@@@std@@V?$allocator@UTelegram@@@3@$0A@@std@@@std@@SAAAPAU?$_Tree_node@UTelegram@@PAX@2@PAU32@@Z ; std::_Tree_comp_alloc<std::_Tset_traits<Telegram,std::less<Telegram>,std::allocator<Telegram>,0> >::_Parent
	add	esp, 4
	mov	esi, eax
	mov	eax, DWORD PTR __Pnode$[ebp]
	push	eax
	call	?_Parent@?$_Tree_comp_alloc@V?$_Tset_traits@UTelegram@@U?$less@UTelegram@@@std@@V?$allocator@UTelegram@@@3@$0A@@std@@@std@@SAAAPAU?$_Tree_node@UTelegram@@PAX@2@PAU32@@Z ; std::_Tree_comp_alloc<std::_Tset_traits<Telegram,std::less<Telegram>,std::allocator<Telegram>,0> >::_Parent
	add	esp, 4
	mov	ecx, DWORD PTR [esi]
	mov	DWORD PTR [eax], ecx

; 2118 : 
; 2119 : 		if (_Wherenode == _Root())

	mov	ecx, DWORD PTR _this$[ebp]
	call	?_Root@?$_Tree@V?$_Tset_traits@UTelegram@@U?$less@UTelegram@@@std@@V?$allocator@UTelegram@@@3@$0A@@std@@@std@@IBEAAPAU?$_Tree_node@UTelegram@@PAX@2@XZ ; std::_Tree<std::_Tset_traits<Telegram,std::less<Telegram>,std::allocator<Telegram>,0> >::_Root
	mov	edx, DWORD PTR __Wherenode$[ebp]
	cmp	edx, DWORD PTR [eax]
	jne	SHORT $LN3@Rrotate

; 2120 : 			_Root() = _Pnode;

	mov	ecx, DWORD PTR _this$[ebp]
	call	?_Root@?$_Tree@V?$_Tset_traits@UTelegram@@U?$less@UTelegram@@@std@@V?$allocator@UTelegram@@@3@$0A@@std@@@std@@IBEAAPAU?$_Tree_node@UTelegram@@PAX@2@XZ ; std::_Tree<std::_Tset_traits<Telegram,std::less<Telegram>,std::allocator<Telegram>,0> >::_Root
	mov	ecx, DWORD PTR __Pnode$[ebp]
	mov	DWORD PTR [eax], ecx
	jmp	SHORT $LN4@Rrotate
$LN3@Rrotate:

; 2121 : 		else if (_Wherenode == this->_Right(this->_Parent(_Wherenode)))

	mov	edx, DWORD PTR __Wherenode$[ebp]
	push	edx
	call	?_Parent@?$_Tree_comp_alloc@V?$_Tset_traits@UTelegram@@U?$less@UTelegram@@@std@@V?$allocator@UTelegram@@@3@$0A@@std@@@std@@SAAAPAU?$_Tree_node@UTelegram@@PAX@2@PAU32@@Z ; std::_Tree_comp_alloc<std::_Tset_traits<Telegram,std::less<Telegram>,std::allocator<Telegram>,0> >::_Parent
	add	esp, 4
	mov	eax, DWORD PTR [eax]
	push	eax
	call	?_Right@?$_Tree_comp_alloc@V?$_Tset_traits@UTelegram@@U?$less@UTelegram@@@std@@V?$allocator@UTelegram@@@3@$0A@@std@@@std@@SAAAPAU?$_Tree_node@UTelegram@@PAX@2@PAU32@@Z ; std::_Tree_comp_alloc<std::_Tset_traits<Telegram,std::less<Telegram>,std::allocator<Telegram>,0> >::_Right
	add	esp, 4
	mov	ecx, DWORD PTR __Wherenode$[ebp]
	cmp	ecx, DWORD PTR [eax]
	jne	SHORT $LN5@Rrotate

; 2122 : 			this->_Right(this->_Parent(_Wherenode)) = _Pnode;

	mov	edx, DWORD PTR __Wherenode$[ebp]
	push	edx
	call	?_Parent@?$_Tree_comp_alloc@V?$_Tset_traits@UTelegram@@U?$less@UTelegram@@@std@@V?$allocator@UTelegram@@@3@$0A@@std@@@std@@SAAAPAU?$_Tree_node@UTelegram@@PAX@2@PAU32@@Z ; std::_Tree_comp_alloc<std::_Tset_traits<Telegram,std::less<Telegram>,std::allocator<Telegram>,0> >::_Parent
	add	esp, 4
	mov	eax, DWORD PTR [eax]
	push	eax
	call	?_Right@?$_Tree_comp_alloc@V?$_Tset_traits@UTelegram@@U?$less@UTelegram@@@std@@V?$allocator@UTelegram@@@3@$0A@@std@@@std@@SAAAPAU?$_Tree_node@UTelegram@@PAX@2@PAU32@@Z ; std::_Tree_comp_alloc<std::_Tset_traits<Telegram,std::less<Telegram>,std::allocator<Telegram>,0> >::_Right
	add	esp, 4
	mov	ecx, DWORD PTR __Pnode$[ebp]
	mov	DWORD PTR [eax], ecx

; 2123 : 		else

	jmp	SHORT $LN4@Rrotate
$LN5@Rrotate:

; 2124 : 			this->_Left(this->_Parent(_Wherenode)) = _Pnode;

	mov	edx, DWORD PTR __Wherenode$[ebp]
	push	edx
	call	?_Parent@?$_Tree_comp_alloc@V?$_Tset_traits@UTelegram@@U?$less@UTelegram@@@std@@V?$allocator@UTelegram@@@3@$0A@@std@@@std@@SAAAPAU?$_Tree_node@UTelegram@@PAX@2@PAU32@@Z ; std::_Tree_comp_alloc<std::_Tset_traits<Telegram,std::less<Telegram>,std::allocator<Telegram>,0> >::_Parent
	add	esp, 4
	mov	eax, DWORD PTR [eax]
	push	eax
	call	?_Left@?$_Tree_comp_alloc@V?$_Tset_traits@UTelegram@@U?$less@UTelegram@@@std@@V?$allocator@UTelegram@@@3@$0A@@std@@@std@@SAAAPAU?$_Tree_node@UTelegram@@PAX@2@PAU32@@Z ; std::_Tree_comp_alloc<std::_Tset_traits<Telegram,std::less<Telegram>,std::allocator<Telegram>,0> >::_Left
	add	esp, 4
	mov	ecx, DWORD PTR __Pnode$[ebp]
	mov	DWORD PTR [eax], ecx
$LN4@Rrotate:

; 2125 : 
; 2126 : 		this->_Right(_Pnode) = _Wherenode;

	mov	edx, DWORD PTR __Pnode$[ebp]
	push	edx
	call	?_Right@?$_Tree_comp_alloc@V?$_Tset_traits@UTelegram@@U?$less@UTelegram@@@std@@V?$allocator@UTelegram@@@3@$0A@@std@@@std@@SAAAPAU?$_Tree_node@UTelegram@@PAX@2@PAU32@@Z ; std::_Tree_comp_alloc<std::_Tset_traits<Telegram,std::less<Telegram>,std::allocator<Telegram>,0> >::_Right
	add	esp, 4
	mov	ecx, DWORD PTR __Wherenode$[ebp]
	mov	DWORD PTR [eax], ecx

; 2127 : 		this->_Parent(_Wherenode) = _Pnode;

	mov	edx, DWORD PTR __Wherenode$[ebp]
	push	edx
	call	?_Parent@?$_Tree_comp_alloc@V?$_Tset_traits@UTelegram@@U?$less@UTelegram@@@std@@V?$allocator@UTelegram@@@3@$0A@@std@@@std@@SAAAPAU?$_Tree_node@UTelegram@@PAX@2@PAU32@@Z ; std::_Tree_comp_alloc<std::_Tset_traits<Telegram,std::less<Telegram>,std::allocator<Telegram>,0> >::_Parent
	add	esp, 4
	mov	ecx, DWORD PTR __Pnode$[ebp]
	mov	DWORD PTR [eax], ecx

; 2128 : 		}

	pop	esi
	add	esp, 8
	cmp	ebp, esp
	call	__RTC_CheckEsp
	mov	esp, ebp
	pop	ebp
	ret	4
?_Rrotate@?$_Tree@V?$_Tset_traits@UTelegram@@U?$less@UTelegram@@@std@@V?$allocator@UTelegram@@@3@$0A@@std@@@std@@IAEXPAU?$_Tree_node@UTelegram@@PAX@2@@Z ENDP ; std::_Tree<std::_Tset_traits<Telegram,std::less<Telegram>,std::allocator<Telegram>,0> >::_Rrotate
_TEXT	ENDS
; Function compile flags: /Odtp /RTCsu
; File c:\program files (x86)\microsoft visual studio 14.0\vc\include\xtree
;	COMDAT ?_Root@?$_Tree@V?$_Tset_traits@UTelegram@@U?$less@UTelegram@@@std@@V?$allocator@UTelegram@@@3@$0A@@std@@@std@@IBEAAPAU?$_Tree_node@UTelegram@@PAX@2@XZ
_TEXT	SEGMENT
_this$ = -4						; size = 4
?_Root@?$_Tree@V?$_Tset_traits@UTelegram@@U?$less@UTelegram@@@std@@V?$allocator@UTelegram@@@3@$0A@@std@@@std@@IBEAAPAU?$_Tree_node@UTelegram@@PAX@2@XZ PROC ; std::_Tree<std::_Tset_traits<Telegram,std::less<Telegram>,std::allocator<Telegram>,0> >::_Root, COMDAT
; _this$ = ecx

; 2106 : 		{	// return root of nonmutable tree

	push	ebp
	mov	ebp, esp
	push	ecx
	mov	DWORD PTR [ebp-4], -858993460		; ccccccccH
	mov	DWORD PTR _this$[ebp], ecx

; 2107 : 		return (this->_Parent(this->_Myhead()));

	mov	ecx, DWORD PTR _this$[ebp]
	call	?_Myhead@?$_Tree_comp_alloc@V?$_Tset_traits@UTelegram@@U?$less@UTelegram@@@std@@V?$allocator@UTelegram@@@3@$0A@@std@@@std@@QBEABQAU?$_Tree_node@UTelegram@@PAX@2@XZ ; std::_Tree_comp_alloc<std::_Tset_traits<Telegram,std::less<Telegram>,std::allocator<Telegram>,0> >::_Myhead
	mov	eax, DWORD PTR [eax]
	push	eax
	call	?_Parent@?$_Tree_comp_alloc@V?$_Tset_traits@UTelegram@@U?$less@UTelegram@@@std@@V?$allocator@UTelegram@@@3@$0A@@std@@@std@@SAAAPAU?$_Tree_node@UTelegram@@PAX@2@PAU32@@Z ; std::_Tree_comp_alloc<std::_Tset_traits<Telegram,std::less<Telegram>,std::allocator<Telegram>,0> >::_Parent
	add	esp, 4

; 2108 : 		}

	add	esp, 4
	cmp	ebp, esp
	call	__RTC_CheckEsp
	mov	esp, ebp
	pop	ebp
	ret	0
?_Root@?$_Tree@V?$_Tset_traits@UTelegram@@U?$less@UTelegram@@@std@@V?$allocator@UTelegram@@@3@$0A@@std@@@std@@IBEAAPAU?$_Tree_node@UTelegram@@PAX@2@XZ ENDP ; std::_Tree<std::_Tset_traits<Telegram,std::less<Telegram>,std::allocator<Telegram>,0> >::_Root
_TEXT	ENDS
; Function compile flags: /Odtp /RTCsu
; File c:\program files (x86)\microsoft visual studio 14.0\vc\include\xtree
;	COMDAT ?_Rmost@?$_Tree@V?$_Tset_traits@UTelegram@@U?$less@UTelegram@@@std@@V?$allocator@UTelegram@@@3@$0A@@std@@@std@@IBEAAPAU?$_Tree_node@UTelegram@@PAX@2@XZ
_TEXT	SEGMENT
_this$ = -4						; size = 4
?_Rmost@?$_Tree@V?$_Tset_traits@UTelegram@@U?$less@UTelegram@@@std@@V?$allocator@UTelegram@@@3@$0A@@std@@@std@@IBEAAPAU?$_Tree_node@UTelegram@@PAX@2@XZ PROC ; std::_Tree<std::_Tset_traits<Telegram,std::less<Telegram>,std::allocator<Telegram>,0> >::_Rmost, COMDAT
; _this$ = ecx

; 2101 : 		{	// return rightmost node in nonmutable tree

	push	ebp
	mov	ebp, esp
	push	ecx
	mov	DWORD PTR [ebp-4], -858993460		; ccccccccH
	mov	DWORD PTR _this$[ebp], ecx

; 2102 : 		return (this->_Right(this->_Myhead()));

	mov	ecx, DWORD PTR _this$[ebp]
	call	?_Myhead@?$_Tree_comp_alloc@V?$_Tset_traits@UTelegram@@U?$less@UTelegram@@@std@@V?$allocator@UTelegram@@@3@$0A@@std@@@std@@QBEABQAU?$_Tree_node@UTelegram@@PAX@2@XZ ; std::_Tree_comp_alloc<std::_Tset_traits<Telegram,std::less<Telegram>,std::allocator<Telegram>,0> >::_Myhead
	mov	eax, DWORD PTR [eax]
	push	eax
	call	?_Right@?$_Tree_comp_alloc@V?$_Tset_traits@UTelegram@@U?$less@UTelegram@@@std@@V?$allocator@UTelegram@@@3@$0A@@std@@@std@@SAAAPAU?$_Tree_node@UTelegram@@PAX@2@PAU32@@Z ; std::_Tree_comp_alloc<std::_Tset_traits<Telegram,std::less<Telegram>,std::allocator<Telegram>,0> >::_Right
	add	esp, 4

; 2103 : 		}

	add	esp, 4
	cmp	ebp, esp
	call	__RTC_CheckEsp
	mov	esp, ebp
	pop	ebp
	ret	0
?_Rmost@?$_Tree@V?$_Tset_traits@UTelegram@@U?$less@UTelegram@@@std@@V?$allocator@UTelegram@@@3@$0A@@std@@@std@@IBEAAPAU?$_Tree_node@UTelegram@@PAX@2@XZ ENDP ; std::_Tree<std::_Tset_traits<Telegram,std::less<Telegram>,std::allocator<Telegram>,0> >::_Rmost
_TEXT	ENDS
; Function compile flags: /Odtp /RTCsu
; File c:\program files (x86)\microsoft visual studio 14.0\vc\include\xtree
;	COMDAT ?_Lrotate@?$_Tree@V?$_Tset_traits@UTelegram@@U?$less@UTelegram@@@std@@V?$allocator@UTelegram@@@3@$0A@@std@@@std@@IAEXPAU?$_Tree_node@UTelegram@@PAX@2@@Z
_TEXT	SEGMENT
__Pnode$ = -8						; size = 4
_this$ = -4						; size = 4
__Wherenode$ = 8					; size = 4
?_Lrotate@?$_Tree@V?$_Tset_traits@UTelegram@@U?$less@UTelegram@@@std@@V?$allocator@UTelegram@@@3@$0A@@std@@@std@@IAEXPAU?$_Tree_node@UTelegram@@PAX@2@@Z PROC ; std::_Tree<std::_Tset_traits<Telegram,std::less<Telegram>,std::allocator<Telegram>,0> >::_Lrotate, COMDAT
; _this$ = ecx

; 2081 : 		{	// promote right node to root of subtree

	push	ebp
	mov	ebp, esp
	sub	esp, 8
	push	esi
	mov	DWORD PTR [ebp-8], -858993460		; ccccccccH
	mov	DWORD PTR [ebp-4], -858993460		; ccccccccH
	mov	DWORD PTR _this$[ebp], ecx

; 2082 : 		_Nodeptr _Pnode = this->_Right(_Wherenode);

	mov	eax, DWORD PTR __Wherenode$[ebp]
	push	eax
	call	?_Right@?$_Tree_comp_alloc@V?$_Tset_traits@UTelegram@@U?$less@UTelegram@@@std@@V?$allocator@UTelegram@@@3@$0A@@std@@@std@@SAAAPAU?$_Tree_node@UTelegram@@PAX@2@PAU32@@Z ; std::_Tree_comp_alloc<std::_Tset_traits<Telegram,std::less<Telegram>,std::allocator<Telegram>,0> >::_Right
	add	esp, 4
	mov	ecx, DWORD PTR [eax]
	mov	DWORD PTR __Pnode$[ebp], ecx

; 2083 : 		this->_Right(_Wherenode) = this->_Left(_Pnode);

	mov	edx, DWORD PTR __Pnode$[ebp]
	push	edx
	call	?_Left@?$_Tree_comp_alloc@V?$_Tset_traits@UTelegram@@U?$less@UTelegram@@@std@@V?$allocator@UTelegram@@@3@$0A@@std@@@std@@SAAAPAU?$_Tree_node@UTelegram@@PAX@2@PAU32@@Z ; std::_Tree_comp_alloc<std::_Tset_traits<Telegram,std::less<Telegram>,std::allocator<Telegram>,0> >::_Left
	add	esp, 4
	mov	esi, eax
	mov	eax, DWORD PTR __Wherenode$[ebp]
	push	eax
	call	?_Right@?$_Tree_comp_alloc@V?$_Tset_traits@UTelegram@@U?$less@UTelegram@@@std@@V?$allocator@UTelegram@@@3@$0A@@std@@@std@@SAAAPAU?$_Tree_node@UTelegram@@PAX@2@PAU32@@Z ; std::_Tree_comp_alloc<std::_Tset_traits<Telegram,std::less<Telegram>,std::allocator<Telegram>,0> >::_Right
	add	esp, 4
	mov	ecx, DWORD PTR [esi]
	mov	DWORD PTR [eax], ecx

; 2084 : 
; 2085 : 		if (!this->_Isnil(this->_Left(_Pnode)))

	mov	edx, DWORD PTR __Pnode$[ebp]
	push	edx
	call	?_Left@?$_Tree_comp_alloc@V?$_Tset_traits@UTelegram@@U?$less@UTelegram@@@std@@V?$allocator@UTelegram@@@3@$0A@@std@@@std@@SAAAPAU?$_Tree_node@UTelegram@@PAX@2@PAU32@@Z ; std::_Tree_comp_alloc<std::_Tset_traits<Telegram,std::less<Telegram>,std::allocator<Telegram>,0> >::_Left
	add	esp, 4
	mov	eax, DWORD PTR [eax]
	push	eax
	call	?_Isnil@?$_Tree_comp_alloc@V?$_Tset_traits@UTelegram@@U?$less@UTelegram@@@std@@V?$allocator@UTelegram@@@3@$0A@@std@@@std@@SAAADPAU?$_Tree_node@UTelegram@@PAX@2@@Z ; std::_Tree_comp_alloc<std::_Tset_traits<Telegram,std::less<Telegram>,std::allocator<Telegram>,0> >::_Isnil
	add	esp, 4
	movsx	ecx, BYTE PTR [eax]
	test	ecx, ecx
	jne	SHORT $LN2@Lrotate

; 2086 : 			this->_Parent(this->_Left(_Pnode)) = _Wherenode;

	mov	edx, DWORD PTR __Pnode$[ebp]
	push	edx
	call	?_Left@?$_Tree_comp_alloc@V?$_Tset_traits@UTelegram@@U?$less@UTelegram@@@std@@V?$allocator@UTelegram@@@3@$0A@@std@@@std@@SAAAPAU?$_Tree_node@UTelegram@@PAX@2@PAU32@@Z ; std::_Tree_comp_alloc<std::_Tset_traits<Telegram,std::less<Telegram>,std::allocator<Telegram>,0> >::_Left
	add	esp, 4
	mov	eax, DWORD PTR [eax]
	push	eax
	call	?_Parent@?$_Tree_comp_alloc@V?$_Tset_traits@UTelegram@@U?$less@UTelegram@@@std@@V?$allocator@UTelegram@@@3@$0A@@std@@@std@@SAAAPAU?$_Tree_node@UTelegram@@PAX@2@PAU32@@Z ; std::_Tree_comp_alloc<std::_Tset_traits<Telegram,std::less<Telegram>,std::allocator<Telegram>,0> >::_Parent
	add	esp, 4
	mov	ecx, DWORD PTR __Wherenode$[ebp]
	mov	DWORD PTR [eax], ecx
$LN2@Lrotate:

; 2087 : 		this->_Parent(_Pnode) = this->_Parent(_Wherenode);

	mov	edx, DWORD PTR __Wherenode$[ebp]
	push	edx
	call	?_Parent@?$_Tree_comp_alloc@V?$_Tset_traits@UTelegram@@U?$less@UTelegram@@@std@@V?$allocator@UTelegram@@@3@$0A@@std@@@std@@SAAAPAU?$_Tree_node@UTelegram@@PAX@2@PAU32@@Z ; std::_Tree_comp_alloc<std::_Tset_traits<Telegram,std::less<Telegram>,std::allocator<Telegram>,0> >::_Parent
	add	esp, 4
	mov	esi, eax
	mov	eax, DWORD PTR __Pnode$[ebp]
	push	eax
	call	?_Parent@?$_Tree_comp_alloc@V?$_Tset_traits@UTelegram@@U?$less@UTelegram@@@std@@V?$allocator@UTelegram@@@3@$0A@@std@@@std@@SAAAPAU?$_Tree_node@UTelegram@@PAX@2@PAU32@@Z ; std::_Tree_comp_alloc<std::_Tset_traits<Telegram,std::less<Telegram>,std::allocator<Telegram>,0> >::_Parent
	add	esp, 4
	mov	ecx, DWORD PTR [esi]
	mov	DWORD PTR [eax], ecx

; 2088 : 
; 2089 : 		if (_Wherenode == _Root())

	mov	ecx, DWORD PTR _this$[ebp]
	call	?_Root@?$_Tree@V?$_Tset_traits@UTelegram@@U?$less@UTelegram@@@std@@V?$allocator@UTelegram@@@3@$0A@@std@@@std@@IBEAAPAU?$_Tree_node@UTelegram@@PAX@2@XZ ; std::_Tree<std::_Tset_traits<Telegram,std::less<Telegram>,std::allocator<Telegram>,0> >::_Root
	mov	edx, DWORD PTR __Wherenode$[ebp]
	cmp	edx, DWORD PTR [eax]
	jne	SHORT $LN3@Lrotate

; 2090 : 			_Root() = _Pnode;

	mov	ecx, DWORD PTR _this$[ebp]
	call	?_Root@?$_Tree@V?$_Tset_traits@UTelegram@@U?$less@UTelegram@@@std@@V?$allocator@UTelegram@@@3@$0A@@std@@@std@@IBEAAPAU?$_Tree_node@UTelegram@@PAX@2@XZ ; std::_Tree<std::_Tset_traits<Telegram,std::less<Telegram>,std::allocator<Telegram>,0> >::_Root
	mov	ecx, DWORD PTR __Pnode$[ebp]
	mov	DWORD PTR [eax], ecx
	jmp	SHORT $LN4@Lrotate
$LN3@Lrotate:

; 2091 : 		else if (_Wherenode == this->_Left(this->_Parent(_Wherenode)))

	mov	edx, DWORD PTR __Wherenode$[ebp]
	push	edx
	call	?_Parent@?$_Tree_comp_alloc@V?$_Tset_traits@UTelegram@@U?$less@UTelegram@@@std@@V?$allocator@UTelegram@@@3@$0A@@std@@@std@@SAAAPAU?$_Tree_node@UTelegram@@PAX@2@PAU32@@Z ; std::_Tree_comp_alloc<std::_Tset_traits<Telegram,std::less<Telegram>,std::allocator<Telegram>,0> >::_Parent
	add	esp, 4
	mov	eax, DWORD PTR [eax]
	push	eax
	call	?_Left@?$_Tree_comp_alloc@V?$_Tset_traits@UTelegram@@U?$less@UTelegram@@@std@@V?$allocator@UTelegram@@@3@$0A@@std@@@std@@SAAAPAU?$_Tree_node@UTelegram@@PAX@2@PAU32@@Z ; std::_Tree_comp_alloc<std::_Tset_traits<Telegram,std::less<Telegram>,std::allocator<Telegram>,0> >::_Left
	add	esp, 4
	mov	ecx, DWORD PTR __Wherenode$[ebp]
	cmp	ecx, DWORD PTR [eax]
	jne	SHORT $LN5@Lrotate

; 2092 : 			this->_Left(this->_Parent(_Wherenode)) = _Pnode;

	mov	edx, DWORD PTR __Wherenode$[ebp]
	push	edx
	call	?_Parent@?$_Tree_comp_alloc@V?$_Tset_traits@UTelegram@@U?$less@UTelegram@@@std@@V?$allocator@UTelegram@@@3@$0A@@std@@@std@@SAAAPAU?$_Tree_node@UTelegram@@PAX@2@PAU32@@Z ; std::_Tree_comp_alloc<std::_Tset_traits<Telegram,std::less<Telegram>,std::allocator<Telegram>,0> >::_Parent
	add	esp, 4
	mov	eax, DWORD PTR [eax]
	push	eax
	call	?_Left@?$_Tree_comp_alloc@V?$_Tset_traits@UTelegram@@U?$less@UTelegram@@@std@@V?$allocator@UTelegram@@@3@$0A@@std@@@std@@SAAAPAU?$_Tree_node@UTelegram@@PAX@2@PAU32@@Z ; std::_Tree_comp_alloc<std::_Tset_traits<Telegram,std::less<Telegram>,std::allocator<Telegram>,0> >::_Left
	add	esp, 4
	mov	ecx, DWORD PTR __Pnode$[ebp]
	mov	DWORD PTR [eax], ecx

; 2093 : 		else

	jmp	SHORT $LN4@Lrotate
$LN5@Lrotate:

; 2094 : 			this->_Right(this->_Parent(_Wherenode)) = _Pnode;

	mov	edx, DWORD PTR __Wherenode$[ebp]
	push	edx
	call	?_Parent@?$_Tree_comp_alloc@V?$_Tset_traits@UTelegram@@U?$less@UTelegram@@@std@@V?$allocator@UTelegram@@@3@$0A@@std@@@std@@SAAAPAU?$_Tree_node@UTelegram@@PAX@2@PAU32@@Z ; std::_Tree_comp_alloc<std::_Tset_traits<Telegram,std::less<Telegram>,std::allocator<Telegram>,0> >::_Parent
	add	esp, 4
	mov	eax, DWORD PTR [eax]
	push	eax
	call	?_Right@?$_Tree_comp_alloc@V?$_Tset_traits@UTelegram@@U?$less@UTelegram@@@std@@V?$allocator@UTelegram@@@3@$0A@@std@@@std@@SAAAPAU?$_Tree_node@UTelegram@@PAX@2@PAU32@@Z ; std::_Tree_comp_alloc<std::_Tset_traits<Telegram,std::less<Telegram>,std::allocator<Telegram>,0> >::_Right
	add	esp, 4
	mov	ecx, DWORD PTR __Pnode$[ebp]
	mov	DWORD PTR [eax], ecx
$LN4@Lrotate:

; 2095 : 
; 2096 : 		this->_Left(_Pnode) = _Wherenode;

	mov	edx, DWORD PTR __Pnode$[ebp]
	push	edx
	call	?_Left@?$_Tree_comp_alloc@V?$_Tset_traits@UTelegram@@U?$less@UTelegram@@@std@@V?$allocator@UTelegram@@@3@$0A@@std@@@std@@SAAAPAU?$_Tree_node@UTelegram@@PAX@2@PAU32@@Z ; std::_Tree_comp_alloc<std::_Tset_traits<Telegram,std::less<Telegram>,std::allocator<Telegram>,0> >::_Left
	add	esp, 4
	mov	ecx, DWORD PTR __Wherenode$[ebp]
	mov	DWORD PTR [eax], ecx

; 2097 : 		this->_Parent(_Wherenode) = _Pnode;

	mov	edx, DWORD PTR __Wherenode$[ebp]
	push	edx
	call	?_Parent@?$_Tree_comp_alloc@V?$_Tset_traits@UTelegram@@U?$less@UTelegram@@@std@@V?$allocator@UTelegram@@@3@$0A@@std@@@std@@SAAAPAU?$_Tree_node@UTelegram@@PAX@2@PAU32@@Z ; std::_Tree_comp_alloc<std::_Tset_traits<Telegram,std::less<Telegram>,std::allocator<Telegram>,0> >::_Parent
	add	esp, 4
	mov	ecx, DWORD PTR __Pnode$[ebp]
	mov	DWORD PTR [eax], ecx

; 2098 : 		}

	pop	esi
	add	esp, 8
	cmp	ebp, esp
	call	__RTC_CheckEsp
	mov	esp, ebp
	pop	ebp
	ret	4
?_Lrotate@?$_Tree@V?$_Tset_traits@UTelegram@@U?$less@UTelegram@@@std@@V?$allocator@UTelegram@@@3@$0A@@std@@@std@@IAEXPAU?$_Tree_node@UTelegram@@PAX@2@@Z ENDP ; std::_Tree<std::_Tset_traits<Telegram,std::less<Telegram>,std::allocator<Telegram>,0> >::_Lrotate
_TEXT	ENDS
; Function compile flags: /Odtp /RTCsu
; File c:\program files (x86)\microsoft visual studio 14.0\vc\include\xtree
;	COMDAT ?_Lmost@?$_Tree@V?$_Tset_traits@UTelegram@@U?$less@UTelegram@@@std@@V?$allocator@UTelegram@@@3@$0A@@std@@@std@@IBEAAPAU?$_Tree_node@UTelegram@@PAX@2@XZ
_TEXT	SEGMENT
_this$ = -4						; size = 4
?_Lmost@?$_Tree@V?$_Tset_traits@UTelegram@@U?$less@UTelegram@@@std@@V?$allocator@UTelegram@@@3@$0A@@std@@@std@@IBEAAPAU?$_Tree_node@UTelegram@@PAX@2@XZ PROC ; std::_Tree<std::_Tset_traits<Telegram,std::less<Telegram>,std::allocator<Telegram>,0> >::_Lmost, COMDAT
; _this$ = ecx

; 2076 : 		{	// return leftmost node in nonmutable tree

	push	ebp
	mov	ebp, esp
	push	ecx
	mov	DWORD PTR [ebp-4], -858993460		; ccccccccH
	mov	DWORD PTR _this$[ebp], ecx

; 2077 : 		return (this->_Left(this->_Myhead()));

	mov	ecx, DWORD PTR _this$[ebp]
	call	?_Myhead@?$_Tree_comp_alloc@V?$_Tset_traits@UTelegram@@U?$less@UTelegram@@@std@@V?$allocator@UTelegram@@@3@$0A@@std@@@std@@QBEABQAU?$_Tree_node@UTelegram@@PAX@2@XZ ; std::_Tree_comp_alloc<std::_Tset_traits<Telegram,std::less<Telegram>,std::allocator<Telegram>,0> >::_Myhead
	mov	eax, DWORD PTR [eax]
	push	eax
	call	?_Left@?$_Tree_comp_alloc@V?$_Tset_traits@UTelegram@@U?$less@UTelegram@@@std@@V?$allocator@UTelegram@@@3@$0A@@std@@@std@@SAAAPAU?$_Tree_node@UTelegram@@PAX@2@PAU32@@Z ; std::_Tree_comp_alloc<std::_Tset_traits<Telegram,std::less<Telegram>,std::allocator<Telegram>,0> >::_Left
	add	esp, 4

; 2078 : 		}

	add	esp, 4
	cmp	ebp, esp
	call	__RTC_CheckEsp
	mov	esp, ebp
	pop	ebp
	ret	0
?_Lmost@?$_Tree@V?$_Tset_traits@UTelegram@@U?$less@UTelegram@@@std@@V?$allocator@UTelegram@@@3@$0A@@std@@@std@@IBEAAPAU?$_Tree_node@UTelegram@@PAX@2@XZ ENDP ; std::_Tree<std::_Tset_traits<Telegram,std::less<Telegram>,std::allocator<Telegram>,0> >::_Lmost
_TEXT	ENDS
; Function compile flags: /Odtp /RTCsu
; File c:\program files (x86)\microsoft visual studio 14.0\vc\include\xtree
;	COMDAT ?_Erase@?$_Tree@V?$_Tset_traits@UTelegram@@U?$less@UTelegram@@@std@@V?$allocator@UTelegram@@@3@$0A@@std@@@std@@IAEXPAU?$_Tree_node@UTelegram@@PAX@2@@Z
_TEXT	SEGMENT
__Pnode$1 = -8						; size = 4
_this$ = -4						; size = 4
__Rootnode$ = 8						; size = 4
?_Erase@?$_Tree@V?$_Tset_traits@UTelegram@@U?$less@UTelegram@@@std@@V?$allocator@UTelegram@@@3@$0A@@std@@@std@@IAEXPAU?$_Tree_node@UTelegram@@PAX@2@@Z PROC ; std::_Tree<std::_Tset_traits<Telegram,std::less<Telegram>,std::allocator<Telegram>,0> >::_Erase, COMDAT
; _this$ = ecx

; 2032 : 		{	// free entire subtree, recursively

	push	ebp
	mov	ebp, esp
	sub	esp, 8
	mov	DWORD PTR [ebp-8], -858993460		; ccccccccH
	mov	DWORD PTR [ebp-4], -858993460		; ccccccccH
	mov	DWORD PTR _this$[ebp], ecx

; 2033 : 		for (_Nodeptr _Pnode = _Rootnode;

	mov	eax, DWORD PTR __Rootnode$[ebp]
	mov	DWORD PTR __Pnode$1[ebp], eax
	jmp	SHORT $LN4@Erase
$LN2@Erase:

; 2034 : 			!this->_Isnil(_Pnode); _Rootnode = _Pnode)

	mov	ecx, DWORD PTR __Pnode$1[ebp]
	mov	DWORD PTR __Rootnode$[ebp], ecx
$LN4@Erase:
	mov	edx, DWORD PTR __Pnode$1[ebp]
	push	edx
	call	?_Isnil@?$_Tree_comp_alloc@V?$_Tset_traits@UTelegram@@U?$less@UTelegram@@@std@@V?$allocator@UTelegram@@@3@$0A@@std@@@std@@SAAADPAU?$_Tree_node@UTelegram@@PAX@2@@Z ; std::_Tree_comp_alloc<std::_Tset_traits<Telegram,std::less<Telegram>,std::allocator<Telegram>,0> >::_Isnil
	add	esp, 4
	movsx	eax, BYTE PTR [eax]
	test	eax, eax
	jne	SHORT $LN1@Erase

; 2035 : 			{	// free subtrees, then node
; 2036 : 			_Erase(this->_Right(_Pnode));

	mov	ecx, DWORD PTR __Pnode$1[ebp]
	push	ecx
	call	?_Right@?$_Tree_comp_alloc@V?$_Tset_traits@UTelegram@@U?$less@UTelegram@@@std@@V?$allocator@UTelegram@@@3@$0A@@std@@@std@@SAAAPAU?$_Tree_node@UTelegram@@PAX@2@PAU32@@Z ; std::_Tree_comp_alloc<std::_Tset_traits<Telegram,std::less<Telegram>,std::allocator<Telegram>,0> >::_Right
	add	esp, 4
	mov	edx, DWORD PTR [eax]
	push	edx
	mov	ecx, DWORD PTR _this$[ebp]
	call	?_Erase@?$_Tree@V?$_Tset_traits@UTelegram@@U?$less@UTelegram@@@std@@V?$allocator@UTelegram@@@3@$0A@@std@@@std@@IAEXPAU?$_Tree_node@UTelegram@@PAX@2@@Z ; std::_Tree<std::_Tset_traits<Telegram,std::less<Telegram>,std::allocator<Telegram>,0> >::_Erase

; 2037 : 			_Pnode = this->_Left(_Pnode);

	mov	eax, DWORD PTR __Pnode$1[ebp]
	push	eax
	call	?_Left@?$_Tree_comp_alloc@V?$_Tset_traits@UTelegram@@U?$less@UTelegram@@@std@@V?$allocator@UTelegram@@@3@$0A@@std@@@std@@SAAAPAU?$_Tree_node@UTelegram@@PAX@2@PAU32@@Z ; std::_Tree_comp_alloc<std::_Tset_traits<Telegram,std::less<Telegram>,std::allocator<Telegram>,0> >::_Left
	add	esp, 4
	mov	ecx, DWORD PTR [eax]
	mov	DWORD PTR __Pnode$1[ebp], ecx

; 2038 : 			this->_Getal().destroy(

	mov	edx, DWORD PTR __Rootnode$[ebp]
	push	edx
	call	?_Myval@?$_Tree_comp_alloc@V?$_Tset_traits@UTelegram@@U?$less@UTelegram@@@std@@V?$allocator@UTelegram@@@3@$0A@@std@@@std@@SAAAUTelegram@@PAU?$_Tree_node@UTelegram@@PAX@2@@Z ; std::_Tree_comp_alloc<std::_Tset_traits<Telegram,std::less<Telegram>,std::allocator<Telegram>,0> >::_Myval
	add	esp, 4
	push	eax
	call	??$addressof@UTelegram@@@std@@YAPAUTelegram@@AAU1@@Z ; std::addressof<Telegram>
	add	esp, 4
	push	eax
	mov	ecx, DWORD PTR _this$[ebp]
	call	?_Getal@?$_Tree_comp_alloc@V?$_Tset_traits@UTelegram@@U?$less@UTelegram@@@std@@V?$allocator@UTelegram@@@3@$0A@@std@@@std@@QAEAAU?$_Wrap_alloc@V?$allocator@U?$_Tree_node@UTelegram@@PAX@std@@@std@@@2@XZ ; std::_Tree_comp_alloc<std::_Tset_traits<Telegram,std::less<Telegram>,std::allocator<Telegram>,0> >::_Getal
	mov	ecx, eax
	call	??$destroy@UTelegram@@@?$_Wrap_alloc@V?$allocator@U?$_Tree_node@UTelegram@@PAX@std@@@std@@@std@@QAEXPAUTelegram@@@Z ; std::_Wrap_alloc<std::allocator<std::_Tree_node<Telegram,void *> > >::destroy<Telegram>

; 2039 : 				_STD addressof(this->_Myval(_Rootnode)));
; 2040 : 
; 2041 : 			this->_Getal().deallocate(_Rootnode, 1);

	push	1
	mov	eax, DWORD PTR __Rootnode$[ebp]
	push	eax
	mov	ecx, DWORD PTR _this$[ebp]
	call	?_Getal@?$_Tree_comp_alloc@V?$_Tset_traits@UTelegram@@U?$less@UTelegram@@@std@@V?$allocator@UTelegram@@@3@$0A@@std@@@std@@QAEAAU?$_Wrap_alloc@V?$allocator@U?$_Tree_node@UTelegram@@PAX@std@@@std@@@2@XZ ; std::_Tree_comp_alloc<std::_Tset_traits<Telegram,std::less<Telegram>,std::allocator<Telegram>,0> >::_Getal
	mov	ecx, eax
	call	?deallocate@?$_Wrap_alloc@V?$allocator@U?$_Tree_node@UTelegram@@PAX@std@@@std@@@std@@QAEXPAU?$_Tree_node@UTelegram@@PAX@2@I@Z ; std::_Wrap_alloc<std::allocator<std::_Tree_node<Telegram,void *> > >::deallocate

; 2042 : 			}

	jmp	SHORT $LN2@Erase
$LN1@Erase:

; 2043 : 		}

	add	esp, 8
	cmp	ebp, esp
	call	__RTC_CheckEsp
	mov	esp, ebp
	pop	ebp
	ret	4
?_Erase@?$_Tree@V?$_Tset_traits@UTelegram@@U?$less@UTelegram@@@std@@V?$allocator@UTelegram@@@3@$0A@@std@@@std@@IAEXPAU?$_Tree_node@UTelegram@@PAX@2@@Z ENDP ; std::_Tree<std::_Tset_traits<Telegram,std::less<Telegram>,std::allocator<Telegram>,0> >::_Erase
_TEXT	ENDS
; Function compile flags: /Odtp /RTCsu
; File c:\program files (x86)\microsoft visual studio 14.0\vc\include\xtree
;	COMDAT ?_Destroy_if_not_nil@?$_Tree@V?$_Tset_traits@UTelegram@@U?$less@UTelegram@@@std@@V?$allocator@UTelegram@@@3@$0A@@std@@@std@@IAEXU_Nil@2@@Z
_TEXT	SEGMENT
_this$ = -4						; size = 4
___formal$ = 8						; size = 1
?_Destroy_if_not_nil@?$_Tree@V?$_Tset_traits@UTelegram@@U?$less@UTelegram@@@std@@V?$allocator@UTelegram@@@3@$0A@@std@@@std@@IAEXU_Nil@2@@Z PROC ; std::_Tree<std::_Tset_traits<Telegram,std::less<Telegram>,std::allocator<Telegram>,0> >::_Destroy_if_not_nil, COMDAT
; _this$ = ecx

; 1648 : 		{	// node doesn't exist, do nothing

	push	ebp
	mov	ebp, esp
	push	ecx
	mov	DWORD PTR [ebp-4], -858993460		; ccccccccH
	mov	DWORD PTR _this$[ebp], ecx

; 1649 : 		}

	mov	esp, ebp
	pop	ebp
	ret	4
?_Destroy_if_not_nil@?$_Tree@V?$_Tset_traits@UTelegram@@U?$less@UTelegram@@@std@@V?$allocator@UTelegram@@@3@$0A@@std@@@std@@IAEXU_Nil@2@@Z ENDP ; std::_Tree<std::_Tset_traits<Telegram,std::less<Telegram>,std::allocator<Telegram>,0> >::_Destroy_if_not_nil
_TEXT	ENDS
; Function compile flags: /Odtp /RTCsu
; File c:\program files (x86)\microsoft visual studio 14.0\vc\include\xtree
;	COMDAT ?clear@?$_Tree@V?$_Tset_traits@UTelegram@@U?$less@UTelegram@@@std@@V?$allocator@UTelegram@@@3@$0A@@std@@@std@@QAEXXZ
_TEXT	SEGMENT
_this$ = -16						; size = 4
__$EHRec$ = -12						; size = 12
?clear@?$_Tree@V?$_Tset_traits@UTelegram@@U?$less@UTelegram@@@std@@V?$allocator@UTelegram@@@3@$0A@@std@@@std@@QAEXXZ PROC ; std::_Tree<std::_Tset_traits<Telegram,std::less<Telegram>,std::allocator<Telegram>,0> >::clear, COMDAT
; _this$ = ecx

; 1467 : 		{	// erase all

	push	ebp
	mov	ebp, esp
	push	-1
	push	__ehhandler$?clear@?$_Tree@V?$_Tset_traits@UTelegram@@U?$less@UTelegram@@@std@@V?$allocator@UTelegram@@@3@$0A@@std@@@std@@QAEXXZ
	mov	eax, DWORD PTR fs:0
	push	eax
	push	ecx
	push	esi
	mov	DWORD PTR [ebp-16], -858993460		; ccccccccH
	mov	eax, DWORD PTR ___security_cookie
	xor	eax, ebp
	push	eax
	lea	eax, DWORD PTR __$EHRec$[ebp]
	mov	DWORD PTR fs:0, eax
	mov	DWORD PTR _this$[ebp], ecx

; 1468 :  #if _ITERATOR_DEBUG_LEVEL == 2
; 1469 : 		this->_Orphan_ptr(nullptr_t{});

	push	0
	mov	ecx, DWORD PTR _this$[ebp]
	call	?_Orphan_ptr@?$_Tree@V?$_Tset_traits@UTelegram@@U?$less@UTelegram@@@std@@V?$allocator@UTelegram@@@3@$0A@@std@@@std@@IAEXPAU?$_Tree_node@UTelegram@@PAX@2@@Z ; std::_Tree<std::_Tset_traits<Telegram,std::less<Telegram>,std::allocator<Telegram>,0> >::_Orphan_ptr

; 1470 :  #endif /* _ITERATOR_DEBUG_LEVEL == 2 */
; 1471 : 
; 1472 : 		_Erase(_Root());

	mov	ecx, DWORD PTR _this$[ebp]
	call	?_Root@?$_Tree@V?$_Tset_traits@UTelegram@@U?$less@UTelegram@@@std@@V?$allocator@UTelegram@@@3@$0A@@std@@@std@@IBEAAPAU?$_Tree_node@UTelegram@@PAX@2@XZ ; std::_Tree<std::_Tset_traits<Telegram,std::less<Telegram>,std::allocator<Telegram>,0> >::_Root
	mov	eax, DWORD PTR [eax]
	push	eax
	mov	ecx, DWORD PTR _this$[ebp]
	call	?_Erase@?$_Tree@V?$_Tset_traits@UTelegram@@U?$less@UTelegram@@@std@@V?$allocator@UTelegram@@@3@$0A@@std@@@std@@IAEXPAU?$_Tree_node@UTelegram@@PAX@2@@Z ; std::_Tree<std::_Tset_traits<Telegram,std::less<Telegram>,std::allocator<Telegram>,0> >::_Erase

; 1473 : 		_Root() = this->_Myhead();

	mov	ecx, DWORD PTR _this$[ebp]
	call	?_Myhead@?$_Tree_comp_alloc@V?$_Tset_traits@UTelegram@@U?$less@UTelegram@@@std@@V?$allocator@UTelegram@@@3@$0A@@std@@@std@@QAEAAPAU?$_Tree_node@UTelegram@@PAX@2@XZ ; std::_Tree_comp_alloc<std::_Tset_traits<Telegram,std::less<Telegram>,std::allocator<Telegram>,0> >::_Myhead
	mov	esi, eax
	mov	ecx, DWORD PTR _this$[ebp]
	call	?_Root@?$_Tree@V?$_Tset_traits@UTelegram@@U?$less@UTelegram@@@std@@V?$allocator@UTelegram@@@3@$0A@@std@@@std@@IBEAAPAU?$_Tree_node@UTelegram@@PAX@2@XZ ; std::_Tree<std::_Tset_traits<Telegram,std::less<Telegram>,std::allocator<Telegram>,0> >::_Root
	mov	ecx, DWORD PTR [esi]
	mov	DWORD PTR [eax], ecx

; 1474 : 		_Lmost() = this->_Myhead();

	mov	ecx, DWORD PTR _this$[ebp]
	call	?_Myhead@?$_Tree_comp_alloc@V?$_Tset_traits@UTelegram@@U?$less@UTelegram@@@std@@V?$allocator@UTelegram@@@3@$0A@@std@@@std@@QAEAAPAU?$_Tree_node@UTelegram@@PAX@2@XZ ; std::_Tree_comp_alloc<std::_Tset_traits<Telegram,std::less<Telegram>,std::allocator<Telegram>,0> >::_Myhead
	mov	esi, eax
	mov	ecx, DWORD PTR _this$[ebp]
	call	?_Lmost@?$_Tree@V?$_Tset_traits@UTelegram@@U?$less@UTelegram@@@std@@V?$allocator@UTelegram@@@3@$0A@@std@@@std@@IBEAAPAU?$_Tree_node@UTelegram@@PAX@2@XZ ; std::_Tree<std::_Tset_traits<Telegram,std::less<Telegram>,std::allocator<Telegram>,0> >::_Lmost
	mov	edx, DWORD PTR [esi]
	mov	DWORD PTR [eax], edx

; 1475 : 		_Rmost() = this->_Myhead();

	mov	ecx, DWORD PTR _this$[ebp]
	call	?_Myhead@?$_Tree_comp_alloc@V?$_Tset_traits@UTelegram@@U?$less@UTelegram@@@std@@V?$allocator@UTelegram@@@3@$0A@@std@@@std@@QAEAAPAU?$_Tree_node@UTelegram@@PAX@2@XZ ; std::_Tree_comp_alloc<std::_Tset_traits<Telegram,std::less<Telegram>,std::allocator<Telegram>,0> >::_Myhead
	mov	esi, eax
	mov	ecx, DWORD PTR _this$[ebp]
	call	?_Rmost@?$_Tree@V?$_Tset_traits@UTelegram@@U?$less@UTelegram@@@std@@V?$allocator@UTelegram@@@3@$0A@@std@@@std@@IBEAAPAU?$_Tree_node@UTelegram@@PAX@2@XZ ; std::_Tree<std::_Tset_traits<Telegram,std::less<Telegram>,std::allocator<Telegram>,0> >::_Rmost
	mov	ecx, DWORD PTR [esi]
	mov	DWORD PTR [eax], ecx

; 1476 : 		this->_Mysize() = 0;

	mov	ecx, DWORD PTR _this$[ebp]
	call	?_Mysize@?$_Tree_comp_alloc@V?$_Tset_traits@UTelegram@@U?$less@UTelegram@@@std@@V?$allocator@UTelegram@@@3@$0A@@std@@@std@@QAEAAIXZ ; std::_Tree_comp_alloc<std::_Tset_traits<Telegram,std::less<Telegram>,std::allocator<Telegram>,0> >::_Mysize
	mov	DWORD PTR [eax], 0

; 1477 : 		}

	mov	ecx, DWORD PTR __$EHRec$[ebp]
	mov	DWORD PTR fs:0, ecx
	pop	ecx
	pop	esi
	add	esp, 16					; 00000010H
	cmp	ebp, esp
	call	__RTC_CheckEsp
	mov	esp, ebp
	pop	ebp
	ret	0
_TEXT	ENDS
;	COMDAT text$x
text$x	SEGMENT
__ehhandler$?clear@?$_Tree@V?$_Tset_traits@UTelegram@@U?$less@UTelegram@@@std@@V?$allocator@UTelegram@@@3@$0A@@std@@@std@@QAEXXZ:
	mov	edx, DWORD PTR [esp+8]
	lea	eax, DWORD PTR [edx+12]
	mov	ecx, DWORD PTR [edx-12]
	xor	ecx, eax
	call	@__security_check_cookie@4
	mov	eax, OFFSET __ehfuncinfo$?clear@?$_Tree@V?$_Tset_traits@UTelegram@@U?$less@UTelegram@@@std@@V?$allocator@UTelegram@@@3@$0A@@std@@@std@@QAEXXZ
	jmp	___CxxFrameHandler3
text$x	ENDS
?clear@?$_Tree@V?$_Tset_traits@UTelegram@@U?$less@UTelegram@@@std@@V?$allocator@UTelegram@@@3@$0A@@std@@@std@@QAEXXZ ENDP ; std::_Tree<std::_Tset_traits<Telegram,std::less<Telegram>,std::allocator<Telegram>,0> >::clear
; Function compile flags: /Odtp /RTCsu
; File c:\program files (x86)\microsoft visual studio 14.0\vc\include\xtree
;	COMDAT ?erase@?$_Tree@V?$_Tset_traits@UTelegram@@U?$less@UTelegram@@@std@@V?$allocator@UTelegram@@@3@$0A@@std@@@std@@QAE?AV?$_Tree_const_iterator@V?$_Tree_val@U?$_Tree_simple_types@UTelegram@@@std@@@std@@@2@V32@0@Z
_TEXT	SEGMENT
tv191 = -92						; size = 4
tv190 = -88						; size = 4
tv86 = -84						; size = 4
tv178 = -80						; size = 4
tv198 = -76						; size = 4
tv173 = -72						; size = 4
tv152 = -68						; size = 4
$T2 = -64						; size = 4
$T3 = -60						; size = 12
$T4 = -48						; size = 4
$T5 = -44						; size = 12
$T6 = -32						; size = 12
$T7 = -17						; size = 1
_this$ = -16						; size = 4
__$EHRec$ = -12						; size = 12
___$ReturnUdt$ = 8					; size = 4
__First$ = 12						; size = 12
__Last$ = 24						; size = 12
?erase@?$_Tree@V?$_Tset_traits@UTelegram@@U?$less@UTelegram@@@std@@V?$allocator@UTelegram@@@3@$0A@@std@@@std@@QAE?AV?$_Tree_const_iterator@V?$_Tree_val@U?$_Tree_simple_types@UTelegram@@@std@@@std@@@2@V32@0@Z PROC ; std::_Tree<std::_Tset_traits<Telegram,std::less<Telegram>,std::allocator<Telegram>,0> >::erase, COMDAT
; _this$ = ecx

; 1444 : 		{	// erase [_First, _Last)

	push	ebp
	mov	ebp, esp
	push	-1
	push	__ehhandler$?erase@?$_Tree@V?$_Tset_traits@UTelegram@@U?$less@UTelegram@@@std@@V?$allocator@UTelegram@@@3@$0A@@std@@@std@@QAE?AV?$_Tree_const_iterator@V?$_Tree_val@U?$_Tree_simple_types@UTelegram@@@std@@@std@@@2@V32@0@Z
	mov	eax, DWORD PTR fs:0
	push	eax
	sub	esp, 80					; 00000050H
	push	edi
	push	ecx
	lea	edi, DWORD PTR [ebp-92]
	mov	ecx, 20					; 00000014H
	mov	eax, -858993460				; ccccccccH
	rep stosd
	pop	ecx
	mov	eax, DWORD PTR ___security_cookie
	xor	eax, ebp
	push	eax
	lea	eax, DWORD PTR __$EHRec$[ebp]
	mov	DWORD PTR fs:0, eax
	mov	DWORD PTR _this$[ebp], ecx
	mov	DWORD PTR $T2[ebp], 0
	mov	DWORD PTR __$EHRec$[ebp+8], 1

; 1445 : 		if (_First == begin() && _Last == end())

	lea	eax, DWORD PTR $T6[ebp]
	push	eax
	mov	ecx, DWORD PTR _this$[ebp]
	call	?begin@?$_Tree@V?$_Tset_traits@UTelegram@@U?$less@UTelegram@@@std@@V?$allocator@UTelegram@@@3@$0A@@std@@@std@@QAE?AV?$_Tree_const_iterator@V?$_Tree_val@U?$_Tree_simple_types@UTelegram@@@std@@@std@@@2@XZ ; std::_Tree<std::_Tset_traits<Telegram,std::less<Telegram>,std::allocator<Telegram>,0> >::begin
	mov	DWORD PTR tv152[ebp], eax
	mov	ecx, DWORD PTR tv152[ebp]
	mov	DWORD PTR tv173[ebp], ecx
	mov	BYTE PTR __$EHRec$[ebp+8], 2
	mov	edx, DWORD PTR $T2[ebp]
	or	edx, 1
	mov	DWORD PTR $T2[ebp], edx
	mov	eax, DWORD PTR tv173[ebp]
	push	eax
	lea	ecx, DWORD PTR __First$[ebp]
	call	??8?$_Tree_const_iterator@V?$_Tree_val@U?$_Tree_simple_types@UTelegram@@@std@@@std@@@std@@QBE_NABV01@@Z ; std::_Tree_const_iterator<std::_Tree_val<std::_Tree_simple_types<Telegram> > >::operator==
	movzx	ecx, al
	test	ecx, ecx
	je	SHORT $LN7@erase
	lea	edx, DWORD PTR $T5[ebp]
	push	edx
	mov	ecx, DWORD PTR _this$[ebp]
	call	?end@?$_Tree@V?$_Tset_traits@UTelegram@@U?$less@UTelegram@@@std@@V?$allocator@UTelegram@@@3@$0A@@std@@@std@@QAE?AV?$_Tree_const_iterator@V?$_Tree_val@U?$_Tree_simple_types@UTelegram@@@std@@@std@@@2@XZ ; std::_Tree<std::_Tset_traits<Telegram,std::less<Telegram>,std::allocator<Telegram>,0> >::end
	mov	DWORD PTR tv198[ebp], eax
	mov	eax, DWORD PTR tv198[ebp]
	mov	DWORD PTR tv178[ebp], eax
	mov	DWORD PTR __$EHRec$[ebp+8], 3
	mov	ecx, DWORD PTR $T2[ebp]
	or	ecx, 2
	mov	DWORD PTR $T2[ebp], ecx
	mov	edx, DWORD PTR tv178[ebp]
	push	edx
	lea	ecx, DWORD PTR __Last$[ebp]
	call	??8?$_Tree_const_iterator@V?$_Tree_val@U?$_Tree_simple_types@UTelegram@@@std@@@std@@@std@@QBE_NABV01@@Z ; std::_Tree_const_iterator<std::_Tree_val<std::_Tree_simple_types<Telegram> > >::operator==
	movzx	eax, al
	test	eax, eax
	je	SHORT $LN7@erase
	mov	DWORD PTR tv86[ebp], 1
	jmp	SHORT $LN8@erase
$LN7@erase:
	mov	DWORD PTR tv86[ebp], 0
$LN8@erase:
	mov	cl, BYTE PTR tv86[ebp]
	mov	BYTE PTR $T7[ebp], cl
	mov	DWORD PTR __$EHRec$[ebp+8], 2
	mov	edx, DWORD PTR $T2[ebp]
	and	edx, 2
	je	SHORT $LN15@erase
	and	DWORD PTR $T2[ebp], -3			; fffffffdH
	lea	ecx, DWORD PTR $T5[ebp]
	call	??1?$_Tree_const_iterator@V?$_Tree_val@U?$_Tree_simple_types@UTelegram@@@std@@@std@@@std@@QAE@XZ
$LN15@erase:
	mov	DWORD PTR __$EHRec$[ebp+8], 1
	mov	eax, DWORD PTR $T2[ebp]
	and	eax, 1
	je	SHORT $LN16@erase
	and	DWORD PTR $T2[ebp], -2			; fffffffeH
	lea	ecx, DWORD PTR $T6[ebp]
	call	??1?$_Tree_const_iterator@V?$_Tree_val@U?$_Tree_simple_types@UTelegram@@@std@@@std@@@std@@QAE@XZ
$LN16@erase:
	movzx	ecx, BYTE PTR $T7[ebp]
	test	ecx, ecx
	je	SHORT $LN2@erase

; 1446 : 			{	// erase all
; 1447 : 			clear();

	mov	ecx, DWORD PTR _this$[ebp]
	call	?clear@?$_Tree@V?$_Tset_traits@UTelegram@@U?$less@UTelegram@@@std@@V?$allocator@UTelegram@@@3@$0A@@std@@@std@@QAEXXZ ; std::_Tree<std::_Tset_traits<Telegram,std::less<Telegram>,std::allocator<Telegram>,0> >::clear

; 1448 : 			return (begin());

	mov	edx, DWORD PTR ___$ReturnUdt$[ebp]
	push	edx
	mov	ecx, DWORD PTR _this$[ebp]
	call	?begin@?$_Tree@V?$_Tset_traits@UTelegram@@U?$less@UTelegram@@@std@@V?$allocator@UTelegram@@@3@$0A@@std@@@std@@QAE?AV?$_Tree_const_iterator@V?$_Tree_val@U?$_Tree_simple_types@UTelegram@@@std@@@std@@@2@XZ ; std::_Tree<std::_Tset_traits<Telegram,std::less<Telegram>,std::allocator<Telegram>,0> >::begin
	mov	eax, DWORD PTR $T2[ebp]
	or	eax, 4
	mov	DWORD PTR $T2[ebp], eax
	mov	BYTE PTR __$EHRec$[ebp+8], 0
	lea	ecx, DWORD PTR __First$[ebp]
	call	??1?$_Tree_const_iterator@V?$_Tree_val@U?$_Tree_simple_types@UTelegram@@@std@@@std@@@std@@QAE@XZ
	mov	DWORD PTR __$EHRec$[ebp+8], -1
	lea	ecx, DWORD PTR __Last$[ebp]
	call	??1?$_Tree_const_iterator@V?$_Tree_val@U?$_Tree_simple_types@UTelegram@@@std@@@std@@@std@@QAE@XZ
	mov	eax, DWORD PTR ___$ReturnUdt$[ebp]
	jmp	$LN1@erase

; 1449 : 			}
; 1450 : 		else

	jmp	$LN5@erase
$LN2@erase:

; 1451 : 			{	// partial erase, one at a time
; 1452 : 			while (_First != _Last)

	lea	ecx, DWORD PTR __Last$[ebp]
	push	ecx
	lea	ecx, DWORD PTR __First$[ebp]
	call	??9?$_Tree_const_iterator@V?$_Tree_val@U?$_Tree_simple_types@UTelegram@@@std@@@std@@@std@@QBE_NABV01@@Z ; std::_Tree_const_iterator<std::_Tree_val<std::_Tree_simple_types<Telegram> > >::operator!=
	movzx	edx, al
	test	edx, edx
	je	SHORT $LN3@erase

; 1453 : 				erase(_First++);

	sub	esp, 12					; 0000000cH
	mov	eax, esp
	mov	DWORD PTR $T4[ebp], esp
	push	0
	push	eax
	lea	ecx, DWORD PTR __First$[ebp]
	call	??E?$_Tree_const_iterator@V?$_Tree_val@U?$_Tree_simple_types@UTelegram@@@std@@@std@@@std@@QAE?AV01@H@Z ; std::_Tree_const_iterator<std::_Tree_val<std::_Tree_simple_types<Telegram> > >::operator++
	mov	DWORD PTR tv190[ebp], eax
	lea	ecx, DWORD PTR $T3[ebp]
	push	ecx
	mov	ecx, DWORD PTR _this$[ebp]
	call	?erase@?$_Tree@V?$_Tset_traits@UTelegram@@U?$less@UTelegram@@@std@@V?$allocator@UTelegram@@@3@$0A@@std@@@std@@QAE?AV?$_Tree_const_iterator@V?$_Tree_val@U?$_Tree_simple_types@UTelegram@@@std@@@std@@@2@V32@@Z ; std::_Tree<std::_Tset_traits<Telegram,std::less<Telegram>,std::allocator<Telegram>,0> >::erase
	mov	DWORD PTR tv191[ebp], eax
	lea	ecx, DWORD PTR $T3[ebp]
	call	??1?$_Tree_const_iterator@V?$_Tree_val@U?$_Tree_simple_types@UTelegram@@@std@@@std@@@std@@QAE@XZ
	jmp	SHORT $LN2@erase
$LN3@erase:

; 1454 : 			return (iterator(_First._Ptr, &this->_Get_data()));

	mov	ecx, DWORD PTR _this$[ebp]
	call	?_Get_data@?$_Tree_comp_alloc@V?$_Tset_traits@UTelegram@@U?$less@UTelegram@@@std@@V?$allocator@UTelegram@@@3@$0A@@std@@@std@@QAEAAV?$_Tree_val@U?$_Tree_simple_types@UTelegram@@@std@@@2@XZ ; std::_Tree_comp_alloc<std::_Tset_traits<Telegram,std::less<Telegram>,std::allocator<Telegram>,0> >::_Get_data
	push	eax
	mov	edx, DWORD PTR __First$[ebp+8]
	push	edx
	mov	ecx, DWORD PTR ___$ReturnUdt$[ebp]
	call	??0?$_Tree_const_iterator@V?$_Tree_val@U?$_Tree_simple_types@UTelegram@@@std@@@std@@@std@@QAE@PAU?$_Tree_node@UTelegram@@PAX@1@PBV?$_Tree_val@U?$_Tree_simple_types@UTelegram@@@std@@@1@@Z ; std::_Tree_const_iterator<std::_Tree_val<std::_Tree_simple_types<Telegram> > >::_Tree_const_iterator<std::_Tree_val<std::_Tree_simple_types<Telegram> > >
	mov	eax, DWORD PTR $T2[ebp]
	or	eax, 4
	mov	DWORD PTR $T2[ebp], eax
	mov	BYTE PTR __$EHRec$[ebp+8], 0
	lea	ecx, DWORD PTR __First$[ebp]
	call	??1?$_Tree_const_iterator@V?$_Tree_val@U?$_Tree_simple_types@UTelegram@@@std@@@std@@@std@@QAE@XZ
	mov	DWORD PTR __$EHRec$[ebp+8], -1
	lea	ecx, DWORD PTR __Last$[ebp]
	call	??1?$_Tree_const_iterator@V?$_Tree_val@U?$_Tree_simple_types@UTelegram@@@std@@@std@@@std@@QAE@XZ
	mov	eax, DWORD PTR ___$ReturnUdt$[ebp]
	jmp	SHORT $LN1@erase
$LN5@erase:

; 1455 : 			}
; 1456 : 		}

	mov	BYTE PTR __$EHRec$[ebp+8], 0
	lea	ecx, DWORD PTR __First$[ebp]
	call	??1?$_Tree_const_iterator@V?$_Tree_val@U?$_Tree_simple_types@UTelegram@@@std@@@std@@@std@@QAE@XZ
	mov	DWORD PTR __$EHRec$[ebp+8], -1
	lea	ecx, DWORD PTR __Last$[ebp]
	call	??1?$_Tree_const_iterator@V?$_Tree_val@U?$_Tree_simple_types@UTelegram@@@std@@@std@@@std@@QAE@XZ
$LN1@erase:
	mov	ecx, DWORD PTR __$EHRec$[ebp]
	mov	DWORD PTR fs:0, ecx
	pop	ecx
	pop	edi
	add	esp, 92					; 0000005cH
	cmp	ebp, esp
	call	__RTC_CheckEsp
	mov	esp, ebp
	pop	ebp
	ret	28					; 0000001cH
_TEXT	ENDS
;	COMDAT text$x
text$x	SEGMENT
__unwindfunclet$?erase@?$_Tree@V?$_Tset_traits@UTelegram@@U?$less@UTelegram@@@std@@V?$allocator@UTelegram@@@3@$0A@@std@@@std@@QAE?AV?$_Tree_const_iterator@V?$_Tree_val@U?$_Tree_simple_types@UTelegram@@@std@@@std@@@2@V32@0@Z$0:
	lea	ecx, DWORD PTR __Last$[ebp]
	jmp	??1?$_Tree_const_iterator@V?$_Tree_val@U?$_Tree_simple_types@UTelegram@@@std@@@std@@@std@@QAE@XZ
__unwindfunclet$?erase@?$_Tree@V?$_Tset_traits@UTelegram@@U?$less@UTelegram@@@std@@V?$allocator@UTelegram@@@3@$0A@@std@@@std@@QAE?AV?$_Tree_const_iterator@V?$_Tree_val@U?$_Tree_simple_types@UTelegram@@@std@@@std@@@2@V32@0@Z$1:
	lea	ecx, DWORD PTR __First$[ebp]
	jmp	??1?$_Tree_const_iterator@V?$_Tree_val@U?$_Tree_simple_types@UTelegram@@@std@@@std@@@std@@QAE@XZ
__unwindfunclet$?erase@?$_Tree@V?$_Tset_traits@UTelegram@@U?$less@UTelegram@@@std@@V?$allocator@UTelegram@@@3@$0A@@std@@@std@@QAE?AV?$_Tree_const_iterator@V?$_Tree_val@U?$_Tree_simple_types@UTelegram@@@std@@@std@@@2@V32@0@Z$2:
	mov	eax, DWORD PTR $T2[ebp]
	and	eax, 1
	je	$LN12@erase
	and	DWORD PTR $T2[ebp], -2			; fffffffeH
	lea	ecx, DWORD PTR $T6[ebp]
	jmp	??1?$_Tree_const_iterator@V?$_Tree_val@U?$_Tree_simple_types@UTelegram@@@std@@@std@@@std@@QAE@XZ
$LN12@erase:
	ret	0
__unwindfunclet$?erase@?$_Tree@V?$_Tset_traits@UTelegram@@U?$less@UTelegram@@@std@@V?$allocator@UTelegram@@@3@$0A@@std@@@std@@QAE?AV?$_Tree_const_iterator@V?$_Tree_val@U?$_Tree_simple_types@UTelegram@@@std@@@std@@@2@V32@0@Z$3:
	mov	eax, DWORD PTR $T2[ebp]
	and	eax, 2
	je	$LN14@erase
	and	DWORD PTR $T2[ebp], -3			; fffffffdH
	lea	ecx, DWORD PTR $T5[ebp]
	jmp	??1?$_Tree_const_iterator@V?$_Tree_val@U?$_Tree_simple_types@UTelegram@@@std@@@std@@@std@@QAE@XZ
$LN14@erase:
	ret	0
__ehhandler$?erase@?$_Tree@V?$_Tset_traits@UTelegram@@U?$less@UTelegram@@@std@@V?$allocator@UTelegram@@@3@$0A@@std@@@std@@QAE?AV?$_Tree_const_iterator@V?$_Tree_val@U?$_Tree_simple_types@UTelegram@@@std@@@std@@@2@V32@0@Z:
	mov	edx, DWORD PTR [esp+8]
	lea	eax, DWORD PTR [edx+12]
	mov	ecx, DWORD PTR [edx-88]
	xor	ecx, eax
	call	@__security_check_cookie@4
	mov	eax, OFFSET __ehfuncinfo$?erase@?$_Tree@V?$_Tset_traits@UTelegram@@U?$less@UTelegram@@@std@@V?$allocator@UTelegram@@@3@$0A@@std@@@std@@QAE?AV?$_Tree_const_iterator@V?$_Tree_val@U?$_Tree_simple_types@UTelegram@@@std@@@std@@@2@V32@0@Z
	jmp	___CxxFrameHandler3
text$x	ENDS
?erase@?$_Tree@V?$_Tset_traits@UTelegram@@U?$less@UTelegram@@@std@@V?$allocator@UTelegram@@@3@$0A@@std@@@std@@QAE?AV?$_Tree_const_iterator@V?$_Tree_val@U?$_Tree_simple_types@UTelegram@@@std@@@std@@@2@V32@0@Z ENDP ; std::_Tree<std::_Tset_traits<Telegram,std::less<Telegram>,std::allocator<Telegram>,0> >::erase
; Function compile flags: /Odtp /RTCsu
; File c:\program files (x86)\microsoft visual studio 14.0\vc\include\xtree
;	COMDAT ?erase@?$_Tree@V?$_Tset_traits@UTelegram@@U?$less@UTelegram@@@std@@V?$allocator@UTelegram@@@3@$0A@@std@@@std@@QAE?AV?$_Tree_const_iterator@V?$_Tree_val@U?$_Tree_simple_types@UTelegram@@@std@@@std@@@2@V32@@Z
_TEXT	SEGMENT
tv434 = -48						; size = 4
tv204 = -44						; size = 4
tv192 = -40						; size = 4
$T2 = -36						; size = 4
__Pnode$ = -32						; size = 4
__Fixnodeparent$ = -28					; size = 4
__Fixnode$ = -24					; size = 4
__Erasednode$ = -20					; size = 4
_this$ = -16						; size = 4
__$EHRec$ = -12						; size = 12
___$ReturnUdt$ = 8					; size = 4
__Where$ = 12						; size = 12
?erase@?$_Tree@V?$_Tset_traits@UTelegram@@U?$less@UTelegram@@@std@@V?$allocator@UTelegram@@@3@$0A@@std@@@std@@QAE?AV?$_Tree_const_iterator@V?$_Tree_val@U?$_Tree_simple_types@UTelegram@@@std@@@std@@@2@V32@@Z PROC ; std::_Tree<std::_Tset_traits<Telegram,std::less<Telegram>,std::allocator<Telegram>,0> >::erase, COMDAT
; _this$ = ecx

; 1259 : 		{	// erase element at _Where

	push	ebp
	mov	ebp, esp
	push	-1
	push	__ehhandler$?erase@?$_Tree@V?$_Tset_traits@UTelegram@@U?$less@UTelegram@@@std@@V?$allocator@UTelegram@@@3@$0A@@std@@@std@@QAE?AV?$_Tree_const_iterator@V?$_Tree_val@U?$_Tree_simple_types@UTelegram@@@std@@@std@@@2@V32@@Z
	mov	eax, DWORD PTR fs:0
	push	eax
	sub	esp, 36					; 00000024H
	push	esi
	mov	eax, -858993460				; ccccccccH
	mov	DWORD PTR [ebp-48], eax
	mov	DWORD PTR [ebp-44], eax
	mov	DWORD PTR [ebp-40], eax
	mov	DWORD PTR [ebp-36], eax
	mov	DWORD PTR [ebp-32], eax
	mov	DWORD PTR [ebp-28], eax
	mov	DWORD PTR [ebp-24], eax
	mov	DWORD PTR [ebp-20], eax
	mov	DWORD PTR [ebp-16], eax
	mov	eax, DWORD PTR ___security_cookie
	xor	eax, ebp
	push	eax
	lea	eax, DWORD PTR __$EHRec$[ebp]
	mov	DWORD PTR fs:0, eax
	mov	DWORD PTR _this$[ebp], ecx
	mov	DWORD PTR $T2[ebp], 0
	mov	DWORD PTR __$EHRec$[ebp+8], 0

; 1260 :  #if _ITERATOR_DEBUG_LEVEL == 2
; 1261 : 		if (_Where._Getcont() != &this->_Get_data()
; 1262 : 			|| this->_Isnil(_Where._Mynode()))

	lea	ecx, DWORD PTR __Where$[ebp]
	call	?_Getcont@_Iterator_base12@std@@QBEPBU_Container_base12@2@XZ ; std::_Iterator_base12::_Getcont
	mov	esi, eax
	mov	ecx, DWORD PTR _this$[ebp]
	call	?_Get_data@?$_Tree_comp_alloc@V?$_Tset_traits@UTelegram@@U?$less@UTelegram@@@std@@V?$allocator@UTelegram@@@3@$0A@@std@@@std@@QAEAAV?$_Tree_val@U?$_Tree_simple_types@UTelegram@@@std@@@2@XZ ; std::_Tree_comp_alloc<std::_Tset_traits<Telegram,std::less<Telegram>,std::allocator<Telegram>,0> >::_Get_data
	cmp	esi, eax
	jne	SHORT $LN6@erase
	lea	ecx, DWORD PTR __Where$[ebp]
	call	?_Mynode@?$_Tree_unchecked_const_iterator@V?$_Tree_val@U?$_Tree_simple_types@UTelegram@@@std@@@std@@U_Iterator_base12@2@@std@@QBEPAU?$_Tree_node@UTelegram@@PAX@2@XZ ; std::_Tree_unchecked_const_iterator<std::_Tree_val<std::_Tree_simple_types<Telegram> >,std::_Iterator_base12>::_Mynode
	push	eax
	call	?_Isnil@?$_Tree_comp_alloc@V?$_Tset_traits@UTelegram@@U?$less@UTelegram@@@std@@V?$allocator@UTelegram@@@3@$0A@@std@@@std@@SAAADPAU?$_Tree_node@UTelegram@@PAX@2@@Z ; std::_Tree_comp_alloc<std::_Tset_traits<Telegram,std::less<Telegram>,std::allocator<Telegram>,0> >::_Isnil
	add	esp, 4
	movsx	eax, BYTE PTR [eax]
	test	eax, eax
	je	SHORT $LN5@erase
$LN6@erase:

; 1263 : 			_DEBUG_ERROR("map/set erase iterator outside range");

	push	1263					; 000004efH
	push	OFFSET ??_C@_1IK@BEABFJGP@?$AAC?$AA?3?$AA?2?$AAP?$AAr?$AAo?$AAg?$AAr?$AAa?$AAm?$AA?5?$AAF?$AAi?$AAl?$AAe?$AAs?$AA?5?$AA?$CI?$AAx?$AA8?$AA6?$AA?$CJ?$AA?2?$AAM?$AAi?$AAc?$AAr?$AAo?$AAs?$AAo?$AAf?$AAt@
	push	OFFSET ??_C@_1EK@PPDBPCAN@?$AAm?$AAa?$AAp?$AA?1?$AAs?$AAe?$AAt?$AA?5?$AAe?$AAr?$AAa?$AAs?$AAe?$AA?5?$AAi?$AAt?$AAe?$AAr?$AAa?$AAt?$AAo?$AAr?$AA?5?$AAo?$AAu?$AAt?$AAs?$AAi?$AAd?$AAe?$AA?5?$AAr@
	call	?_Debug_message@std@@YAXPB_W0I@Z	; std::_Debug_message
	add	esp, 12					; 0000000cH
$LN5@erase:

; 1264 : 		_Nodeptr _Erasednode = _Where._Mynode();	// node to erase

	lea	ecx, DWORD PTR __Where$[ebp]
	call	?_Mynode@?$_Tree_unchecked_const_iterator@V?$_Tree_val@U?$_Tree_simple_types@UTelegram@@@std@@@std@@U_Iterator_base12@2@@std@@QBEPAU?$_Tree_node@UTelegram@@PAX@2@XZ ; std::_Tree_unchecked_const_iterator<std::_Tree_val<std::_Tree_simple_types<Telegram> >,std::_Iterator_base12>::_Mynode
	mov	DWORD PTR __Erasednode$[ebp], eax

; 1265 : 		++_Where;	// save successor iterator for return

	lea	ecx, DWORD PTR __Where$[ebp]
	call	??E?$_Tree_const_iterator@V?$_Tree_val@U?$_Tree_simple_types@UTelegram@@@std@@@std@@@std@@QAEAAV01@XZ ; std::_Tree_const_iterator<std::_Tree_val<std::_Tree_simple_types<Telegram> > >::operator++

; 1266 : 		_Orphan_ptr(_Erasednode);

	mov	ecx, DWORD PTR __Erasednode$[ebp]
	push	ecx
	mov	ecx, DWORD PTR _this$[ebp]
	call	?_Orphan_ptr@?$_Tree@V?$_Tset_traits@UTelegram@@U?$less@UTelegram@@@std@@V?$allocator@UTelegram@@@3@$0A@@std@@@std@@IAEXPAU?$_Tree_node@UTelegram@@PAX@2@@Z ; std::_Tree<std::_Tset_traits<Telegram,std::less<Telegram>,std::allocator<Telegram>,0> >::_Orphan_ptr

; 1267 : 
; 1268 :  #else /* _ITERATOR_DEBUG_LEVEL == 2 */
; 1269 : 		_Nodeptr _Erasednode = _Where._Mynode();	// node to erase
; 1270 : 		++_Where;	// save successor iterator for return
; 1271 :  #endif /* _ITERATOR_DEBUG_LEVEL == 2 */
; 1272 : 
; 1273 : 		_Nodeptr _Fixnode;	// the node to recolor as needed
; 1274 : 		_Nodeptr _Fixnodeparent;	// parent of _Fixnode (which may be nil)
; 1275 : 		_Nodeptr _Pnode = _Erasednode;

	mov	edx, DWORD PTR __Erasednode$[ebp]
	mov	DWORD PTR __Pnode$[ebp], edx

; 1276 : 
; 1277 : 		if (this->_Isnil(this->_Left(_Pnode)))

	mov	eax, DWORD PTR __Pnode$[ebp]
	push	eax
	call	?_Left@?$_Tree_comp_alloc@V?$_Tset_traits@UTelegram@@U?$less@UTelegram@@@std@@V?$allocator@UTelegram@@@3@$0A@@std@@@std@@SAAAPAU?$_Tree_node@UTelegram@@PAX@2@PAU32@@Z ; std::_Tree_comp_alloc<std::_Tset_traits<Telegram,std::less<Telegram>,std::allocator<Telegram>,0> >::_Left
	add	esp, 4
	mov	ecx, DWORD PTR [eax]
	push	ecx
	call	?_Isnil@?$_Tree_comp_alloc@V?$_Tset_traits@UTelegram@@U?$less@UTelegram@@@std@@V?$allocator@UTelegram@@@3@$0A@@std@@@std@@SAAADPAU?$_Tree_node@UTelegram@@PAX@2@@Z ; std::_Tree_comp_alloc<std::_Tset_traits<Telegram,std::less<Telegram>,std::allocator<Telegram>,0> >::_Isnil
	add	esp, 4
	movsx	edx, BYTE PTR [eax]
	test	edx, edx
	je	SHORT $LN7@erase

; 1278 : 			_Fixnode = this->_Right(_Pnode);	// stitch up right subtree

	mov	eax, DWORD PTR __Pnode$[ebp]
	push	eax
	call	?_Right@?$_Tree_comp_alloc@V?$_Tset_traits@UTelegram@@U?$less@UTelegram@@@std@@V?$allocator@UTelegram@@@3@$0A@@std@@@std@@SAAAPAU?$_Tree_node@UTelegram@@PAX@2@PAU32@@Z ; std::_Tree_comp_alloc<std::_Tset_traits<Telegram,std::less<Telegram>,std::allocator<Telegram>,0> >::_Right
	add	esp, 4
	mov	ecx, DWORD PTR [eax]
	mov	DWORD PTR __Fixnode$[ebp], ecx
	jmp	SHORT $LN8@erase
$LN7@erase:

; 1279 : 		else if (this->_Isnil(this->_Right(_Pnode)))

	mov	edx, DWORD PTR __Pnode$[ebp]
	push	edx
	call	?_Right@?$_Tree_comp_alloc@V?$_Tset_traits@UTelegram@@U?$less@UTelegram@@@std@@V?$allocator@UTelegram@@@3@$0A@@std@@@std@@SAAAPAU?$_Tree_node@UTelegram@@PAX@2@PAU32@@Z ; std::_Tree_comp_alloc<std::_Tset_traits<Telegram,std::less<Telegram>,std::allocator<Telegram>,0> >::_Right
	add	esp, 4
	mov	eax, DWORD PTR [eax]
	push	eax
	call	?_Isnil@?$_Tree_comp_alloc@V?$_Tset_traits@UTelegram@@U?$less@UTelegram@@@std@@V?$allocator@UTelegram@@@3@$0A@@std@@@std@@SAAADPAU?$_Tree_node@UTelegram@@PAX@2@@Z ; std::_Tree_comp_alloc<std::_Tset_traits<Telegram,std::less<Telegram>,std::allocator<Telegram>,0> >::_Isnil
	add	esp, 4
	movsx	ecx, BYTE PTR [eax]
	test	ecx, ecx
	je	SHORT $LN9@erase

; 1280 : 			_Fixnode = this->_Left(_Pnode);	// stitch up left subtree

	mov	edx, DWORD PTR __Pnode$[ebp]
	push	edx
	call	?_Left@?$_Tree_comp_alloc@V?$_Tset_traits@UTelegram@@U?$less@UTelegram@@@std@@V?$allocator@UTelegram@@@3@$0A@@std@@@std@@SAAAPAU?$_Tree_node@UTelegram@@PAX@2@PAU32@@Z ; std::_Tree_comp_alloc<std::_Tset_traits<Telegram,std::less<Telegram>,std::allocator<Telegram>,0> >::_Left
	add	esp, 4
	mov	eax, DWORD PTR [eax]
	mov	DWORD PTR __Fixnode$[ebp], eax

; 1281 : 		else

	jmp	SHORT $LN8@erase
$LN9@erase:

; 1282 : 			{	// two subtrees, must lift successor node to replace erased
; 1283 : 			_Pnode = _Where._Mynode();	// _Pnode is successor node

	lea	ecx, DWORD PTR __Where$[ebp]
	call	?_Mynode@?$_Tree_unchecked_const_iterator@V?$_Tree_val@U?$_Tree_simple_types@UTelegram@@@std@@@std@@U_Iterator_base12@2@@std@@QBEPAU?$_Tree_node@UTelegram@@PAX@2@XZ ; std::_Tree_unchecked_const_iterator<std::_Tree_val<std::_Tree_simple_types<Telegram> >,std::_Iterator_base12>::_Mynode
	mov	DWORD PTR __Pnode$[ebp], eax

; 1284 : 			_Fixnode = this->_Right(_Pnode);	// _Fixnode is only subtree

	mov	ecx, DWORD PTR __Pnode$[ebp]
	push	ecx
	call	?_Right@?$_Tree_comp_alloc@V?$_Tset_traits@UTelegram@@U?$less@UTelegram@@@std@@V?$allocator@UTelegram@@@3@$0A@@std@@@std@@SAAAPAU?$_Tree_node@UTelegram@@PAX@2@PAU32@@Z ; std::_Tree_comp_alloc<std::_Tset_traits<Telegram,std::less<Telegram>,std::allocator<Telegram>,0> >::_Right
	add	esp, 4
	mov	edx, DWORD PTR [eax]
	mov	DWORD PTR __Fixnode$[ebp], edx
$LN8@erase:

; 1285 : 			}
; 1286 : 
; 1287 : 		if (_Pnode == _Erasednode)

	mov	eax, DWORD PTR __Pnode$[ebp]
	cmp	eax, DWORD PTR __Erasednode$[ebp]
	jne	$LN11@erase

; 1288 : 			{	// at most one subtree, relink it
; 1289 : 			_Fixnodeparent = this->_Parent(_Erasednode);

	mov	ecx, DWORD PTR __Erasednode$[ebp]
	push	ecx
	call	?_Parent@?$_Tree_comp_alloc@V?$_Tset_traits@UTelegram@@U?$less@UTelegram@@@std@@V?$allocator@UTelegram@@@3@$0A@@std@@@std@@SAAAPAU?$_Tree_node@UTelegram@@PAX@2@PAU32@@Z ; std::_Tree_comp_alloc<std::_Tset_traits<Telegram,std::less<Telegram>,std::allocator<Telegram>,0> >::_Parent
	add	esp, 4
	mov	edx, DWORD PTR [eax]
	mov	DWORD PTR __Fixnodeparent$[ebp], edx

; 1290 : 			if (!this->_Isnil(_Fixnode))

	mov	eax, DWORD PTR __Fixnode$[ebp]
	push	eax
	call	?_Isnil@?$_Tree_comp_alloc@V?$_Tset_traits@UTelegram@@U?$less@UTelegram@@@std@@V?$allocator@UTelegram@@@3@$0A@@std@@@std@@SAAADPAU?$_Tree_node@UTelegram@@PAX@2@@Z ; std::_Tree_comp_alloc<std::_Tset_traits<Telegram,std::less<Telegram>,std::allocator<Telegram>,0> >::_Isnil
	add	esp, 4
	movsx	ecx, BYTE PTR [eax]
	test	ecx, ecx
	jne	SHORT $LN13@erase

; 1291 : 				this->_Parent(_Fixnode) = _Fixnodeparent;	// link up

	mov	edx, DWORD PTR __Fixnode$[ebp]
	push	edx
	call	?_Parent@?$_Tree_comp_alloc@V?$_Tset_traits@UTelegram@@U?$less@UTelegram@@@std@@V?$allocator@UTelegram@@@3@$0A@@std@@@std@@SAAAPAU?$_Tree_node@UTelegram@@PAX@2@PAU32@@Z ; std::_Tree_comp_alloc<std::_Tset_traits<Telegram,std::less<Telegram>,std::allocator<Telegram>,0> >::_Parent
	add	esp, 4
	mov	ecx, DWORD PTR __Fixnodeparent$[ebp]
	mov	DWORD PTR [eax], ecx
$LN13@erase:

; 1292 : 
; 1293 : 			if (_Root() == _Erasednode)

	mov	ecx, DWORD PTR _this$[ebp]
	call	?_Root@?$_Tree@V?$_Tset_traits@UTelegram@@U?$less@UTelegram@@@std@@V?$allocator@UTelegram@@@3@$0A@@std@@@std@@IBEAAPAU?$_Tree_node@UTelegram@@PAX@2@XZ ; std::_Tree<std::_Tset_traits<Telegram,std::less<Telegram>,std::allocator<Telegram>,0> >::_Root
	mov	edx, DWORD PTR [eax]
	cmp	edx, DWORD PTR __Erasednode$[ebp]
	jne	SHORT $LN14@erase

; 1294 : 				_Root() = _Fixnode;	// link down from root

	mov	ecx, DWORD PTR _this$[ebp]
	call	?_Root@?$_Tree@V?$_Tset_traits@UTelegram@@U?$less@UTelegram@@@std@@V?$allocator@UTelegram@@@3@$0A@@std@@@std@@IBEAAPAU?$_Tree_node@UTelegram@@PAX@2@XZ ; std::_Tree<std::_Tset_traits<Telegram,std::less<Telegram>,std::allocator<Telegram>,0> >::_Root
	mov	ecx, DWORD PTR __Fixnode$[ebp]
	mov	DWORD PTR [eax], ecx
	jmp	SHORT $LN15@erase
$LN14@erase:

; 1295 : 			else if (this->_Left(_Fixnodeparent) == _Erasednode)

	mov	edx, DWORD PTR __Fixnodeparent$[ebp]
	push	edx
	call	?_Left@?$_Tree_comp_alloc@V?$_Tset_traits@UTelegram@@U?$less@UTelegram@@@std@@V?$allocator@UTelegram@@@3@$0A@@std@@@std@@SAAAPAU?$_Tree_node@UTelegram@@PAX@2@PAU32@@Z ; std::_Tree_comp_alloc<std::_Tset_traits<Telegram,std::less<Telegram>,std::allocator<Telegram>,0> >::_Left
	add	esp, 4
	mov	eax, DWORD PTR [eax]
	cmp	eax, DWORD PTR __Erasednode$[ebp]
	jne	SHORT $LN16@erase

; 1296 : 				this->_Left(_Fixnodeparent) = _Fixnode;	// link down to left

	mov	ecx, DWORD PTR __Fixnodeparent$[ebp]
	push	ecx
	call	?_Left@?$_Tree_comp_alloc@V?$_Tset_traits@UTelegram@@U?$less@UTelegram@@@std@@V?$allocator@UTelegram@@@3@$0A@@std@@@std@@SAAAPAU?$_Tree_node@UTelegram@@PAX@2@PAU32@@Z ; std::_Tree_comp_alloc<std::_Tset_traits<Telegram,std::less<Telegram>,std::allocator<Telegram>,0> >::_Left
	add	esp, 4
	mov	edx, DWORD PTR __Fixnode$[ebp]
	mov	DWORD PTR [eax], edx

; 1297 : 			else

	jmp	SHORT $LN15@erase
$LN16@erase:

; 1298 : 				this->_Right(_Fixnodeparent) =

	mov	eax, DWORD PTR __Fixnodeparent$[ebp]
	push	eax
	call	?_Right@?$_Tree_comp_alloc@V?$_Tset_traits@UTelegram@@U?$less@UTelegram@@@std@@V?$allocator@UTelegram@@@3@$0A@@std@@@std@@SAAAPAU?$_Tree_node@UTelegram@@PAX@2@PAU32@@Z ; std::_Tree_comp_alloc<std::_Tset_traits<Telegram,std::less<Telegram>,std::allocator<Telegram>,0> >::_Right
	add	esp, 4
	mov	ecx, DWORD PTR __Fixnode$[ebp]
	mov	DWORD PTR [eax], ecx
$LN15@erase:

; 1299 : 					_Fixnode;	// link down to right
; 1300 : 
; 1301 : 			if (_Lmost() == _Erasednode)

	mov	ecx, DWORD PTR _this$[ebp]
	call	?_Lmost@?$_Tree@V?$_Tset_traits@UTelegram@@U?$less@UTelegram@@@std@@V?$allocator@UTelegram@@@3@$0A@@std@@@std@@IBEAAPAU?$_Tree_node@UTelegram@@PAX@2@XZ ; std::_Tree<std::_Tset_traits<Telegram,std::less<Telegram>,std::allocator<Telegram>,0> >::_Lmost
	mov	edx, DWORD PTR [eax]
	cmp	edx, DWORD PTR __Erasednode$[ebp]
	jne	SHORT $LN18@erase

; 1302 : 				_Lmost() = this->_Isnil(_Fixnode)

	mov	eax, DWORD PTR __Fixnode$[ebp]
	push	eax
	call	?_Isnil@?$_Tree_comp_alloc@V?$_Tset_traits@UTelegram@@U?$less@UTelegram@@@std@@V?$allocator@UTelegram@@@3@$0A@@std@@@std@@SAAADPAU?$_Tree_node@UTelegram@@PAX@2@@Z ; std::_Tree_comp_alloc<std::_Tset_traits<Telegram,std::less<Telegram>,std::allocator<Telegram>,0> >::_Isnil
	add	esp, 4
	movsx	ecx, BYTE PTR [eax]
	test	ecx, ecx
	je	SHORT $LN44@erase
	mov	edx, DWORD PTR __Fixnodeparent$[ebp]
	mov	DWORD PTR tv192[ebp], edx
	jmp	SHORT $LN45@erase
$LN44@erase:
	mov	eax, DWORD PTR __Fixnode$[ebp]
	push	eax
	call	?_Min@?$_Tree_comp_alloc@V?$_Tset_traits@UTelegram@@U?$less@UTelegram@@@std@@V?$allocator@UTelegram@@@3@$0A@@std@@@std@@SAPAU?$_Tree_node@UTelegram@@PAX@2@PAU32@@Z ; std::_Tree_comp_alloc<std::_Tset_traits<Telegram,std::less<Telegram>,std::allocator<Telegram>,0> >::_Min
	add	esp, 4
	mov	DWORD PTR tv192[ebp], eax
$LN45@erase:
	mov	ecx, DWORD PTR _this$[ebp]
	call	?_Lmost@?$_Tree@V?$_Tset_traits@UTelegram@@U?$less@UTelegram@@@std@@V?$allocator@UTelegram@@@3@$0A@@std@@@std@@IBEAAPAU?$_Tree_node@UTelegram@@PAX@2@XZ ; std::_Tree<std::_Tset_traits<Telegram,std::less<Telegram>,std::allocator<Telegram>,0> >::_Lmost
	mov	ecx, DWORD PTR tv192[ebp]
	mov	DWORD PTR [eax], ecx
$LN18@erase:

; 1303 : 					? _Fixnodeparent	// smallest is parent of erased node
; 1304 : 					: this->_Min(_Fixnode);	// smallest in relinked subtree
; 1305 : 
; 1306 : 			if (_Rmost() == _Erasednode)

	mov	ecx, DWORD PTR _this$[ebp]
	call	?_Rmost@?$_Tree@V?$_Tset_traits@UTelegram@@U?$less@UTelegram@@@std@@V?$allocator@UTelegram@@@3@$0A@@std@@@std@@IBEAAPAU?$_Tree_node@UTelegram@@PAX@2@XZ ; std::_Tree<std::_Tset_traits<Telegram,std::less<Telegram>,std::allocator<Telegram>,0> >::_Rmost
	mov	edx, DWORD PTR [eax]
	cmp	edx, DWORD PTR __Erasednode$[ebp]
	jne	SHORT $LN19@erase

; 1307 : 				_Rmost() = this->_Isnil(_Fixnode)

	mov	eax, DWORD PTR __Fixnode$[ebp]
	push	eax
	call	?_Isnil@?$_Tree_comp_alloc@V?$_Tset_traits@UTelegram@@U?$less@UTelegram@@@std@@V?$allocator@UTelegram@@@3@$0A@@std@@@std@@SAAADPAU?$_Tree_node@UTelegram@@PAX@2@@Z ; std::_Tree_comp_alloc<std::_Tset_traits<Telegram,std::less<Telegram>,std::allocator<Telegram>,0> >::_Isnil
	add	esp, 4
	movsx	ecx, BYTE PTR [eax]
	test	ecx, ecx
	je	SHORT $LN46@erase
	mov	edx, DWORD PTR __Fixnodeparent$[ebp]
	mov	DWORD PTR tv204[ebp], edx
	jmp	SHORT $LN47@erase
$LN46@erase:
	mov	eax, DWORD PTR __Fixnode$[ebp]
	push	eax
	call	?_Max@?$_Tree_comp_alloc@V?$_Tset_traits@UTelegram@@U?$less@UTelegram@@@std@@V?$allocator@UTelegram@@@3@$0A@@std@@@std@@SAPAU?$_Tree_node@UTelegram@@PAX@2@PAU32@@Z ; std::_Tree_comp_alloc<std::_Tset_traits<Telegram,std::less<Telegram>,std::allocator<Telegram>,0> >::_Max
	add	esp, 4
	mov	DWORD PTR tv204[ebp], eax
$LN47@erase:
	mov	ecx, DWORD PTR _this$[ebp]
	call	?_Rmost@?$_Tree@V?$_Tset_traits@UTelegram@@U?$less@UTelegram@@@std@@V?$allocator@UTelegram@@@3@$0A@@std@@@std@@IBEAAPAU?$_Tree_node@UTelegram@@PAX@2@XZ ; std::_Tree<std::_Tset_traits<Telegram,std::less<Telegram>,std::allocator<Telegram>,0> >::_Rmost
	mov	ecx, DWORD PTR tv204[ebp]
	mov	DWORD PTR [eax], ecx
$LN19@erase:

; 1308 : 					? _Fixnodeparent	// largest is parent of erased node
; 1309 : 					: this->_Max(_Fixnode);	// largest in relinked subtree
; 1310 : 			}
; 1311 : 		else

	jmp	$LN12@erase
$LN11@erase:

; 1312 : 			{	// erased has two subtrees, _Pnode is successor to erased
; 1313 : 			this->_Parent(this->_Left(_Erasednode)) =

	mov	edx, DWORD PTR __Erasednode$[ebp]
	push	edx
	call	?_Left@?$_Tree_comp_alloc@V?$_Tset_traits@UTelegram@@U?$less@UTelegram@@@std@@V?$allocator@UTelegram@@@3@$0A@@std@@@std@@SAAAPAU?$_Tree_node@UTelegram@@PAX@2@PAU32@@Z ; std::_Tree_comp_alloc<std::_Tset_traits<Telegram,std::less<Telegram>,std::allocator<Telegram>,0> >::_Left
	add	esp, 4
	mov	eax, DWORD PTR [eax]
	push	eax
	call	?_Parent@?$_Tree_comp_alloc@V?$_Tset_traits@UTelegram@@U?$less@UTelegram@@@std@@V?$allocator@UTelegram@@@3@$0A@@std@@@std@@SAAAPAU?$_Tree_node@UTelegram@@PAX@2@PAU32@@Z ; std::_Tree_comp_alloc<std::_Tset_traits<Telegram,std::less<Telegram>,std::allocator<Telegram>,0> >::_Parent
	add	esp, 4
	mov	ecx, DWORD PTR __Pnode$[ebp]
	mov	DWORD PTR [eax], ecx

; 1314 : 				_Pnode;	// link left up
; 1315 : 			this->_Left(_Pnode) =

	mov	edx, DWORD PTR __Erasednode$[ebp]
	push	edx
	call	?_Left@?$_Tree_comp_alloc@V?$_Tset_traits@UTelegram@@U?$less@UTelegram@@@std@@V?$allocator@UTelegram@@@3@$0A@@std@@@std@@SAAAPAU?$_Tree_node@UTelegram@@PAX@2@PAU32@@Z ; std::_Tree_comp_alloc<std::_Tset_traits<Telegram,std::less<Telegram>,std::allocator<Telegram>,0> >::_Left
	add	esp, 4
	mov	esi, eax
	mov	eax, DWORD PTR __Pnode$[ebp]
	push	eax
	call	?_Left@?$_Tree_comp_alloc@V?$_Tset_traits@UTelegram@@U?$less@UTelegram@@@std@@V?$allocator@UTelegram@@@3@$0A@@std@@@std@@SAAAPAU?$_Tree_node@UTelegram@@PAX@2@PAU32@@Z ; std::_Tree_comp_alloc<std::_Tset_traits<Telegram,std::less<Telegram>,std::allocator<Telegram>,0> >::_Left
	add	esp, 4
	mov	ecx, DWORD PTR [esi]
	mov	DWORD PTR [eax], ecx

; 1316 : 				this->_Left(_Erasednode);	// link successor down
; 1317 : 
; 1318 : 			if (_Pnode == this->_Right(_Erasednode))

	mov	edx, DWORD PTR __Erasednode$[ebp]
	push	edx
	call	?_Right@?$_Tree_comp_alloc@V?$_Tset_traits@UTelegram@@U?$less@UTelegram@@@std@@V?$allocator@UTelegram@@@3@$0A@@std@@@std@@SAAAPAU?$_Tree_node@UTelegram@@PAX@2@PAU32@@Z ; std::_Tree_comp_alloc<std::_Tset_traits<Telegram,std::less<Telegram>,std::allocator<Telegram>,0> >::_Right
	add	esp, 4
	mov	ecx, DWORD PTR __Pnode$[ebp]
	cmp	ecx, DWORD PTR [eax]
	jne	SHORT $LN20@erase

; 1319 : 				_Fixnodeparent = _Pnode;	// successor is next to erased

	mov	edx, DWORD PTR __Pnode$[ebp]
	mov	DWORD PTR __Fixnodeparent$[ebp], edx

; 1320 : 			else

	jmp	$LN21@erase
$LN20@erase:

; 1321 : 				{	// successor further down, link in place of erased
; 1322 : 				_Fixnodeparent =

	mov	eax, DWORD PTR __Pnode$[ebp]
	push	eax
	call	?_Parent@?$_Tree_comp_alloc@V?$_Tset_traits@UTelegram@@U?$less@UTelegram@@@std@@V?$allocator@UTelegram@@@3@$0A@@std@@@std@@SAAAPAU?$_Tree_node@UTelegram@@PAX@2@PAU32@@Z ; std::_Tree_comp_alloc<std::_Tset_traits<Telegram,std::less<Telegram>,std::allocator<Telegram>,0> >::_Parent
	add	esp, 4
	mov	ecx, DWORD PTR [eax]
	mov	DWORD PTR __Fixnodeparent$[ebp], ecx

; 1323 : 					this->_Parent(_Pnode);	// parent is successor's
; 1324 : 				if (!this->_Isnil(_Fixnode))

	mov	edx, DWORD PTR __Fixnode$[ebp]
	push	edx
	call	?_Isnil@?$_Tree_comp_alloc@V?$_Tset_traits@UTelegram@@U?$less@UTelegram@@@std@@V?$allocator@UTelegram@@@3@$0A@@std@@@std@@SAAADPAU?$_Tree_node@UTelegram@@PAX@2@@Z ; std::_Tree_comp_alloc<std::_Tset_traits<Telegram,std::less<Telegram>,std::allocator<Telegram>,0> >::_Isnil
	add	esp, 4
	movsx	eax, BYTE PTR [eax]
	test	eax, eax
	jne	SHORT $LN22@erase

; 1325 : 					this->_Parent(_Fixnode) = _Fixnodeparent;	// link fix up

	mov	ecx, DWORD PTR __Fixnode$[ebp]
	push	ecx
	call	?_Parent@?$_Tree_comp_alloc@V?$_Tset_traits@UTelegram@@U?$less@UTelegram@@@std@@V?$allocator@UTelegram@@@3@$0A@@std@@@std@@SAAAPAU?$_Tree_node@UTelegram@@PAX@2@PAU32@@Z ; std::_Tree_comp_alloc<std::_Tset_traits<Telegram,std::less<Telegram>,std::allocator<Telegram>,0> >::_Parent
	add	esp, 4
	mov	edx, DWORD PTR __Fixnodeparent$[ebp]
	mov	DWORD PTR [eax], edx
$LN22@erase:

; 1326 : 				this->_Left(_Fixnodeparent) = _Fixnode;	// link fix down

	mov	eax, DWORD PTR __Fixnodeparent$[ebp]
	push	eax
	call	?_Left@?$_Tree_comp_alloc@V?$_Tset_traits@UTelegram@@U?$less@UTelegram@@@std@@V?$allocator@UTelegram@@@3@$0A@@std@@@std@@SAAAPAU?$_Tree_node@UTelegram@@PAX@2@PAU32@@Z ; std::_Tree_comp_alloc<std::_Tset_traits<Telegram,std::less<Telegram>,std::allocator<Telegram>,0> >::_Left
	add	esp, 4
	mov	ecx, DWORD PTR __Fixnode$[ebp]
	mov	DWORD PTR [eax], ecx

; 1327 : 				this->_Right(_Pnode) =

	mov	edx, DWORD PTR __Erasednode$[ebp]
	push	edx
	call	?_Right@?$_Tree_comp_alloc@V?$_Tset_traits@UTelegram@@U?$less@UTelegram@@@std@@V?$allocator@UTelegram@@@3@$0A@@std@@@std@@SAAAPAU?$_Tree_node@UTelegram@@PAX@2@PAU32@@Z ; std::_Tree_comp_alloc<std::_Tset_traits<Telegram,std::less<Telegram>,std::allocator<Telegram>,0> >::_Right
	add	esp, 4
	mov	esi, eax
	mov	eax, DWORD PTR __Pnode$[ebp]
	push	eax
	call	?_Right@?$_Tree_comp_alloc@V?$_Tset_traits@UTelegram@@U?$less@UTelegram@@@std@@V?$allocator@UTelegram@@@3@$0A@@std@@@std@@SAAAPAU?$_Tree_node@UTelegram@@PAX@2@PAU32@@Z ; std::_Tree_comp_alloc<std::_Tset_traits<Telegram,std::less<Telegram>,std::allocator<Telegram>,0> >::_Right
	add	esp, 4
	mov	ecx, DWORD PTR [esi]
	mov	DWORD PTR [eax], ecx

; 1328 : 					this->_Right(_Erasednode);	// link next down
; 1329 : 				this->_Parent(this->_Right(_Erasednode)) =

	mov	edx, DWORD PTR __Erasednode$[ebp]
	push	edx
	call	?_Right@?$_Tree_comp_alloc@V?$_Tset_traits@UTelegram@@U?$less@UTelegram@@@std@@V?$allocator@UTelegram@@@3@$0A@@std@@@std@@SAAAPAU?$_Tree_node@UTelegram@@PAX@2@PAU32@@Z ; std::_Tree_comp_alloc<std::_Tset_traits<Telegram,std::less<Telegram>,std::allocator<Telegram>,0> >::_Right
	add	esp, 4
	mov	eax, DWORD PTR [eax]
	push	eax
	call	?_Parent@?$_Tree_comp_alloc@V?$_Tset_traits@UTelegram@@U?$less@UTelegram@@@std@@V?$allocator@UTelegram@@@3@$0A@@std@@@std@@SAAAPAU?$_Tree_node@UTelegram@@PAX@2@PAU32@@Z ; std::_Tree_comp_alloc<std::_Tset_traits<Telegram,std::less<Telegram>,std::allocator<Telegram>,0> >::_Parent
	add	esp, 4
	mov	ecx, DWORD PTR __Pnode$[ebp]
	mov	DWORD PTR [eax], ecx
$LN21@erase:

; 1330 : 					_Pnode;	// right up
; 1331 : 				}
; 1332 : 
; 1333 : 			if (_Root() == _Erasednode)

	mov	ecx, DWORD PTR _this$[ebp]
	call	?_Root@?$_Tree@V?$_Tset_traits@UTelegram@@U?$less@UTelegram@@@std@@V?$allocator@UTelegram@@@3@$0A@@std@@@std@@IBEAAPAU?$_Tree_node@UTelegram@@PAX@2@XZ ; std::_Tree<std::_Tset_traits<Telegram,std::less<Telegram>,std::allocator<Telegram>,0> >::_Root
	mov	edx, DWORD PTR [eax]
	cmp	edx, DWORD PTR __Erasednode$[ebp]
	jne	SHORT $LN23@erase

; 1334 : 				_Root() = _Pnode;	// link down from root

	mov	ecx, DWORD PTR _this$[ebp]
	call	?_Root@?$_Tree@V?$_Tset_traits@UTelegram@@U?$less@UTelegram@@@std@@V?$allocator@UTelegram@@@3@$0A@@std@@@std@@IBEAAPAU?$_Tree_node@UTelegram@@PAX@2@XZ ; std::_Tree<std::_Tset_traits<Telegram,std::less<Telegram>,std::allocator<Telegram>,0> >::_Root
	mov	ecx, DWORD PTR __Pnode$[ebp]
	mov	DWORD PTR [eax], ecx
	jmp	SHORT $LN24@erase
$LN23@erase:

; 1335 : 			else if (this->_Left(this->_Parent(_Erasednode)) == _Erasednode)

	mov	edx, DWORD PTR __Erasednode$[ebp]
	push	edx
	call	?_Parent@?$_Tree_comp_alloc@V?$_Tset_traits@UTelegram@@U?$less@UTelegram@@@std@@V?$allocator@UTelegram@@@3@$0A@@std@@@std@@SAAAPAU?$_Tree_node@UTelegram@@PAX@2@PAU32@@Z ; std::_Tree_comp_alloc<std::_Tset_traits<Telegram,std::less<Telegram>,std::allocator<Telegram>,0> >::_Parent
	add	esp, 4
	mov	eax, DWORD PTR [eax]
	push	eax
	call	?_Left@?$_Tree_comp_alloc@V?$_Tset_traits@UTelegram@@U?$less@UTelegram@@@std@@V?$allocator@UTelegram@@@3@$0A@@std@@@std@@SAAAPAU?$_Tree_node@UTelegram@@PAX@2@PAU32@@Z ; std::_Tree_comp_alloc<std::_Tset_traits<Telegram,std::less<Telegram>,std::allocator<Telegram>,0> >::_Left
	add	esp, 4
	mov	ecx, DWORD PTR [eax]
	cmp	ecx, DWORD PTR __Erasednode$[ebp]
	jne	SHORT $LN25@erase

; 1336 : 				this->_Left(this->_Parent(_Erasednode)) =

	mov	edx, DWORD PTR __Erasednode$[ebp]
	push	edx
	call	?_Parent@?$_Tree_comp_alloc@V?$_Tset_traits@UTelegram@@U?$less@UTelegram@@@std@@V?$allocator@UTelegram@@@3@$0A@@std@@@std@@SAAAPAU?$_Tree_node@UTelegram@@PAX@2@PAU32@@Z ; std::_Tree_comp_alloc<std::_Tset_traits<Telegram,std::less<Telegram>,std::allocator<Telegram>,0> >::_Parent
	add	esp, 4
	mov	eax, DWORD PTR [eax]
	push	eax
	call	?_Left@?$_Tree_comp_alloc@V?$_Tset_traits@UTelegram@@U?$less@UTelegram@@@std@@V?$allocator@UTelegram@@@3@$0A@@std@@@std@@SAAAPAU?$_Tree_node@UTelegram@@PAX@2@PAU32@@Z ; std::_Tree_comp_alloc<std::_Tset_traits<Telegram,std::less<Telegram>,std::allocator<Telegram>,0> >::_Left
	add	esp, 4
	mov	ecx, DWORD PTR __Pnode$[ebp]
	mov	DWORD PTR [eax], ecx

; 1337 : 					_Pnode;	// link down to left
; 1338 : 			else

	jmp	SHORT $LN24@erase
$LN25@erase:

; 1339 : 				this->_Right(this->_Parent(_Erasednode)) =

	mov	edx, DWORD PTR __Erasednode$[ebp]
	push	edx
	call	?_Parent@?$_Tree_comp_alloc@V?$_Tset_traits@UTelegram@@U?$less@UTelegram@@@std@@V?$allocator@UTelegram@@@3@$0A@@std@@@std@@SAAAPAU?$_Tree_node@UTelegram@@PAX@2@PAU32@@Z ; std::_Tree_comp_alloc<std::_Tset_traits<Telegram,std::less<Telegram>,std::allocator<Telegram>,0> >::_Parent
	add	esp, 4
	mov	eax, DWORD PTR [eax]
	push	eax
	call	?_Right@?$_Tree_comp_alloc@V?$_Tset_traits@UTelegram@@U?$less@UTelegram@@@std@@V?$allocator@UTelegram@@@3@$0A@@std@@@std@@SAAAPAU?$_Tree_node@UTelegram@@PAX@2@PAU32@@Z ; std::_Tree_comp_alloc<std::_Tset_traits<Telegram,std::less<Telegram>,std::allocator<Telegram>,0> >::_Right
	add	esp, 4
	mov	ecx, DWORD PTR __Pnode$[ebp]
	mov	DWORD PTR [eax], ecx
$LN24@erase:

; 1340 : 					_Pnode;	// link down to right
; 1341 : 
; 1342 : 			this->_Parent(_Pnode) =

	mov	edx, DWORD PTR __Erasednode$[ebp]
	push	edx
	call	?_Parent@?$_Tree_comp_alloc@V?$_Tset_traits@UTelegram@@U?$less@UTelegram@@@std@@V?$allocator@UTelegram@@@3@$0A@@std@@@std@@SAAAPAU?$_Tree_node@UTelegram@@PAX@2@PAU32@@Z ; std::_Tree_comp_alloc<std::_Tset_traits<Telegram,std::less<Telegram>,std::allocator<Telegram>,0> >::_Parent
	add	esp, 4
	mov	esi, eax
	mov	eax, DWORD PTR __Pnode$[ebp]
	push	eax
	call	?_Parent@?$_Tree_comp_alloc@V?$_Tset_traits@UTelegram@@U?$less@UTelegram@@@std@@V?$allocator@UTelegram@@@3@$0A@@std@@@std@@SAAAPAU?$_Tree_node@UTelegram@@PAX@2@PAU32@@Z ; std::_Tree_comp_alloc<std::_Tset_traits<Telegram,std::less<Telegram>,std::allocator<Telegram>,0> >::_Parent
	add	esp, 4
	mov	ecx, DWORD PTR [esi]
	mov	DWORD PTR [eax], ecx

; 1343 : 				this->_Parent(_Erasednode);	// link successor up
; 1344 : 			_STD swap(this->_Color(_Pnode),

	mov	edx, DWORD PTR __Erasednode$[ebp]
	push	edx
	call	?_Color@?$_Tree_comp_alloc@V?$_Tset_traits@UTelegram@@U?$less@UTelegram@@@std@@V?$allocator@UTelegram@@@3@$0A@@std@@@std@@SAAADPAU?$_Tree_node@UTelegram@@PAX@2@@Z ; std::_Tree_comp_alloc<std::_Tset_traits<Telegram,std::less<Telegram>,std::allocator<Telegram>,0> >::_Color
	add	esp, 4
	push	eax
	mov	eax, DWORD PTR __Pnode$[ebp]
	push	eax
	call	?_Color@?$_Tree_comp_alloc@V?$_Tset_traits@UTelegram@@U?$less@UTelegram@@@std@@V?$allocator@UTelegram@@@3@$0A@@std@@@std@@SAAADPAU?$_Tree_node@UTelegram@@PAX@2@@Z ; std::_Tree_comp_alloc<std::_Tset_traits<Telegram,std::less<Telegram>,std::allocator<Telegram>,0> >::_Color
	add	esp, 4
	push	eax
	call	??$swap@DX@std@@YAXAAD0@Z		; std::swap<char,void>
	add	esp, 8
$LN12@erase:

; 1345 : 				this->_Color(_Erasednode));	// recolor it
; 1346 : 			}
; 1347 : 
; 1348 : 		if (this->_Color(_Erasednode) == this->_Black)

	mov	ecx, DWORD PTR __Erasednode$[ebp]
	push	ecx
	call	?_Color@?$_Tree_comp_alloc@V?$_Tset_traits@UTelegram@@U?$less@UTelegram@@@std@@V?$allocator@UTelegram@@@3@$0A@@std@@@std@@SAAADPAU?$_Tree_node@UTelegram@@PAX@2@@Z ; std::_Tree_comp_alloc<std::_Tset_traits<Telegram,std::less<Telegram>,std::allocator<Telegram>,0> >::_Color
	add	esp, 4
	movsx	edx, BYTE PTR [eax]
	cmp	edx, 1
	jne	$LN27@erase

; 1349 : 			{	// erasing black link, must recolor/rebalance tree
; 1350 : 			for (; _Fixnode != _Root()

	jmp	SHORT $LN4@erase
$LN2@erase:

; 1352 : 				_Fixnodeparent = this->_Parent(_Fixnode))

	mov	eax, DWORD PTR __Fixnode$[ebp]
	push	eax
	call	?_Parent@?$_Tree_comp_alloc@V?$_Tset_traits@UTelegram@@U?$less@UTelegram@@@std@@V?$allocator@UTelegram@@@3@$0A@@std@@@std@@SAAAPAU?$_Tree_node@UTelegram@@PAX@2@PAU32@@Z ; std::_Tree_comp_alloc<std::_Tset_traits<Telegram,std::less<Telegram>,std::allocator<Telegram>,0> >::_Parent
	add	esp, 4
	mov	ecx, DWORD PTR [eax]
	mov	DWORD PTR __Fixnodeparent$[ebp], ecx
$LN4@erase:

; 1351 : 				&& this->_Color(_Fixnode) == this->_Black;

	mov	ecx, DWORD PTR _this$[ebp]
	call	?_Root@?$_Tree@V?$_Tset_traits@UTelegram@@U?$less@UTelegram@@@std@@V?$allocator@UTelegram@@@3@$0A@@std@@@std@@IBEAAPAU?$_Tree_node@UTelegram@@PAX@2@XZ ; std::_Tree<std::_Tset_traits<Telegram,std::less<Telegram>,std::allocator<Telegram>,0> >::_Root
	mov	edx, DWORD PTR __Fixnode$[ebp]
	cmp	edx, DWORD PTR [eax]
	je	$LN3@erase
	mov	eax, DWORD PTR __Fixnode$[ebp]
	push	eax
	call	?_Color@?$_Tree_comp_alloc@V?$_Tset_traits@UTelegram@@U?$less@UTelegram@@@std@@V?$allocator@UTelegram@@@3@$0A@@std@@@std@@SAAADPAU?$_Tree_node@UTelegram@@PAX@2@@Z ; std::_Tree_comp_alloc<std::_Tset_traits<Telegram,std::less<Telegram>,std::allocator<Telegram>,0> >::_Color
	add	esp, 4
	movsx	ecx, BYTE PTR [eax]
	cmp	ecx, 1
	jne	$LN3@erase

; 1353 : 				if (_Fixnode == this->_Left(_Fixnodeparent))

	mov	edx, DWORD PTR __Fixnodeparent$[ebp]
	push	edx
	call	?_Left@?$_Tree_comp_alloc@V?$_Tset_traits@UTelegram@@U?$less@UTelegram@@@std@@V?$allocator@UTelegram@@@3@$0A@@std@@@std@@SAAAPAU?$_Tree_node@UTelegram@@PAX@2@PAU32@@Z ; std::_Tree_comp_alloc<std::_Tset_traits<Telegram,std::less<Telegram>,std::allocator<Telegram>,0> >::_Left
	add	esp, 4
	mov	ecx, DWORD PTR __Fixnode$[ebp]
	cmp	ecx, DWORD PTR [eax]
	jne	$LN28@erase

; 1354 : 					{	// fixup left subtree
; 1355 : 					_Pnode = this->_Right(_Fixnodeparent);

	mov	edx, DWORD PTR __Fixnodeparent$[ebp]
	push	edx
	call	?_Right@?$_Tree_comp_alloc@V?$_Tset_traits@UTelegram@@U?$less@UTelegram@@@std@@V?$allocator@UTelegram@@@3@$0A@@std@@@std@@SAAAPAU?$_Tree_node@UTelegram@@PAX@2@PAU32@@Z ; std::_Tree_comp_alloc<std::_Tset_traits<Telegram,std::less<Telegram>,std::allocator<Telegram>,0> >::_Right
	add	esp, 4
	mov	eax, DWORD PTR [eax]
	mov	DWORD PTR __Pnode$[ebp], eax

; 1356 : 					if (this->_Color(_Pnode) == this->_Red)

	mov	ecx, DWORD PTR __Pnode$[ebp]
	push	ecx
	call	?_Color@?$_Tree_comp_alloc@V?$_Tset_traits@UTelegram@@U?$less@UTelegram@@@std@@V?$allocator@UTelegram@@@3@$0A@@std@@@std@@SAAADPAU?$_Tree_node@UTelegram@@PAX@2@@Z ; std::_Tree_comp_alloc<std::_Tset_traits<Telegram,std::less<Telegram>,std::allocator<Telegram>,0> >::_Color
	add	esp, 4
	movsx	edx, BYTE PTR [eax]
	test	edx, edx
	jne	SHORT $LN30@erase

; 1357 : 						{	// rotate red up from right subtree
; 1358 : 						this->_Color(_Pnode) = this->_Black;

	mov	eax, DWORD PTR __Pnode$[ebp]
	push	eax
	call	?_Color@?$_Tree_comp_alloc@V?$_Tset_traits@UTelegram@@U?$less@UTelegram@@@std@@V?$allocator@UTelegram@@@3@$0A@@std@@@std@@SAAADPAU?$_Tree_node@UTelegram@@PAX@2@@Z ; std::_Tree_comp_alloc<std::_Tset_traits<Telegram,std::less<Telegram>,std::allocator<Telegram>,0> >::_Color
	add	esp, 4
	mov	BYTE PTR [eax], 1

; 1359 : 						this->_Color(_Fixnodeparent) = this->_Red;

	mov	ecx, DWORD PTR __Fixnodeparent$[ebp]
	push	ecx
	call	?_Color@?$_Tree_comp_alloc@V?$_Tset_traits@UTelegram@@U?$less@UTelegram@@@std@@V?$allocator@UTelegram@@@3@$0A@@std@@@std@@SAAADPAU?$_Tree_node@UTelegram@@PAX@2@@Z ; std::_Tree_comp_alloc<std::_Tset_traits<Telegram,std::less<Telegram>,std::allocator<Telegram>,0> >::_Color
	add	esp, 4
	mov	BYTE PTR [eax], 0

; 1360 : 						_Lrotate(_Fixnodeparent);

	mov	edx, DWORD PTR __Fixnodeparent$[ebp]
	push	edx
	mov	ecx, DWORD PTR _this$[ebp]
	call	?_Lrotate@?$_Tree@V?$_Tset_traits@UTelegram@@U?$less@UTelegram@@@std@@V?$allocator@UTelegram@@@3@$0A@@std@@@std@@IAEXPAU?$_Tree_node@UTelegram@@PAX@2@@Z ; std::_Tree<std::_Tset_traits<Telegram,std::less<Telegram>,std::allocator<Telegram>,0> >::_Lrotate

; 1361 : 						_Pnode = this->_Right(_Fixnodeparent);

	mov	eax, DWORD PTR __Fixnodeparent$[ebp]
	push	eax
	call	?_Right@?$_Tree_comp_alloc@V?$_Tset_traits@UTelegram@@U?$less@UTelegram@@@std@@V?$allocator@UTelegram@@@3@$0A@@std@@@std@@SAAAPAU?$_Tree_node@UTelegram@@PAX@2@PAU32@@Z ; std::_Tree_comp_alloc<std::_Tset_traits<Telegram,std::less<Telegram>,std::allocator<Telegram>,0> >::_Right
	add	esp, 4
	mov	ecx, DWORD PTR [eax]
	mov	DWORD PTR __Pnode$[ebp], ecx
$LN30@erase:

; 1362 : 						}
; 1363 : 
; 1364 : 					if (this->_Isnil(_Pnode))

	mov	edx, DWORD PTR __Pnode$[ebp]
	push	edx
	call	?_Isnil@?$_Tree_comp_alloc@V?$_Tset_traits@UTelegram@@U?$less@UTelegram@@@std@@V?$allocator@UTelegram@@@3@$0A@@std@@@std@@SAAADPAU?$_Tree_node@UTelegram@@PAX@2@@Z ; std::_Tree_comp_alloc<std::_Tset_traits<Telegram,std::less<Telegram>,std::allocator<Telegram>,0> >::_Isnil
	add	esp, 4
	movsx	eax, BYTE PTR [eax]
	test	eax, eax
	je	SHORT $LN31@erase

; 1365 : 						_Fixnode = _Fixnodeparent;	// shouldn't happen

	mov	ecx, DWORD PTR __Fixnodeparent$[ebp]
	mov	DWORD PTR __Fixnode$[ebp], ecx

; 1366 : 					else if (this->_Color(this->_Left(_Pnode)) == this->_Black

	jmp	$LN32@erase
$LN31@erase:

; 1367 : 						&& this->_Color(this->_Right(_Pnode)) == this->_Black)

	mov	edx, DWORD PTR __Pnode$[ebp]
	push	edx
	call	?_Left@?$_Tree_comp_alloc@V?$_Tset_traits@UTelegram@@U?$less@UTelegram@@@std@@V?$allocator@UTelegram@@@3@$0A@@std@@@std@@SAAAPAU?$_Tree_node@UTelegram@@PAX@2@PAU32@@Z ; std::_Tree_comp_alloc<std::_Tset_traits<Telegram,std::less<Telegram>,std::allocator<Telegram>,0> >::_Left
	add	esp, 4
	mov	eax, DWORD PTR [eax]
	push	eax
	call	?_Color@?$_Tree_comp_alloc@V?$_Tset_traits@UTelegram@@U?$less@UTelegram@@@std@@V?$allocator@UTelegram@@@3@$0A@@std@@@std@@SAAADPAU?$_Tree_node@UTelegram@@PAX@2@@Z ; std::_Tree_comp_alloc<std::_Tset_traits<Telegram,std::less<Telegram>,std::allocator<Telegram>,0> >::_Color
	add	esp, 4
	movsx	ecx, BYTE PTR [eax]
	cmp	ecx, 1
	jne	SHORT $LN33@erase
	mov	edx, DWORD PTR __Pnode$[ebp]
	push	edx
	call	?_Right@?$_Tree_comp_alloc@V?$_Tset_traits@UTelegram@@U?$less@UTelegram@@@std@@V?$allocator@UTelegram@@@3@$0A@@std@@@std@@SAAAPAU?$_Tree_node@UTelegram@@PAX@2@PAU32@@Z ; std::_Tree_comp_alloc<std::_Tset_traits<Telegram,std::less<Telegram>,std::allocator<Telegram>,0> >::_Right
	add	esp, 4
	mov	eax, DWORD PTR [eax]
	push	eax
	call	?_Color@?$_Tree_comp_alloc@V?$_Tset_traits@UTelegram@@U?$less@UTelegram@@@std@@V?$allocator@UTelegram@@@3@$0A@@std@@@std@@SAAADPAU?$_Tree_node@UTelegram@@PAX@2@@Z ; std::_Tree_comp_alloc<std::_Tset_traits<Telegram,std::less<Telegram>,std::allocator<Telegram>,0> >::_Color
	add	esp, 4
	movsx	ecx, BYTE PTR [eax]
	cmp	ecx, 1
	jne	SHORT $LN33@erase

; 1368 : 						{	// redden right subtree with black children
; 1369 : 						this->_Color(_Pnode) = this->_Red;

	mov	edx, DWORD PTR __Pnode$[ebp]
	push	edx
	call	?_Color@?$_Tree_comp_alloc@V?$_Tset_traits@UTelegram@@U?$less@UTelegram@@@std@@V?$allocator@UTelegram@@@3@$0A@@std@@@std@@SAAADPAU?$_Tree_node@UTelegram@@PAX@2@@Z ; std::_Tree_comp_alloc<std::_Tset_traits<Telegram,std::less<Telegram>,std::allocator<Telegram>,0> >::_Color
	add	esp, 4
	mov	BYTE PTR [eax], 0

; 1370 : 						_Fixnode = _Fixnodeparent;

	mov	eax, DWORD PTR __Fixnodeparent$[ebp]
	mov	DWORD PTR __Fixnode$[ebp], eax

; 1371 : 						}
; 1372 : 					else

	jmp	$LN32@erase
$LN33@erase:

; 1373 : 						{	// must rearrange right subtree
; 1374 : 						if (this->_Color(this->_Right(_Pnode))
; 1375 : 							== this->_Black)

	mov	ecx, DWORD PTR __Pnode$[ebp]
	push	ecx
	call	?_Right@?$_Tree_comp_alloc@V?$_Tset_traits@UTelegram@@U?$less@UTelegram@@@std@@V?$allocator@UTelegram@@@3@$0A@@std@@@std@@SAAAPAU?$_Tree_node@UTelegram@@PAX@2@PAU32@@Z ; std::_Tree_comp_alloc<std::_Tset_traits<Telegram,std::less<Telegram>,std::allocator<Telegram>,0> >::_Right
	add	esp, 4
	mov	edx, DWORD PTR [eax]
	push	edx
	call	?_Color@?$_Tree_comp_alloc@V?$_Tset_traits@UTelegram@@U?$less@UTelegram@@@std@@V?$allocator@UTelegram@@@3@$0A@@std@@@std@@SAAADPAU?$_Tree_node@UTelegram@@PAX@2@@Z ; std::_Tree_comp_alloc<std::_Tset_traits<Telegram,std::less<Telegram>,std::allocator<Telegram>,0> >::_Color
	add	esp, 4
	movsx	eax, BYTE PTR [eax]
	cmp	eax, 1
	jne	SHORT $LN35@erase

; 1376 : 							{	// rotate red up from left sub-subtree
; 1377 : 							this->_Color(this->_Left(_Pnode)) = this->_Black;

	mov	ecx, DWORD PTR __Pnode$[ebp]
	push	ecx
	call	?_Left@?$_Tree_comp_alloc@V?$_Tset_traits@UTelegram@@U?$less@UTelegram@@@std@@V?$allocator@UTelegram@@@3@$0A@@std@@@std@@SAAAPAU?$_Tree_node@UTelegram@@PAX@2@PAU32@@Z ; std::_Tree_comp_alloc<std::_Tset_traits<Telegram,std::less<Telegram>,std::allocator<Telegram>,0> >::_Left
	add	esp, 4
	mov	edx, DWORD PTR [eax]
	push	edx
	call	?_Color@?$_Tree_comp_alloc@V?$_Tset_traits@UTelegram@@U?$less@UTelegram@@@std@@V?$allocator@UTelegram@@@3@$0A@@std@@@std@@SAAADPAU?$_Tree_node@UTelegram@@PAX@2@@Z ; std::_Tree_comp_alloc<std::_Tset_traits<Telegram,std::less<Telegram>,std::allocator<Telegram>,0> >::_Color
	add	esp, 4
	mov	BYTE PTR [eax], 1

; 1378 : 							this->_Color(_Pnode) = this->_Red;

	mov	eax, DWORD PTR __Pnode$[ebp]
	push	eax
	call	?_Color@?$_Tree_comp_alloc@V?$_Tset_traits@UTelegram@@U?$less@UTelegram@@@std@@V?$allocator@UTelegram@@@3@$0A@@std@@@std@@SAAADPAU?$_Tree_node@UTelegram@@PAX@2@@Z ; std::_Tree_comp_alloc<std::_Tset_traits<Telegram,std::less<Telegram>,std::allocator<Telegram>,0> >::_Color
	add	esp, 4
	mov	BYTE PTR [eax], 0

; 1379 : 							_Rrotate(_Pnode);

	mov	ecx, DWORD PTR __Pnode$[ebp]
	push	ecx
	mov	ecx, DWORD PTR _this$[ebp]
	call	?_Rrotate@?$_Tree@V?$_Tset_traits@UTelegram@@U?$less@UTelegram@@@std@@V?$allocator@UTelegram@@@3@$0A@@std@@@std@@IAEXPAU?$_Tree_node@UTelegram@@PAX@2@@Z ; std::_Tree<std::_Tset_traits<Telegram,std::less<Telegram>,std::allocator<Telegram>,0> >::_Rrotate

; 1380 : 							_Pnode = this->_Right(_Fixnodeparent);

	mov	edx, DWORD PTR __Fixnodeparent$[ebp]
	push	edx
	call	?_Right@?$_Tree_comp_alloc@V?$_Tset_traits@UTelegram@@U?$less@UTelegram@@@std@@V?$allocator@UTelegram@@@3@$0A@@std@@@std@@SAAAPAU?$_Tree_node@UTelegram@@PAX@2@PAU32@@Z ; std::_Tree_comp_alloc<std::_Tset_traits<Telegram,std::less<Telegram>,std::allocator<Telegram>,0> >::_Right
	add	esp, 4
	mov	eax, DWORD PTR [eax]
	mov	DWORD PTR __Pnode$[ebp], eax
$LN35@erase:

; 1381 : 							}
; 1382 : 
; 1383 : 						this->_Color(_Pnode) = this->_Color(_Fixnodeparent);

	mov	ecx, DWORD PTR __Fixnodeparent$[ebp]
	push	ecx
	call	?_Color@?$_Tree_comp_alloc@V?$_Tset_traits@UTelegram@@U?$less@UTelegram@@@std@@V?$allocator@UTelegram@@@3@$0A@@std@@@std@@SAAADPAU?$_Tree_node@UTelegram@@PAX@2@@Z ; std::_Tree_comp_alloc<std::_Tset_traits<Telegram,std::less<Telegram>,std::allocator<Telegram>,0> >::_Color
	add	esp, 4
	mov	esi, eax
	mov	edx, DWORD PTR __Pnode$[ebp]
	push	edx
	call	?_Color@?$_Tree_comp_alloc@V?$_Tset_traits@UTelegram@@U?$less@UTelegram@@@std@@V?$allocator@UTelegram@@@3@$0A@@std@@@std@@SAAADPAU?$_Tree_node@UTelegram@@PAX@2@@Z ; std::_Tree_comp_alloc<std::_Tset_traits<Telegram,std::less<Telegram>,std::allocator<Telegram>,0> >::_Color
	add	esp, 4
	mov	cl, BYTE PTR [esi]
	mov	BYTE PTR [eax], cl

; 1384 : 						this->_Color(_Fixnodeparent) = this->_Black;

	mov	edx, DWORD PTR __Fixnodeparent$[ebp]
	push	edx
	call	?_Color@?$_Tree_comp_alloc@V?$_Tset_traits@UTelegram@@U?$less@UTelegram@@@std@@V?$allocator@UTelegram@@@3@$0A@@std@@@std@@SAAADPAU?$_Tree_node@UTelegram@@PAX@2@@Z ; std::_Tree_comp_alloc<std::_Tset_traits<Telegram,std::less<Telegram>,std::allocator<Telegram>,0> >::_Color
	add	esp, 4
	mov	BYTE PTR [eax], 1

; 1385 : 						this->_Color(this->_Right(_Pnode)) = this->_Black;

	mov	eax, DWORD PTR __Pnode$[ebp]
	push	eax
	call	?_Right@?$_Tree_comp_alloc@V?$_Tset_traits@UTelegram@@U?$less@UTelegram@@@std@@V?$allocator@UTelegram@@@3@$0A@@std@@@std@@SAAAPAU?$_Tree_node@UTelegram@@PAX@2@PAU32@@Z ; std::_Tree_comp_alloc<std::_Tset_traits<Telegram,std::less<Telegram>,std::allocator<Telegram>,0> >::_Right
	add	esp, 4
	mov	ecx, DWORD PTR [eax]
	push	ecx
	call	?_Color@?$_Tree_comp_alloc@V?$_Tset_traits@UTelegram@@U?$less@UTelegram@@@std@@V?$allocator@UTelegram@@@3@$0A@@std@@@std@@SAAADPAU?$_Tree_node@UTelegram@@PAX@2@@Z ; std::_Tree_comp_alloc<std::_Tset_traits<Telegram,std::less<Telegram>,std::allocator<Telegram>,0> >::_Color
	add	esp, 4
	mov	BYTE PTR [eax], 1

; 1386 : 						_Lrotate(_Fixnodeparent);

	mov	edx, DWORD PTR __Fixnodeparent$[ebp]
	push	edx
	mov	ecx, DWORD PTR _this$[ebp]
	call	?_Lrotate@?$_Tree@V?$_Tset_traits@UTelegram@@U?$less@UTelegram@@@std@@V?$allocator@UTelegram@@@3@$0A@@std@@@std@@IAEXPAU?$_Tree_node@UTelegram@@PAX@2@@Z ; std::_Tree<std::_Tset_traits<Telegram,std::less<Telegram>,std::allocator<Telegram>,0> >::_Lrotate

; 1387 : 						break;	// tree now recolored/rebalanced

	jmp	$LN3@erase
$LN32@erase:

; 1388 : 						}
; 1389 : 					}
; 1390 : 				else

	jmp	$LN29@erase
$LN28@erase:

; 1391 : 					{	// fixup right subtree
; 1392 : 					_Pnode = this->_Left(_Fixnodeparent);

	mov	eax, DWORD PTR __Fixnodeparent$[ebp]
	push	eax
	call	?_Left@?$_Tree_comp_alloc@V?$_Tset_traits@UTelegram@@U?$less@UTelegram@@@std@@V?$allocator@UTelegram@@@3@$0A@@std@@@std@@SAAAPAU?$_Tree_node@UTelegram@@PAX@2@PAU32@@Z ; std::_Tree_comp_alloc<std::_Tset_traits<Telegram,std::less<Telegram>,std::allocator<Telegram>,0> >::_Left
	add	esp, 4
	mov	ecx, DWORD PTR [eax]
	mov	DWORD PTR __Pnode$[ebp], ecx

; 1393 : 					if (this->_Color(_Pnode) == this->_Red)

	mov	edx, DWORD PTR __Pnode$[ebp]
	push	edx
	call	?_Color@?$_Tree_comp_alloc@V?$_Tset_traits@UTelegram@@U?$less@UTelegram@@@std@@V?$allocator@UTelegram@@@3@$0A@@std@@@std@@SAAADPAU?$_Tree_node@UTelegram@@PAX@2@@Z ; std::_Tree_comp_alloc<std::_Tset_traits<Telegram,std::less<Telegram>,std::allocator<Telegram>,0> >::_Color
	add	esp, 4
	movsx	eax, BYTE PTR [eax]
	test	eax, eax
	jne	SHORT $LN36@erase

; 1394 : 						{	// rotate red up from left subtree
; 1395 : 						this->_Color(_Pnode) = this->_Black;

	mov	ecx, DWORD PTR __Pnode$[ebp]
	push	ecx
	call	?_Color@?$_Tree_comp_alloc@V?$_Tset_traits@UTelegram@@U?$less@UTelegram@@@std@@V?$allocator@UTelegram@@@3@$0A@@std@@@std@@SAAADPAU?$_Tree_node@UTelegram@@PAX@2@@Z ; std::_Tree_comp_alloc<std::_Tset_traits<Telegram,std::less<Telegram>,std::allocator<Telegram>,0> >::_Color
	add	esp, 4
	mov	BYTE PTR [eax], 1

; 1396 : 						this->_Color(_Fixnodeparent) = this->_Red;

	mov	edx, DWORD PTR __Fixnodeparent$[ebp]
	push	edx
	call	?_Color@?$_Tree_comp_alloc@V?$_Tset_traits@UTelegram@@U?$less@UTelegram@@@std@@V?$allocator@UTelegram@@@3@$0A@@std@@@std@@SAAADPAU?$_Tree_node@UTelegram@@PAX@2@@Z ; std::_Tree_comp_alloc<std::_Tset_traits<Telegram,std::less<Telegram>,std::allocator<Telegram>,0> >::_Color
	add	esp, 4
	mov	BYTE PTR [eax], 0

; 1397 : 						_Rrotate(_Fixnodeparent);

	mov	eax, DWORD PTR __Fixnodeparent$[ebp]
	push	eax
	mov	ecx, DWORD PTR _this$[ebp]
	call	?_Rrotate@?$_Tree@V?$_Tset_traits@UTelegram@@U?$less@UTelegram@@@std@@V?$allocator@UTelegram@@@3@$0A@@std@@@std@@IAEXPAU?$_Tree_node@UTelegram@@PAX@2@@Z ; std::_Tree<std::_Tset_traits<Telegram,std::less<Telegram>,std::allocator<Telegram>,0> >::_Rrotate

; 1398 : 						_Pnode = this->_Left(_Fixnodeparent);

	mov	ecx, DWORD PTR __Fixnodeparent$[ebp]
	push	ecx
	call	?_Left@?$_Tree_comp_alloc@V?$_Tset_traits@UTelegram@@U?$less@UTelegram@@@std@@V?$allocator@UTelegram@@@3@$0A@@std@@@std@@SAAAPAU?$_Tree_node@UTelegram@@PAX@2@PAU32@@Z ; std::_Tree_comp_alloc<std::_Tset_traits<Telegram,std::less<Telegram>,std::allocator<Telegram>,0> >::_Left
	add	esp, 4
	mov	edx, DWORD PTR [eax]
	mov	DWORD PTR __Pnode$[ebp], edx
$LN36@erase:

; 1399 : 						}
; 1400 : 
; 1401 : 					if (this->_Isnil(_Pnode))

	mov	eax, DWORD PTR __Pnode$[ebp]
	push	eax
	call	?_Isnil@?$_Tree_comp_alloc@V?$_Tset_traits@UTelegram@@U?$less@UTelegram@@@std@@V?$allocator@UTelegram@@@3@$0A@@std@@@std@@SAAADPAU?$_Tree_node@UTelegram@@PAX@2@@Z ; std::_Tree_comp_alloc<std::_Tset_traits<Telegram,std::less<Telegram>,std::allocator<Telegram>,0> >::_Isnil
	add	esp, 4
	movsx	ecx, BYTE PTR [eax]
	test	ecx, ecx
	je	SHORT $LN37@erase

; 1402 : 						_Fixnode = _Fixnodeparent;	// shouldn't happen

	mov	edx, DWORD PTR __Fixnodeparent$[ebp]
	mov	DWORD PTR __Fixnode$[ebp], edx

; 1403 : 					else if (this->_Color(this->_Right(_Pnode)) ==

	jmp	$LN29@erase
$LN37@erase:

; 1404 : 						this->_Black
; 1405 : 						&& this->_Color(this->_Left(_Pnode)) == this->_Black)

	mov	eax, DWORD PTR __Pnode$[ebp]
	push	eax
	call	?_Right@?$_Tree_comp_alloc@V?$_Tset_traits@UTelegram@@U?$less@UTelegram@@@std@@V?$allocator@UTelegram@@@3@$0A@@std@@@std@@SAAAPAU?$_Tree_node@UTelegram@@PAX@2@PAU32@@Z ; std::_Tree_comp_alloc<std::_Tset_traits<Telegram,std::less<Telegram>,std::allocator<Telegram>,0> >::_Right
	add	esp, 4
	mov	ecx, DWORD PTR [eax]
	push	ecx
	call	?_Color@?$_Tree_comp_alloc@V?$_Tset_traits@UTelegram@@U?$less@UTelegram@@@std@@V?$allocator@UTelegram@@@3@$0A@@std@@@std@@SAAADPAU?$_Tree_node@UTelegram@@PAX@2@@Z ; std::_Tree_comp_alloc<std::_Tset_traits<Telegram,std::less<Telegram>,std::allocator<Telegram>,0> >::_Color
	add	esp, 4
	movsx	edx, BYTE PTR [eax]
	cmp	edx, 1
	jne	SHORT $LN39@erase
	mov	eax, DWORD PTR __Pnode$[ebp]
	push	eax
	call	?_Left@?$_Tree_comp_alloc@V?$_Tset_traits@UTelegram@@U?$less@UTelegram@@@std@@V?$allocator@UTelegram@@@3@$0A@@std@@@std@@SAAAPAU?$_Tree_node@UTelegram@@PAX@2@PAU32@@Z ; std::_Tree_comp_alloc<std::_Tset_traits<Telegram,std::less<Telegram>,std::allocator<Telegram>,0> >::_Left
	add	esp, 4
	mov	ecx, DWORD PTR [eax]
	push	ecx
	call	?_Color@?$_Tree_comp_alloc@V?$_Tset_traits@UTelegram@@U?$less@UTelegram@@@std@@V?$allocator@UTelegram@@@3@$0A@@std@@@std@@SAAADPAU?$_Tree_node@UTelegram@@PAX@2@@Z ; std::_Tree_comp_alloc<std::_Tset_traits<Telegram,std::less<Telegram>,std::allocator<Telegram>,0> >::_Color
	add	esp, 4
	movsx	edx, BYTE PTR [eax]
	cmp	edx, 1
	jne	SHORT $LN39@erase

; 1406 : 						{	// redden left subtree with black children
; 1407 : 						this->_Color(_Pnode) = this->_Red;

	mov	eax, DWORD PTR __Pnode$[ebp]
	push	eax
	call	?_Color@?$_Tree_comp_alloc@V?$_Tset_traits@UTelegram@@U?$less@UTelegram@@@std@@V?$allocator@UTelegram@@@3@$0A@@std@@@std@@SAAADPAU?$_Tree_node@UTelegram@@PAX@2@@Z ; std::_Tree_comp_alloc<std::_Tset_traits<Telegram,std::less<Telegram>,std::allocator<Telegram>,0> >::_Color
	add	esp, 4
	mov	BYTE PTR [eax], 0

; 1408 : 						_Fixnode = _Fixnodeparent;

	mov	ecx, DWORD PTR __Fixnodeparent$[ebp]
	mov	DWORD PTR __Fixnode$[ebp], ecx

; 1409 : 						}
; 1410 : 					else

	jmp	$LN29@erase
$LN39@erase:

; 1411 : 						{	// must rearrange left subtree
; 1412 : 						if (this->_Color(this->_Left(_Pnode)) == this->_Black)

	mov	edx, DWORD PTR __Pnode$[ebp]
	push	edx
	call	?_Left@?$_Tree_comp_alloc@V?$_Tset_traits@UTelegram@@U?$less@UTelegram@@@std@@V?$allocator@UTelegram@@@3@$0A@@std@@@std@@SAAAPAU?$_Tree_node@UTelegram@@PAX@2@PAU32@@Z ; std::_Tree_comp_alloc<std::_Tset_traits<Telegram,std::less<Telegram>,std::allocator<Telegram>,0> >::_Left
	add	esp, 4
	mov	eax, DWORD PTR [eax]
	push	eax
	call	?_Color@?$_Tree_comp_alloc@V?$_Tset_traits@UTelegram@@U?$less@UTelegram@@@std@@V?$allocator@UTelegram@@@3@$0A@@std@@@std@@SAAADPAU?$_Tree_node@UTelegram@@PAX@2@@Z ; std::_Tree_comp_alloc<std::_Tset_traits<Telegram,std::less<Telegram>,std::allocator<Telegram>,0> >::_Color
	add	esp, 4
	movsx	ecx, BYTE PTR [eax]
	cmp	ecx, 1
	jne	SHORT $LN41@erase

; 1413 : 							{	// rotate red up from right sub-subtree
; 1414 : 							this->_Color(this->_Right(_Pnode)) = this->_Black;

	mov	edx, DWORD PTR __Pnode$[ebp]
	push	edx
	call	?_Right@?$_Tree_comp_alloc@V?$_Tset_traits@UTelegram@@U?$less@UTelegram@@@std@@V?$allocator@UTelegram@@@3@$0A@@std@@@std@@SAAAPAU?$_Tree_node@UTelegram@@PAX@2@PAU32@@Z ; std::_Tree_comp_alloc<std::_Tset_traits<Telegram,std::less<Telegram>,std::allocator<Telegram>,0> >::_Right
	add	esp, 4
	mov	eax, DWORD PTR [eax]
	push	eax
	call	?_Color@?$_Tree_comp_alloc@V?$_Tset_traits@UTelegram@@U?$less@UTelegram@@@std@@V?$allocator@UTelegram@@@3@$0A@@std@@@std@@SAAADPAU?$_Tree_node@UTelegram@@PAX@2@@Z ; std::_Tree_comp_alloc<std::_Tset_traits<Telegram,std::less<Telegram>,std::allocator<Telegram>,0> >::_Color
	add	esp, 4
	mov	BYTE PTR [eax], 1

; 1415 : 							this->_Color(_Pnode) = this->_Red;

	mov	ecx, DWORD PTR __Pnode$[ebp]
	push	ecx
	call	?_Color@?$_Tree_comp_alloc@V?$_Tset_traits@UTelegram@@U?$less@UTelegram@@@std@@V?$allocator@UTelegram@@@3@$0A@@std@@@std@@SAAADPAU?$_Tree_node@UTelegram@@PAX@2@@Z ; std::_Tree_comp_alloc<std::_Tset_traits<Telegram,std::less<Telegram>,std::allocator<Telegram>,0> >::_Color
	add	esp, 4
	mov	BYTE PTR [eax], 0

; 1416 : 							_Lrotate(_Pnode);

	mov	edx, DWORD PTR __Pnode$[ebp]
	push	edx
	mov	ecx, DWORD PTR _this$[ebp]
	call	?_Lrotate@?$_Tree@V?$_Tset_traits@UTelegram@@U?$less@UTelegram@@@std@@V?$allocator@UTelegram@@@3@$0A@@std@@@std@@IAEXPAU?$_Tree_node@UTelegram@@PAX@2@@Z ; std::_Tree<std::_Tset_traits<Telegram,std::less<Telegram>,std::allocator<Telegram>,0> >::_Lrotate

; 1417 : 							_Pnode = this->_Left(_Fixnodeparent);

	mov	eax, DWORD PTR __Fixnodeparent$[ebp]
	push	eax
	call	?_Left@?$_Tree_comp_alloc@V?$_Tset_traits@UTelegram@@U?$less@UTelegram@@@std@@V?$allocator@UTelegram@@@3@$0A@@std@@@std@@SAAAPAU?$_Tree_node@UTelegram@@PAX@2@PAU32@@Z ; std::_Tree_comp_alloc<std::_Tset_traits<Telegram,std::less<Telegram>,std::allocator<Telegram>,0> >::_Left
	add	esp, 4
	mov	ecx, DWORD PTR [eax]
	mov	DWORD PTR __Pnode$[ebp], ecx
$LN41@erase:

; 1418 : 							}
; 1419 : 
; 1420 : 						this->_Color(_Pnode) = this->_Color(_Fixnodeparent);

	mov	edx, DWORD PTR __Fixnodeparent$[ebp]
	push	edx
	call	?_Color@?$_Tree_comp_alloc@V?$_Tset_traits@UTelegram@@U?$less@UTelegram@@@std@@V?$allocator@UTelegram@@@3@$0A@@std@@@std@@SAAADPAU?$_Tree_node@UTelegram@@PAX@2@@Z ; std::_Tree_comp_alloc<std::_Tset_traits<Telegram,std::less<Telegram>,std::allocator<Telegram>,0> >::_Color
	add	esp, 4
	mov	esi, eax
	mov	eax, DWORD PTR __Pnode$[ebp]
	push	eax
	call	?_Color@?$_Tree_comp_alloc@V?$_Tset_traits@UTelegram@@U?$less@UTelegram@@@std@@V?$allocator@UTelegram@@@3@$0A@@std@@@std@@SAAADPAU?$_Tree_node@UTelegram@@PAX@2@@Z ; std::_Tree_comp_alloc<std::_Tset_traits<Telegram,std::less<Telegram>,std::allocator<Telegram>,0> >::_Color
	add	esp, 4
	mov	cl, BYTE PTR [esi]
	mov	BYTE PTR [eax], cl

; 1421 : 						this->_Color(_Fixnodeparent) = this->_Black;

	mov	edx, DWORD PTR __Fixnodeparent$[ebp]
	push	edx
	call	?_Color@?$_Tree_comp_alloc@V?$_Tset_traits@UTelegram@@U?$less@UTelegram@@@std@@V?$allocator@UTelegram@@@3@$0A@@std@@@std@@SAAADPAU?$_Tree_node@UTelegram@@PAX@2@@Z ; std::_Tree_comp_alloc<std::_Tset_traits<Telegram,std::less<Telegram>,std::allocator<Telegram>,0> >::_Color
	add	esp, 4
	mov	BYTE PTR [eax], 1

; 1422 : 						this->_Color(this->_Left(_Pnode)) = this->_Black;

	mov	eax, DWORD PTR __Pnode$[ebp]
	push	eax
	call	?_Left@?$_Tree_comp_alloc@V?$_Tset_traits@UTelegram@@U?$less@UTelegram@@@std@@V?$allocator@UTelegram@@@3@$0A@@std@@@std@@SAAAPAU?$_Tree_node@UTelegram@@PAX@2@PAU32@@Z ; std::_Tree_comp_alloc<std::_Tset_traits<Telegram,std::less<Telegram>,std::allocator<Telegram>,0> >::_Left
	add	esp, 4
	mov	ecx, DWORD PTR [eax]
	push	ecx
	call	?_Color@?$_Tree_comp_alloc@V?$_Tset_traits@UTelegram@@U?$less@UTelegram@@@std@@V?$allocator@UTelegram@@@3@$0A@@std@@@std@@SAAADPAU?$_Tree_node@UTelegram@@PAX@2@@Z ; std::_Tree_comp_alloc<std::_Tset_traits<Telegram,std::less<Telegram>,std::allocator<Telegram>,0> >::_Color
	add	esp, 4
	mov	BYTE PTR [eax], 1

; 1423 : 						_Rrotate(_Fixnodeparent);

	mov	edx, DWORD PTR __Fixnodeparent$[ebp]
	push	edx
	mov	ecx, DWORD PTR _this$[ebp]
	call	?_Rrotate@?$_Tree@V?$_Tset_traits@UTelegram@@U?$less@UTelegram@@@std@@V?$allocator@UTelegram@@@3@$0A@@std@@@std@@IAEXPAU?$_Tree_node@UTelegram@@PAX@2@@Z ; std::_Tree<std::_Tset_traits<Telegram,std::less<Telegram>,std::allocator<Telegram>,0> >::_Rrotate

; 1424 : 						break;	// tree now recolored/rebalanced

	jmp	SHORT $LN3@erase
$LN29@erase:

; 1425 : 						}
; 1426 : 					}

	jmp	$LN2@erase
$LN3@erase:

; 1427 : 
; 1428 : 			this->_Color(_Fixnode) = this->_Black;	// stopping node is black

	mov	eax, DWORD PTR __Fixnode$[ebp]
	push	eax
	call	?_Color@?$_Tree_comp_alloc@V?$_Tset_traits@UTelegram@@U?$less@UTelegram@@@std@@V?$allocator@UTelegram@@@3@$0A@@std@@@std@@SAAADPAU?$_Tree_node@UTelegram@@PAX@2@@Z ; std::_Tree_comp_alloc<std::_Tset_traits<Telegram,std::less<Telegram>,std::allocator<Telegram>,0> >::_Color
	add	esp, 4
	mov	BYTE PTR [eax], 1
$LN27@erase:

; 1429 : 			}
; 1430 : 
; 1431 : 		this->_Getal().destroy(

	mov	ecx, DWORD PTR __Erasednode$[ebp]
	push	ecx
	call	?_Myval@?$_Tree_comp_alloc@V?$_Tset_traits@UTelegram@@U?$less@UTelegram@@@std@@V?$allocator@UTelegram@@@3@$0A@@std@@@std@@SAAAUTelegram@@PAU?$_Tree_node@UTelegram@@PAX@2@@Z ; std::_Tree_comp_alloc<std::_Tset_traits<Telegram,std::less<Telegram>,std::allocator<Telegram>,0> >::_Myval
	add	esp, 4
	push	eax
	call	??$addressof@UTelegram@@@std@@YAPAUTelegram@@AAU1@@Z ; std::addressof<Telegram>
	add	esp, 4
	push	eax
	mov	ecx, DWORD PTR _this$[ebp]
	call	?_Getal@?$_Tree_comp_alloc@V?$_Tset_traits@UTelegram@@U?$less@UTelegram@@@std@@V?$allocator@UTelegram@@@3@$0A@@std@@@std@@QAEAAU?$_Wrap_alloc@V?$allocator@U?$_Tree_node@UTelegram@@PAX@std@@@std@@@2@XZ ; std::_Tree_comp_alloc<std::_Tset_traits<Telegram,std::less<Telegram>,std::allocator<Telegram>,0> >::_Getal
	mov	ecx, eax
	call	??$destroy@UTelegram@@@?$_Wrap_alloc@V?$allocator@U?$_Tree_node@UTelegram@@PAX@std@@@std@@@std@@QAEXPAUTelegram@@@Z ; std::_Wrap_alloc<std::allocator<std::_Tree_node<Telegram,void *> > >::destroy<Telegram>

; 1432 : 			_STD addressof(this->_Myval(_Erasednode)));	// delete erased node
; 1433 : 
; 1434 : 		this->_Getal().deallocate(_Erasednode, 1);

	push	1
	mov	edx, DWORD PTR __Erasednode$[ebp]
	push	edx
	mov	ecx, DWORD PTR _this$[ebp]
	call	?_Getal@?$_Tree_comp_alloc@V?$_Tset_traits@UTelegram@@U?$less@UTelegram@@@std@@V?$allocator@UTelegram@@@3@$0A@@std@@@std@@QAEAAU?$_Wrap_alloc@V?$allocator@U?$_Tree_node@UTelegram@@PAX@std@@@std@@@2@XZ ; std::_Tree_comp_alloc<std::_Tset_traits<Telegram,std::less<Telegram>,std::allocator<Telegram>,0> >::_Getal
	mov	ecx, eax
	call	?deallocate@?$_Wrap_alloc@V?$allocator@U?$_Tree_node@UTelegram@@PAX@std@@@std@@@std@@QAEXPAU?$_Tree_node@UTelegram@@PAX@2@I@Z ; std::_Wrap_alloc<std::allocator<std::_Tree_node<Telegram,void *> > >::deallocate

; 1435 : 
; 1436 : 		if (0 < this->_Mysize())

	mov	ecx, DWORD PTR _this$[ebp]
	call	?_Mysize@?$_Tree_comp_alloc@V?$_Tset_traits@UTelegram@@U?$less@UTelegram@@@std@@V?$allocator@UTelegram@@@3@$0A@@std@@@std@@QAEAAIXZ ; std::_Tree_comp_alloc<std::_Tset_traits<Telegram,std::less<Telegram>,std::allocator<Telegram>,0> >::_Mysize
	cmp	DWORD PTR [eax], 0
	jbe	SHORT $LN42@erase

; 1437 : 			--this->_Mysize();

	mov	ecx, DWORD PTR _this$[ebp]
	call	?_Mysize@?$_Tree_comp_alloc@V?$_Tset_traits@UTelegram@@U?$less@UTelegram@@@std@@V?$allocator@UTelegram@@@3@$0A@@std@@@std@@QAEAAIXZ ; std::_Tree_comp_alloc<std::_Tset_traits<Telegram,std::less<Telegram>,std::allocator<Telegram>,0> >::_Mysize
	mov	DWORD PTR tv434[ebp], eax
	mov	eax, DWORD PTR tv434[ebp]
	mov	ecx, DWORD PTR [eax]
	sub	ecx, 1
	mov	edx, DWORD PTR tv434[ebp]
	mov	DWORD PTR [edx], ecx
$LN42@erase:

; 1438 : 
; 1439 : 		return (iterator(_Where._Ptr,

	mov	ecx, DWORD PTR _this$[ebp]
	call	?_Get_data@?$_Tree_comp_alloc@V?$_Tset_traits@UTelegram@@U?$less@UTelegram@@@std@@V?$allocator@UTelegram@@@3@$0A@@std@@@std@@QAEAAV?$_Tree_val@U?$_Tree_simple_types@UTelegram@@@std@@@2@XZ ; std::_Tree_comp_alloc<std::_Tset_traits<Telegram,std::less<Telegram>,std::allocator<Telegram>,0> >::_Get_data
	push	eax
	mov	eax, DWORD PTR __Where$[ebp+8]
	push	eax
	mov	ecx, DWORD PTR ___$ReturnUdt$[ebp]
	call	??0?$_Tree_const_iterator@V?$_Tree_val@U?$_Tree_simple_types@UTelegram@@@std@@@std@@@std@@QAE@PAU?$_Tree_node@UTelegram@@PAX@1@PBV?$_Tree_val@U?$_Tree_simple_types@UTelegram@@@std@@@1@@Z ; std::_Tree_const_iterator<std::_Tree_val<std::_Tree_simple_types<Telegram> > >::_Tree_const_iterator<std::_Tree_val<std::_Tree_simple_types<Telegram> > >
	mov	ecx, DWORD PTR $T2[ebp]
	or	ecx, 1
	mov	DWORD PTR $T2[ebp], ecx
	mov	DWORD PTR __$EHRec$[ebp+8], -1
	lea	ecx, DWORD PTR __Where$[ebp]
	call	??1?$_Tree_const_iterator@V?$_Tree_val@U?$_Tree_simple_types@UTelegram@@@std@@@std@@@std@@QAE@XZ
	mov	eax, DWORD PTR ___$ReturnUdt$[ebp]

; 1440 : 			&this->_Get_data()));	// return successor iterator
; 1441 : 		}

	mov	ecx, DWORD PTR __$EHRec$[ebp]
	mov	DWORD PTR fs:0, ecx
	pop	ecx
	pop	esi
	add	esp, 48					; 00000030H
	cmp	ebp, esp
	call	__RTC_CheckEsp
	mov	esp, ebp
	pop	ebp
	ret	16					; 00000010H
_TEXT	ENDS
;	COMDAT text$x
text$x	SEGMENT
__unwindfunclet$?erase@?$_Tree@V?$_Tset_traits@UTelegram@@U?$less@UTelegram@@@std@@V?$allocator@UTelegram@@@3@$0A@@std@@@std@@QAE?AV?$_Tree_const_iterator@V?$_Tree_val@U?$_Tree_simple_types@UTelegram@@@std@@@std@@@2@V32@@Z$0:
	lea	ecx, DWORD PTR __Where$[ebp]
	jmp	??1?$_Tree_const_iterator@V?$_Tree_val@U?$_Tree_simple_types@UTelegram@@@std@@@std@@@std@@QAE@XZ
__ehhandler$?erase@?$_Tree@V?$_Tset_traits@UTelegram@@U?$less@UTelegram@@@std@@V?$allocator@UTelegram@@@3@$0A@@std@@@std@@QAE?AV?$_Tree_const_iterator@V?$_Tree_val@U?$_Tree_simple_types@UTelegram@@@std@@@std@@@2@V32@@Z:
	mov	edx, DWORD PTR [esp+8]
	lea	eax, DWORD PTR [edx+12]
	mov	ecx, DWORD PTR [edx-44]
	xor	ecx, eax
	call	@__security_check_cookie@4
	mov	eax, OFFSET __ehfuncinfo$?erase@?$_Tree@V?$_Tset_traits@UTelegram@@U?$less@UTelegram@@@std@@V?$allocator@UTelegram@@@3@$0A@@std@@@std@@QAE?AV?$_Tree_const_iterator@V?$_Tree_val@U?$_Tree_simple_types@UTelegram@@@std@@@std@@@2@V32@@Z
	jmp	___CxxFrameHandler3
text$x	ENDS
?erase@?$_Tree@V?$_Tset_traits@UTelegram@@U?$less@UTelegram@@@std@@V?$allocator@UTelegram@@@3@$0A@@std@@@std@@QAE?AV?$_Tree_const_iterator@V?$_Tree_val@U?$_Tree_simple_types@UTelegram@@@std@@@std@@@2@V32@@Z ENDP ; std::_Tree<std::_Tset_traits<Telegram,std::less<Telegram>,std::allocator<Telegram>,0> >::erase
; Function compile flags: /Odtp /RTCsu
; File c:\program files (x86)\microsoft visual studio 14.0\vc\include\xtree
;	COMDAT ?empty@?$_Tree@V?$_Tset_traits@UTelegram@@U?$less@UTelegram@@@std@@V?$allocator@UTelegram@@@3@$0A@@std@@@std@@QBE_NXZ
_TEXT	SEGMENT
tv67 = -8						; size = 4
_this$ = -4						; size = 4
?empty@?$_Tree@V?$_Tset_traits@UTelegram@@U?$less@UTelegram@@@std@@V?$allocator@UTelegram@@@3@$0A@@std@@@std@@QBE_NXZ PROC ; std::_Tree<std::_Tset_traits<Telegram,std::less<Telegram>,std::allocator<Telegram>,0> >::empty, COMDAT
; _this$ = ecx

; 1180 : 		{	// return true only if sequence is empty

	push	ebp
	mov	ebp, esp
	sub	esp, 8
	mov	DWORD PTR [ebp-8], -858993460		; ccccccccH
	mov	DWORD PTR [ebp-4], -858993460		; ccccccccH
	mov	DWORD PTR _this$[ebp], ecx

; 1181 : 		return (size() == 0);

	mov	ecx, DWORD PTR _this$[ebp]
	call	?size@?$_Tree@V?$_Tset_traits@UTelegram@@U?$less@UTelegram@@@std@@V?$allocator@UTelegram@@@3@$0A@@std@@@std@@QBEIXZ ; std::_Tree<std::_Tset_traits<Telegram,std::less<Telegram>,std::allocator<Telegram>,0> >::size
	test	eax, eax
	jne	SHORT $LN3@empty
	mov	DWORD PTR tv67[ebp], 1
	jmp	SHORT $LN4@empty
$LN3@empty:
	mov	DWORD PTR tv67[ebp], 0
$LN4@empty:
	mov	al, BYTE PTR tv67[ebp]

; 1182 : 		}

	add	esp, 8
	cmp	ebp, esp
	call	__RTC_CheckEsp
	mov	esp, ebp
	pop	ebp
	ret	0
?empty@?$_Tree@V?$_Tset_traits@UTelegram@@U?$less@UTelegram@@@std@@V?$allocator@UTelegram@@@3@$0A@@std@@@std@@QBE_NXZ ENDP ; std::_Tree<std::_Tset_traits<Telegram,std::less<Telegram>,std::allocator<Telegram>,0> >::empty
_TEXT	ENDS
; Function compile flags: /Odtp /RTCsu
; File c:\program files (x86)\microsoft visual studio 14.0\vc\include\xtree
;	COMDAT ?max_size@?$_Tree@V?$_Tset_traits@UTelegram@@U?$less@UTelegram@@@std@@V?$allocator@UTelegram@@@3@$0A@@std@@@std@@QBEIXZ
_TEXT	SEGMENT
$T1 = -5						; size = 1
_this$ = -4						; size = 4
?max_size@?$_Tree@V?$_Tset_traits@UTelegram@@U?$less@UTelegram@@@std@@V?$allocator@UTelegram@@@3@$0A@@std@@@std@@QBEIXZ PROC ; std::_Tree<std::_Tset_traits<Telegram,std::less<Telegram>,std::allocator<Telegram>,0> >::max_size, COMDAT
; _this$ = ecx

; 1175 : 		{	// return maximum possible length of sequence

	push	ebp
	mov	ebp, esp
	sub	esp, 8
	mov	DWORD PTR [ebp-8], -858993460		; ccccccccH
	mov	DWORD PTR [ebp-4], -858993460		; ccccccccH
	mov	DWORD PTR _this$[ebp], ecx

; 1176 : 		return (this->_Getal().max_size());

	movzx	eax, BYTE PTR $T1[ebp]
	push	eax
	mov	ecx, DWORD PTR _this$[ebp]
	call	?_Getal@?$_Tree_comp_alloc@V?$_Tset_traits@UTelegram@@U?$less@UTelegram@@@std@@V?$allocator@UTelegram@@@3@$0A@@std@@@std@@QBEABU?$_Wrap_alloc@V?$allocator@U?$_Tree_node@UTelegram@@PAX@std@@@std@@@2@XZ ; std::_Tree_comp_alloc<std::_Tset_traits<Telegram,std::less<Telegram>,std::allocator<Telegram>,0> >::_Getal
	mov	ecx, eax
	call	?max_size@?$_Wrap_alloc@V?$allocator@U?$_Tree_node@UTelegram@@PAX@std@@@std@@@std@@QBEIU_Nil@2@@Z ; std::_Wrap_alloc<std::allocator<std::_Tree_node<Telegram,void *> > >::max_size

; 1177 : 		}

	add	esp, 8
	cmp	ebp, esp
	call	__RTC_CheckEsp
	mov	esp, ebp
	pop	ebp
	ret	0
?max_size@?$_Tree@V?$_Tset_traits@UTelegram@@U?$less@UTelegram@@@std@@V?$allocator@UTelegram@@@3@$0A@@std@@@std@@QBEIXZ ENDP ; std::_Tree<std::_Tset_traits<Telegram,std::less<Telegram>,std::allocator<Telegram>,0> >::max_size
_TEXT	ENDS
; Function compile flags: /Odtp /RTCsu
; File c:\program files (x86)\microsoft visual studio 14.0\vc\include\xtree
;	COMDAT ?size@?$_Tree@V?$_Tset_traits@UTelegram@@U?$less@UTelegram@@@std@@V?$allocator@UTelegram@@@3@$0A@@std@@@std@@QBEIXZ
_TEXT	SEGMENT
_this$ = -4						; size = 4
?size@?$_Tree@V?$_Tset_traits@UTelegram@@U?$less@UTelegram@@@std@@V?$allocator@UTelegram@@@3@$0A@@std@@@std@@QBEIXZ PROC ; std::_Tree<std::_Tset_traits<Telegram,std::less<Telegram>,std::allocator<Telegram>,0> >::size, COMDAT
; _this$ = ecx

; 1170 : 		{	// return length of sequence

	push	ebp
	mov	ebp, esp
	push	ecx
	mov	DWORD PTR [ebp-4], -858993460		; ccccccccH
	mov	DWORD PTR _this$[ebp], ecx

; 1171 : 		return (this->_Mysize());

	mov	ecx, DWORD PTR _this$[ebp]
	call	?_Mysize@?$_Tree_comp_alloc@V?$_Tset_traits@UTelegram@@U?$less@UTelegram@@@std@@V?$allocator@UTelegram@@@3@$0A@@std@@@std@@QBEABIXZ ; std::_Tree_comp_alloc<std::_Tset_traits<Telegram,std::less<Telegram>,std::allocator<Telegram>,0> >::_Mysize
	mov	eax, DWORD PTR [eax]

; 1172 : 		}

	add	esp, 4
	cmp	ebp, esp
	call	__RTC_CheckEsp
	mov	esp, ebp
	pop	ebp
	ret	0
?size@?$_Tree@V?$_Tset_traits@UTelegram@@U?$less@UTelegram@@@std@@V?$allocator@UTelegram@@@3@$0A@@std@@@std@@QBEIXZ ENDP ; std::_Tree<std::_Tset_traits<Telegram,std::less<Telegram>,std::allocator<Telegram>,0> >::size
_TEXT	ENDS
; Function compile flags: /Odtp /RTCsu
; File c:\program files (x86)\microsoft visual studio 14.0\vc\include\xtree
;	COMDAT ?end@?$_Tree@V?$_Tset_traits@UTelegram@@U?$less@UTelegram@@@std@@V?$allocator@UTelegram@@@3@$0A@@std@@@std@@QAE?AV?$_Tree_const_iterator@V?$_Tree_val@U?$_Tree_simple_types@UTelegram@@@std@@@std@@@2@XZ
_TEXT	SEGMENT
_this$ = -16						; size = 4
__$EHRec$ = -12						; size = 12
___$ReturnUdt$ = 8					; size = 4
?end@?$_Tree@V?$_Tset_traits@UTelegram@@U?$less@UTelegram@@@std@@V?$allocator@UTelegram@@@3@$0A@@std@@@std@@QAE?AV?$_Tree_const_iterator@V?$_Tree_val@U?$_Tree_simple_types@UTelegram@@@std@@@std@@@2@XZ PROC ; std::_Tree<std::_Tset_traits<Telegram,std::less<Telegram>,std::allocator<Telegram>,0> >::end, COMDAT
; _this$ = ecx

; 1120 : 		{	// return iterator for end of mutable sequence

	push	ebp
	mov	ebp, esp
	push	-1
	push	__ehhandler$?end@?$_Tree@V?$_Tset_traits@UTelegram@@U?$less@UTelegram@@@std@@V?$allocator@UTelegram@@@3@$0A@@std@@@std@@QAE?AV?$_Tree_const_iterator@V?$_Tree_val@U?$_Tree_simple_types@UTelegram@@@std@@@std@@@2@XZ
	mov	eax, DWORD PTR fs:0
	push	eax
	push	ecx
	mov	DWORD PTR [ebp-16], -858993460		; ccccccccH
	mov	eax, DWORD PTR ___security_cookie
	xor	eax, ebp
	push	eax
	lea	eax, DWORD PTR __$EHRec$[ebp]
	mov	DWORD PTR fs:0, eax
	mov	DWORD PTR _this$[ebp], ecx

; 1121 : 		return (iterator(this->_Myhead(), &this->_Get_data()));

	mov	ecx, DWORD PTR _this$[ebp]
	call	?_Get_data@?$_Tree_comp_alloc@V?$_Tset_traits@UTelegram@@U?$less@UTelegram@@@std@@V?$allocator@UTelegram@@@3@$0A@@std@@@std@@QAEAAV?$_Tree_val@U?$_Tree_simple_types@UTelegram@@@std@@@2@XZ ; std::_Tree_comp_alloc<std::_Tset_traits<Telegram,std::less<Telegram>,std::allocator<Telegram>,0> >::_Get_data
	push	eax
	mov	ecx, DWORD PTR _this$[ebp]
	call	?_Myhead@?$_Tree_comp_alloc@V?$_Tset_traits@UTelegram@@U?$less@UTelegram@@@std@@V?$allocator@UTelegram@@@3@$0A@@std@@@std@@QAEAAPAU?$_Tree_node@UTelegram@@PAX@2@XZ ; std::_Tree_comp_alloc<std::_Tset_traits<Telegram,std::less<Telegram>,std::allocator<Telegram>,0> >::_Myhead
	mov	eax, DWORD PTR [eax]
	push	eax
	mov	ecx, DWORD PTR ___$ReturnUdt$[ebp]
	call	??0?$_Tree_const_iterator@V?$_Tree_val@U?$_Tree_simple_types@UTelegram@@@std@@@std@@@std@@QAE@PAU?$_Tree_node@UTelegram@@PAX@1@PBV?$_Tree_val@U?$_Tree_simple_types@UTelegram@@@std@@@1@@Z ; std::_Tree_const_iterator<std::_Tree_val<std::_Tree_simple_types<Telegram> > >::_Tree_const_iterator<std::_Tree_val<std::_Tree_simple_types<Telegram> > >
	mov	eax, DWORD PTR ___$ReturnUdt$[ebp]

; 1122 : 		}

	mov	ecx, DWORD PTR __$EHRec$[ebp]
	mov	DWORD PTR fs:0, ecx
	pop	ecx
	add	esp, 16					; 00000010H
	cmp	ebp, esp
	call	__RTC_CheckEsp
	mov	esp, ebp
	pop	ebp
	ret	4
_TEXT	ENDS
;	COMDAT text$x
text$x	SEGMENT
__ehhandler$?end@?$_Tree@V?$_Tset_traits@UTelegram@@U?$less@UTelegram@@@std@@V?$allocator@UTelegram@@@3@$0A@@std@@@std@@QAE?AV?$_Tree_const_iterator@V?$_Tree_val@U?$_Tree_simple_types@UTelegram@@@std@@@std@@@2@XZ:
	mov	edx, DWORD PTR [esp+8]
	lea	eax, DWORD PTR [edx+12]
	mov	ecx, DWORD PTR [edx-8]
	xor	ecx, eax
	call	@__security_check_cookie@4
	mov	eax, OFFSET __ehfuncinfo$?end@?$_Tree@V?$_Tset_traits@UTelegram@@U?$less@UTelegram@@@std@@V?$allocator@UTelegram@@@3@$0A@@std@@@std@@QAE?AV?$_Tree_const_iterator@V?$_Tree_val@U?$_Tree_simple_types@UTelegram@@@std@@@std@@@2@XZ
	jmp	___CxxFrameHandler3
text$x	ENDS
?end@?$_Tree@V?$_Tset_traits@UTelegram@@U?$less@UTelegram@@@std@@V?$allocator@UTelegram@@@3@$0A@@std@@@std@@QAE?AV?$_Tree_const_iterator@V?$_Tree_val@U?$_Tree_simple_types@UTelegram@@@std@@@std@@@2@XZ ENDP ; std::_Tree<std::_Tset_traits<Telegram,std::less<Telegram>,std::allocator<Telegram>,0> >::end
; Function compile flags: /Odtp /RTCsu
; File c:\program files (x86)\microsoft visual studio 14.0\vc\include\xtree
;	COMDAT ?begin@?$_Tree@V?$_Tset_traits@UTelegram@@U?$less@UTelegram@@@std@@V?$allocator@UTelegram@@@3@$0A@@std@@@std@@QAE?AV?$_Tree_const_iterator@V?$_Tree_val@U?$_Tree_simple_types@UTelegram@@@std@@@std@@@2@XZ
_TEXT	SEGMENT
_this$ = -16						; size = 4
__$EHRec$ = -12						; size = 12
___$ReturnUdt$ = 8					; size = 4
?begin@?$_Tree@V?$_Tset_traits@UTelegram@@U?$less@UTelegram@@@std@@V?$allocator@UTelegram@@@3@$0A@@std@@@std@@QAE?AV?$_Tree_const_iterator@V?$_Tree_val@U?$_Tree_simple_types@UTelegram@@@std@@@std@@@2@XZ PROC ; std::_Tree<std::_Tset_traits<Telegram,std::less<Telegram>,std::allocator<Telegram>,0> >::begin, COMDAT
; _this$ = ecx

; 1110 : 		{	// return iterator for beginning of mutable sequence

	push	ebp
	mov	ebp, esp
	push	-1
	push	__ehhandler$?begin@?$_Tree@V?$_Tset_traits@UTelegram@@U?$less@UTelegram@@@std@@V?$allocator@UTelegram@@@3@$0A@@std@@@std@@QAE?AV?$_Tree_const_iterator@V?$_Tree_val@U?$_Tree_simple_types@UTelegram@@@std@@@std@@@2@XZ
	mov	eax, DWORD PTR fs:0
	push	eax
	push	ecx
	mov	DWORD PTR [ebp-16], -858993460		; ccccccccH
	mov	eax, DWORD PTR ___security_cookie
	xor	eax, ebp
	push	eax
	lea	eax, DWORD PTR __$EHRec$[ebp]
	mov	DWORD PTR fs:0, eax
	mov	DWORD PTR _this$[ebp], ecx

; 1111 : 		return (iterator(_Lmost(), &this->_Get_data()));

	mov	ecx, DWORD PTR _this$[ebp]
	call	?_Get_data@?$_Tree_comp_alloc@V?$_Tset_traits@UTelegram@@U?$less@UTelegram@@@std@@V?$allocator@UTelegram@@@3@$0A@@std@@@std@@QAEAAV?$_Tree_val@U?$_Tree_simple_types@UTelegram@@@std@@@2@XZ ; std::_Tree_comp_alloc<std::_Tset_traits<Telegram,std::less<Telegram>,std::allocator<Telegram>,0> >::_Get_data
	push	eax
	mov	ecx, DWORD PTR _this$[ebp]
	call	?_Lmost@?$_Tree@V?$_Tset_traits@UTelegram@@U?$less@UTelegram@@@std@@V?$allocator@UTelegram@@@3@$0A@@std@@@std@@IBEAAPAU?$_Tree_node@UTelegram@@PAX@2@XZ ; std::_Tree<std::_Tset_traits<Telegram,std::less<Telegram>,std::allocator<Telegram>,0> >::_Lmost
	mov	eax, DWORD PTR [eax]
	push	eax
	mov	ecx, DWORD PTR ___$ReturnUdt$[ebp]
	call	??0?$_Tree_const_iterator@V?$_Tree_val@U?$_Tree_simple_types@UTelegram@@@std@@@std@@@std@@QAE@PAU?$_Tree_node@UTelegram@@PAX@1@PBV?$_Tree_val@U?$_Tree_simple_types@UTelegram@@@std@@@1@@Z ; std::_Tree_const_iterator<std::_Tree_val<std::_Tree_simple_types<Telegram> > >::_Tree_const_iterator<std::_Tree_val<std::_Tree_simple_types<Telegram> > >
	mov	eax, DWORD PTR ___$ReturnUdt$[ebp]

; 1112 : 		}

	mov	ecx, DWORD PTR __$EHRec$[ebp]
	mov	DWORD PTR fs:0, ecx
	pop	ecx
	add	esp, 16					; 00000010H
	cmp	ebp, esp
	call	__RTC_CheckEsp
	mov	esp, ebp
	pop	ebp
	ret	4
_TEXT	ENDS
;	COMDAT text$x
text$x	SEGMENT
__ehhandler$?begin@?$_Tree@V?$_Tset_traits@UTelegram@@U?$less@UTelegram@@@std@@V?$allocator@UTelegram@@@3@$0A@@std@@@std@@QAE?AV?$_Tree_const_iterator@V?$_Tree_val@U?$_Tree_simple_types@UTelegram@@@std@@@std@@@2@XZ:
	mov	edx, DWORD PTR [esp+8]
	lea	eax, DWORD PTR [edx+12]
	mov	ecx, DWORD PTR [edx-8]
	xor	ecx, eax
	call	@__security_check_cookie@4
	mov	eax, OFFSET __ehfuncinfo$?begin@?$_Tree@V?$_Tset_traits@UTelegram@@U?$less@UTelegram@@@std@@V?$allocator@UTelegram@@@3@$0A@@std@@@std@@QAE?AV?$_Tree_const_iterator@V?$_Tree_val@U?$_Tree_simple_types@UTelegram@@@std@@@std@@@2@XZ
	jmp	___CxxFrameHandler3
text$x	ENDS
?begin@?$_Tree@V?$_Tset_traits@UTelegram@@U?$less@UTelegram@@@std@@V?$allocator@UTelegram@@@3@$0A@@std@@@std@@QAE?AV?$_Tree_const_iterator@V?$_Tree_val@U?$_Tree_simple_types@UTelegram@@@std@@@std@@@2@XZ ENDP ; std::_Tree<std::_Tset_traits<Telegram,std::less<Telegram>,std::allocator<Telegram>,0> >::begin
; Function compile flags: /Odtp /RTCsu
; File c:\program files (x86)\microsoft visual studio 14.0\vc\include\xtree
;	COMDAT ??1?$_Tree@V?$_Tset_traits@UTelegram@@U?$less@UTelegram@@@std@@V?$allocator@UTelegram@@@3@$0A@@std@@@std@@QAE@XZ
_TEXT	SEGMENT
_this$ = -16						; size = 4
__$EHRec$ = -12						; size = 12
??1?$_Tree@V?$_Tset_traits@UTelegram@@U?$less@UTelegram@@@std@@V?$allocator@UTelegram@@@3@$0A@@std@@@std@@QAE@XZ PROC ; std::_Tree<std::_Tset_traits<Telegram,std::less<Telegram>,std::allocator<Telegram>,0> >::~_Tree<std::_Tset_traits<Telegram,std::less<Telegram>,std::allocator<Telegram>,0> >, COMDAT
; _this$ = ecx

; 1090 : 		{	// destroy tree

	push	ebp
	mov	ebp, esp
	push	-1
	push	__ehhandler$??1?$_Tree@V?$_Tset_traits@UTelegram@@U?$less@UTelegram@@@std@@V?$allocator@UTelegram@@@3@$0A@@std@@@std@@QAE@XZ
	mov	eax, DWORD PTR fs:0
	push	eax
	push	ecx
	mov	DWORD PTR [ebp-16], -858993460		; ccccccccH
	mov	eax, DWORD PTR ___security_cookie
	xor	eax, ebp
	push	eax
	lea	eax, DWORD PTR __$EHRec$[ebp]
	mov	DWORD PTR fs:0, eax
	mov	DWORD PTR _this$[ebp], ecx

; 1091 : 		_Tidy();

	mov	ecx, DWORD PTR _this$[ebp]
	call	?_Tidy@?$_Tree@V?$_Tset_traits@UTelegram@@U?$less@UTelegram@@@std@@V?$allocator@UTelegram@@@3@$0A@@std@@@std@@IAEXXZ ; std::_Tree<std::_Tset_traits<Telegram,std::less<Telegram>,std::allocator<Telegram>,0> >::_Tidy

; 1092 : 		}

	mov	ecx, DWORD PTR _this$[ebp]
	call	??1?$_Tree_comp_alloc@V?$_Tset_traits@UTelegram@@U?$less@UTelegram@@@std@@V?$allocator@UTelegram@@@3@$0A@@std@@@std@@QAE@XZ ; std::_Tree_comp_alloc<std::_Tset_traits<Telegram,std::less<Telegram>,std::allocator<Telegram>,0> >::~_Tree_comp_alloc<std::_Tset_traits<Telegram,std::less<Telegram>,std::allocator<Telegram>,0> >
	mov	ecx, DWORD PTR __$EHRec$[ebp]
	mov	DWORD PTR fs:0, ecx
	pop	ecx
	add	esp, 16					; 00000010H
	cmp	ebp, esp
	call	__RTC_CheckEsp
	mov	esp, ebp
	pop	ebp
	ret	0
_TEXT	ENDS
;	COMDAT text$x
text$x	SEGMENT
__ehhandler$??1?$_Tree@V?$_Tset_traits@UTelegram@@U?$less@UTelegram@@@std@@V?$allocator@UTelegram@@@3@$0A@@std@@@std@@QAE@XZ:
	mov	edx, DWORD PTR [esp+8]
	lea	eax, DWORD PTR [edx+12]
	mov	ecx, DWORD PTR [edx-8]
	xor	ecx, eax
	call	@__security_check_cookie@4
	mov	eax, OFFSET __ehfuncinfo$??1?$_Tree@V?$_Tset_traits@UTelegram@@U?$less@UTelegram@@@std@@V?$allocator@UTelegram@@@3@$0A@@std@@@std@@QAE@XZ
	jmp	___CxxFrameHandler3
text$x	ENDS
??1?$_Tree@V?$_Tset_traits@UTelegram@@U?$less@UTelegram@@@std@@V?$allocator@UTelegram@@@3@$0A@@std@@@std@@QAE@XZ ENDP ; std::_Tree<std::_Tset_traits<Telegram,std::less<Telegram>,std::allocator<Telegram>,0> >::~_Tree<std::_Tset_traits<Telegram,std::less<Telegram>,std::allocator<Telegram>,0> >
; Function compile flags: /Odtp /RTCsu
; File c:\program files (x86)\microsoft visual studio 14.0\vc\include\xtree
;	COMDAT ??0?$_Tree@V?$_Tset_traits@UTelegram@@U?$less@UTelegram@@@std@@V?$allocator@UTelegram@@@3@$0A@@std@@@std@@QAE@ABU?$less@UTelegram@@@1@@Z
_TEXT	SEGMENT
_this$ = -4						; size = 4
__Parg$ = 8						; size = 4
??0?$_Tree@V?$_Tset_traits@UTelegram@@U?$less@UTelegram@@@std@@V?$allocator@UTelegram@@@3@$0A@@std@@@std@@QAE@ABU?$less@UTelegram@@@1@@Z PROC ; std::_Tree<std::_Tset_traits<Telegram,std::less<Telegram>,std::allocator<Telegram>,0> >::_Tree<std::_Tset_traits<Telegram,std::less<Telegram>,std::allocator<Telegram>,0> >, COMDAT
; _this$ = ecx

; 1004 : 		{	// construct empty tree from comparator

	push	ebp
	mov	ebp, esp
	push	ecx
	mov	DWORD PTR [ebp-4], -858993460		; ccccccccH
	mov	DWORD PTR _this$[ebp], ecx

; 1003 : 		: _Mybase(_Parg)

	mov	eax, DWORD PTR __Parg$[ebp]
	push	eax
	mov	ecx, DWORD PTR _this$[ebp]
	call	??0?$_Tree_comp_alloc@V?$_Tset_traits@UTelegram@@U?$less@UTelegram@@@std@@V?$allocator@UTelegram@@@3@$0A@@std@@@std@@QAE@ABU?$less@UTelegram@@@1@@Z ; std::_Tree_comp_alloc<std::_Tset_traits<Telegram,std::less<Telegram>,std::allocator<Telegram>,0> >::_Tree_comp_alloc<std::_Tset_traits<Telegram,std::less<Telegram>,std::allocator<Telegram>,0> >

; 1005 : 		}

	mov	eax, DWORD PTR _this$[ebp]
	add	esp, 4
	cmp	ebp, esp
	call	__RTC_CheckEsp
	mov	esp, ebp
	pop	ebp
	ret	4
??0?$_Tree@V?$_Tset_traits@UTelegram@@U?$less@UTelegram@@@std@@V?$allocator@UTelegram@@@3@$0A@@std@@@std@@QAE@ABU?$less@UTelegram@@@1@@Z ENDP ; std::_Tree<std::_Tset_traits<Telegram,std::less<Telegram>,std::allocator<Telegram>,0> >::_Tree<std::_Tset_traits<Telegram,std::less<Telegram>,std::allocator<Telegram>,0> >
_TEXT	ENDS
; Function compile flags: /Odtp /RTCsu
;	COMDAT ??1?$_Compressed_pair@U?$less@UTelegram@@@std@@V?$_Compressed_pair@U?$_Wrap_alloc@V?$allocator@U?$_Tree_node@UTelegram@@PAX@std@@@std@@@std@@V?$_Tree_val@U?$_Tree_simple_types@UTelegram@@@std@@@2@$00@2@$00@std@@QAE@XZ
_TEXT	SEGMENT
_this$ = -4						; size = 4
??1?$_Compressed_pair@U?$less@UTelegram@@@std@@V?$_Compressed_pair@U?$_Wrap_alloc@V?$allocator@U?$_Tree_node@UTelegram@@PAX@std@@@std@@@std@@V?$_Tree_val@U?$_Tree_simple_types@UTelegram@@@std@@@2@$00@2@$00@std@@QAE@XZ PROC ; std::_Compressed_pair<std::less<Telegram>,std::_Compressed_pair<std::_Wrap_alloc<std::allocator<std::_Tree_node<Telegram,void *> > >,std::_Tree_val<std::_Tree_simple_types<Telegram> >,1>,1>::~_Compressed_pair<std::less<Telegram>,std::_Compressed_pair<std::_Wrap_alloc<std::allocator<std::_Tree_node<Telegram,void *> > >,std::_Tree_val<std::_Tree_simple_types<Telegram> >,1>,1>, COMDAT
; _this$ = ecx
	push	ebp
	mov	ebp, esp
	push	ecx
	mov	DWORD PTR [ebp-4], -858993460		; ccccccccH
	mov	DWORD PTR _this$[ebp], ecx
	mov	ecx, DWORD PTR _this$[ebp]
	call	??1?$_Compressed_pair@U?$_Wrap_alloc@V?$allocator@U?$_Tree_node@UTelegram@@PAX@std@@@std@@@std@@V?$_Tree_val@U?$_Tree_simple_types@UTelegram@@@std@@@2@$00@std@@QAE@XZ
	add	esp, 4
	cmp	ebp, esp
	call	__RTC_CheckEsp
	mov	esp, ebp
	pop	ebp
	ret	0
??1?$_Compressed_pair@U?$less@UTelegram@@@std@@V?$_Compressed_pair@U?$_Wrap_alloc@V?$allocator@U?$_Tree_node@UTelegram@@PAX@std@@@std@@@std@@V?$_Tree_val@U?$_Tree_simple_types@UTelegram@@@std@@@2@$00@2@$00@std@@QAE@XZ ENDP ; std::_Compressed_pair<std::less<Telegram>,std::_Compressed_pair<std::_Wrap_alloc<std::allocator<std::_Tree_node<Telegram,void *> > >,std::_Tree_val<std::_Tree_simple_types<Telegram> >,1>,1>::~_Compressed_pair<std::less<Telegram>,std::_Compressed_pair<std::_Wrap_alloc<std::allocator<std::_Tree_node<Telegram,void *> > >,std::_Tree_val<std::_Tree_simple_types<Telegram> >,1>,1>
_TEXT	ENDS
; Function compile flags: /Odtp /RTCsu
; File c:\program files (x86)\microsoft visual studio 14.0\vc\include\xutility
;	COMDAT ?_Get_second@?$_Compressed_pair@U?$less@UTelegram@@@std@@V?$_Compressed_pair@U?$_Wrap_alloc@V?$allocator@U?$_Tree_node@UTelegram@@PAX@std@@@std@@@std@@V?$_Tree_val@U?$_Tree_simple_types@UTelegram@@@std@@@2@$00@2@$00@std@@QBEABV?$_Compressed_pair@U?$_Wrap_alloc@V?$allocator@U?$_Tree_node@UTelegram@@PAX@std@@@std@@@std@@V?$_Tree_val@U?$_Tree_simple_types@UTelegram@@@std@@@2@$00@2@XZ
_TEXT	SEGMENT
_this$ = -4						; size = 4
?_Get_second@?$_Compressed_pair@U?$less@UTelegram@@@std@@V?$_Compressed_pair@U?$_Wrap_alloc@V?$allocator@U?$_Tree_node@UTelegram@@PAX@std@@@std@@@std@@V?$_Tree_val@U?$_Tree_simple_types@UTelegram@@@std@@@2@$00@2@$00@std@@QBEABV?$_Compressed_pair@U?$_Wrap_alloc@V?$allocator@U?$_Tree_node@UTelegram@@PAX@std@@@std@@@std@@V?$_Tree_val@U?$_Tree_simple_types@UTelegram@@@std@@@2@$00@2@XZ PROC ; std::_Compressed_pair<std::less<Telegram>,std::_Compressed_pair<std::_Wrap_alloc<std::allocator<std::_Tree_node<Telegram,void *> > >,std::_Tree_val<std::_Tree_simple_types<Telegram> >,1>,1>::_Get_second, COMDAT
; _this$ = ecx

; 319  : 		{	// return const reference to second

	push	ebp
	mov	ebp, esp
	push	ecx
	mov	DWORD PTR [ebp-4], -858993460		; ccccccccH
	mov	DWORD PTR _this$[ebp], ecx

; 320  : 		return (_Myval2);

	mov	eax, DWORD PTR _this$[ebp]

; 321  : 		}

	mov	esp, ebp
	pop	ebp
	ret	0
?_Get_second@?$_Compressed_pair@U?$less@UTelegram@@@std@@V?$_Compressed_pair@U?$_Wrap_alloc@V?$allocator@U?$_Tree_node@UTelegram@@PAX@std@@@std@@@std@@V?$_Tree_val@U?$_Tree_simple_types@UTelegram@@@std@@@2@$00@2@$00@std@@QBEABV?$_Compressed_pair@U?$_Wrap_alloc@V?$allocator@U?$_Tree_node@UTelegram@@PAX@std@@@std@@@std@@V?$_Tree_val@U?$_Tree_simple_types@UTelegram@@@std@@@2@$00@2@XZ ENDP ; std::_Compressed_pair<std::less<Telegram>,std::_Compressed_pair<std::_Wrap_alloc<std::allocator<std::_Tree_node<Telegram,void *> > >,std::_Tree_val<std::_Tree_simple_types<Telegram> >,1>,1>::_Get_second
_TEXT	ENDS
; Function compile flags: /Odtp /RTCsu
; File c:\program files (x86)\microsoft visual studio 14.0\vc\include\xutility
;	COMDAT ?_Get_second@?$_Compressed_pair@U?$less@UTelegram@@@std@@V?$_Compressed_pair@U?$_Wrap_alloc@V?$allocator@U?$_Tree_node@UTelegram@@PAX@std@@@std@@@std@@V?$_Tree_val@U?$_Tree_simple_types@UTelegram@@@std@@@2@$00@2@$00@std@@QAEAAV?$_Compressed_pair@U?$_Wrap_alloc@V?$allocator@U?$_Tree_node@UTelegram@@PAX@std@@@std@@@std@@V?$_Tree_val@U?$_Tree_simple_types@UTelegram@@@std@@@2@$00@2@XZ
_TEXT	SEGMENT
_this$ = -4						; size = 4
?_Get_second@?$_Compressed_pair@U?$less@UTelegram@@@std@@V?$_Compressed_pair@U?$_Wrap_alloc@V?$allocator@U?$_Tree_node@UTelegram@@PAX@std@@@std@@@std@@V?$_Tree_val@U?$_Tree_simple_types@UTelegram@@@std@@@2@$00@2@$00@std@@QAEAAV?$_Compressed_pair@U?$_Wrap_alloc@V?$allocator@U?$_Tree_node@UTelegram@@PAX@std@@@std@@@std@@V?$_Tree_val@U?$_Tree_simple_types@UTelegram@@@std@@@2@$00@2@XZ PROC ; std::_Compressed_pair<std::less<Telegram>,std::_Compressed_pair<std::_Wrap_alloc<std::allocator<std::_Tree_node<Telegram,void *> > >,std::_Tree_val<std::_Tree_simple_types<Telegram> >,1>,1>::_Get_second, COMDAT
; _this$ = ecx

; 314  : 		{	// return reference to second

	push	ebp
	mov	ebp, esp
	push	ecx
	mov	DWORD PTR [ebp-4], -858993460		; ccccccccH
	mov	DWORD PTR _this$[ebp], ecx

; 315  : 		return (_Myval2);

	mov	eax, DWORD PTR _this$[ebp]

; 316  : 		}

	mov	esp, ebp
	pop	ebp
	ret	0
?_Get_second@?$_Compressed_pair@U?$less@UTelegram@@@std@@V?$_Compressed_pair@U?$_Wrap_alloc@V?$allocator@U?$_Tree_node@UTelegram@@PAX@std@@@std@@@std@@V?$_Tree_val@U?$_Tree_simple_types@UTelegram@@@std@@@2@$00@2@$00@std@@QAEAAV?$_Compressed_pair@U?$_Wrap_alloc@V?$allocator@U?$_Tree_node@UTelegram@@PAX@std@@@std@@@std@@V?$_Tree_val@U?$_Tree_simple_types@UTelegram@@@std@@@2@$00@2@XZ ENDP ; std::_Compressed_pair<std::less<Telegram>,std::_Compressed_pair<std::_Wrap_alloc<std::allocator<std::_Tree_node<Telegram,void *> > >,std::_Tree_val<std::_Tree_simple_types<Telegram> >,1>,1>::_Get_second
_TEXT	ENDS
; Function compile flags: /Odtp /RTCsu
; File c:\program files (x86)\microsoft visual studio 14.0\vc\include\xutility
;	COMDAT ?_Get_first@?$_Compressed_pair@U?$less@UTelegram@@@std@@V?$_Compressed_pair@U?$_Wrap_alloc@V?$allocator@U?$_Tree_node@UTelegram@@PAX@std@@@std@@@std@@V?$_Tree_val@U?$_Tree_simple_types@UTelegram@@@std@@@2@$00@2@$00@std@@QAEAAU?$less@UTelegram@@@2@XZ
_TEXT	SEGMENT
_this$ = -4						; size = 4
?_Get_first@?$_Compressed_pair@U?$less@UTelegram@@@std@@V?$_Compressed_pair@U?$_Wrap_alloc@V?$allocator@U?$_Tree_node@UTelegram@@PAX@std@@@std@@@std@@V?$_Tree_val@U?$_Tree_simple_types@UTelegram@@@std@@@2@$00@2@$00@std@@QAEAAU?$less@UTelegram@@@2@XZ PROC ; std::_Compressed_pair<std::less<Telegram>,std::_Compressed_pair<std::_Wrap_alloc<std::allocator<std::_Tree_node<Telegram,void *> > >,std::_Tree_val<std::_Tree_simple_types<Telegram> >,1>,1>::_Get_first, COMDAT
; _this$ = ecx

; 294  : 		{	// return reference to first

	push	ebp
	mov	ebp, esp
	push	ecx
	mov	DWORD PTR [ebp-4], -858993460		; ccccccccH
	mov	DWORD PTR _this$[ebp], ecx

; 295  : 		return (*this);

	mov	eax, DWORD PTR _this$[ebp]

; 296  : 		}

	mov	esp, ebp
	pop	ebp
	ret	0
?_Get_first@?$_Compressed_pair@U?$less@UTelegram@@@std@@V?$_Compressed_pair@U?$_Wrap_alloc@V?$allocator@U?$_Tree_node@UTelegram@@PAX@std@@@std@@@std@@V?$_Tree_val@U?$_Tree_simple_types@UTelegram@@@std@@@2@$00@2@$00@std@@QAEAAU?$less@UTelegram@@@2@XZ ENDP ; std::_Compressed_pair<std::less<Telegram>,std::_Compressed_pair<std::_Wrap_alloc<std::allocator<std::_Tree_node<Telegram,void *> > >,std::_Tree_val<std::_Tree_simple_types<Telegram> >,1>,1>::_Get_first
_TEXT	ENDS
; Function compile flags: /Odtp /RTCsu
;	COMDAT ??1?$_Compressed_pair@U?$_Wrap_alloc@V?$allocator@U?$_Tree_node@UTelegram@@PAX@std@@@std@@@std@@V?$_Tree_val@U?$_Tree_simple_types@UTelegram@@@std@@@2@$00@std@@QAE@XZ
_TEXT	SEGMENT
_this$ = -4						; size = 4
??1?$_Compressed_pair@U?$_Wrap_alloc@V?$allocator@U?$_Tree_node@UTelegram@@PAX@std@@@std@@@std@@V?$_Tree_val@U?$_Tree_simple_types@UTelegram@@@std@@@2@$00@std@@QAE@XZ PROC ; std::_Compressed_pair<std::_Wrap_alloc<std::allocator<std::_Tree_node<Telegram,void *> > >,std::_Tree_val<std::_Tree_simple_types<Telegram> >,1>::~_Compressed_pair<std::_Wrap_alloc<std::allocator<std::_Tree_node<Telegram,void *> > >,std::_Tree_val<std::_Tree_simple_types<Telegram> >,1>, COMDAT
; _this$ = ecx
	push	ebp
	mov	ebp, esp
	push	ecx
	mov	DWORD PTR [ebp-4], -858993460		; ccccccccH
	mov	DWORD PTR _this$[ebp], ecx
	mov	ecx, DWORD PTR _this$[ebp]
	call	??1?$_Tree_val@U?$_Tree_simple_types@UTelegram@@@std@@@std@@QAE@XZ
	add	esp, 4
	cmp	ebp, esp
	call	__RTC_CheckEsp
	mov	esp, ebp
	pop	ebp
	ret	0
??1?$_Compressed_pair@U?$_Wrap_alloc@V?$allocator@U?$_Tree_node@UTelegram@@PAX@std@@@std@@@std@@V?$_Tree_val@U?$_Tree_simple_types@UTelegram@@@std@@@2@$00@std@@QAE@XZ ENDP ; std::_Compressed_pair<std::_Wrap_alloc<std::allocator<std::_Tree_node<Telegram,void *> > >,std::_Tree_val<std::_Tree_simple_types<Telegram> >,1>::~_Compressed_pair<std::_Wrap_alloc<std::allocator<std::_Tree_node<Telegram,void *> > >,std::_Tree_val<std::_Tree_simple_types<Telegram> >,1>
_TEXT	ENDS
; Function compile flags: /Odtp /RTCsu
; File c:\program files (x86)\microsoft visual studio 14.0\vc\include\xutility
;	COMDAT ?_Get_second@?$_Compressed_pair@U?$_Wrap_alloc@V?$allocator@U?$_Tree_node@UTelegram@@PAX@std@@@std@@@std@@V?$_Tree_val@U?$_Tree_simple_types@UTelegram@@@std@@@2@$00@std@@QBEABV?$_Tree_val@U?$_Tree_simple_types@UTelegram@@@std@@@2@XZ
_TEXT	SEGMENT
_this$ = -4						; size = 4
?_Get_second@?$_Compressed_pair@U?$_Wrap_alloc@V?$allocator@U?$_Tree_node@UTelegram@@PAX@std@@@std@@@std@@V?$_Tree_val@U?$_Tree_simple_types@UTelegram@@@std@@@2@$00@std@@QBEABV?$_Tree_val@U?$_Tree_simple_types@UTelegram@@@std@@@2@XZ PROC ; std::_Compressed_pair<std::_Wrap_alloc<std::allocator<std::_Tree_node<Telegram,void *> > >,std::_Tree_val<std::_Tree_simple_types<Telegram> >,1>::_Get_second, COMDAT
; _this$ = ecx

; 319  : 		{	// return const reference to second

	push	ebp
	mov	ebp, esp
	push	ecx
	mov	DWORD PTR [ebp-4], -858993460		; ccccccccH
	mov	DWORD PTR _this$[ebp], ecx

; 320  : 		return (_Myval2);

	mov	eax, DWORD PTR _this$[ebp]

; 321  : 		}

	mov	esp, ebp
	pop	ebp
	ret	0
?_Get_second@?$_Compressed_pair@U?$_Wrap_alloc@V?$allocator@U?$_Tree_node@UTelegram@@PAX@std@@@std@@@std@@V?$_Tree_val@U?$_Tree_simple_types@UTelegram@@@std@@@2@$00@std@@QBEABV?$_Tree_val@U?$_Tree_simple_types@UTelegram@@@std@@@2@XZ ENDP ; std::_Compressed_pair<std::_Wrap_alloc<std::allocator<std::_Tree_node<Telegram,void *> > >,std::_Tree_val<std::_Tree_simple_types<Telegram> >,1>::_Get_second
_TEXT	ENDS
; Function compile flags: /Odtp /RTCsu
; File c:\program files (x86)\microsoft visual studio 14.0\vc\include\xutility
;	COMDAT ?_Get_second@?$_Compressed_pair@U?$_Wrap_alloc@V?$allocator@U?$_Tree_node@UTelegram@@PAX@std@@@std@@@std@@V?$_Tree_val@U?$_Tree_simple_types@UTelegram@@@std@@@2@$00@std@@QAEAAV?$_Tree_val@U?$_Tree_simple_types@UTelegram@@@std@@@2@XZ
_TEXT	SEGMENT
_this$ = -4						; size = 4
?_Get_second@?$_Compressed_pair@U?$_Wrap_alloc@V?$allocator@U?$_Tree_node@UTelegram@@PAX@std@@@std@@@std@@V?$_Tree_val@U?$_Tree_simple_types@UTelegram@@@std@@@2@$00@std@@QAEAAV?$_Tree_val@U?$_Tree_simple_types@UTelegram@@@std@@@2@XZ PROC ; std::_Compressed_pair<std::_Wrap_alloc<std::allocator<std::_Tree_node<Telegram,void *> > >,std::_Tree_val<std::_Tree_simple_types<Telegram> >,1>::_Get_second, COMDAT
; _this$ = ecx

; 314  : 		{	// return reference to second

	push	ebp
	mov	ebp, esp
	push	ecx
	mov	DWORD PTR [ebp-4], -858993460		; ccccccccH
	mov	DWORD PTR _this$[ebp], ecx

; 315  : 		return (_Myval2);

	mov	eax, DWORD PTR _this$[ebp]

; 316  : 		}

	mov	esp, ebp
	pop	ebp
	ret	0
?_Get_second@?$_Compressed_pair@U?$_Wrap_alloc@V?$allocator@U?$_Tree_node@UTelegram@@PAX@std@@@std@@@std@@V?$_Tree_val@U?$_Tree_simple_types@UTelegram@@@std@@@2@$00@std@@QAEAAV?$_Tree_val@U?$_Tree_simple_types@UTelegram@@@std@@@2@XZ ENDP ; std::_Compressed_pair<std::_Wrap_alloc<std::allocator<std::_Tree_node<Telegram,void *> > >,std::_Tree_val<std::_Tree_simple_types<Telegram> >,1>::_Get_second
_TEXT	ENDS
; Function compile flags: /Odtp /RTCsu
; File c:\program files (x86)\microsoft visual studio 14.0\vc\include\xutility
;	COMDAT ?_Get_first@?$_Compressed_pair@U?$_Wrap_alloc@V?$allocator@U?$_Tree_node@UTelegram@@PAX@std@@@std@@@std@@V?$_Tree_val@U?$_Tree_simple_types@UTelegram@@@std@@@2@$00@std@@QBEABU?$_Wrap_alloc@V?$allocator@U?$_Tree_node@UTelegram@@PAX@std@@@std@@@2@XZ
_TEXT	SEGMENT
_this$ = -4						; size = 4
?_Get_first@?$_Compressed_pair@U?$_Wrap_alloc@V?$allocator@U?$_Tree_node@UTelegram@@PAX@std@@@std@@@std@@V?$_Tree_val@U?$_Tree_simple_types@UTelegram@@@std@@@2@$00@std@@QBEABU?$_Wrap_alloc@V?$allocator@U?$_Tree_node@UTelegram@@PAX@std@@@std@@@2@XZ PROC ; std::_Compressed_pair<std::_Wrap_alloc<std::allocator<std::_Tree_node<Telegram,void *> > >,std::_Tree_val<std::_Tree_simple_types<Telegram> >,1>::_Get_first, COMDAT
; _this$ = ecx

; 299  : 		{	// return const reference to first

	push	ebp
	mov	ebp, esp
	push	ecx
	mov	DWORD PTR [ebp-4], -858993460		; ccccccccH
	mov	DWORD PTR _this$[ebp], ecx

; 300  : 		return (*this);

	mov	eax, DWORD PTR _this$[ebp]

; 301  : 		}

	mov	esp, ebp
	pop	ebp
	ret	0
?_Get_first@?$_Compressed_pair@U?$_Wrap_alloc@V?$allocator@U?$_Tree_node@UTelegram@@PAX@std@@@std@@@std@@V?$_Tree_val@U?$_Tree_simple_types@UTelegram@@@std@@@2@$00@std@@QBEABU?$_Wrap_alloc@V?$allocator@U?$_Tree_node@UTelegram@@PAX@std@@@std@@@2@XZ ENDP ; std::_Compressed_pair<std::_Wrap_alloc<std::allocator<std::_Tree_node<Telegram,void *> > >,std::_Tree_val<std::_Tree_simple_types<Telegram> >,1>::_Get_first
_TEXT	ENDS
; Function compile flags: /Odtp /RTCsu
; File c:\program files (x86)\microsoft visual studio 14.0\vc\include\xutility
;	COMDAT ?_Get_first@?$_Compressed_pair@U?$_Wrap_alloc@V?$allocator@U?$_Tree_node@UTelegram@@PAX@std@@@std@@@std@@V?$_Tree_val@U?$_Tree_simple_types@UTelegram@@@std@@@2@$00@std@@QAEAAU?$_Wrap_alloc@V?$allocator@U?$_Tree_node@UTelegram@@PAX@std@@@std@@@2@XZ
_TEXT	SEGMENT
_this$ = -4						; size = 4
?_Get_first@?$_Compressed_pair@U?$_Wrap_alloc@V?$allocator@U?$_Tree_node@UTelegram@@PAX@std@@@std@@@std@@V?$_Tree_val@U?$_Tree_simple_types@UTelegram@@@std@@@2@$00@std@@QAEAAU?$_Wrap_alloc@V?$allocator@U?$_Tree_node@UTelegram@@PAX@std@@@std@@@2@XZ PROC ; std::_Compressed_pair<std::_Wrap_alloc<std::allocator<std::_Tree_node<Telegram,void *> > >,std::_Tree_val<std::_Tree_simple_types<Telegram> >,1>::_Get_first, COMDAT
; _this$ = ecx

; 294  : 		{	// return reference to first

	push	ebp
	mov	ebp, esp
	push	ecx
	mov	DWORD PTR [ebp-4], -858993460		; ccccccccH
	mov	DWORD PTR _this$[ebp], ecx

; 295  : 		return (*this);

	mov	eax, DWORD PTR _this$[ebp]

; 296  : 		}

	mov	esp, ebp
	pop	ebp
	ret	0
?_Get_first@?$_Compressed_pair@U?$_Wrap_alloc@V?$allocator@U?$_Tree_node@UTelegram@@PAX@std@@@std@@@std@@V?$_Tree_val@U?$_Tree_simple_types@UTelegram@@@std@@@2@$00@std@@QAEAAU?$_Wrap_alloc@V?$allocator@U?$_Tree_node@UTelegram@@PAX@std@@@std@@@2@XZ ENDP ; std::_Compressed_pair<std::_Wrap_alloc<std::allocator<std::_Tree_node<Telegram,void *> > >,std::_Tree_val<std::_Tree_simple_types<Telegram> >,1>::_Get_first
_TEXT	ENDS
; Function compile flags: /Odtp /RTCsu
;	COMDAT ??1?$_Tree_val@U?$_Tree_simple_types@UTelegram@@@std@@@std@@QAE@XZ
_TEXT	SEGMENT
_this$ = -4						; size = 4
??1?$_Tree_val@U?$_Tree_simple_types@UTelegram@@@std@@@std@@QAE@XZ PROC ; std::_Tree_val<std::_Tree_simple_types<Telegram> >::~_Tree_val<std::_Tree_simple_types<Telegram> >, COMDAT
; _this$ = ecx
	push	ebp
	mov	ebp, esp
	push	ecx
	mov	DWORD PTR [ebp-4], -858993460		; ccccccccH
	mov	DWORD PTR _this$[ebp], ecx
	mov	ecx, DWORD PTR _this$[ebp]
	call	??1_Container_base12@std@@QAE@XZ	; std::_Container_base12::~_Container_base12
	add	esp, 4
	cmp	ebp, esp
	call	__RTC_CheckEsp
	mov	esp, ebp
	pop	ebp
	ret	0
??1?$_Tree_val@U?$_Tree_simple_types@UTelegram@@@std@@@std@@QAE@XZ ENDP ; std::_Tree_val<std::_Tree_simple_types<Telegram> >::~_Tree_val<std::_Tree_simple_types<Telegram> >
_TEXT	ENDS
; Function compile flags: /Odtp /RTCsu
; File c:\program files (x86)\microsoft visual studio 14.0\vc\include\xtree
;	COMDAT ?_Min@?$_Tree_val@U?$_Tree_simple_types@UTelegram@@@std@@@std@@SAPAU?$_Tree_node@UTelegram@@PAX@2@PAU32@@Z
_TEXT	SEGMENT
__Pnode$ = 8						; size = 4
?_Min@?$_Tree_val@U?$_Tree_simple_types@UTelegram@@@std@@@std@@SAPAU?$_Tree_node@UTelegram@@PAX@2@PAU32@@Z PROC ; std::_Tree_val<std::_Tree_simple_types<Telegram> >::_Min, COMDAT

; 614  : 		{	// return leftmost node in subtree at _Pnode

	push	ebp
	mov	ebp, esp
$LN2@Min:

; 615  : 		while (!_Isnil(_Left(_Pnode)))

	mov	eax, DWORD PTR __Pnode$[ebp]
	push	eax
	call	?_Left@?$_Tree_val@U?$_Tree_simple_types@UTelegram@@@std@@@std@@SAAAPAU?$_Tree_node@UTelegram@@PAX@2@PAU32@@Z ; std::_Tree_val<std::_Tree_simple_types<Telegram> >::_Left
	add	esp, 4
	mov	ecx, DWORD PTR [eax]
	push	ecx
	call	?_Isnil@?$_Tree_val@U?$_Tree_simple_types@UTelegram@@@std@@@std@@SAAADPAU?$_Tree_node@UTelegram@@PAX@2@@Z ; std::_Tree_val<std::_Tree_simple_types<Telegram> >::_Isnil
	add	esp, 4
	movsx	edx, BYTE PTR [eax]
	test	edx, edx
	jne	SHORT $LN3@Min

; 616  : 			_Pnode = _Left(_Pnode);

	mov	eax, DWORD PTR __Pnode$[ebp]
	push	eax
	call	?_Left@?$_Tree_val@U?$_Tree_simple_types@UTelegram@@@std@@@std@@SAAAPAU?$_Tree_node@UTelegram@@PAX@2@PAU32@@Z ; std::_Tree_val<std::_Tree_simple_types<Telegram> >::_Left
	add	esp, 4
	mov	ecx, DWORD PTR [eax]
	mov	DWORD PTR __Pnode$[ebp], ecx
	jmp	SHORT $LN2@Min
$LN3@Min:

; 617  : 		return (_Pnode);

	mov	eax, DWORD PTR __Pnode$[ebp]

; 618  : 		}

	cmp	ebp, esp
	call	__RTC_CheckEsp
	pop	ebp
	ret	0
?_Min@?$_Tree_val@U?$_Tree_simple_types@UTelegram@@@std@@@std@@SAPAU?$_Tree_node@UTelegram@@PAX@2@PAU32@@Z ENDP ; std::_Tree_val<std::_Tree_simple_types<Telegram> >::_Min
_TEXT	ENDS
; Function compile flags: /Odtp /RTCsu
; File c:\program files (x86)\microsoft visual studio 14.0\vc\include\xtree
;	COMDAT ?_Max@?$_Tree_val@U?$_Tree_simple_types@UTelegram@@@std@@@std@@SAPAU?$_Tree_node@UTelegram@@PAX@2@PAU32@@Z
_TEXT	SEGMENT
__Pnode$ = 8						; size = 4
?_Max@?$_Tree_val@U?$_Tree_simple_types@UTelegram@@@std@@@std@@SAPAU?$_Tree_node@UTelegram@@PAX@2@PAU32@@Z PROC ; std::_Tree_val<std::_Tree_simple_types<Telegram> >::_Max, COMDAT

; 607  : 		{	// return rightmost node in subtree at _Pnode

	push	ebp
	mov	ebp, esp
$LN2@Max:

; 608  : 		while (!_Isnil(_Right(_Pnode)))

	mov	eax, DWORD PTR __Pnode$[ebp]
	push	eax
	call	?_Right@?$_Tree_val@U?$_Tree_simple_types@UTelegram@@@std@@@std@@SAAAPAU?$_Tree_node@UTelegram@@PAX@2@PAU32@@Z ; std::_Tree_val<std::_Tree_simple_types<Telegram> >::_Right
	add	esp, 4
	mov	ecx, DWORD PTR [eax]
	push	ecx
	call	?_Isnil@?$_Tree_val@U?$_Tree_simple_types@UTelegram@@@std@@@std@@SAAADPAU?$_Tree_node@UTelegram@@PAX@2@@Z ; std::_Tree_val<std::_Tree_simple_types<Telegram> >::_Isnil
	add	esp, 4
	movsx	edx, BYTE PTR [eax]
	test	edx, edx
	jne	SHORT $LN3@Max

; 609  : 			_Pnode = _Right(_Pnode);

	mov	eax, DWORD PTR __Pnode$[ebp]
	push	eax
	call	?_Right@?$_Tree_val@U?$_Tree_simple_types@UTelegram@@@std@@@std@@SAAAPAU?$_Tree_node@UTelegram@@PAX@2@PAU32@@Z ; std::_Tree_val<std::_Tree_simple_types<Telegram> >::_Right
	add	esp, 4
	mov	ecx, DWORD PTR [eax]
	mov	DWORD PTR __Pnode$[ebp], ecx
	jmp	SHORT $LN2@Max
$LN3@Max:

; 610  : 		return (_Pnode);

	mov	eax, DWORD PTR __Pnode$[ebp]

; 611  : 		}

	cmp	ebp, esp
	call	__RTC_CheckEsp
	pop	ebp
	ret	0
?_Max@?$_Tree_val@U?$_Tree_simple_types@UTelegram@@@std@@@std@@SAPAU?$_Tree_node@UTelegram@@PAX@2@PAU32@@Z ENDP ; std::_Tree_val<std::_Tree_simple_types<Telegram> >::_Max
_TEXT	ENDS
; Function compile flags: /Odtp /RTCsu
; File c:\program files (x86)\microsoft visual studio 14.0\vc\include\xtree
;	COMDAT ?_Myval@?$_Tree_val@U?$_Tree_simple_types@UTelegram@@@std@@@std@@SAAAUTelegram@@PAU?$_Tree_node@UTelegram@@PAX@2@@Z
_TEXT	SEGMENT
__Pnode$ = 8						; size = 4
?_Myval@?$_Tree_val@U?$_Tree_simple_types@UTelegram@@@std@@@std@@SAAAUTelegram@@PAU?$_Tree_node@UTelegram@@PAX@2@@Z PROC ; std::_Tree_val<std::_Tree_simple_types<Telegram> >::_Myval, COMDAT

; 602  : 		{	// return reference to value in node

	push	ebp
	mov	ebp, esp

; 603  : 		return ((reference)_Pnode->_Myval);

	mov	eax, DWORD PTR __Pnode$[ebp]
	add	eax, 16					; 00000010H

; 604  : 		}

	pop	ebp
	ret	0
?_Myval@?$_Tree_val@U?$_Tree_simple_types@UTelegram@@@std@@@std@@SAAAUTelegram@@PAU?$_Tree_node@UTelegram@@PAX@2@@Z ENDP ; std::_Tree_val<std::_Tree_simple_types<Telegram> >::_Myval
_TEXT	ENDS
; Function compile flags: /Odtp /RTCsu
; File c:\program files (x86)\microsoft visual studio 14.0\vc\include\xtree
;	COMDAT ?_Right@?$_Tree_val@U?$_Tree_simple_types@UTelegram@@@std@@@std@@SAAAPAU?$_Tree_node@UTelegram@@PAX@2@PAU32@@Z
_TEXT	SEGMENT
__Pnode$ = 8						; size = 4
?_Right@?$_Tree_val@U?$_Tree_simple_types@UTelegram@@@std@@@std@@SAAAPAU?$_Tree_node@UTelegram@@PAX@2@PAU32@@Z PROC ; std::_Tree_val<std::_Tree_simple_types<Telegram> >::_Right, COMDAT

; 597  : 		{	// return reference to right pointer in node

	push	ebp
	mov	ebp, esp

; 598  : 		return ((_Nodepref)_Pnode->_Right);

	mov	eax, DWORD PTR __Pnode$[ebp]
	add	eax, 8

; 599  : 		}

	pop	ebp
	ret	0
?_Right@?$_Tree_val@U?$_Tree_simple_types@UTelegram@@@std@@@std@@SAAAPAU?$_Tree_node@UTelegram@@PAX@2@PAU32@@Z ENDP ; std::_Tree_val<std::_Tree_simple_types<Telegram> >::_Right
_TEXT	ENDS
; Function compile flags: /Odtp /RTCsu
; File c:\program files (x86)\microsoft visual studio 14.0\vc\include\xtree
;	COMDAT ?_Parent@?$_Tree_val@U?$_Tree_simple_types@UTelegram@@@std@@@std@@SAAAPAU?$_Tree_node@UTelegram@@PAX@2@PAU32@@Z
_TEXT	SEGMENT
__Pnode$ = 8						; size = 4
?_Parent@?$_Tree_val@U?$_Tree_simple_types@UTelegram@@@std@@@std@@SAAAPAU?$_Tree_node@UTelegram@@PAX@2@PAU32@@Z PROC ; std::_Tree_val<std::_Tree_simple_types<Telegram> >::_Parent, COMDAT

; 592  : 		{	// return reference to parent pointer in node

	push	ebp
	mov	ebp, esp

; 593  : 		return ((_Nodepref)_Pnode->_Parent);

	mov	eax, DWORD PTR __Pnode$[ebp]
	add	eax, 4

; 594  : 		}

	pop	ebp
	ret	0
?_Parent@?$_Tree_val@U?$_Tree_simple_types@UTelegram@@@std@@@std@@SAAAPAU?$_Tree_node@UTelegram@@PAX@2@PAU32@@Z ENDP ; std::_Tree_val<std::_Tree_simple_types<Telegram> >::_Parent
_TEXT	ENDS
; Function compile flags: /Odtp /RTCsu
; File c:\program files (x86)\microsoft visual studio 14.0\vc\include\xtree
;	COMDAT ?_Left@?$_Tree_val@U?$_Tree_simple_types@UTelegram@@@std@@@std@@SAAAPAU?$_Tree_node@UTelegram@@PAX@2@PAU32@@Z
_TEXT	SEGMENT
__Pnode$ = 8						; size = 4
?_Left@?$_Tree_val@U?$_Tree_simple_types@UTelegram@@@std@@@std@@SAAAPAU?$_Tree_node@UTelegram@@PAX@2@PAU32@@Z PROC ; std::_Tree_val<std::_Tree_simple_types<Telegram> >::_Left, COMDAT

; 587  : 		{	// return reference to left pointer in node

	push	ebp
	mov	ebp, esp

; 588  : 		return ((_Nodepref)_Pnode->_Left);

	mov	eax, DWORD PTR __Pnode$[ebp]

; 589  : 		}

	pop	ebp
	ret	0
?_Left@?$_Tree_val@U?$_Tree_simple_types@UTelegram@@@std@@@std@@SAAAPAU?$_Tree_node@UTelegram@@PAX@2@PAU32@@Z ENDP ; std::_Tree_val<std::_Tree_simple_types<Telegram> >::_Left
_TEXT	ENDS
; Function compile flags: /Odtp /RTCsu
; File c:\program files (x86)\microsoft visual studio 14.0\vc\include\xtree
;	COMDAT ?_Isnil@?$_Tree_val@U?$_Tree_simple_types@UTelegram@@@std@@@std@@SAAADPAU?$_Tree_node@UTelegram@@PAX@2@@Z
_TEXT	SEGMENT
__Pnode$ = 8						; size = 4
?_Isnil@?$_Tree_val@U?$_Tree_simple_types@UTelegram@@@std@@@std@@SAAADPAU?$_Tree_node@UTelegram@@PAX@2@@Z PROC ; std::_Tree_val<std::_Tree_simple_types<Telegram> >::_Isnil, COMDAT

; 582  : 		{	// return reference to nil flag in node

	push	ebp
	mov	ebp, esp

; 583  : 		return ((char&)_Pnode->_Isnil);

	mov	eax, DWORD PTR __Pnode$[ebp]
	add	eax, 13					; 0000000dH

; 584  : 		}

	pop	ebp
	ret	0
?_Isnil@?$_Tree_val@U?$_Tree_simple_types@UTelegram@@@std@@@std@@SAAADPAU?$_Tree_node@UTelegram@@PAX@2@@Z ENDP ; std::_Tree_val<std::_Tree_simple_types<Telegram> >::_Isnil
_TEXT	ENDS
; Function compile flags: /Odtp /RTCsu
; File c:\program files (x86)\microsoft visual studio 14.0\vc\include\xtree
;	COMDAT ?_Color@?$_Tree_val@U?$_Tree_simple_types@UTelegram@@@std@@@std@@SAAADPAU?$_Tree_node@UTelegram@@PAX@2@@Z
_TEXT	SEGMENT
__Pnode$ = 8						; size = 4
?_Color@?$_Tree_val@U?$_Tree_simple_types@UTelegram@@@std@@@std@@SAAADPAU?$_Tree_node@UTelegram@@PAX@2@@Z PROC ; std::_Tree_val<std::_Tree_simple_types<Telegram> >::_Color, COMDAT

; 577  : 		{	// return reference to color in node

	push	ebp
	mov	ebp, esp

; 578  : 		return ((char&)_Pnode->_Color);

	mov	eax, DWORD PTR __Pnode$[ebp]
	add	eax, 12					; 0000000cH

; 579  : 		}

	pop	ebp
	ret	0
?_Color@?$_Tree_val@U?$_Tree_simple_types@UTelegram@@@std@@@std@@SAAADPAU?$_Tree_node@UTelegram@@PAX@2@@Z ENDP ; std::_Tree_val<std::_Tree_simple_types<Telegram> >::_Color
_TEXT	ENDS
; Function compile flags: /Odtp /RTCsu
; File c:\program files (x86)\microsoft visual studio 14.0\vc\include\xtree
;	COMDAT ??0?$_Tree_val@U?$_Tree_simple_types@UTelegram@@@std@@@std@@QAE@XZ
_TEXT	SEGMENT
_this$ = -4						; size = 4
??0?$_Tree_val@U?$_Tree_simple_types@UTelegram@@@std@@@std@@QAE@XZ PROC ; std::_Tree_val<std::_Tree_simple_types<Telegram> >::_Tree_val<std::_Tree_simple_types<Telegram> >, COMDAT
; _this$ = ecx

; 569  : 		{	// initialize data

	push	ebp
	mov	ebp, esp
	push	ecx
	mov	DWORD PTR [ebp-4], -858993460		; ccccccccH
	mov	DWORD PTR _this$[ebp], ecx
	mov	ecx, DWORD PTR _this$[ebp]
	call	??0_Container_base12@std@@QAE@XZ	; std::_Container_base12::_Container_base12

; 567  : 		: _Myhead(),

	mov	eax, DWORD PTR _this$[ebp]
	mov	DWORD PTR [eax+4], 0

; 568  : 		_Mysize(0)

	mov	ecx, DWORD PTR _this$[ebp]
	mov	DWORD PTR [ecx+8], 0

; 570  : 		}

	mov	eax, DWORD PTR _this$[ebp]
	add	esp, 4
	cmp	ebp, esp
	call	__RTC_CheckEsp
	mov	esp, ebp
	pop	ebp
	ret	0
??0?$_Tree_val@U?$_Tree_simple_types@UTelegram@@@std@@@std@@QAE@XZ ENDP ; std::_Tree_val<std::_Tree_simple_types<Telegram> >::_Tree_val<std::_Tree_simple_types<Telegram> >
_TEXT	ENDS
; Function compile flags: /Odtp /RTCsu
; File c:\program files (x86)\microsoft visual studio 14.0\vc\include\xstddef
;	COMDAT ??R?$less@UTelegram@@@std@@QBE_NABUTelegram@@0@Z
_TEXT	SEGMENT
_this$ = -4						; size = 4
__Left$ = 8						; size = 4
__Right$ = 12						; size = 4
??R?$less@UTelegram@@@std@@QBE_NABUTelegram@@0@Z PROC	; std::less<Telegram>::operator(), COMDAT
; _this$ = ecx

; 238  : 		{	// apply operator< to operands

	push	ebp
	mov	ebp, esp
	push	ecx
	mov	DWORD PTR [ebp-4], -858993460		; ccccccccH
	mov	DWORD PTR _this$[ebp], ecx

; 239  : 		return (_Left < _Right);

	mov	eax, DWORD PTR __Right$[ebp]
	push	eax
	mov	ecx, DWORD PTR __Left$[ebp]
	push	ecx
	call	??M@YA_NABUTelegram@@0@Z		; operator<
	add	esp, 8

; 240  : 		}

	add	esp, 4
	cmp	ebp, esp
	call	__RTC_CheckEsp
	mov	esp, ebp
	pop	ebp
	ret	8
??R?$less@UTelegram@@@std@@QBE_NABUTelegram@@0@Z ENDP	; std::less<Telegram>::operator()
_TEXT	ENDS
; Function compile flags: /Odtp /RTCsu
; File c:\program files (x86)\microsoft visual studio 14.0\vc\include\xtree
;	COMDAT ?_Mysize@?$_Tree_comp_alloc@V?$_Tset_traits@UTelegram@@U?$less@UTelegram@@@std@@V?$allocator@UTelegram@@@3@$0A@@std@@@std@@QBEABIXZ
_TEXT	SEGMENT
_this$ = -4						; size = 4
?_Mysize@?$_Tree_comp_alloc@V?$_Tset_traits@UTelegram@@U?$less@UTelegram@@@std@@V?$allocator@UTelegram@@@3@$0A@@std@@@std@@QBEABIXZ PROC ; std::_Tree_comp_alloc<std::_Tset_traits<Telegram,std::less<Telegram>,std::allocator<Telegram>,0> >::_Mysize, COMDAT
; _this$ = ecx

; 944  : 		{	// return const reference to _Mysize

	push	ebp
	mov	ebp, esp
	push	ecx
	mov	DWORD PTR [ebp-4], -858993460		; ccccccccH
	mov	DWORD PTR _this$[ebp], ecx

; 945  : 		return (_Get_data()._Mysize);

	mov	ecx, DWORD PTR _this$[ebp]
	call	?_Get_data@?$_Tree_comp_alloc@V?$_Tset_traits@UTelegram@@U?$less@UTelegram@@@std@@V?$allocator@UTelegram@@@3@$0A@@std@@@std@@QBEABV?$_Tree_val@U?$_Tree_simple_types@UTelegram@@@std@@@2@XZ ; std::_Tree_comp_alloc<std::_Tset_traits<Telegram,std::less<Telegram>,std::allocator<Telegram>,0> >::_Get_data
	add	eax, 8

; 946  : 		}

	add	esp, 4
	cmp	ebp, esp
	call	__RTC_CheckEsp
	mov	esp, ebp
	pop	ebp
	ret	0
?_Mysize@?$_Tree_comp_alloc@V?$_Tset_traits@UTelegram@@U?$less@UTelegram@@@std@@V?$allocator@UTelegram@@@3@$0A@@std@@@std@@QBEABIXZ ENDP ; std::_Tree_comp_alloc<std::_Tset_traits<Telegram,std::less<Telegram>,std::allocator<Telegram>,0> >::_Mysize
_TEXT	ENDS
; Function compile flags: /Odtp /RTCsu
; File c:\program files (x86)\microsoft visual studio 14.0\vc\include\xtree
;	COMDAT ?_Mysize@?$_Tree_comp_alloc@V?$_Tset_traits@UTelegram@@U?$less@UTelegram@@@std@@V?$allocator@UTelegram@@@3@$0A@@std@@@std@@QAEAAIXZ
_TEXT	SEGMENT
_this$ = -4						; size = 4
?_Mysize@?$_Tree_comp_alloc@V?$_Tset_traits@UTelegram@@U?$less@UTelegram@@@std@@V?$allocator@UTelegram@@@3@$0A@@std@@@std@@QAEAAIXZ PROC ; std::_Tree_comp_alloc<std::_Tset_traits<Telegram,std::less<Telegram>,std::allocator<Telegram>,0> >::_Mysize, COMDAT
; _this$ = ecx

; 939  : 		{	// return reference to _Mysize

	push	ebp
	mov	ebp, esp
	push	ecx
	mov	DWORD PTR [ebp-4], -858993460		; ccccccccH
	mov	DWORD PTR _this$[ebp], ecx

; 940  : 		return (_Get_data()._Mysize);

	mov	ecx, DWORD PTR _this$[ebp]
	call	?_Get_data@?$_Tree_comp_alloc@V?$_Tset_traits@UTelegram@@U?$less@UTelegram@@@std@@V?$allocator@UTelegram@@@3@$0A@@std@@@std@@QAEAAV?$_Tree_val@U?$_Tree_simple_types@UTelegram@@@std@@@2@XZ ; std::_Tree_comp_alloc<std::_Tset_traits<Telegram,std::less<Telegram>,std::allocator<Telegram>,0> >::_Get_data
	add	eax, 8

; 941  : 		}

	add	esp, 4
	cmp	ebp, esp
	call	__RTC_CheckEsp
	mov	esp, ebp
	pop	ebp
	ret	0
?_Mysize@?$_Tree_comp_alloc@V?$_Tset_traits@UTelegram@@U?$less@UTelegram@@@std@@V?$allocator@UTelegram@@@3@$0A@@std@@@std@@QAEAAIXZ ENDP ; std::_Tree_comp_alloc<std::_Tset_traits<Telegram,std::less<Telegram>,std::allocator<Telegram>,0> >::_Mysize
_TEXT	ENDS
; Function compile flags: /Odtp /RTCsu
; File c:\program files (x86)\microsoft visual studio 14.0\vc\include\xtree
;	COMDAT ?_Myhead@?$_Tree_comp_alloc@V?$_Tset_traits@UTelegram@@U?$less@UTelegram@@@std@@V?$allocator@UTelegram@@@3@$0A@@std@@@std@@QBEABQAU?$_Tree_node@UTelegram@@PAX@2@XZ
_TEXT	SEGMENT
_this$ = -4						; size = 4
?_Myhead@?$_Tree_comp_alloc@V?$_Tset_traits@UTelegram@@U?$less@UTelegram@@@std@@V?$allocator@UTelegram@@@3@$0A@@std@@@std@@QBEABQAU?$_Tree_node@UTelegram@@PAX@2@XZ PROC ; std::_Tree_comp_alloc<std::_Tset_traits<Telegram,std::less<Telegram>,std::allocator<Telegram>,0> >::_Myhead, COMDAT
; _this$ = ecx

; 934  : 		{	// return const reference to _Myhead

	push	ebp
	mov	ebp, esp
	push	ecx
	mov	DWORD PTR [ebp-4], -858993460		; ccccccccH
	mov	DWORD PTR _this$[ebp], ecx

; 935  : 		return (_Get_data()._Myhead);

	mov	ecx, DWORD PTR _this$[ebp]
	call	?_Get_data@?$_Tree_comp_alloc@V?$_Tset_traits@UTelegram@@U?$less@UTelegram@@@std@@V?$allocator@UTelegram@@@3@$0A@@std@@@std@@QBEABV?$_Tree_val@U?$_Tree_simple_types@UTelegram@@@std@@@2@XZ ; std::_Tree_comp_alloc<std::_Tset_traits<Telegram,std::less<Telegram>,std::allocator<Telegram>,0> >::_Get_data
	add	eax, 4

; 936  : 		}

	add	esp, 4
	cmp	ebp, esp
	call	__RTC_CheckEsp
	mov	esp, ebp
	pop	ebp
	ret	0
?_Myhead@?$_Tree_comp_alloc@V?$_Tset_traits@UTelegram@@U?$less@UTelegram@@@std@@V?$allocator@UTelegram@@@3@$0A@@std@@@std@@QBEABQAU?$_Tree_node@UTelegram@@PAX@2@XZ ENDP ; std::_Tree_comp_alloc<std::_Tset_traits<Telegram,std::less<Telegram>,std::allocator<Telegram>,0> >::_Myhead
_TEXT	ENDS
; Function compile flags: /Odtp /RTCsu
; File c:\program files (x86)\microsoft visual studio 14.0\vc\include\xtree
;	COMDAT ?_Myhead@?$_Tree_comp_alloc@V?$_Tset_traits@UTelegram@@U?$less@UTelegram@@@std@@V?$allocator@UTelegram@@@3@$0A@@std@@@std@@QAEAAPAU?$_Tree_node@UTelegram@@PAX@2@XZ
_TEXT	SEGMENT
_this$ = -4						; size = 4
?_Myhead@?$_Tree_comp_alloc@V?$_Tset_traits@UTelegram@@U?$less@UTelegram@@@std@@V?$allocator@UTelegram@@@3@$0A@@std@@@std@@QAEAAPAU?$_Tree_node@UTelegram@@PAX@2@XZ PROC ; std::_Tree_comp_alloc<std::_Tset_traits<Telegram,std::less<Telegram>,std::allocator<Telegram>,0> >::_Myhead, COMDAT
; _this$ = ecx

; 929  : 		{	// return reference to _Myhead

	push	ebp
	mov	ebp, esp
	push	ecx
	mov	DWORD PTR [ebp-4], -858993460		; ccccccccH
	mov	DWORD PTR _this$[ebp], ecx

; 930  : 		return (_Get_data()._Myhead);

	mov	ecx, DWORD PTR _this$[ebp]
	call	?_Get_data@?$_Tree_comp_alloc@V?$_Tset_traits@UTelegram@@U?$less@UTelegram@@@std@@V?$allocator@UTelegram@@@3@$0A@@std@@@std@@QAEAAV?$_Tree_val@U?$_Tree_simple_types@UTelegram@@@std@@@2@XZ ; std::_Tree_comp_alloc<std::_Tset_traits<Telegram,std::less<Telegram>,std::allocator<Telegram>,0> >::_Get_data
	add	eax, 4

; 931  : 		}

	add	esp, 4
	cmp	ebp, esp
	call	__RTC_CheckEsp
	mov	esp, ebp
	pop	ebp
	ret	0
?_Myhead@?$_Tree_comp_alloc@V?$_Tset_traits@UTelegram@@U?$less@UTelegram@@@std@@V?$allocator@UTelegram@@@3@$0A@@std@@@std@@QAEAAPAU?$_Tree_node@UTelegram@@PAX@2@XZ ENDP ; std::_Tree_comp_alloc<std::_Tset_traits<Telegram,std::less<Telegram>,std::allocator<Telegram>,0> >::_Myhead
_TEXT	ENDS
; Function compile flags: /Odtp /RTCsu
; File c:\program files (x86)\microsoft visual studio 14.0\vc\include\xtree
;	COMDAT ?_Get_data@?$_Tree_comp_alloc@V?$_Tset_traits@UTelegram@@U?$less@UTelegram@@@std@@V?$allocator@UTelegram@@@3@$0A@@std@@@std@@QBEABV?$_Tree_val@U?$_Tree_simple_types@UTelegram@@@std@@@2@XZ
_TEXT	SEGMENT
_this$ = -4						; size = 4
?_Get_data@?$_Tree_comp_alloc@V?$_Tset_traits@UTelegram@@U?$less@UTelegram@@@std@@V?$allocator@UTelegram@@@3@$0A@@std@@@std@@QBEABV?$_Tree_val@U?$_Tree_simple_types@UTelegram@@@std@@@2@XZ PROC ; std::_Tree_comp_alloc<std::_Tset_traits<Telegram,std::less<Telegram>,std::allocator<Telegram>,0> >::_Get_data, COMDAT
; _this$ = ecx

; 924  : 		{	// return const reference to _Tree_val

	push	ebp
	mov	ebp, esp
	push	ecx
	mov	DWORD PTR [ebp-4], -858993460		; ccccccccH
	mov	DWORD PTR _this$[ebp], ecx

; 925  : 		return (_Mypair._Get_second()._Get_second());

	mov	ecx, DWORD PTR _this$[ebp]
	call	?_Get_second@?$_Compressed_pair@U?$less@UTelegram@@@std@@V?$_Compressed_pair@U?$_Wrap_alloc@V?$allocator@U?$_Tree_node@UTelegram@@PAX@std@@@std@@@std@@V?$_Tree_val@U?$_Tree_simple_types@UTelegram@@@std@@@2@$00@2@$00@std@@QBEABV?$_Compressed_pair@U?$_Wrap_alloc@V?$allocator@U?$_Tree_node@UTelegram@@PAX@std@@@std@@@std@@V?$_Tree_val@U?$_Tree_simple_types@UTelegram@@@std@@@2@$00@2@XZ ; std::_Compressed_pair<std::less<Telegram>,std::_Compressed_pair<std::_Wrap_alloc<std::allocator<std::_Tree_node<Telegram,void *> > >,std::_Tree_val<std::_Tree_simple_types<Telegram> >,1>,1>::_Get_second
	mov	ecx, eax
	call	?_Get_second@?$_Compressed_pair@U?$_Wrap_alloc@V?$allocator@U?$_Tree_node@UTelegram@@PAX@std@@@std@@@std@@V?$_Tree_val@U?$_Tree_simple_types@UTelegram@@@std@@@2@$00@std@@QBEABV?$_Tree_val@U?$_Tree_simple_types@UTelegram@@@std@@@2@XZ ; std::_Compressed_pair<std::_Wrap_alloc<std::allocator<std::_Tree_node<Telegram,void *> > >,std::_Tree_val<std::_Tree_simple_types<Telegram> >,1>::_Get_second

; 926  : 		}

	add	esp, 4
	cmp	ebp, esp
	call	__RTC_CheckEsp
	mov	esp, ebp
	pop	ebp
	ret	0
?_Get_data@?$_Tree_comp_alloc@V?$_Tset_traits@UTelegram@@U?$less@UTelegram@@@std@@V?$allocator@UTelegram@@@3@$0A@@std@@@std@@QBEABV?$_Tree_val@U?$_Tree_simple_types@UTelegram@@@std@@@2@XZ ENDP ; std::_Tree_comp_alloc<std::_Tset_traits<Telegram,std::less<Telegram>,std::allocator<Telegram>,0> >::_Get_data
_TEXT	ENDS
; Function compile flags: /Odtp /RTCsu
; File c:\program files (x86)\microsoft visual studio 14.0\vc\include\xtree
;	COMDAT ?_Get_data@?$_Tree_comp_alloc@V?$_Tset_traits@UTelegram@@U?$less@UTelegram@@@std@@V?$allocator@UTelegram@@@3@$0A@@std@@@std@@QAEAAV?$_Tree_val@U?$_Tree_simple_types@UTelegram@@@std@@@2@XZ
_TEXT	SEGMENT
_this$ = -4						; size = 4
?_Get_data@?$_Tree_comp_alloc@V?$_Tset_traits@UTelegram@@U?$less@UTelegram@@@std@@V?$allocator@UTelegram@@@3@$0A@@std@@@std@@QAEAAV?$_Tree_val@U?$_Tree_simple_types@UTelegram@@@std@@@2@XZ PROC ; std::_Tree_comp_alloc<std::_Tset_traits<Telegram,std::less<Telegram>,std::allocator<Telegram>,0> >::_Get_data, COMDAT
; _this$ = ecx

; 919  : 		{	// return reference to _Tree_val

	push	ebp
	mov	ebp, esp
	push	ecx
	mov	DWORD PTR [ebp-4], -858993460		; ccccccccH
	mov	DWORD PTR _this$[ebp], ecx

; 920  : 		return (_Mypair._Get_second()._Get_second());

	mov	ecx, DWORD PTR _this$[ebp]
	call	?_Get_second@?$_Compressed_pair@U?$less@UTelegram@@@std@@V?$_Compressed_pair@U?$_Wrap_alloc@V?$allocator@U?$_Tree_node@UTelegram@@PAX@std@@@std@@@std@@V?$_Tree_val@U?$_Tree_simple_types@UTelegram@@@std@@@2@$00@2@$00@std@@QAEAAV?$_Compressed_pair@U?$_Wrap_alloc@V?$allocator@U?$_Tree_node@UTelegram@@PAX@std@@@std@@@std@@V?$_Tree_val@U?$_Tree_simple_types@UTelegram@@@std@@@2@$00@2@XZ ; std::_Compressed_pair<std::less<Telegram>,std::_Compressed_pair<std::_Wrap_alloc<std::allocator<std::_Tree_node<Telegram,void *> > >,std::_Tree_val<std::_Tree_simple_types<Telegram> >,1>,1>::_Get_second
	mov	ecx, eax
	call	?_Get_second@?$_Compressed_pair@U?$_Wrap_alloc@V?$allocator@U?$_Tree_node@UTelegram@@PAX@std@@@std@@@std@@V?$_Tree_val@U?$_Tree_simple_types@UTelegram@@@std@@@2@$00@std@@QAEAAV?$_Tree_val@U?$_Tree_simple_types@UTelegram@@@std@@@2@XZ ; std::_Compressed_pair<std::_Wrap_alloc<std::allocator<std::_Tree_node<Telegram,void *> > >,std::_Tree_val<std::_Tree_simple_types<Telegram> >,1>::_Get_second

; 921  : 		}

	add	esp, 4
	cmp	ebp, esp
	call	__RTC_CheckEsp
	mov	esp, ebp
	pop	ebp
	ret	0
?_Get_data@?$_Tree_comp_alloc@V?$_Tset_traits@UTelegram@@U?$less@UTelegram@@@std@@V?$allocator@UTelegram@@@3@$0A@@std@@@std@@QAEAAV?$_Tree_val@U?$_Tree_simple_types@UTelegram@@@std@@@2@XZ ENDP ; std::_Tree_comp_alloc<std::_Tset_traits<Telegram,std::less<Telegram>,std::allocator<Telegram>,0> >::_Get_data
_TEXT	ENDS
; Function compile flags: /Odtp /RTCsu
; File c:\program files (x86)\microsoft visual studio 14.0\vc\include\xtree
;	COMDAT ?_Getal@?$_Tree_comp_alloc@V?$_Tset_traits@UTelegram@@U?$less@UTelegram@@@std@@V?$allocator@UTelegram@@@3@$0A@@std@@@std@@QBEABU?$_Wrap_alloc@V?$allocator@U?$_Tree_node@UTelegram@@PAX@std@@@std@@@2@XZ
_TEXT	SEGMENT
_this$ = -4						; size = 4
?_Getal@?$_Tree_comp_alloc@V?$_Tset_traits@UTelegram@@U?$less@UTelegram@@@std@@V?$allocator@UTelegram@@@3@$0A@@std@@@std@@QBEABU?$_Wrap_alloc@V?$allocator@U?$_Tree_node@UTelegram@@PAX@std@@@std@@@2@XZ PROC ; std::_Tree_comp_alloc<std::_Tset_traits<Telegram,std::less<Telegram>,std::allocator<Telegram>,0> >::_Getal, COMDAT
; _this$ = ecx

; 914  : 		{	// return const reference to allocator

	push	ebp
	mov	ebp, esp
	push	ecx
	mov	DWORD PTR [ebp-4], -858993460		; ccccccccH
	mov	DWORD PTR _this$[ebp], ecx

; 915  : 		return (_Mypair._Get_second()._Get_first());

	mov	ecx, DWORD PTR _this$[ebp]
	call	?_Get_second@?$_Compressed_pair@U?$less@UTelegram@@@std@@V?$_Compressed_pair@U?$_Wrap_alloc@V?$allocator@U?$_Tree_node@UTelegram@@PAX@std@@@std@@@std@@V?$_Tree_val@U?$_Tree_simple_types@UTelegram@@@std@@@2@$00@2@$00@std@@QBEABV?$_Compressed_pair@U?$_Wrap_alloc@V?$allocator@U?$_Tree_node@UTelegram@@PAX@std@@@std@@@std@@V?$_Tree_val@U?$_Tree_simple_types@UTelegram@@@std@@@2@$00@2@XZ ; std::_Compressed_pair<std::less<Telegram>,std::_Compressed_pair<std::_Wrap_alloc<std::allocator<std::_Tree_node<Telegram,void *> > >,std::_Tree_val<std::_Tree_simple_types<Telegram> >,1>,1>::_Get_second
	mov	ecx, eax
	call	?_Get_first@?$_Compressed_pair@U?$_Wrap_alloc@V?$allocator@U?$_Tree_node@UTelegram@@PAX@std@@@std@@@std@@V?$_Tree_val@U?$_Tree_simple_types@UTelegram@@@std@@@2@$00@std@@QBEABU?$_Wrap_alloc@V?$allocator@U?$_Tree_node@UTelegram@@PAX@std@@@std@@@2@XZ ; std::_Compressed_pair<std::_Wrap_alloc<std::allocator<std::_Tree_node<Telegram,void *> > >,std::_Tree_val<std::_Tree_simple_types<Telegram> >,1>::_Get_first

; 916  : 		}

	add	esp, 4
	cmp	ebp, esp
	call	__RTC_CheckEsp
	mov	esp, ebp
	pop	ebp
	ret	0
?_Getal@?$_Tree_comp_alloc@V?$_Tset_traits@UTelegram@@U?$less@UTelegram@@@std@@V?$allocator@UTelegram@@@3@$0A@@std@@@std@@QBEABU?$_Wrap_alloc@V?$allocator@U?$_Tree_node@UTelegram@@PAX@std@@@std@@@2@XZ ENDP ; std::_Tree_comp_alloc<std::_Tset_traits<Telegram,std::less<Telegram>,std::allocator<Telegram>,0> >::_Getal
_TEXT	ENDS
; Function compile flags: /Odtp /RTCsu
; File c:\program files (x86)\microsoft visual studio 14.0\vc\include\xtree
;	COMDAT ?_Getal@?$_Tree_comp_alloc@V?$_Tset_traits@UTelegram@@U?$less@UTelegram@@@std@@V?$allocator@UTelegram@@@3@$0A@@std@@@std@@QAEAAU?$_Wrap_alloc@V?$allocator@U?$_Tree_node@UTelegram@@PAX@std@@@std@@@2@XZ
_TEXT	SEGMENT
_this$ = -4						; size = 4
?_Getal@?$_Tree_comp_alloc@V?$_Tset_traits@UTelegram@@U?$less@UTelegram@@@std@@V?$allocator@UTelegram@@@3@$0A@@std@@@std@@QAEAAU?$_Wrap_alloc@V?$allocator@U?$_Tree_node@UTelegram@@PAX@std@@@std@@@2@XZ PROC ; std::_Tree_comp_alloc<std::_Tset_traits<Telegram,std::less<Telegram>,std::allocator<Telegram>,0> >::_Getal, COMDAT
; _this$ = ecx

; 909  : 		{	// return reference to allocator

	push	ebp
	mov	ebp, esp
	push	ecx
	mov	DWORD PTR [ebp-4], -858993460		; ccccccccH
	mov	DWORD PTR _this$[ebp], ecx

; 910  : 		return (_Mypair._Get_second()._Get_first());

	mov	ecx, DWORD PTR _this$[ebp]
	call	?_Get_second@?$_Compressed_pair@U?$less@UTelegram@@@std@@V?$_Compressed_pair@U?$_Wrap_alloc@V?$allocator@U?$_Tree_node@UTelegram@@PAX@std@@@std@@@std@@V?$_Tree_val@U?$_Tree_simple_types@UTelegram@@@std@@@2@$00@2@$00@std@@QAEAAV?$_Compressed_pair@U?$_Wrap_alloc@V?$allocator@U?$_Tree_node@UTelegram@@PAX@std@@@std@@@std@@V?$_Tree_val@U?$_Tree_simple_types@UTelegram@@@std@@@2@$00@2@XZ ; std::_Compressed_pair<std::less<Telegram>,std::_Compressed_pair<std::_Wrap_alloc<std::allocator<std::_Tree_node<Telegram,void *> > >,std::_Tree_val<std::_Tree_simple_types<Telegram> >,1>,1>::_Get_second
	mov	ecx, eax
	call	?_Get_first@?$_Compressed_pair@U?$_Wrap_alloc@V?$allocator@U?$_Tree_node@UTelegram@@PAX@std@@@std@@@std@@V?$_Tree_val@U?$_Tree_simple_types@UTelegram@@@std@@@2@$00@std@@QAEAAU?$_Wrap_alloc@V?$allocator@U?$_Tree_node@UTelegram@@PAX@std@@@std@@@2@XZ ; std::_Compressed_pair<std::_Wrap_alloc<std::allocator<std::_Tree_node<Telegram,void *> > >,std::_Tree_val<std::_Tree_simple_types<Telegram> >,1>::_Get_first

; 911  : 		}

	add	esp, 4
	cmp	ebp, esp
	call	__RTC_CheckEsp
	mov	esp, ebp
	pop	ebp
	ret	0
?_Getal@?$_Tree_comp_alloc@V?$_Tset_traits@UTelegram@@U?$less@UTelegram@@@std@@V?$allocator@UTelegram@@@3@$0A@@std@@@std@@QAEAAU?$_Wrap_alloc@V?$allocator@U?$_Tree_node@UTelegram@@PAX@std@@@std@@@2@XZ ENDP ; std::_Tree_comp_alloc<std::_Tset_traits<Telegram,std::less<Telegram>,std::allocator<Telegram>,0> >::_Getal
_TEXT	ENDS
; Function compile flags: /Odtp /RTCsu
; File c:\program files (x86)\microsoft visual studio 14.0\vc\include\xtree
;	COMDAT ?_Getcomp@?$_Tree_comp_alloc@V?$_Tset_traits@UTelegram@@U?$less@UTelegram@@@std@@V?$allocator@UTelegram@@@3@$0A@@std@@@std@@QAEAAU?$less@UTelegram@@@2@XZ
_TEXT	SEGMENT
_this$ = -4						; size = 4
?_Getcomp@?$_Tree_comp_alloc@V?$_Tset_traits@UTelegram@@U?$less@UTelegram@@@std@@V?$allocator@UTelegram@@@3@$0A@@std@@@std@@QAEAAU?$less@UTelegram@@@2@XZ PROC ; std::_Tree_comp_alloc<std::_Tset_traits<Telegram,std::less<Telegram>,std::allocator<Telegram>,0> >::_Getcomp, COMDAT
; _this$ = ecx

; 899  : 		{	// return reference to ordering predicate

	push	ebp
	mov	ebp, esp
	push	ecx
	mov	DWORD PTR [ebp-4], -858993460		; ccccccccH
	mov	DWORD PTR _this$[ebp], ecx

; 900  : 		return (_Mypair._Get_first());

	mov	ecx, DWORD PTR _this$[ebp]
	call	?_Get_first@?$_Compressed_pair@U?$less@UTelegram@@@std@@V?$_Compressed_pair@U?$_Wrap_alloc@V?$allocator@U?$_Tree_node@UTelegram@@PAX@std@@@std@@@std@@V?$_Tree_val@U?$_Tree_simple_types@UTelegram@@@std@@@2@$00@2@$00@std@@QAEAAU?$less@UTelegram@@@2@XZ ; std::_Compressed_pair<std::less<Telegram>,std::_Compressed_pair<std::_Wrap_alloc<std::allocator<std::_Tree_node<Telegram,void *> > >,std::_Tree_val<std::_Tree_simple_types<Telegram> >,1>,1>::_Get_first

; 901  : 		}

	add	esp, 4
	cmp	ebp, esp
	call	__RTC_CheckEsp
	mov	esp, ebp
	pop	ebp
	ret	0
?_Getcomp@?$_Tree_comp_alloc@V?$_Tset_traits@UTelegram@@U?$less@UTelegram@@@std@@V?$allocator@UTelegram@@@3@$0A@@std@@@std@@QAEAAU?$less@UTelegram@@@2@XZ ENDP ; std::_Tree_comp_alloc<std::_Tset_traits<Telegram,std::less<Telegram>,std::allocator<Telegram>,0> >::_Getcomp
_TEXT	ENDS
; Function compile flags: /Odtp /RTCsu
; File c:\program files (x86)\microsoft visual studio 14.0\vc\include\xtree
;	COMDAT ?_Freenode0@?$_Tree_comp_alloc@V?$_Tset_traits@UTelegram@@U?$less@UTelegram@@@std@@V?$allocator@UTelegram@@@3@$0A@@std@@@std@@QAEXPAU?$_Tree_node@UTelegram@@PAX@2@@Z
_TEXT	SEGMENT
_this$ = -4						; size = 4
__Pnode$ = 8						; size = 4
?_Freenode0@?$_Tree_comp_alloc@V?$_Tset_traits@UTelegram@@U?$less@UTelegram@@@std@@V?$allocator@UTelegram@@@3@$0A@@std@@@std@@QAEXPAU?$_Tree_node@UTelegram@@PAX@2@@Z PROC ; std::_Tree_comp_alloc<std::_Tset_traits<Telegram,std::less<Telegram>,std::allocator<Telegram>,0> >::_Freenode0, COMDAT
; _this$ = ecx

; 868  : 		{	// free non-value node using current allocator

	push	ebp
	mov	ebp, esp
	push	ecx
	mov	DWORD PTR [ebp-4], -858993460		; ccccccccH
	mov	DWORD PTR _this$[ebp], ecx

; 869  : 		_Getal().destroy(

	mov	eax, DWORD PTR __Pnode$[ebp]
	push	eax
	call	?_Left@?$_Tree_comp_alloc@V?$_Tset_traits@UTelegram@@U?$less@UTelegram@@@std@@V?$allocator@UTelegram@@@3@$0A@@std@@@std@@SAAAPAU?$_Tree_node@UTelegram@@PAX@2@PAU32@@Z ; std::_Tree_comp_alloc<std::_Tset_traits<Telegram,std::less<Telegram>,std::allocator<Telegram>,0> >::_Left
	add	esp, 4
	push	eax
	call	??$addressof@PAU?$_Tree_node@UTelegram@@PAX@std@@@std@@YAPAPAU?$_Tree_node@UTelegram@@PAX@0@AAPAU10@@Z ; std::addressof<std::_Tree_node<Telegram,void *> *>
	add	esp, 4
	push	eax
	mov	ecx, DWORD PTR _this$[ebp]
	call	?_Getal@?$_Tree_comp_alloc@V?$_Tset_traits@UTelegram@@U?$less@UTelegram@@@std@@V?$allocator@UTelegram@@@3@$0A@@std@@@std@@QAEAAU?$_Wrap_alloc@V?$allocator@U?$_Tree_node@UTelegram@@PAX@std@@@std@@@2@XZ ; std::_Tree_comp_alloc<std::_Tset_traits<Telegram,std::less<Telegram>,std::allocator<Telegram>,0> >::_Getal
	mov	ecx, eax
	call	??$destroy@PAU?$_Tree_node@UTelegram@@PAX@std@@@?$_Wrap_alloc@V?$allocator@U?$_Tree_node@UTelegram@@PAX@std@@@std@@@std@@QAEXPAPAU?$_Tree_node@UTelegram@@PAX@1@@Z ; std::_Wrap_alloc<std::allocator<std::_Tree_node<Telegram,void *> > >::destroy<std::_Tree_node<Telegram,void *> *>

; 870  : 			_STD addressof(_Left(_Pnode)));
; 871  : 		_Getal().destroy(

	mov	ecx, DWORD PTR __Pnode$[ebp]
	push	ecx
	call	?_Parent@?$_Tree_comp_alloc@V?$_Tset_traits@UTelegram@@U?$less@UTelegram@@@std@@V?$allocator@UTelegram@@@3@$0A@@std@@@std@@SAAAPAU?$_Tree_node@UTelegram@@PAX@2@PAU32@@Z ; std::_Tree_comp_alloc<std::_Tset_traits<Telegram,std::less<Telegram>,std::allocator<Telegram>,0> >::_Parent
	add	esp, 4
	push	eax
	call	??$addressof@PAU?$_Tree_node@UTelegram@@PAX@std@@@std@@YAPAPAU?$_Tree_node@UTelegram@@PAX@0@AAPAU10@@Z ; std::addressof<std::_Tree_node<Telegram,void *> *>
	add	esp, 4
	push	eax
	mov	ecx, DWORD PTR _this$[ebp]
	call	?_Getal@?$_Tree_comp_alloc@V?$_Tset_traits@UTelegram@@U?$less@UTelegram@@@std@@V?$allocator@UTelegram@@@3@$0A@@std@@@std@@QAEAAU?$_Wrap_alloc@V?$allocator@U?$_Tree_node@UTelegram@@PAX@std@@@std@@@2@XZ ; std::_Tree_comp_alloc<std::_Tset_traits<Telegram,std::less<Telegram>,std::allocator<Telegram>,0> >::_Getal
	mov	ecx, eax
	call	??$destroy@PAU?$_Tree_node@UTelegram@@PAX@std@@@?$_Wrap_alloc@V?$allocator@U?$_Tree_node@UTelegram@@PAX@std@@@std@@@std@@QAEXPAPAU?$_Tree_node@UTelegram@@PAX@1@@Z ; std::_Wrap_alloc<std::allocator<std::_Tree_node<Telegram,void *> > >::destroy<std::_Tree_node<Telegram,void *> *>

; 872  : 			_STD addressof(_Parent(_Pnode)));
; 873  : 		_Getal().destroy(

	mov	edx, DWORD PTR __Pnode$[ebp]
	push	edx
	call	?_Right@?$_Tree_comp_alloc@V?$_Tset_traits@UTelegram@@U?$less@UTelegram@@@std@@V?$allocator@UTelegram@@@3@$0A@@std@@@std@@SAAAPAU?$_Tree_node@UTelegram@@PAX@2@PAU32@@Z ; std::_Tree_comp_alloc<std::_Tset_traits<Telegram,std::less<Telegram>,std::allocator<Telegram>,0> >::_Right
	add	esp, 4
	push	eax
	call	??$addressof@PAU?$_Tree_node@UTelegram@@PAX@std@@@std@@YAPAPAU?$_Tree_node@UTelegram@@PAX@0@AAPAU10@@Z ; std::addressof<std::_Tree_node<Telegram,void *> *>
	add	esp, 4
	push	eax
	mov	ecx, DWORD PTR _this$[ebp]
	call	?_Getal@?$_Tree_comp_alloc@V?$_Tset_traits@UTelegram@@U?$less@UTelegram@@@std@@V?$allocator@UTelegram@@@3@$0A@@std@@@std@@QAEAAU?$_Wrap_alloc@V?$allocator@U?$_Tree_node@UTelegram@@PAX@std@@@std@@@2@XZ ; std::_Tree_comp_alloc<std::_Tset_traits<Telegram,std::less<Telegram>,std::allocator<Telegram>,0> >::_Getal
	mov	ecx, eax
	call	??$destroy@PAU?$_Tree_node@UTelegram@@PAX@std@@@?$_Wrap_alloc@V?$allocator@U?$_Tree_node@UTelegram@@PAX@std@@@std@@@std@@QAEXPAPAU?$_Tree_node@UTelegram@@PAX@1@@Z ; std::_Wrap_alloc<std::allocator<std::_Tree_node<Telegram,void *> > >::destroy<std::_Tree_node<Telegram,void *> *>

; 874  : 			_STD addressof(_Right(_Pnode)));
; 875  : 		_Getal().deallocate(_Pnode, 1);

	push	1
	mov	eax, DWORD PTR __Pnode$[ebp]
	push	eax
	mov	ecx, DWORD PTR _this$[ebp]
	call	?_Getal@?$_Tree_comp_alloc@V?$_Tset_traits@UTelegram@@U?$less@UTelegram@@@std@@V?$allocator@UTelegram@@@3@$0A@@std@@@std@@QAEAAU?$_Wrap_alloc@V?$allocator@U?$_Tree_node@UTelegram@@PAX@std@@@std@@@2@XZ ; std::_Tree_comp_alloc<std::_Tset_traits<Telegram,std::less<Telegram>,std::allocator<Telegram>,0> >::_Getal
	mov	ecx, eax
	call	?deallocate@?$_Wrap_alloc@V?$allocator@U?$_Tree_node@UTelegram@@PAX@std@@@std@@@std@@QAEXPAU?$_Tree_node@UTelegram@@PAX@2@I@Z ; std::_Wrap_alloc<std::allocator<std::_Tree_node<Telegram,void *> > >::deallocate

; 876  : 		}

	add	esp, 4
	cmp	ebp, esp
	call	__RTC_CheckEsp
	mov	esp, ebp
	pop	ebp
	ret	4
?_Freenode0@?$_Tree_comp_alloc@V?$_Tset_traits@UTelegram@@U?$less@UTelegram@@@std@@V?$allocator@UTelegram@@@3@$0A@@std@@@std@@QAEXPAU?$_Tree_node@UTelegram@@PAX@2@@Z ENDP ; std::_Tree_comp_alloc<std::_Tset_traits<Telegram,std::less<Telegram>,std::allocator<Telegram>,0> >::_Freenode0
_TEXT	ENDS
; Function compile flags: /Odtp /RTCsu
; File c:\program files (x86)\microsoft visual studio 14.0\vc\include\xtree
;	COMDAT ?_Buynode0@?$_Tree_comp_alloc@V?$_Tset_traits@UTelegram@@U?$less@UTelegram@@@std@@V?$allocator@UTelegram@@@3@$0A@@std@@@std@@QAEPAU?$_Tree_node@UTelegram@@PAX@2@XZ
_TEXT	SEGMENT
tv147 = -36						; size = 4
tv146 = -32						; size = 4
tv145 = -28						; size = 4
__Pnode$ = -24						; size = 4
_this$ = -20						; size = 4
__$EHRec$ = -16						; size = 16
?_Buynode0@?$_Tree_comp_alloc@V?$_Tset_traits@UTelegram@@U?$less@UTelegram@@@std@@V?$allocator@UTelegram@@@3@$0A@@std@@@std@@QAEPAU?$_Tree_node@UTelegram@@PAX@2@XZ PROC ; std::_Tree_comp_alloc<std::_Tset_traits<Telegram,std::less<Telegram>,std::allocator<Telegram>,0> >::_Buynode0, COMDAT
; _this$ = ecx

; 849  : 		{	// allocate a non-value node

	push	ebp
	mov	ebp, esp
	push	-1
	push	__ehhandler$?_Buynode0@?$_Tree_comp_alloc@V?$_Tset_traits@UTelegram@@U?$less@UTelegram@@@std@@V?$allocator@UTelegram@@@3@$0A@@std@@@std@@QAEPAU?$_Tree_node@UTelegram@@PAX@2@XZ
	mov	eax, DWORD PTR fs:0
	push	eax
	push	ecx
	sub	esp, 20					; 00000014H
	push	ebx
	push	esi
	push	edi
	mov	eax, -858993460				; ccccccccH
	mov	DWORD PTR [ebp-36], eax
	mov	DWORD PTR [ebp-32], eax
	mov	DWORD PTR [ebp-28], eax
	mov	DWORD PTR [ebp-24], eax
	mov	DWORD PTR [ebp-20], eax
	mov	eax, DWORD PTR ___security_cookie
	xor	eax, ebp
	push	eax
	lea	eax, DWORD PTR __$EHRec$[ebp+4]
	mov	DWORD PTR fs:0, eax
	mov	DWORD PTR __$EHRec$[ebp], esp
	mov	DWORD PTR _this$[ebp], ecx

; 850  : 		_Nodeptr _Pnode = _Getal().allocate(1);

	push	1
	mov	ecx, DWORD PTR _this$[ebp]
	call	?_Getal@?$_Tree_comp_alloc@V?$_Tset_traits@UTelegram@@U?$less@UTelegram@@@std@@V?$allocator@UTelegram@@@3@$0A@@std@@@std@@QAEAAU?$_Wrap_alloc@V?$allocator@U?$_Tree_node@UTelegram@@PAX@std@@@std@@@2@XZ ; std::_Tree_comp_alloc<std::_Tset_traits<Telegram,std::less<Telegram>,std::allocator<Telegram>,0> >::_Getal
	mov	ecx, eax
	call	?allocate@?$_Wrap_alloc@V?$allocator@U?$_Tree_node@UTelegram@@PAX@std@@@std@@@std@@QAEPAU?$_Tree_node@UTelegram@@PAX@2@I@Z ; std::_Wrap_alloc<std::allocator<std::_Tree_node<Telegram,void *> > >::allocate
	mov	DWORD PTR __Pnode$[ebp], eax

; 851  : 
; 852  : 		_TRY_BEGIN

	mov	DWORD PTR __$EHRec$[ebp+12], 0

; 853  : 		_Getal().construct(

	mov	eax, DWORD PTR __Pnode$[ebp]
	push	eax
	call	?_Left@?$_Tree_comp_alloc@V?$_Tset_traits@UTelegram@@U?$less@UTelegram@@@std@@V?$allocator@UTelegram@@@3@$0A@@std@@@std@@SAAAPAU?$_Tree_node@UTelegram@@PAX@2@PAU32@@Z ; std::_Tree_comp_alloc<std::_Tset_traits<Telegram,std::less<Telegram>,std::allocator<Telegram>,0> >::_Left
	add	esp, 4
	mov	DWORD PTR tv145[ebp], eax
	mov	ecx, DWORD PTR _this$[ebp]
	call	?_Myhead@?$_Tree_comp_alloc@V?$_Tset_traits@UTelegram@@U?$less@UTelegram@@@std@@V?$allocator@UTelegram@@@3@$0A@@std@@@std@@QAEAAPAU?$_Tree_node@UTelegram@@PAX@2@XZ ; std::_Tree_comp_alloc<std::_Tset_traits<Telegram,std::less<Telegram>,std::allocator<Telegram>,0> >::_Myhead
	push	eax
	mov	ecx, DWORD PTR tv145[ebp]
	push	ecx
	call	??$addressof@PAU?$_Tree_node@UTelegram@@PAX@std@@@std@@YAPAPAU?$_Tree_node@UTelegram@@PAX@0@AAPAU10@@Z ; std::addressof<std::_Tree_node<Telegram,void *> *>
	add	esp, 4
	push	eax
	mov	ecx, DWORD PTR _this$[ebp]
	call	?_Getal@?$_Tree_comp_alloc@V?$_Tset_traits@UTelegram@@U?$less@UTelegram@@@std@@V?$allocator@UTelegram@@@3@$0A@@std@@@std@@QAEAAU?$_Wrap_alloc@V?$allocator@U?$_Tree_node@UTelegram@@PAX@std@@@std@@@2@XZ ; std::_Tree_comp_alloc<std::_Tset_traits<Telegram,std::less<Telegram>,std::allocator<Telegram>,0> >::_Getal
	mov	ecx, eax
	call	??$construct@PAU?$_Tree_node@UTelegram@@PAX@std@@AAPAU12@@?$_Wrap_alloc@V?$allocator@U?$_Tree_node@UTelegram@@PAX@std@@@std@@@std@@QAEXPAPAU?$_Tree_node@UTelegram@@PAX@1@AAPAU21@@Z ; std::_Wrap_alloc<std::allocator<std::_Tree_node<Telegram,void *> > >::construct<std::_Tree_node<Telegram,void *> *,std::_Tree_node<Telegram,void *> * &>

; 854  : 			_STD addressof(_Left(_Pnode)), _Myhead());
; 855  : 		_Getal().construct(

	mov	edx, DWORD PTR __Pnode$[ebp]
	push	edx
	call	?_Parent@?$_Tree_comp_alloc@V?$_Tset_traits@UTelegram@@U?$less@UTelegram@@@std@@V?$allocator@UTelegram@@@3@$0A@@std@@@std@@SAAAPAU?$_Tree_node@UTelegram@@PAX@2@PAU32@@Z ; std::_Tree_comp_alloc<std::_Tset_traits<Telegram,std::less<Telegram>,std::allocator<Telegram>,0> >::_Parent
	add	esp, 4
	mov	DWORD PTR tv146[ebp], eax
	mov	ecx, DWORD PTR _this$[ebp]
	call	?_Myhead@?$_Tree_comp_alloc@V?$_Tset_traits@UTelegram@@U?$less@UTelegram@@@std@@V?$allocator@UTelegram@@@3@$0A@@std@@@std@@QAEAAPAU?$_Tree_node@UTelegram@@PAX@2@XZ ; std::_Tree_comp_alloc<std::_Tset_traits<Telegram,std::less<Telegram>,std::allocator<Telegram>,0> >::_Myhead
	push	eax
	mov	eax, DWORD PTR tv146[ebp]
	push	eax
	call	??$addressof@PAU?$_Tree_node@UTelegram@@PAX@std@@@std@@YAPAPAU?$_Tree_node@UTelegram@@PAX@0@AAPAU10@@Z ; std::addressof<std::_Tree_node<Telegram,void *> *>
	add	esp, 4
	push	eax
	mov	ecx, DWORD PTR _this$[ebp]
	call	?_Getal@?$_Tree_comp_alloc@V?$_Tset_traits@UTelegram@@U?$less@UTelegram@@@std@@V?$allocator@UTelegram@@@3@$0A@@std@@@std@@QAEAAU?$_Wrap_alloc@V?$allocator@U?$_Tree_node@UTelegram@@PAX@std@@@std@@@2@XZ ; std::_Tree_comp_alloc<std::_Tset_traits<Telegram,std::less<Telegram>,std::allocator<Telegram>,0> >::_Getal
	mov	ecx, eax
	call	??$construct@PAU?$_Tree_node@UTelegram@@PAX@std@@AAPAU12@@?$_Wrap_alloc@V?$allocator@U?$_Tree_node@UTelegram@@PAX@std@@@std@@@std@@QAEXPAPAU?$_Tree_node@UTelegram@@PAX@1@AAPAU21@@Z ; std::_Wrap_alloc<std::allocator<std::_Tree_node<Telegram,void *> > >::construct<std::_Tree_node<Telegram,void *> *,std::_Tree_node<Telegram,void *> * &>

; 856  : 			_STD addressof(_Parent(_Pnode)), _Myhead());
; 857  : 		_Getal().construct(

	mov	ecx, DWORD PTR __Pnode$[ebp]
	push	ecx
	call	?_Right@?$_Tree_comp_alloc@V?$_Tset_traits@UTelegram@@U?$less@UTelegram@@@std@@V?$allocator@UTelegram@@@3@$0A@@std@@@std@@SAAAPAU?$_Tree_node@UTelegram@@PAX@2@PAU32@@Z ; std::_Tree_comp_alloc<std::_Tset_traits<Telegram,std::less<Telegram>,std::allocator<Telegram>,0> >::_Right
	add	esp, 4
	mov	DWORD PTR tv147[ebp], eax
	mov	ecx, DWORD PTR _this$[ebp]
	call	?_Myhead@?$_Tree_comp_alloc@V?$_Tset_traits@UTelegram@@U?$less@UTelegram@@@std@@V?$allocator@UTelegram@@@3@$0A@@std@@@std@@QAEAAPAU?$_Tree_node@UTelegram@@PAX@2@XZ ; std::_Tree_comp_alloc<std::_Tset_traits<Telegram,std::less<Telegram>,std::allocator<Telegram>,0> >::_Myhead
	push	eax
	mov	edx, DWORD PTR tv147[ebp]
	push	edx
	call	??$addressof@PAU?$_Tree_node@UTelegram@@PAX@std@@@std@@YAPAPAU?$_Tree_node@UTelegram@@PAX@0@AAPAU10@@Z ; std::addressof<std::_Tree_node<Telegram,void *> *>
	add	esp, 4
	push	eax
	mov	ecx, DWORD PTR _this$[ebp]
	call	?_Getal@?$_Tree_comp_alloc@V?$_Tset_traits@UTelegram@@U?$less@UTelegram@@@std@@V?$allocator@UTelegram@@@3@$0A@@std@@@std@@QAEAAU?$_Wrap_alloc@V?$allocator@U?$_Tree_node@UTelegram@@PAX@std@@@std@@@2@XZ ; std::_Tree_comp_alloc<std::_Tset_traits<Telegram,std::less<Telegram>,std::allocator<Telegram>,0> >::_Getal
	mov	ecx, eax
	call	??$construct@PAU?$_Tree_node@UTelegram@@PAX@std@@AAPAU12@@?$_Wrap_alloc@V?$allocator@U?$_Tree_node@UTelegram@@PAX@std@@@std@@@std@@QAEXPAPAU?$_Tree_node@UTelegram@@PAX@1@AAPAU21@@Z ; std::_Wrap_alloc<std::allocator<std::_Tree_node<Telegram,void *> > >::construct<std::_Tree_node<Telegram,void *> *,std::_Tree_node<Telegram,void *> * &>
	jmp	SHORT $LN4@Buynode0
__catch$?_Buynode0@?$_Tree_comp_alloc@V?$_Tset_traits@UTelegram@@U?$less@UTelegram@@@std@@V?$allocator@UTelegram@@@3@$0A@@std@@@std@@QAEPAU?$_Tree_node@UTelegram@@PAX@2@XZ$0:

; 858  : 			_STD addressof(_Right(_Pnode)), _Myhead());
; 859  : 		_CATCH_ALL
; 860  : 		_Getal().deallocate(_Pnode, 1);

	push	1
	mov	eax, DWORD PTR __Pnode$[ebp]
	push	eax
	mov	ecx, DWORD PTR _this$[ebp]
	call	?_Getal@?$_Tree_comp_alloc@V?$_Tset_traits@UTelegram@@U?$less@UTelegram@@@std@@V?$allocator@UTelegram@@@3@$0A@@std@@@std@@QAEAAU?$_Wrap_alloc@V?$allocator@U?$_Tree_node@UTelegram@@PAX@std@@@std@@@2@XZ ; std::_Tree_comp_alloc<std::_Tset_traits<Telegram,std::less<Telegram>,std::allocator<Telegram>,0> >::_Getal
	mov	ecx, eax
	call	?deallocate@?$_Wrap_alloc@V?$allocator@U?$_Tree_node@UTelegram@@PAX@std@@@std@@@std@@QAEXPAU?$_Tree_node@UTelegram@@PAX@2@I@Z ; std::_Wrap_alloc<std::allocator<std::_Tree_node<Telegram,void *> > >::deallocate

; 861  : 		_RERAISE;

	push	0
	push	0
	call	__CxxThrowException@8

; 862  : 		_CATCH_END

	mov	eax, $LN7@Buynode0
	ret	0
$LN4@Buynode0:
	mov	DWORD PTR __$EHRec$[ebp+12], -1
	jmp	SHORT __tryend$?_Buynode0@?$_Tree_comp_alloc@V?$_Tset_traits@UTelegram@@U?$less@UTelegram@@@std@@V?$allocator@UTelegram@@@3@$0A@@std@@@std@@QAEPAU?$_Tree_node@UTelegram@@PAX@2@XZ$1
$LN7@Buynode0:
	mov	DWORD PTR __$EHRec$[ebp+12], -1
__tryend$?_Buynode0@?$_Tree_comp_alloc@V?$_Tset_traits@UTelegram@@U?$less@UTelegram@@@std@@V?$allocator@UTelegram@@@3@$0A@@std@@@std@@QAEPAU?$_Tree_node@UTelegram@@PAX@2@XZ$1:

; 863  : 
; 864  : 		return (_Pnode);

	mov	eax, DWORD PTR __Pnode$[ebp]
$LN3@Buynode0:

; 865  : 		}

	mov	ecx, DWORD PTR __$EHRec$[ebp+4]
	mov	DWORD PTR fs:0, ecx
	pop	ecx
	pop	edi
	pop	esi
	pop	ebx
	add	esp, 36					; 00000024H
	cmp	ebp, esp
	call	__RTC_CheckEsp
	mov	esp, ebp
	pop	ebp
	ret	0
_TEXT	ENDS
;	COMDAT text$x
text$x	SEGMENT
__ehhandler$?_Buynode0@?$_Tree_comp_alloc@V?$_Tset_traits@UTelegram@@U?$less@UTelegram@@@std@@V?$allocator@UTelegram@@@3@$0A@@std@@@std@@QAEPAU?$_Tree_node@UTelegram@@PAX@2@XZ:
	mov	edx, DWORD PTR [esp+8]
	lea	eax, DWORD PTR [edx+12]
	mov	ecx, DWORD PTR [edx-40]
	xor	ecx, eax
	call	@__security_check_cookie@4
	mov	eax, OFFSET __ehfuncinfo$?_Buynode0@?$_Tree_comp_alloc@V?$_Tset_traits@UTelegram@@U?$less@UTelegram@@@std@@V?$allocator@UTelegram@@@3@$0A@@std@@@std@@QAEPAU?$_Tree_node@UTelegram@@PAX@2@XZ
	jmp	___CxxFrameHandler3
text$x	ENDS
?_Buynode0@?$_Tree_comp_alloc@V?$_Tset_traits@UTelegram@@U?$less@UTelegram@@@std@@V?$allocator@UTelegram@@@3@$0A@@std@@@std@@QAEPAU?$_Tree_node@UTelegram@@PAX@2@XZ ENDP ; std::_Tree_comp_alloc<std::_Tset_traits<Telegram,std::less<Telegram>,std::allocator<Telegram>,0> >::_Buynode0
; Function compile flags: /Odtp /RTCsu
; File c:\program files (x86)\microsoft visual studio 14.0\vc\include\xtree
;	COMDAT ?_Freeheadnode@?$_Tree_comp_alloc@V?$_Tset_traits@UTelegram@@U?$less@UTelegram@@@std@@V?$allocator@UTelegram@@@3@$0A@@std@@@std@@QAEXPAU?$_Tree_node@UTelegram@@PAX@2@@Z
_TEXT	SEGMENT
_this$ = -4						; size = 4
__Pnode$ = 8						; size = 4
?_Freeheadnode@?$_Tree_comp_alloc@V?$_Tset_traits@UTelegram@@U?$less@UTelegram@@@std@@V?$allocator@UTelegram@@@3@$0A@@std@@@std@@QAEXPAU?$_Tree_node@UTelegram@@PAX@2@@Z PROC ; std::_Tree_comp_alloc<std::_Tset_traits<Telegram,std::less<Telegram>,std::allocator<Telegram>,0> >::_Freeheadnode, COMDAT
; _this$ = ecx

; 838  : 		{	// free head node using current allocator

	push	ebp
	mov	ebp, esp
	push	ecx
	mov	DWORD PTR [ebp-4], -858993460		; ccccccccH
	mov	DWORD PTR _this$[ebp], ecx

; 839  : 		_Getal().destroy(

	mov	eax, DWORD PTR __Pnode$[ebp]
	push	eax
	call	?_Left@?$_Tree_comp_alloc@V?$_Tset_traits@UTelegram@@U?$less@UTelegram@@@std@@V?$allocator@UTelegram@@@3@$0A@@std@@@std@@SAAAPAU?$_Tree_node@UTelegram@@PAX@2@PAU32@@Z ; std::_Tree_comp_alloc<std::_Tset_traits<Telegram,std::less<Telegram>,std::allocator<Telegram>,0> >::_Left
	add	esp, 4
	push	eax
	call	??$addressof@PAU?$_Tree_node@UTelegram@@PAX@std@@@std@@YAPAPAU?$_Tree_node@UTelegram@@PAX@0@AAPAU10@@Z ; std::addressof<std::_Tree_node<Telegram,void *> *>
	add	esp, 4
	push	eax
	mov	ecx, DWORD PTR _this$[ebp]
	call	?_Getal@?$_Tree_comp_alloc@V?$_Tset_traits@UTelegram@@U?$less@UTelegram@@@std@@V?$allocator@UTelegram@@@3@$0A@@std@@@std@@QAEAAU?$_Wrap_alloc@V?$allocator@U?$_Tree_node@UTelegram@@PAX@std@@@std@@@2@XZ ; std::_Tree_comp_alloc<std::_Tset_traits<Telegram,std::less<Telegram>,std::allocator<Telegram>,0> >::_Getal
	mov	ecx, eax
	call	??$destroy@PAU?$_Tree_node@UTelegram@@PAX@std@@@?$_Wrap_alloc@V?$allocator@U?$_Tree_node@UTelegram@@PAX@std@@@std@@@std@@QAEXPAPAU?$_Tree_node@UTelegram@@PAX@1@@Z ; std::_Wrap_alloc<std::allocator<std::_Tree_node<Telegram,void *> > >::destroy<std::_Tree_node<Telegram,void *> *>

; 840  : 			_STD addressof(_Left(_Pnode)));
; 841  : 		_Getal().destroy(

	mov	ecx, DWORD PTR __Pnode$[ebp]
	push	ecx
	call	?_Parent@?$_Tree_comp_alloc@V?$_Tset_traits@UTelegram@@U?$less@UTelegram@@@std@@V?$allocator@UTelegram@@@3@$0A@@std@@@std@@SAAAPAU?$_Tree_node@UTelegram@@PAX@2@PAU32@@Z ; std::_Tree_comp_alloc<std::_Tset_traits<Telegram,std::less<Telegram>,std::allocator<Telegram>,0> >::_Parent
	add	esp, 4
	push	eax
	call	??$addressof@PAU?$_Tree_node@UTelegram@@PAX@std@@@std@@YAPAPAU?$_Tree_node@UTelegram@@PAX@0@AAPAU10@@Z ; std::addressof<std::_Tree_node<Telegram,void *> *>
	add	esp, 4
	push	eax
	mov	ecx, DWORD PTR _this$[ebp]
	call	?_Getal@?$_Tree_comp_alloc@V?$_Tset_traits@UTelegram@@U?$less@UTelegram@@@std@@V?$allocator@UTelegram@@@3@$0A@@std@@@std@@QAEAAU?$_Wrap_alloc@V?$allocator@U?$_Tree_node@UTelegram@@PAX@std@@@std@@@2@XZ ; std::_Tree_comp_alloc<std::_Tset_traits<Telegram,std::less<Telegram>,std::allocator<Telegram>,0> >::_Getal
	mov	ecx, eax
	call	??$destroy@PAU?$_Tree_node@UTelegram@@PAX@std@@@?$_Wrap_alloc@V?$allocator@U?$_Tree_node@UTelegram@@PAX@std@@@std@@@std@@QAEXPAPAU?$_Tree_node@UTelegram@@PAX@1@@Z ; std::_Wrap_alloc<std::allocator<std::_Tree_node<Telegram,void *> > >::destroy<std::_Tree_node<Telegram,void *> *>

; 842  : 			_STD addressof(_Parent(_Pnode)));
; 843  : 		_Getal().destroy(

	mov	edx, DWORD PTR __Pnode$[ebp]
	push	edx
	call	?_Right@?$_Tree_comp_alloc@V?$_Tset_traits@UTelegram@@U?$less@UTelegram@@@std@@V?$allocator@UTelegram@@@3@$0A@@std@@@std@@SAAAPAU?$_Tree_node@UTelegram@@PAX@2@PAU32@@Z ; std::_Tree_comp_alloc<std::_Tset_traits<Telegram,std::less<Telegram>,std::allocator<Telegram>,0> >::_Right
	add	esp, 4
	push	eax
	call	??$addressof@PAU?$_Tree_node@UTelegram@@PAX@std@@@std@@YAPAPAU?$_Tree_node@UTelegram@@PAX@0@AAPAU10@@Z ; std::addressof<std::_Tree_node<Telegram,void *> *>
	add	esp, 4
	push	eax
	mov	ecx, DWORD PTR _this$[ebp]
	call	?_Getal@?$_Tree_comp_alloc@V?$_Tset_traits@UTelegram@@U?$less@UTelegram@@@std@@V?$allocator@UTelegram@@@3@$0A@@std@@@std@@QAEAAU?$_Wrap_alloc@V?$allocator@U?$_Tree_node@UTelegram@@PAX@std@@@std@@@2@XZ ; std::_Tree_comp_alloc<std::_Tset_traits<Telegram,std::less<Telegram>,std::allocator<Telegram>,0> >::_Getal
	mov	ecx, eax
	call	??$destroy@PAU?$_Tree_node@UTelegram@@PAX@std@@@?$_Wrap_alloc@V?$allocator@U?$_Tree_node@UTelegram@@PAX@std@@@std@@@std@@QAEXPAPAU?$_Tree_node@UTelegram@@PAX@1@@Z ; std::_Wrap_alloc<std::allocator<std::_Tree_node<Telegram,void *> > >::destroy<std::_Tree_node<Telegram,void *> *>

; 844  : 			_STD addressof(_Right(_Pnode)));
; 845  : 		_Getal().deallocate(_Pnode, 1);

	push	1
	mov	eax, DWORD PTR __Pnode$[ebp]
	push	eax
	mov	ecx, DWORD PTR _this$[ebp]
	call	?_Getal@?$_Tree_comp_alloc@V?$_Tset_traits@UTelegram@@U?$less@UTelegram@@@std@@V?$allocator@UTelegram@@@3@$0A@@std@@@std@@QAEAAU?$_Wrap_alloc@V?$allocator@U?$_Tree_node@UTelegram@@PAX@std@@@std@@@2@XZ ; std::_Tree_comp_alloc<std::_Tset_traits<Telegram,std::less<Telegram>,std::allocator<Telegram>,0> >::_Getal
	mov	ecx, eax
	call	?deallocate@?$_Wrap_alloc@V?$allocator@U?$_Tree_node@UTelegram@@PAX@std@@@std@@@std@@QAEXPAU?$_Tree_node@UTelegram@@PAX@2@I@Z ; std::_Wrap_alloc<std::allocator<std::_Tree_node<Telegram,void *> > >::deallocate

; 846  : 		}

	add	esp, 4
	cmp	ebp, esp
	call	__RTC_CheckEsp
	mov	esp, ebp
	pop	ebp
	ret	4
?_Freeheadnode@?$_Tree_comp_alloc@V?$_Tset_traits@UTelegram@@U?$less@UTelegram@@@std@@V?$allocator@UTelegram@@@3@$0A@@std@@@std@@QAEXPAU?$_Tree_node@UTelegram@@PAX@2@@Z ENDP ; std::_Tree_comp_alloc<std::_Tset_traits<Telegram,std::less<Telegram>,std::allocator<Telegram>,0> >::_Freeheadnode
_TEXT	ENDS
; Function compile flags: /Odtp /RTCsu
; File c:\program files (x86)\microsoft visual studio 14.0\vc\include\xtree
;	COMDAT ?_Buyheadnode@?$_Tree_comp_alloc@V?$_Tset_traits@UTelegram@@U?$less@UTelegram@@@std@@V?$allocator@UTelegram@@@3@$0A@@std@@@std@@QAEPAU?$_Tree_node@UTelegram@@PAX@2@XZ
_TEXT	SEGMENT
tv145 = -44						; size = 4
tv144 = -40						; size = 4
tv143 = -36						; size = 4
__Pnode$ = -28						; size = 4
_this$ = -20						; size = 4
__$EHRec$ = -16						; size = 16
?_Buyheadnode@?$_Tree_comp_alloc@V?$_Tset_traits@UTelegram@@U?$less@UTelegram@@@std@@V?$allocator@UTelegram@@@3@$0A@@std@@@std@@QAEPAU?$_Tree_node@UTelegram@@PAX@2@XZ PROC ; std::_Tree_comp_alloc<std::_Tset_traits<Telegram,std::less<Telegram>,std::allocator<Telegram>,0> >::_Buyheadnode, COMDAT
; _this$ = ecx

; 817  : 		{	// get head node using current allocator

	push	ebp
	mov	ebp, esp
	push	-1
	push	__ehhandler$?_Buyheadnode@?$_Tree_comp_alloc@V?$_Tset_traits@UTelegram@@U?$less@UTelegram@@@std@@V?$allocator@UTelegram@@@3@$0A@@std@@@std@@QAEPAU?$_Tree_node@UTelegram@@PAX@2@XZ
	mov	eax, DWORD PTR fs:0
	push	eax
	push	ecx
	sub	esp, 28					; 0000001cH
	push	ebx
	push	esi
	push	edi
	mov	eax, -858993460				; ccccccccH
	mov	DWORD PTR [ebp-44], eax
	mov	DWORD PTR [ebp-40], eax
	mov	DWORD PTR [ebp-36], eax
	mov	DWORD PTR [ebp-32], eax
	mov	DWORD PTR [ebp-28], eax
	mov	DWORD PTR [ebp-24], eax
	mov	DWORD PTR [ebp-20], eax
	mov	eax, DWORD PTR ___security_cookie
	xor	eax, ebp
	push	eax
	lea	eax, DWORD PTR __$EHRec$[ebp+4]
	mov	DWORD PTR fs:0, eax
	mov	DWORD PTR __$EHRec$[ebp], esp
	mov	DWORD PTR _this$[ebp], ecx

; 818  : 		_Nodeptr _Pnode = _Getal().allocate(1);

	push	1
	mov	ecx, DWORD PTR _this$[ebp]
	call	?_Getal@?$_Tree_comp_alloc@V?$_Tset_traits@UTelegram@@U?$less@UTelegram@@@std@@V?$allocator@UTelegram@@@3@$0A@@std@@@std@@QAEAAU?$_Wrap_alloc@V?$allocator@U?$_Tree_node@UTelegram@@PAX@std@@@std@@@2@XZ ; std::_Tree_comp_alloc<std::_Tset_traits<Telegram,std::less<Telegram>,std::allocator<Telegram>,0> >::_Getal
	mov	ecx, eax
	call	?allocate@?$_Wrap_alloc@V?$allocator@U?$_Tree_node@UTelegram@@PAX@std@@@std@@@std@@QAEPAU?$_Tree_node@UTelegram@@PAX@2@I@Z ; std::_Wrap_alloc<std::allocator<std::_Tree_node<Telegram,void *> > >::allocate
	mov	DWORD PTR __Pnode$[ebp], eax

; 819  : 
; 820  : 		_TRY_BEGIN

	mov	DWORD PTR __$EHRec$[ebp+12], 0

; 821  : 		_Getal().construct(

	mov	eax, DWORD PTR __Pnode$[ebp]
	push	eax
	call	?_Left@?$_Tree_comp_alloc@V?$_Tset_traits@UTelegram@@U?$less@UTelegram@@@std@@V?$allocator@UTelegram@@@3@$0A@@std@@@std@@SAAAPAU?$_Tree_node@UTelegram@@PAX@2@PAU32@@Z ; std::_Tree_comp_alloc<std::_Tset_traits<Telegram,std::less<Telegram>,std::allocator<Telegram>,0> >::_Left
	add	esp, 4
	mov	DWORD PTR tv143[ebp], eax
	lea	ecx, DWORD PTR __Pnode$[ebp]
	push	ecx
	mov	edx, DWORD PTR tv143[ebp]
	push	edx
	call	??$addressof@PAU?$_Tree_node@UTelegram@@PAX@std@@@std@@YAPAPAU?$_Tree_node@UTelegram@@PAX@0@AAPAU10@@Z ; std::addressof<std::_Tree_node<Telegram,void *> *>
	add	esp, 4
	push	eax
	mov	ecx, DWORD PTR _this$[ebp]
	call	?_Getal@?$_Tree_comp_alloc@V?$_Tset_traits@UTelegram@@U?$less@UTelegram@@@std@@V?$allocator@UTelegram@@@3@$0A@@std@@@std@@QAEAAU?$_Wrap_alloc@V?$allocator@U?$_Tree_node@UTelegram@@PAX@std@@@std@@@2@XZ ; std::_Tree_comp_alloc<std::_Tset_traits<Telegram,std::less<Telegram>,std::allocator<Telegram>,0> >::_Getal
	mov	ecx, eax
	call	??$construct@PAU?$_Tree_node@UTelegram@@PAX@std@@AAPAU12@@?$_Wrap_alloc@V?$allocator@U?$_Tree_node@UTelegram@@PAX@std@@@std@@@std@@QAEXPAPAU?$_Tree_node@UTelegram@@PAX@1@AAPAU21@@Z ; std::_Wrap_alloc<std::allocator<std::_Tree_node<Telegram,void *> > >::construct<std::_Tree_node<Telegram,void *> *,std::_Tree_node<Telegram,void *> * &>

; 822  : 			_STD addressof(_Left(_Pnode)), _Pnode);
; 823  : 		_Getal().construct(

	mov	eax, DWORD PTR __Pnode$[ebp]
	push	eax
	call	?_Parent@?$_Tree_comp_alloc@V?$_Tset_traits@UTelegram@@U?$less@UTelegram@@@std@@V?$allocator@UTelegram@@@3@$0A@@std@@@std@@SAAAPAU?$_Tree_node@UTelegram@@PAX@2@PAU32@@Z ; std::_Tree_comp_alloc<std::_Tset_traits<Telegram,std::less<Telegram>,std::allocator<Telegram>,0> >::_Parent
	add	esp, 4
	mov	DWORD PTR tv144[ebp], eax
	lea	ecx, DWORD PTR __Pnode$[ebp]
	push	ecx
	mov	edx, DWORD PTR tv144[ebp]
	push	edx
	call	??$addressof@PAU?$_Tree_node@UTelegram@@PAX@std@@@std@@YAPAPAU?$_Tree_node@UTelegram@@PAX@0@AAPAU10@@Z ; std::addressof<std::_Tree_node<Telegram,void *> *>
	add	esp, 4
	push	eax
	mov	ecx, DWORD PTR _this$[ebp]
	call	?_Getal@?$_Tree_comp_alloc@V?$_Tset_traits@UTelegram@@U?$less@UTelegram@@@std@@V?$allocator@UTelegram@@@3@$0A@@std@@@std@@QAEAAU?$_Wrap_alloc@V?$allocator@U?$_Tree_node@UTelegram@@PAX@std@@@std@@@2@XZ ; std::_Tree_comp_alloc<std::_Tset_traits<Telegram,std::less<Telegram>,std::allocator<Telegram>,0> >::_Getal
	mov	ecx, eax
	call	??$construct@PAU?$_Tree_node@UTelegram@@PAX@std@@AAPAU12@@?$_Wrap_alloc@V?$allocator@U?$_Tree_node@UTelegram@@PAX@std@@@std@@@std@@QAEXPAPAU?$_Tree_node@UTelegram@@PAX@1@AAPAU21@@Z ; std::_Wrap_alloc<std::allocator<std::_Tree_node<Telegram,void *> > >::construct<std::_Tree_node<Telegram,void *> *,std::_Tree_node<Telegram,void *> * &>

; 824  : 			_STD addressof(_Parent(_Pnode)), _Pnode);
; 825  : 		_Getal().construct(

	mov	eax, DWORD PTR __Pnode$[ebp]
	push	eax
	call	?_Right@?$_Tree_comp_alloc@V?$_Tset_traits@UTelegram@@U?$less@UTelegram@@@std@@V?$allocator@UTelegram@@@3@$0A@@std@@@std@@SAAAPAU?$_Tree_node@UTelegram@@PAX@2@PAU32@@Z ; std::_Tree_comp_alloc<std::_Tset_traits<Telegram,std::less<Telegram>,std::allocator<Telegram>,0> >::_Right
	add	esp, 4
	mov	DWORD PTR tv145[ebp], eax
	lea	ecx, DWORD PTR __Pnode$[ebp]
	push	ecx
	mov	edx, DWORD PTR tv145[ebp]
	push	edx
	call	??$addressof@PAU?$_Tree_node@UTelegram@@PAX@std@@@std@@YAPAPAU?$_Tree_node@UTelegram@@PAX@0@AAPAU10@@Z ; std::addressof<std::_Tree_node<Telegram,void *> *>
	add	esp, 4
	push	eax
	mov	ecx, DWORD PTR _this$[ebp]
	call	?_Getal@?$_Tree_comp_alloc@V?$_Tset_traits@UTelegram@@U?$less@UTelegram@@@std@@V?$allocator@UTelegram@@@3@$0A@@std@@@std@@QAEAAU?$_Wrap_alloc@V?$allocator@U?$_Tree_node@UTelegram@@PAX@std@@@std@@@2@XZ ; std::_Tree_comp_alloc<std::_Tset_traits<Telegram,std::less<Telegram>,std::allocator<Telegram>,0> >::_Getal
	mov	ecx, eax
	call	??$construct@PAU?$_Tree_node@UTelegram@@PAX@std@@AAPAU12@@?$_Wrap_alloc@V?$allocator@U?$_Tree_node@UTelegram@@PAX@std@@@std@@@std@@QAEXPAPAU?$_Tree_node@UTelegram@@PAX@1@AAPAU21@@Z ; std::_Wrap_alloc<std::allocator<std::_Tree_node<Telegram,void *> > >::construct<std::_Tree_node<Telegram,void *> *,std::_Tree_node<Telegram,void *> * &>
	jmp	SHORT $LN4@Buyheadnod
__catch$?_Buyheadnode@?$_Tree_comp_alloc@V?$_Tset_traits@UTelegram@@U?$less@UTelegram@@@std@@V?$allocator@UTelegram@@@3@$0A@@std@@@std@@QAEPAU?$_Tree_node@UTelegram@@PAX@2@XZ$0:

; 826  : 			_STD addressof(_Right(_Pnode)), _Pnode);
; 827  : 		_CATCH_ALL
; 828  : 		_Getal().deallocate(_Pnode, 1);

	push	1
	mov	eax, DWORD PTR __Pnode$[ebp]
	push	eax
	mov	ecx, DWORD PTR _this$[ebp]
	call	?_Getal@?$_Tree_comp_alloc@V?$_Tset_traits@UTelegram@@U?$less@UTelegram@@@std@@V?$allocator@UTelegram@@@3@$0A@@std@@@std@@QAEAAU?$_Wrap_alloc@V?$allocator@U?$_Tree_node@UTelegram@@PAX@std@@@std@@@2@XZ ; std::_Tree_comp_alloc<std::_Tset_traits<Telegram,std::less<Telegram>,std::allocator<Telegram>,0> >::_Getal
	mov	ecx, eax
	call	?deallocate@?$_Wrap_alloc@V?$allocator@U?$_Tree_node@UTelegram@@PAX@std@@@std@@@std@@QAEXPAU?$_Tree_node@UTelegram@@PAX@2@I@Z ; std::_Wrap_alloc<std::allocator<std::_Tree_node<Telegram,void *> > >::deallocate

; 829  : 		_RERAISE;

	push	0
	push	0
	call	__CxxThrowException@8

; 830  : 		_CATCH_END

	mov	eax, $LN7@Buyheadnod
	ret	0
$LN4@Buyheadnod:
	mov	DWORD PTR __$EHRec$[ebp+12], -1
	jmp	SHORT __tryend$?_Buyheadnode@?$_Tree_comp_alloc@V?$_Tset_traits@UTelegram@@U?$less@UTelegram@@@std@@V?$allocator@UTelegram@@@3@$0A@@std@@@std@@QAEPAU?$_Tree_node@UTelegram@@PAX@2@XZ$1
$LN7@Buyheadnod:
	mov	DWORD PTR __$EHRec$[ebp+12], -1
__tryend$?_Buyheadnode@?$_Tree_comp_alloc@V?$_Tset_traits@UTelegram@@U?$less@UTelegram@@@std@@V?$allocator@UTelegram@@@3@$0A@@std@@@std@@QAEPAU?$_Tree_node@UTelegram@@PAX@2@XZ$1:

; 831  : 
; 832  : 		_Color(_Pnode) = _Black;

	mov	ecx, DWORD PTR __Pnode$[ebp]
	push	ecx
	call	?_Color@?$_Tree_comp_alloc@V?$_Tset_traits@UTelegram@@U?$less@UTelegram@@@std@@V?$allocator@UTelegram@@@3@$0A@@std@@@std@@SAAADPAU?$_Tree_node@UTelegram@@PAX@2@@Z ; std::_Tree_comp_alloc<std::_Tset_traits<Telegram,std::less<Telegram>,std::allocator<Telegram>,0> >::_Color
	add	esp, 4
	mov	BYTE PTR [eax], 1

; 833  : 		_Isnil(_Pnode) = true;

	mov	edx, DWORD PTR __Pnode$[ebp]
	push	edx
	call	?_Isnil@?$_Tree_comp_alloc@V?$_Tset_traits@UTelegram@@U?$less@UTelegram@@@std@@V?$allocator@UTelegram@@@3@$0A@@std@@@std@@SAAADPAU?$_Tree_node@UTelegram@@PAX@2@@Z ; std::_Tree_comp_alloc<std::_Tset_traits<Telegram,std::less<Telegram>,std::allocator<Telegram>,0> >::_Isnil
	add	esp, 4
	mov	BYTE PTR [eax], 1

; 834  : 		return (_Pnode);

	mov	eax, DWORD PTR __Pnode$[ebp]
$LN3@Buyheadnod:

; 835  : 		}

	push	edx
	mov	ecx, ebp
	push	eax
	lea	edx, DWORD PTR $LN11@Buyheadnod
	call	@_RTC_CheckStackVars@8
	pop	eax
	pop	edx
	mov	ecx, DWORD PTR __$EHRec$[ebp+4]
	mov	DWORD PTR fs:0, ecx
	pop	ecx
	pop	edi
	pop	esi
	pop	ebx
	add	esp, 44					; 0000002cH
	cmp	ebp, esp
	call	__RTC_CheckEsp
	mov	esp, ebp
	pop	ebp
	ret	0
	npad	3
$LN11@Buyheadnod:
	DD	1
	DD	$LN10@Buyheadnod
$LN10@Buyheadnod:
	DD	-28					; ffffffe4H
	DD	4
	DD	$LN8@Buyheadnod
$LN8@Buyheadnod:
	DB	95					; 0000005fH
	DB	80					; 00000050H
	DB	110					; 0000006eH
	DB	111					; 0000006fH
	DB	100					; 00000064H
	DB	101					; 00000065H
	DB	0
_TEXT	ENDS
;	COMDAT text$x
text$x	SEGMENT
__ehhandler$?_Buyheadnode@?$_Tree_comp_alloc@V?$_Tset_traits@UTelegram@@U?$less@UTelegram@@@std@@V?$allocator@UTelegram@@@3@$0A@@std@@@std@@QAEPAU?$_Tree_node@UTelegram@@PAX@2@XZ:
	mov	edx, DWORD PTR [esp+8]
	lea	eax, DWORD PTR [edx+12]
	mov	ecx, DWORD PTR [edx-48]
	xor	ecx, eax
	call	@__security_check_cookie@4
	mov	eax, OFFSET __ehfuncinfo$?_Buyheadnode@?$_Tree_comp_alloc@V?$_Tset_traits@UTelegram@@U?$less@UTelegram@@@std@@V?$allocator@UTelegram@@@3@$0A@@std@@@std@@QAEPAU?$_Tree_node@UTelegram@@PAX@2@XZ
	jmp	___CxxFrameHandler3
text$x	ENDS
?_Buyheadnode@?$_Tree_comp_alloc@V?$_Tset_traits@UTelegram@@U?$less@UTelegram@@@std@@V?$allocator@UTelegram@@@3@$0A@@std@@@std@@QAEPAU?$_Tree_node@UTelegram@@PAX@2@XZ ENDP ; std::_Tree_comp_alloc<std::_Tset_traits<Telegram,std::less<Telegram>,std::allocator<Telegram>,0> >::_Buyheadnode
; Function compile flags: /Odtp /RTCsu
; File c:\program files (x86)\microsoft visual studio 14.0\vc\include\xtree
;	COMDAT ?_Orphan_all@?$_Tree_comp_alloc@V?$_Tset_traits@UTelegram@@U?$less@UTelegram@@@std@@V?$allocator@UTelegram@@@3@$0A@@std@@@std@@QAEXXZ
_TEXT	SEGMENT
_this$ = -4						; size = 4
?_Orphan_all@?$_Tree_comp_alloc@V?$_Tset_traits@UTelegram@@U?$less@UTelegram@@@std@@V?$allocator@UTelegram@@@3@$0A@@std@@@std@@QAEXXZ PROC ; std::_Tree_comp_alloc<std::_Tset_traits<Telegram,std::less<Telegram>,std::allocator<Telegram>,0> >::_Orphan_all, COMDAT
; _this$ = ecx

; 807  : 		{	// orphan all iterators

	push	ebp
	mov	ebp, esp
	push	ecx
	mov	DWORD PTR [ebp-4], -858993460		; ccccccccH
	mov	DWORD PTR _this$[ebp], ecx

; 808  : 		_Get_data()._Orphan_all();

	mov	ecx, DWORD PTR _this$[ebp]
	call	?_Get_data@?$_Tree_comp_alloc@V?$_Tset_traits@UTelegram@@U?$less@UTelegram@@@std@@V?$allocator@UTelegram@@@3@$0A@@std@@@std@@QAEAAV?$_Tree_val@U?$_Tree_simple_types@UTelegram@@@std@@@2@XZ ; std::_Tree_comp_alloc<std::_Tset_traits<Telegram,std::less<Telegram>,std::allocator<Telegram>,0> >::_Get_data
	mov	ecx, eax
	call	?_Orphan_all@_Container_base12@std@@QAEXXZ ; std::_Container_base12::_Orphan_all

; 809  : 		}

	add	esp, 4
	cmp	ebp, esp
	call	__RTC_CheckEsp
	mov	esp, ebp
	pop	ebp
	ret	0
?_Orphan_all@?$_Tree_comp_alloc@V?$_Tset_traits@UTelegram@@U?$less@UTelegram@@@std@@V?$allocator@UTelegram@@@3@$0A@@std@@@std@@QAEXXZ ENDP ; std::_Tree_comp_alloc<std::_Tset_traits<Telegram,std::less<Telegram>,std::allocator<Telegram>,0> >::_Orphan_all
_TEXT	ENDS
; Function compile flags: /Odtp /RTCsu
; File c:\program files (x86)\microsoft visual studio 14.0\vc\include\xtree
;	COMDAT ?_Myproxy@?$_Tree_comp_alloc@V?$_Tset_traits@UTelegram@@U?$less@UTelegram@@@std@@V?$allocator@UTelegram@@@3@$0A@@std@@@std@@QAEAAPAU_Container_proxy@2@XZ
_TEXT	SEGMENT
_this$ = -4						; size = 4
?_Myproxy@?$_Tree_comp_alloc@V?$_Tset_traits@UTelegram@@U?$less@UTelegram@@@std@@V?$allocator@UTelegram@@@3@$0A@@std@@@std@@QAEAAPAU_Container_proxy@2@XZ PROC ; std::_Tree_comp_alloc<std::_Tset_traits<Telegram,std::less<Telegram>,std::allocator<Telegram>,0> >::_Myproxy, COMDAT
; _this$ = ecx

; 796  : 		{	// return reference to _Myproxy

	push	ebp
	mov	ebp, esp
	push	ecx
	mov	DWORD PTR [ebp-4], -858993460		; ccccccccH
	mov	DWORD PTR _this$[ebp], ecx

; 797  : 		return (_Get_data()._Myproxy);

	mov	ecx, DWORD PTR _this$[ebp]
	call	?_Get_data@?$_Tree_comp_alloc@V?$_Tset_traits@UTelegram@@U?$less@UTelegram@@@std@@V?$allocator@UTelegram@@@3@$0A@@std@@@std@@QAEAAV?$_Tree_val@U?$_Tree_simple_types@UTelegram@@@std@@@2@XZ ; std::_Tree_comp_alloc<std::_Tset_traits<Telegram,std::less<Telegram>,std::allocator<Telegram>,0> >::_Get_data

; 798  : 		}

	add	esp, 4
	cmp	ebp, esp
	call	__RTC_CheckEsp
	mov	esp, ebp
	pop	ebp
	ret	0
?_Myproxy@?$_Tree_comp_alloc@V?$_Tset_traits@UTelegram@@U?$less@UTelegram@@@std@@V?$allocator@UTelegram@@@3@$0A@@std@@@std@@QAEAAPAU_Container_proxy@2@XZ ENDP ; std::_Tree_comp_alloc<std::_Tset_traits<Telegram,std::less<Telegram>,std::allocator<Telegram>,0> >::_Myproxy
_TEXT	ENDS
; Function compile flags: /Odtp /RTCsu
; File c:\program files (x86)\microsoft visual studio 14.0\vc\include\xtree
;	COMDAT ?_Getpfirst@?$_Tree_comp_alloc@V?$_Tset_traits@UTelegram@@U?$less@UTelegram@@@std@@V?$allocator@UTelegram@@@3@$0A@@std@@@std@@QBEPAPAU_Iterator_base12@2@XZ
_TEXT	SEGMENT
_this$ = -4						; size = 4
?_Getpfirst@?$_Tree_comp_alloc@V?$_Tset_traits@UTelegram@@U?$less@UTelegram@@@std@@V?$allocator@UTelegram@@@3@$0A@@std@@@std@@QBEPAPAU_Iterator_base12@2@XZ PROC ; std::_Tree_comp_alloc<std::_Tset_traits<Telegram,std::less<Telegram>,std::allocator<Telegram>,0> >::_Getpfirst, COMDAT
; _this$ = ecx

; 791  : 		{	// get address of iterator chain

	push	ebp
	mov	ebp, esp
	push	ecx
	mov	DWORD PTR [ebp-4], -858993460		; ccccccccH
	mov	DWORD PTR _this$[ebp], ecx

; 792  : 		return (_Get_data()._Getpfirst());

	mov	ecx, DWORD PTR _this$[ebp]
	call	?_Get_data@?$_Tree_comp_alloc@V?$_Tset_traits@UTelegram@@U?$less@UTelegram@@@std@@V?$allocator@UTelegram@@@3@$0A@@std@@@std@@QBEABV?$_Tree_val@U?$_Tree_simple_types@UTelegram@@@std@@@2@XZ ; std::_Tree_comp_alloc<std::_Tset_traits<Telegram,std::less<Telegram>,std::allocator<Telegram>,0> >::_Get_data
	mov	ecx, eax
	call	?_Getpfirst@_Container_base12@std@@QBEPAPAU_Iterator_base12@2@XZ ; std::_Container_base12::_Getpfirst

; 793  : 		}

	add	esp, 4
	cmp	ebp, esp
	call	__RTC_CheckEsp
	mov	esp, ebp
	pop	ebp
	ret	0
?_Getpfirst@?$_Tree_comp_alloc@V?$_Tset_traits@UTelegram@@U?$less@UTelegram@@@std@@V?$allocator@UTelegram@@@3@$0A@@std@@@std@@QBEPAPAU_Iterator_base12@2@XZ ENDP ; std::_Tree_comp_alloc<std::_Tset_traits<Telegram,std::less<Telegram>,std::allocator<Telegram>,0> >::_Getpfirst
_TEXT	ENDS
; Function compile flags: /Odtp /RTCsu
; File c:\program files (x86)\microsoft visual studio 14.0\vc\include\xtree
;	COMDAT ?_Free_proxy@?$_Tree_comp_alloc@V?$_Tset_traits@UTelegram@@U?$less@UTelegram@@@std@@V?$allocator@UTelegram@@@3@$0A@@std@@@std@@QAEXXZ
_TEXT	SEGMENT
__Alproxy$ = -9						; size = 1
_this$ = -4						; size = 4
?_Free_proxy@?$_Tree_comp_alloc@V?$_Tset_traits@UTelegram@@U?$less@UTelegram@@@std@@V?$allocator@UTelegram@@@3@$0A@@std@@@std@@QAEXXZ PROC ; std::_Tree_comp_alloc<std::_Tset_traits<Telegram,std::less<Telegram>,std::allocator<Telegram>,0> >::_Free_proxy, COMDAT
; _this$ = ecx

; 781  : 		{	// destroy proxy

	push	ebp
	mov	ebp, esp
	sub	esp, 16					; 00000010H
	mov	eax, -858993460				; ccccccccH
	mov	DWORD PTR [ebp-16], eax
	mov	DWORD PTR [ebp-12], eax
	mov	DWORD PTR [ebp-8], eax
	mov	DWORD PTR [ebp-4], eax
	mov	DWORD PTR _this$[ebp], ecx

; 782  : 		typename _Alty::template rebind<_Container_proxy>::other
; 783  : 			_Alproxy(_Getal());

	mov	ecx, DWORD PTR _this$[ebp]
	call	?_Getal@?$_Tree_comp_alloc@V?$_Tset_traits@UTelegram@@U?$less@UTelegram@@@std@@V?$allocator@UTelegram@@@3@$0A@@std@@@std@@QAEAAU?$_Wrap_alloc@V?$allocator@U?$_Tree_node@UTelegram@@PAX@std@@@std@@@2@XZ ; std::_Tree_comp_alloc<std::_Tset_traits<Telegram,std::less<Telegram>,std::allocator<Telegram>,0> >::_Getal
	push	eax
	lea	ecx, DWORD PTR __Alproxy$[ebp]
	call	??$?0AAU?$_Wrap_alloc@V?$allocator@U?$_Tree_node@UTelegram@@PAX@std@@@std@@@std@@@?$_Wrap_alloc@V?$allocator@U_Container_proxy@std@@@std@@@std@@QAE@AAU?$_Wrap_alloc@V?$allocator@U?$_Tree_node@UTelegram@@PAX@std@@@std@@@1@@Z ; std::_Wrap_alloc<std::allocator<std::_Container_proxy> >::_Wrap_alloc<std::allocator<std::_Container_proxy> ><std::_Wrap_alloc<std::allocator<std::_Tree_node<Telegram,void *> > > &>

; 784  : 		_Orphan_all();

	mov	ecx, DWORD PTR _this$[ebp]
	call	?_Orphan_all@?$_Tree_comp_alloc@V?$_Tset_traits@UTelegram@@U?$less@UTelegram@@@std@@V?$allocator@UTelegram@@@3@$0A@@std@@@std@@QAEXXZ ; std::_Tree_comp_alloc<std::_Tset_traits<Telegram,std::less<Telegram>,std::allocator<Telegram>,0> >::_Orphan_all

; 785  : 		_Alproxy.destroy(_Myproxy());

	mov	ecx, DWORD PTR _this$[ebp]
	call	?_Myproxy@?$_Tree_comp_alloc@V?$_Tset_traits@UTelegram@@U?$less@UTelegram@@@std@@V?$allocator@UTelegram@@@3@$0A@@std@@@std@@QAEAAPAU_Container_proxy@2@XZ ; std::_Tree_comp_alloc<std::_Tset_traits<Telegram,std::less<Telegram>,std::allocator<Telegram>,0> >::_Myproxy
	mov	eax, DWORD PTR [eax]
	push	eax
	lea	ecx, DWORD PTR __Alproxy$[ebp]
	call	??$destroy@U_Container_proxy@std@@@?$_Wrap_alloc@V?$allocator@U_Container_proxy@std@@@std@@@std@@QAEXPAU_Container_proxy@1@@Z ; std::_Wrap_alloc<std::allocator<std::_Container_proxy> >::destroy<std::_Container_proxy>

; 786  : 		_Alproxy.deallocate(_Alproxy.address(*_Myproxy()), 1);

	push	1
	mov	ecx, DWORD PTR _this$[ebp]
	call	?_Myproxy@?$_Tree_comp_alloc@V?$_Tset_traits@UTelegram@@U?$less@UTelegram@@@std@@V?$allocator@UTelegram@@@3@$0A@@std@@@std@@QAEAAPAU_Container_proxy@2@XZ ; std::_Tree_comp_alloc<std::_Tset_traits<Telegram,std::less<Telegram>,std::allocator<Telegram>,0> >::_Myproxy
	mov	ecx, DWORD PTR [eax]
	push	ecx
	lea	ecx, DWORD PTR __Alproxy$[ebp]
	call	?address@?$_Wrap_alloc@V?$allocator@U_Container_proxy@std@@@std@@@std@@QBEPAU_Container_proxy@2@AAU32@@Z ; std::_Wrap_alloc<std::allocator<std::_Container_proxy> >::address
	push	eax
	lea	ecx, DWORD PTR __Alproxy$[ebp]
	call	?deallocate@?$_Wrap_alloc@V?$allocator@U_Container_proxy@std@@@std@@@std@@QAEXPAU_Container_proxy@2@I@Z ; std::_Wrap_alloc<std::allocator<std::_Container_proxy> >::deallocate

; 787  : 		_Myproxy() = 0;

	mov	ecx, DWORD PTR _this$[ebp]
	call	?_Myproxy@?$_Tree_comp_alloc@V?$_Tset_traits@UTelegram@@U?$less@UTelegram@@@std@@V?$allocator@UTelegram@@@3@$0A@@std@@@std@@QAEAAPAU_Container_proxy@2@XZ ; std::_Tree_comp_alloc<std::_Tset_traits<Telegram,std::less<Telegram>,std::allocator<Telegram>,0> >::_Myproxy
	mov	DWORD PTR [eax], 0

; 788  : 		}

	push	edx
	mov	ecx, ebp
	push	eax
	lea	edx, DWORD PTR $LN5@Free_proxy
	call	@_RTC_CheckStackVars@8
	pop	eax
	pop	edx
	add	esp, 16					; 00000010H
	cmp	ebp, esp
	call	__RTC_CheckEsp
	mov	esp, ebp
	pop	ebp
	ret	0
	npad	3
$LN5@Free_proxy:
	DD	1
	DD	$LN4@Free_proxy
$LN4@Free_proxy:
	DD	-9					; fffffff7H
	DD	1
	DD	$LN3@Free_proxy
$LN3@Free_proxy:
	DB	95					; 0000005fH
	DB	65					; 00000041H
	DB	108					; 0000006cH
	DB	112					; 00000070H
	DB	114					; 00000072H
	DB	111					; 0000006fH
	DB	120					; 00000078H
	DB	121					; 00000079H
	DB	0
?_Free_proxy@?$_Tree_comp_alloc@V?$_Tset_traits@UTelegram@@U?$less@UTelegram@@@std@@V?$allocator@UTelegram@@@3@$0A@@std@@@std@@QAEXXZ ENDP ; std::_Tree_comp_alloc<std::_Tset_traits<Telegram,std::less<Telegram>,std::allocator<Telegram>,0> >::_Free_proxy
_TEXT	ENDS
; Function compile flags: /Odtp /RTCsu
; File c:\program files (x86)\microsoft visual studio 14.0\vc\include\xtree
;	COMDAT ?_Alloc_proxy@?$_Tree_comp_alloc@V?$_Tset_traits@UTelegram@@U?$less@UTelegram@@@std@@V?$allocator@UTelegram@@@3@$0A@@std@@@std@@QAEXXZ
_TEXT	SEGMENT
$T1 = -24						; size = 8
__Alproxy$ = -9						; size = 1
_this$ = -4						; size = 4
?_Alloc_proxy@?$_Tree_comp_alloc@V?$_Tset_traits@UTelegram@@U?$less@UTelegram@@@std@@V?$allocator@UTelegram@@@3@$0A@@std@@@std@@QAEXXZ PROC ; std::_Tree_comp_alloc<std::_Tset_traits<Telegram,std::less<Telegram>,std::allocator<Telegram>,0> >::_Alloc_proxy, COMDAT
; _this$ = ecx

; 772  : 		{	// construct proxy

	push	ebp
	mov	ebp, esp
	sub	esp, 24					; 00000018H
	push	esi
	mov	eax, -858993460				; ccccccccH
	mov	DWORD PTR [ebp-24], eax
	mov	DWORD PTR [ebp-20], eax
	mov	DWORD PTR [ebp-16], eax
	mov	DWORD PTR [ebp-12], eax
	mov	DWORD PTR [ebp-8], eax
	mov	DWORD PTR [ebp-4], eax
	mov	DWORD PTR _this$[ebp], ecx

; 773  : 		typename _Alty::template rebind<_Container_proxy>::other
; 774  : 			_Alproxy(_Getal());

	mov	ecx, DWORD PTR _this$[ebp]
	call	?_Getal@?$_Tree_comp_alloc@V?$_Tset_traits@UTelegram@@U?$less@UTelegram@@@std@@V?$allocator@UTelegram@@@3@$0A@@std@@@std@@QAEAAU?$_Wrap_alloc@V?$allocator@U?$_Tree_node@UTelegram@@PAX@std@@@std@@@2@XZ ; std::_Tree_comp_alloc<std::_Tset_traits<Telegram,std::less<Telegram>,std::allocator<Telegram>,0> >::_Getal
	push	eax
	lea	ecx, DWORD PTR __Alproxy$[ebp]
	call	??$?0AAU?$_Wrap_alloc@V?$allocator@U?$_Tree_node@UTelegram@@PAX@std@@@std@@@std@@@?$_Wrap_alloc@V?$allocator@U_Container_proxy@std@@@std@@@std@@QAE@AAU?$_Wrap_alloc@V?$allocator@U?$_Tree_node@UTelegram@@PAX@std@@@std@@@1@@Z ; std::_Wrap_alloc<std::allocator<std::_Container_proxy> >::_Wrap_alloc<std::allocator<std::_Container_proxy> ><std::_Wrap_alloc<std::allocator<std::_Tree_node<Telegram,void *> > > &>

; 775  : 		_Myproxy() = _Unfancy(_Alproxy.allocate(1));

	push	1
	lea	ecx, DWORD PTR __Alproxy$[ebp]
	call	?allocate@?$_Wrap_alloc@V?$allocator@U_Container_proxy@std@@@std@@@std@@QAEPAU_Container_proxy@2@I@Z ; std::_Wrap_alloc<std::allocator<std::_Container_proxy> >::allocate
	push	eax
	call	??$_Unfancy@U_Container_proxy@std@@@std@@YAPAU_Container_proxy@0@PAU10@@Z ; std::_Unfancy<std::_Container_proxy>
	add	esp, 4
	mov	esi, eax
	mov	ecx, DWORD PTR _this$[ebp]
	call	?_Myproxy@?$_Tree_comp_alloc@V?$_Tset_traits@UTelegram@@U?$less@UTelegram@@@std@@V?$allocator@UTelegram@@@3@$0A@@std@@@std@@QAEAAPAU_Container_proxy@2@XZ ; std::_Tree_comp_alloc<std::_Tset_traits<Telegram,std::less<Telegram>,std::allocator<Telegram>,0> >::_Myproxy
	mov	DWORD PTR [eax], esi

; 776  : 		_Alproxy.construct(_Myproxy(), _Container_proxy());

	lea	ecx, DWORD PTR $T1[ebp]
	call	??0_Container_proxy@std@@QAE@XZ		; std::_Container_proxy::_Container_proxy
	push	eax
	mov	ecx, DWORD PTR _this$[ebp]
	call	?_Myproxy@?$_Tree_comp_alloc@V?$_Tset_traits@UTelegram@@U?$less@UTelegram@@@std@@V?$allocator@UTelegram@@@3@$0A@@std@@@std@@QAEAAPAU_Container_proxy@2@XZ ; std::_Tree_comp_alloc<std::_Tset_traits<Telegram,std::less<Telegram>,std::allocator<Telegram>,0> >::_Myproxy
	mov	eax, DWORD PTR [eax]
	push	eax
	lea	ecx, DWORD PTR __Alproxy$[ebp]
	call	??$construct@U_Container_proxy@std@@U12@@?$_Wrap_alloc@V?$allocator@U_Container_proxy@std@@@std@@@std@@QAEXPAU_Container_proxy@1@$$QAU21@@Z ; std::_Wrap_alloc<std::allocator<std::_Container_proxy> >::construct<std::_Container_proxy,std::_Container_proxy>

; 777  : 		_Myproxy()->_Mycont = &_Get_data();

	mov	ecx, DWORD PTR _this$[ebp]
	call	?_Get_data@?$_Tree_comp_alloc@V?$_Tset_traits@UTelegram@@U?$less@UTelegram@@@std@@V?$allocator@UTelegram@@@3@$0A@@std@@@std@@QAEAAV?$_Tree_val@U?$_Tree_simple_types@UTelegram@@@std@@@2@XZ ; std::_Tree_comp_alloc<std::_Tset_traits<Telegram,std::less<Telegram>,std::allocator<Telegram>,0> >::_Get_data
	mov	esi, eax
	mov	ecx, DWORD PTR _this$[ebp]
	call	?_Myproxy@?$_Tree_comp_alloc@V?$_Tset_traits@UTelegram@@U?$less@UTelegram@@@std@@V?$allocator@UTelegram@@@3@$0A@@std@@@std@@QAEAAPAU_Container_proxy@2@XZ ; std::_Tree_comp_alloc<std::_Tset_traits<Telegram,std::less<Telegram>,std::allocator<Telegram>,0> >::_Myproxy
	mov	ecx, DWORD PTR [eax]
	mov	DWORD PTR [ecx], esi

; 778  : 		}

	push	edx
	mov	ecx, ebp
	push	eax
	lea	edx, DWORD PTR $LN5@Alloc_prox
	call	@_RTC_CheckStackVars@8
	pop	eax
	pop	edx
	pop	esi
	add	esp, 24					; 00000018H
	cmp	ebp, esp
	call	__RTC_CheckEsp
	mov	esp, ebp
	pop	ebp
	ret	0
	npad	1
$LN5@Alloc_prox:
	DD	1
	DD	$LN4@Alloc_prox
$LN4@Alloc_prox:
	DD	-9					; fffffff7H
	DD	1
	DD	$LN3@Alloc_prox
$LN3@Alloc_prox:
	DB	95					; 0000005fH
	DB	65					; 00000041H
	DB	108					; 0000006cH
	DB	112					; 00000070H
	DB	114					; 00000072H
	DB	111					; 0000006fH
	DB	120					; 00000078H
	DB	121					; 00000079H
	DB	0
?_Alloc_proxy@?$_Tree_comp_alloc@V?$_Tset_traits@UTelegram@@U?$less@UTelegram@@@std@@V?$allocator@UTelegram@@@3@$0A@@std@@@std@@QAEXXZ ENDP ; std::_Tree_comp_alloc<std::_Tset_traits<Telegram,std::less<Telegram>,std::allocator<Telegram>,0> >::_Alloc_proxy
_TEXT	ENDS
; Function compile flags: /Odtp /RTCsu
; File c:\program files (x86)\microsoft visual studio 14.0\vc\include\xtree
;	COMDAT ??1?$_Tree_comp_alloc@V?$_Tset_traits@UTelegram@@U?$less@UTelegram@@@std@@V?$allocator@UTelegram@@@3@$0A@@std@@@std@@QAE@XZ
_TEXT	SEGMENT
_this$ = -16						; size = 4
__$EHRec$ = -12						; size = 12
??1?$_Tree_comp_alloc@V?$_Tset_traits@UTelegram@@U?$less@UTelegram@@@std@@V?$allocator@UTelegram@@@3@$0A@@std@@@std@@QAE@XZ PROC ; std::_Tree_comp_alloc<std::_Tset_traits<Telegram,std::less<Telegram>,std::allocator<Telegram>,0> >::~_Tree_comp_alloc<std::_Tset_traits<Telegram,std::less<Telegram>,std::allocator<Telegram>,0> >, COMDAT
; _this$ = ecx

; 752  : 		{	// destroy head node, proxy

	push	ebp
	mov	ebp, esp
	push	-1
	push	__ehhandler$??1?$_Tree_comp_alloc@V?$_Tset_traits@UTelegram@@U?$less@UTelegram@@@std@@V?$allocator@UTelegram@@@3@$0A@@std@@@std@@QAE@XZ
	mov	eax, DWORD PTR fs:0
	push	eax
	push	ecx
	mov	DWORD PTR [ebp-16], -858993460		; ccccccccH
	mov	eax, DWORD PTR ___security_cookie
	xor	eax, ebp
	push	eax
	lea	eax, DWORD PTR __$EHRec$[ebp]
	mov	DWORD PTR fs:0, eax
	mov	DWORD PTR _this$[ebp], ecx

; 753  : 		_Freeheadnode(_Myhead());

	mov	ecx, DWORD PTR _this$[ebp]
	call	?_Myhead@?$_Tree_comp_alloc@V?$_Tset_traits@UTelegram@@U?$less@UTelegram@@@std@@V?$allocator@UTelegram@@@3@$0A@@std@@@std@@QAEAAPAU?$_Tree_node@UTelegram@@PAX@2@XZ ; std::_Tree_comp_alloc<std::_Tset_traits<Telegram,std::less<Telegram>,std::allocator<Telegram>,0> >::_Myhead
	mov	eax, DWORD PTR [eax]
	push	eax
	mov	ecx, DWORD PTR _this$[ebp]
	call	?_Freeheadnode@?$_Tree_comp_alloc@V?$_Tset_traits@UTelegram@@U?$less@UTelegram@@@std@@V?$allocator@UTelegram@@@3@$0A@@std@@@std@@QAEXPAU?$_Tree_node@UTelegram@@PAX@2@@Z ; std::_Tree_comp_alloc<std::_Tset_traits<Telegram,std::less<Telegram>,std::allocator<Telegram>,0> >::_Freeheadnode

; 754  : 		_Free_proxy();

	mov	ecx, DWORD PTR _this$[ebp]
	call	?_Free_proxy@?$_Tree_comp_alloc@V?$_Tset_traits@UTelegram@@U?$less@UTelegram@@@std@@V?$allocator@UTelegram@@@3@$0A@@std@@@std@@QAEXXZ ; std::_Tree_comp_alloc<std::_Tset_traits<Telegram,std::less<Telegram>,std::allocator<Telegram>,0> >::_Free_proxy

; 755  : 		}

	mov	ecx, DWORD PTR _this$[ebp]
	call	??1?$_Compressed_pair@U?$less@UTelegram@@@std@@V?$_Compressed_pair@U?$_Wrap_alloc@V?$allocator@U?$_Tree_node@UTelegram@@PAX@std@@@std@@@std@@V?$_Tree_val@U?$_Tree_simple_types@UTelegram@@@std@@@2@$00@2@$00@std@@QAE@XZ
	mov	ecx, DWORD PTR __$EHRec$[ebp]
	mov	DWORD PTR fs:0, ecx
	pop	ecx
	add	esp, 16					; 00000010H
	cmp	ebp, esp
	call	__RTC_CheckEsp
	mov	esp, ebp
	pop	ebp
	ret	0
_TEXT	ENDS
;	COMDAT text$x
text$x	SEGMENT
__ehhandler$??1?$_Tree_comp_alloc@V?$_Tset_traits@UTelegram@@U?$less@UTelegram@@@std@@V?$allocator@UTelegram@@@3@$0A@@std@@@std@@QAE@XZ:
	mov	edx, DWORD PTR [esp+8]
	lea	eax, DWORD PTR [edx+12]
	mov	ecx, DWORD PTR [edx-8]
	xor	ecx, eax
	call	@__security_check_cookie@4
	mov	eax, OFFSET __ehfuncinfo$??1?$_Tree_comp_alloc@V?$_Tset_traits@UTelegram@@U?$less@UTelegram@@@std@@V?$allocator@UTelegram@@@3@$0A@@std@@@std@@QAE@XZ
	jmp	___CxxFrameHandler3
text$x	ENDS
??1?$_Tree_comp_alloc@V?$_Tset_traits@UTelegram@@U?$less@UTelegram@@@std@@V?$allocator@UTelegram@@@3@$0A@@std@@@std@@QAE@XZ ENDP ; std::_Tree_comp_alloc<std::_Tset_traits<Telegram,std::less<Telegram>,std::allocator<Telegram>,0> >::~_Tree_comp_alloc<std::_Tset_traits<Telegram,std::less<Telegram>,std::allocator<Telegram>,0> >
; Function compile flags: /Odtp /RTCsu
; File c:\program files (x86)\microsoft visual studio 14.0\vc\include\xtree
;	COMDAT ?_Construct@?$_Tree_comp_alloc@V?$_Tset_traits@UTelegram@@U?$less@UTelegram@@@std@@V?$allocator@UTelegram@@@3@$0A@@std@@@std@@QAEXXZ
_TEXT	SEGMENT
_this$ = -20						; size = 4
__$EHRec$ = -16						; size = 16
?_Construct@?$_Tree_comp_alloc@V?$_Tset_traits@UTelegram@@U?$less@UTelegram@@@std@@V?$allocator@UTelegram@@@3@$0A@@std@@@std@@QAEXXZ PROC ; std::_Tree_comp_alloc<std::_Tset_traits<Telegram,std::less<Telegram>,std::allocator<Telegram>,0> >::_Construct, COMDAT
; _this$ = ecx

; 741  : 		{	// construct head node, proxy

	push	ebp
	mov	ebp, esp
	push	-1
	push	__ehhandler$?_Construct@?$_Tree_comp_alloc@V?$_Tset_traits@UTelegram@@U?$less@UTelegram@@@std@@V?$allocator@UTelegram@@@3@$0A@@std@@@std@@QAEXXZ
	mov	eax, DWORD PTR fs:0
	push	eax
	push	ecx
	push	ecx
	push	ebx
	push	esi
	push	edi
	mov	DWORD PTR [ebp-20], -858993460		; ccccccccH
	mov	eax, DWORD PTR ___security_cookie
	xor	eax, ebp
	push	eax
	lea	eax, DWORD PTR __$EHRec$[ebp+4]
	mov	DWORD PTR fs:0, eax
	mov	DWORD PTR __$EHRec$[ebp], esp
	mov	DWORD PTR _this$[ebp], ecx

; 742  : 		_Myhead() = _Buyheadnode();

	mov	ecx, DWORD PTR _this$[ebp]
	call	?_Buyheadnode@?$_Tree_comp_alloc@V?$_Tset_traits@UTelegram@@U?$less@UTelegram@@@std@@V?$allocator@UTelegram@@@3@$0A@@std@@@std@@QAEPAU?$_Tree_node@UTelegram@@PAX@2@XZ ; std::_Tree_comp_alloc<std::_Tset_traits<Telegram,std::less<Telegram>,std::allocator<Telegram>,0> >::_Buyheadnode
	mov	esi, eax
	mov	ecx, DWORD PTR _this$[ebp]
	call	?_Myhead@?$_Tree_comp_alloc@V?$_Tset_traits@UTelegram@@U?$less@UTelegram@@@std@@V?$allocator@UTelegram@@@3@$0A@@std@@@std@@QAEAAPAU?$_Tree_node@UTelegram@@PAX@2@XZ ; std::_Tree_comp_alloc<std::_Tset_traits<Telegram,std::less<Telegram>,std::allocator<Telegram>,0> >::_Myhead
	mov	DWORD PTR [eax], esi

; 743  : 		_TRY_BEGIN

	mov	DWORD PTR __$EHRec$[ebp+12], 0

; 744  : 		_Alloc_proxy();

	mov	ecx, DWORD PTR _this$[ebp]
	call	?_Alloc_proxy@?$_Tree_comp_alloc@V?$_Tset_traits@UTelegram@@U?$less@UTelegram@@@std@@V?$allocator@UTelegram@@@3@$0A@@std@@@std@@QAEXXZ ; std::_Tree_comp_alloc<std::_Tset_traits<Telegram,std::less<Telegram>,std::allocator<Telegram>,0> >::_Alloc_proxy
	jmp	SHORT $LN4@Construct
__catch$?_Construct@?$_Tree_comp_alloc@V?$_Tset_traits@UTelegram@@U?$less@UTelegram@@@std@@V?$allocator@UTelegram@@@3@$0A@@std@@@std@@QAEXXZ$0:

; 745  : 		_CATCH_ALL
; 746  : 		_Freeheadnode(_Myhead());

	mov	ecx, DWORD PTR _this$[ebp]
	call	?_Myhead@?$_Tree_comp_alloc@V?$_Tset_traits@UTelegram@@U?$less@UTelegram@@@std@@V?$allocator@UTelegram@@@3@$0A@@std@@@std@@QAEAAPAU?$_Tree_node@UTelegram@@PAX@2@XZ ; std::_Tree_comp_alloc<std::_Tset_traits<Telegram,std::less<Telegram>,std::allocator<Telegram>,0> >::_Myhead
	mov	eax, DWORD PTR [eax]
	push	eax
	mov	ecx, DWORD PTR _this$[ebp]
	call	?_Freeheadnode@?$_Tree_comp_alloc@V?$_Tset_traits@UTelegram@@U?$less@UTelegram@@@std@@V?$allocator@UTelegram@@@3@$0A@@std@@@std@@QAEXPAU?$_Tree_node@UTelegram@@PAX@2@@Z ; std::_Tree_comp_alloc<std::_Tset_traits<Telegram,std::less<Telegram>,std::allocator<Telegram>,0> >::_Freeheadnode

; 747  : 		_RERAISE;

	push	0
	push	0
	call	__CxxThrowException@8

; 748  : 		_CATCH_END

	mov	eax, $LN7@Construct
	ret	0
$LN4@Construct:
	mov	DWORD PTR __$EHRec$[ebp+12], -1
	jmp	SHORT $LN3@Construct
$LN7@Construct:
	mov	DWORD PTR __$EHRec$[ebp+12], -1
$LN3@Construct:

; 749  : 		}

	mov	ecx, DWORD PTR __$EHRec$[ebp+4]
	mov	DWORD PTR fs:0, ecx
	pop	ecx
	pop	edi
	pop	esi
	pop	ebx
	add	esp, 20					; 00000014H
	cmp	ebp, esp
	call	__RTC_CheckEsp
	mov	esp, ebp
	pop	ebp
	ret	0
_TEXT	ENDS
;	COMDAT text$x
text$x	SEGMENT
__ehhandler$?_Construct@?$_Tree_comp_alloc@V?$_Tset_traits@UTelegram@@U?$less@UTelegram@@@std@@V?$allocator@UTelegram@@@3@$0A@@std@@@std@@QAEXXZ:
	mov	edx, DWORD PTR [esp+8]
	lea	eax, DWORD PTR [edx+12]
	mov	ecx, DWORD PTR [edx-24]
	xor	ecx, eax
	call	@__security_check_cookie@4
	mov	eax, OFFSET __ehfuncinfo$?_Construct@?$_Tree_comp_alloc@V?$_Tset_traits@UTelegram@@U?$less@UTelegram@@@std@@V?$allocator@UTelegram@@@3@$0A@@std@@@std@@QAEXXZ
	jmp	___CxxFrameHandler3
text$x	ENDS
?_Construct@?$_Tree_comp_alloc@V?$_Tset_traits@UTelegram@@U?$less@UTelegram@@@std@@V?$allocator@UTelegram@@@3@$0A@@std@@@std@@QAEXXZ ENDP ; std::_Tree_comp_alloc<std::_Tset_traits<Telegram,std::less<Telegram>,std::allocator<Telegram>,0> >::_Construct
; Function compile flags: /Odtp /RTCsu
; File c:\program files (x86)\microsoft visual studio 14.0\vc\include\xtree
;	COMDAT ??0?$_Tree_comp_alloc@V?$_Tset_traits@UTelegram@@U?$less@UTelegram@@@std@@V?$allocator@UTelegram@@@3@$0A@@std@@@std@@QAE@ABU?$less@UTelegram@@@1@@Z
_TEXT	SEGMENT
$T2 = -18						; size = 1
$T3 = -17						; size = 1
_this$ = -16						; size = 4
__$EHRec$ = -12						; size = 12
__Parg$ = 8						; size = 4
??0?$_Tree_comp_alloc@V?$_Tset_traits@UTelegram@@U?$less@UTelegram@@@std@@V?$allocator@UTelegram@@@3@$0A@@std@@@std@@QAE@ABU?$less@UTelegram@@@1@@Z PROC ; std::_Tree_comp_alloc<std::_Tset_traits<Telegram,std::less<Telegram>,std::allocator<Telegram>,0> >::_Tree_comp_alloc<std::_Tset_traits<Telegram,std::less<Telegram>,std::allocator<Telegram>,0> >, COMDAT
; _this$ = ecx

; 704  : 		{	// construct from comparator

	push	ebp
	mov	ebp, esp
	push	-1
	push	__ehhandler$??0?$_Tree_comp_alloc@V?$_Tset_traits@UTelegram@@U?$less@UTelegram@@@std@@V?$allocator@UTelegram@@@3@$0A@@std@@@std@@QAE@ABU?$less@UTelegram@@@1@@Z
	mov	eax, DWORD PTR fs:0
	push	eax
	sub	esp, 8
	mov	DWORD PTR [ebp-20], -858993460		; ccccccccH
	mov	DWORD PTR [ebp-16], -858993460		; ccccccccH
	mov	eax, DWORD PTR ___security_cookie
	xor	eax, ebp
	push	eax
	lea	eax, DWORD PTR __$EHRec$[ebp]
	mov	DWORD PTR fs:0, eax
	mov	DWORD PTR _this$[ebp], ecx

; 702  : 		: _Mypair(_One_then_variadic_args_t(), _Parg,

	lea	eax, DWORD PTR $T3[ebp]
	push	eax
	mov	ecx, DWORD PTR __Parg$[ebp]
	push	ecx
	movzx	edx, BYTE PTR $T2[ebp]
	push	edx
	mov	ecx, DWORD PTR _this$[ebp]
	call	??$?0ABU?$less@UTelegram@@@std@@U_Zero_then_variadic_args_t@1@@?$_Compressed_pair@U?$less@UTelegram@@@std@@V?$_Compressed_pair@U?$_Wrap_alloc@V?$allocator@U?$_Tree_node@UTelegram@@PAX@std@@@std@@@std@@V?$_Tree_val@U?$_Tree_simple_types@UTelegram@@@std@@@2@$00@2@$00@std@@QAE@U_One_then_variadic_args_t@1@ABU?$less@UTelegram@@@1@$$QAU_Zero_then_variadic_args_t@1@@Z ; std::_Compressed_pair<std::less<Telegram>,std::_Compressed_pair<std::_Wrap_alloc<std::allocator<std::_Tree_node<Telegram,void *> > >,std::_Tree_val<std::_Tree_simple_types<Telegram> >,1>,1>::_Compressed_pair<std::less<Telegram>,std::_Compressed_pair<std::_Wrap_alloc<std::allocator<std::_Tree_node<Telegram,void *> > >,std::_Tree_val<std::_Tree_simple_types<Telegram> >,1>,1><std::less<Telegram> const &,std::_Zero_then_variadic_args_t>
	mov	DWORD PTR __$EHRec$[ebp+8], 0

; 705  : 		_Construct();

	mov	ecx, DWORD PTR _this$[ebp]
	call	?_Construct@?$_Tree_comp_alloc@V?$_Tset_traits@UTelegram@@U?$less@UTelegram@@@std@@V?$allocator@UTelegram@@@3@$0A@@std@@@std@@QAEXXZ ; std::_Tree_comp_alloc<std::_Tset_traits<Telegram,std::less<Telegram>,std::allocator<Telegram>,0> >::_Construct

; 706  : 		}

	mov	DWORD PTR __$EHRec$[ebp+8], -1
	mov	eax, DWORD PTR _this$[ebp]
	mov	ecx, DWORD PTR __$EHRec$[ebp]
	mov	DWORD PTR fs:0, ecx
	pop	ecx
	add	esp, 20					; 00000014H
	cmp	ebp, esp
	call	__RTC_CheckEsp
	mov	esp, ebp
	pop	ebp
	ret	4
_TEXT	ENDS
;	COMDAT text$x
text$x	SEGMENT
__unwindfunclet$??0?$_Tree_comp_alloc@V?$_Tset_traits@UTelegram@@U?$less@UTelegram@@@std@@V?$allocator@UTelegram@@@3@$0A@@std@@@std@@QAE@ABU?$less@UTelegram@@@1@@Z$0:
	mov	ecx, DWORD PTR _this$[ebp]
	jmp	??1?$_Compressed_pair@U?$less@UTelegram@@@std@@V?$_Compressed_pair@U?$_Wrap_alloc@V?$allocator@U?$_Tree_node@UTelegram@@PAX@std@@@std@@@std@@V?$_Tree_val@U?$_Tree_simple_types@UTelegram@@@std@@@2@$00@2@$00@std@@QAE@XZ
__ehhandler$??0?$_Tree_comp_alloc@V?$_Tset_traits@UTelegram@@U?$less@UTelegram@@@std@@V?$allocator@UTelegram@@@3@$0A@@std@@@std@@QAE@ABU?$less@UTelegram@@@1@@Z:
	mov	edx, DWORD PTR [esp+8]
	lea	eax, DWORD PTR [edx+12]
	mov	ecx, DWORD PTR [edx-12]
	xor	ecx, eax
	call	@__security_check_cookie@4
	mov	eax, OFFSET __ehfuncinfo$??0?$_Tree_comp_alloc@V?$_Tset_traits@UTelegram@@U?$less@UTelegram@@@std@@V?$allocator@UTelegram@@@3@$0A@@std@@@std@@QAE@ABU?$less@UTelegram@@@1@@Z
	jmp	___CxxFrameHandler3
text$x	ENDS
??0?$_Tree_comp_alloc@V?$_Tset_traits@UTelegram@@U?$less@UTelegram@@@std@@V?$allocator@UTelegram@@@3@$0A@@std@@@std@@QAE@ABU?$less@UTelegram@@@1@@Z ENDP ; std::_Tree_comp_alloc<std::_Tset_traits<Telegram,std::less<Telegram>,std::allocator<Telegram>,0> >::_Tree_comp_alloc<std::_Tset_traits<Telegram,std::less<Telegram>,std::allocator<Telegram>,0> >
; Function compile flags: /Odtp /RTCsu
; File c:\program files (x86)\microsoft visual studio 14.0\vc\include\xtree
;	COMDAT ?_Min@?$_Tree_comp_alloc@V?$_Tset_traits@UTelegram@@U?$less@UTelegram@@@std@@V?$allocator@UTelegram@@@3@$0A@@std@@@std@@SAPAU?$_Tree_node@UTelegram@@PAX@2@PAU32@@Z
_TEXT	SEGMENT
__Pnode$ = 8						; size = 4
?_Min@?$_Tree_comp_alloc@V?$_Tset_traits@UTelegram@@U?$less@UTelegram@@@std@@V?$allocator@UTelegram@@@3@$0A@@std@@@std@@SAPAU?$_Tree_node@UTelegram@@PAX@2@PAU32@@Z PROC ; std::_Tree_comp_alloc<std::_Tset_traits<Telegram,std::less<Telegram>,std::allocator<Telegram>,0> >::_Min, COMDAT

; 697  : 		{	// return leftmost node in subtree at _Pnode

	push	ebp
	mov	ebp, esp

; 698  : 		return (_Tree_val<_Val_types>::_Min(_Pnode));

	mov	eax, DWORD PTR __Pnode$[ebp]
	push	eax
	call	?_Min@?$_Tree_val@U?$_Tree_simple_types@UTelegram@@@std@@@std@@SAPAU?$_Tree_node@UTelegram@@PAX@2@PAU32@@Z ; std::_Tree_val<std::_Tree_simple_types<Telegram> >::_Min
	add	esp, 4

; 699  : 		}

	cmp	ebp, esp
	call	__RTC_CheckEsp
	pop	ebp
	ret	0
?_Min@?$_Tree_comp_alloc@V?$_Tset_traits@UTelegram@@U?$less@UTelegram@@@std@@V?$allocator@UTelegram@@@3@$0A@@std@@@std@@SAPAU?$_Tree_node@UTelegram@@PAX@2@PAU32@@Z ENDP ; std::_Tree_comp_alloc<std::_Tset_traits<Telegram,std::less<Telegram>,std::allocator<Telegram>,0> >::_Min
_TEXT	ENDS
; Function compile flags: /Odtp /RTCsu
; File c:\program files (x86)\microsoft visual studio 14.0\vc\include\xtree
;	COMDAT ?_Max@?$_Tree_comp_alloc@V?$_Tset_traits@UTelegram@@U?$less@UTelegram@@@std@@V?$allocator@UTelegram@@@3@$0A@@std@@@std@@SAPAU?$_Tree_node@UTelegram@@PAX@2@PAU32@@Z
_TEXT	SEGMENT
__Pnode$ = 8						; size = 4
?_Max@?$_Tree_comp_alloc@V?$_Tset_traits@UTelegram@@U?$less@UTelegram@@@std@@V?$allocator@UTelegram@@@3@$0A@@std@@@std@@SAPAU?$_Tree_node@UTelegram@@PAX@2@PAU32@@Z PROC ; std::_Tree_comp_alloc<std::_Tset_traits<Telegram,std::less<Telegram>,std::allocator<Telegram>,0> >::_Max, COMDAT

; 692  : 		{	// return rightmost node in subtree at _Pnode

	push	ebp
	mov	ebp, esp

; 693  : 		return (_Tree_val<_Val_types>::_Max(_Pnode));

	mov	eax, DWORD PTR __Pnode$[ebp]
	push	eax
	call	?_Max@?$_Tree_val@U?$_Tree_simple_types@UTelegram@@@std@@@std@@SAPAU?$_Tree_node@UTelegram@@PAX@2@PAU32@@Z ; std::_Tree_val<std::_Tree_simple_types<Telegram> >::_Max
	add	esp, 4

; 694  : 		}

	cmp	ebp, esp
	call	__RTC_CheckEsp
	pop	ebp
	ret	0
?_Max@?$_Tree_comp_alloc@V?$_Tset_traits@UTelegram@@U?$less@UTelegram@@@std@@V?$allocator@UTelegram@@@3@$0A@@std@@@std@@SAPAU?$_Tree_node@UTelegram@@PAX@2@PAU32@@Z ENDP ; std::_Tree_comp_alloc<std::_Tset_traits<Telegram,std::less<Telegram>,std::allocator<Telegram>,0> >::_Max
_TEXT	ENDS
; Function compile flags: /Odtp /RTCsu
; File c:\program files (x86)\microsoft visual studio 14.0\vc\include\xtree
;	COMDAT ?_Myval@?$_Tree_comp_alloc@V?$_Tset_traits@UTelegram@@U?$less@UTelegram@@@std@@V?$allocator@UTelegram@@@3@$0A@@std@@@std@@SAAAUTelegram@@PAU?$_Tree_node@UTelegram@@PAX@2@@Z
_TEXT	SEGMENT
__Pnode$ = 8						; size = 4
?_Myval@?$_Tree_comp_alloc@V?$_Tset_traits@UTelegram@@U?$less@UTelegram@@@std@@V?$allocator@UTelegram@@@3@$0A@@std@@@std@@SAAAUTelegram@@PAU?$_Tree_node@UTelegram@@PAX@2@@Z PROC ; std::_Tree_comp_alloc<std::_Tset_traits<Telegram,std::less<Telegram>,std::allocator<Telegram>,0> >::_Myval, COMDAT

; 687  : 		{	// return reference to value in node

	push	ebp
	mov	ebp, esp

; 688  : 		return (_Tree_val<_Val_types>::_Myval(_Pnode));

	mov	eax, DWORD PTR __Pnode$[ebp]
	push	eax
	call	?_Myval@?$_Tree_val@U?$_Tree_simple_types@UTelegram@@@std@@@std@@SAAAUTelegram@@PAU?$_Tree_node@UTelegram@@PAX@2@@Z ; std::_Tree_val<std::_Tree_simple_types<Telegram> >::_Myval
	add	esp, 4

; 689  : 		}

	cmp	ebp, esp
	call	__RTC_CheckEsp
	pop	ebp
	ret	0
?_Myval@?$_Tree_comp_alloc@V?$_Tset_traits@UTelegram@@U?$less@UTelegram@@@std@@V?$allocator@UTelegram@@@3@$0A@@std@@@std@@SAAAUTelegram@@PAU?$_Tree_node@UTelegram@@PAX@2@@Z ENDP ; std::_Tree_comp_alloc<std::_Tset_traits<Telegram,std::less<Telegram>,std::allocator<Telegram>,0> >::_Myval
_TEXT	ENDS
; Function compile flags: /Odtp /RTCsu
; File c:\program files (x86)\microsoft visual studio 14.0\vc\include\xtree
;	COMDAT ?_Right@?$_Tree_comp_alloc@V?$_Tset_traits@UTelegram@@U?$less@UTelegram@@@std@@V?$allocator@UTelegram@@@3@$0A@@std@@@std@@SAAAPAU?$_Tree_node@UTelegram@@PAX@2@PAU32@@Z
_TEXT	SEGMENT
__Pnode$ = 8						; size = 4
?_Right@?$_Tree_comp_alloc@V?$_Tset_traits@UTelegram@@U?$less@UTelegram@@@std@@V?$allocator@UTelegram@@@3@$0A@@std@@@std@@SAAAPAU?$_Tree_node@UTelegram@@PAX@2@PAU32@@Z PROC ; std::_Tree_comp_alloc<std::_Tset_traits<Telegram,std::less<Telegram>,std::allocator<Telegram>,0> >::_Right, COMDAT

; 682  : 		{	// return reference to right pointer in node

	push	ebp
	mov	ebp, esp

; 683  : 		return (_Tree_val<_Val_types>::_Right(_Pnode));

	mov	eax, DWORD PTR __Pnode$[ebp]
	push	eax
	call	?_Right@?$_Tree_val@U?$_Tree_simple_types@UTelegram@@@std@@@std@@SAAAPAU?$_Tree_node@UTelegram@@PAX@2@PAU32@@Z ; std::_Tree_val<std::_Tree_simple_types<Telegram> >::_Right
	add	esp, 4

; 684  : 		}

	cmp	ebp, esp
	call	__RTC_CheckEsp
	pop	ebp
	ret	0
?_Right@?$_Tree_comp_alloc@V?$_Tset_traits@UTelegram@@U?$less@UTelegram@@@std@@V?$allocator@UTelegram@@@3@$0A@@std@@@std@@SAAAPAU?$_Tree_node@UTelegram@@PAX@2@PAU32@@Z ENDP ; std::_Tree_comp_alloc<std::_Tset_traits<Telegram,std::less<Telegram>,std::allocator<Telegram>,0> >::_Right
_TEXT	ENDS
; Function compile flags: /Odtp /RTCsu
; File c:\program files (x86)\microsoft visual studio 14.0\vc\include\xtree
;	COMDAT ?_Parent@?$_Tree_comp_alloc@V?$_Tset_traits@UTelegram@@U?$less@UTelegram@@@std@@V?$allocator@UTelegram@@@3@$0A@@std@@@std@@SAAAPAU?$_Tree_node@UTelegram@@PAX@2@PAU32@@Z
_TEXT	SEGMENT
__Pnode$ = 8						; size = 4
?_Parent@?$_Tree_comp_alloc@V?$_Tset_traits@UTelegram@@U?$less@UTelegram@@@std@@V?$allocator@UTelegram@@@3@$0A@@std@@@std@@SAAAPAU?$_Tree_node@UTelegram@@PAX@2@PAU32@@Z PROC ; std::_Tree_comp_alloc<std::_Tset_traits<Telegram,std::less<Telegram>,std::allocator<Telegram>,0> >::_Parent, COMDAT

; 677  : 		{	// return reference to parent pointer in node

	push	ebp
	mov	ebp, esp

; 678  : 		return (_Tree_val<_Val_types>::_Parent(_Pnode));

	mov	eax, DWORD PTR __Pnode$[ebp]
	push	eax
	call	?_Parent@?$_Tree_val@U?$_Tree_simple_types@UTelegram@@@std@@@std@@SAAAPAU?$_Tree_node@UTelegram@@PAX@2@PAU32@@Z ; std::_Tree_val<std::_Tree_simple_types<Telegram> >::_Parent
	add	esp, 4

; 679  : 		}

	cmp	ebp, esp
	call	__RTC_CheckEsp
	pop	ebp
	ret	0
?_Parent@?$_Tree_comp_alloc@V?$_Tset_traits@UTelegram@@U?$less@UTelegram@@@std@@V?$allocator@UTelegram@@@3@$0A@@std@@@std@@SAAAPAU?$_Tree_node@UTelegram@@PAX@2@PAU32@@Z ENDP ; std::_Tree_comp_alloc<std::_Tset_traits<Telegram,std::less<Telegram>,std::allocator<Telegram>,0> >::_Parent
_TEXT	ENDS
; Function compile flags: /Odtp /RTCsu
; File c:\program files (x86)\microsoft visual studio 14.0\vc\include\xtree
;	COMDAT ?_Left@?$_Tree_comp_alloc@V?$_Tset_traits@UTelegram@@U?$less@UTelegram@@@std@@V?$allocator@UTelegram@@@3@$0A@@std@@@std@@SAAAPAU?$_Tree_node@UTelegram@@PAX@2@PAU32@@Z
_TEXT	SEGMENT
__Pnode$ = 8						; size = 4
?_Left@?$_Tree_comp_alloc@V?$_Tset_traits@UTelegram@@U?$less@UTelegram@@@std@@V?$allocator@UTelegram@@@3@$0A@@std@@@std@@SAAAPAU?$_Tree_node@UTelegram@@PAX@2@PAU32@@Z PROC ; std::_Tree_comp_alloc<std::_Tset_traits<Telegram,std::less<Telegram>,std::allocator<Telegram>,0> >::_Left, COMDAT

; 672  : 		{	// return reference to left pointer in node

	push	ebp
	mov	ebp, esp

; 673  : 		return (_Tree_val<_Val_types>::_Left(_Pnode));

	mov	eax, DWORD PTR __Pnode$[ebp]
	push	eax
	call	?_Left@?$_Tree_val@U?$_Tree_simple_types@UTelegram@@@std@@@std@@SAAAPAU?$_Tree_node@UTelegram@@PAX@2@PAU32@@Z ; std::_Tree_val<std::_Tree_simple_types<Telegram> >::_Left
	add	esp, 4

; 674  : 		}

	cmp	ebp, esp
	call	__RTC_CheckEsp
	pop	ebp
	ret	0
?_Left@?$_Tree_comp_alloc@V?$_Tset_traits@UTelegram@@U?$less@UTelegram@@@std@@V?$allocator@UTelegram@@@3@$0A@@std@@@std@@SAAAPAU?$_Tree_node@UTelegram@@PAX@2@PAU32@@Z ENDP ; std::_Tree_comp_alloc<std::_Tset_traits<Telegram,std::less<Telegram>,std::allocator<Telegram>,0> >::_Left
_TEXT	ENDS
; Function compile flags: /Odtp /RTCsu
; File c:\program files (x86)\microsoft visual studio 14.0\vc\include\xtree
;	COMDAT ?_Isnil@?$_Tree_comp_alloc@V?$_Tset_traits@UTelegram@@U?$less@UTelegram@@@std@@V?$allocator@UTelegram@@@3@$0A@@std@@@std@@SAAADPAU?$_Tree_node@UTelegram@@PAX@2@@Z
_TEXT	SEGMENT
__Pnode$ = 8						; size = 4
?_Isnil@?$_Tree_comp_alloc@V?$_Tset_traits@UTelegram@@U?$less@UTelegram@@@std@@V?$allocator@UTelegram@@@3@$0A@@std@@@std@@SAAADPAU?$_Tree_node@UTelegram@@PAX@2@@Z PROC ; std::_Tree_comp_alloc<std::_Tset_traits<Telegram,std::less<Telegram>,std::allocator<Telegram>,0> >::_Isnil, COMDAT

; 667  : 		{	// return reference to nil flag in node

	push	ebp
	mov	ebp, esp

; 668  : 		return (_Tree_val<_Val_types>::_Isnil(_Pnode));

	mov	eax, DWORD PTR __Pnode$[ebp]
	push	eax
	call	?_Isnil@?$_Tree_val@U?$_Tree_simple_types@UTelegram@@@std@@@std@@SAAADPAU?$_Tree_node@UTelegram@@PAX@2@@Z ; std::_Tree_val<std::_Tree_simple_types<Telegram> >::_Isnil
	add	esp, 4

; 669  : 		}

	cmp	ebp, esp
	call	__RTC_CheckEsp
	pop	ebp
	ret	0
?_Isnil@?$_Tree_comp_alloc@V?$_Tset_traits@UTelegram@@U?$less@UTelegram@@@std@@V?$allocator@UTelegram@@@3@$0A@@std@@@std@@SAAADPAU?$_Tree_node@UTelegram@@PAX@2@@Z ENDP ; std::_Tree_comp_alloc<std::_Tset_traits<Telegram,std::less<Telegram>,std::allocator<Telegram>,0> >::_Isnil
_TEXT	ENDS
; Function compile flags: /Odtp /RTCsu
; File c:\program files (x86)\microsoft visual studio 14.0\vc\include\xtree
;	COMDAT ?_Color@?$_Tree_comp_alloc@V?$_Tset_traits@UTelegram@@U?$less@UTelegram@@@std@@V?$allocator@UTelegram@@@3@$0A@@std@@@std@@SAAADPAU?$_Tree_node@UTelegram@@PAX@2@@Z
_TEXT	SEGMENT
__Pnode$ = 8						; size = 4
?_Color@?$_Tree_comp_alloc@V?$_Tset_traits@UTelegram@@U?$less@UTelegram@@@std@@V?$allocator@UTelegram@@@3@$0A@@std@@@std@@SAAADPAU?$_Tree_node@UTelegram@@PAX@2@@Z PROC ; std::_Tree_comp_alloc<std::_Tset_traits<Telegram,std::less<Telegram>,std::allocator<Telegram>,0> >::_Color, COMDAT

; 662  : 		{	// return reference to color in node

	push	ebp
	mov	ebp, esp

; 663  : 		return (_Tree_val<_Val_types>::_Color(_Pnode));

	mov	eax, DWORD PTR __Pnode$[ebp]
	push	eax
	call	?_Color@?$_Tree_val@U?$_Tree_simple_types@UTelegram@@@std@@@std@@SAAADPAU?$_Tree_node@UTelegram@@PAX@2@@Z ; std::_Tree_val<std::_Tree_simple_types<Telegram> >::_Color
	add	esp, 4

; 664  : 		}

	cmp	ebp, esp
	call	__RTC_CheckEsp
	pop	ebp
	ret	0
?_Color@?$_Tree_comp_alloc@V?$_Tset_traits@UTelegram@@U?$less@UTelegram@@@std@@V?$allocator@UTelegram@@@3@$0A@@std@@@std@@SAAADPAU?$_Tree_node@UTelegram@@PAX@2@@Z ENDP ; std::_Tree_comp_alloc<std::_Tset_traits<Telegram,std::less<Telegram>,std::allocator<Telegram>,0> >::_Color
_TEXT	ENDS
; Function compile flags: /Odtp /RTCsu
; File c:\program files (x86)\microsoft visual studio 14.0\vc\include\xmemory0
;	COMDAT ?max_size@?$_Wrap_alloc@V?$allocator@U?$_Tree_node@UTelegram@@PAX@std@@@std@@@std@@QBEIU_Nil@2@@Z
_TEXT	SEGMENT
_this$ = -4						; size = 4
___formal$ = 8						; size = 1
?max_size@?$_Wrap_alloc@V?$allocator@U?$_Tree_node@UTelegram@@PAX@std@@@std@@@std@@QBEIU_Nil@2@@Z PROC ; std::_Wrap_alloc<std::allocator<std::_Tree_node<Telegram,void *> > >::max_size, COMDAT
; _this$ = ecx

; 1007 : 		{	// get maximum size

	push	ebp
	mov	ebp, esp
	push	ecx
	mov	DWORD PTR [ebp-4], -858993460		; ccccccccH
	mov	DWORD PTR _this$[ebp], ecx

; 1008 : 		return (_Mytraits::max_size(*this));

	mov	eax, DWORD PTR _this$[ebp]
	push	eax
	call	?max_size@?$allocator_traits@V?$allocator@U?$_Tree_node@UTelegram@@PAX@std@@@std@@@std@@SAIABV?$allocator@U?$_Tree_node@UTelegram@@PAX@std@@@2@@Z ; std::allocator_traits<std::allocator<std::_Tree_node<Telegram,void *> > >::max_size
	add	esp, 4

; 1009 : 		}

	add	esp, 4
	cmp	ebp, esp
	call	__RTC_CheckEsp
	mov	esp, ebp
	pop	ebp
	ret	4
?max_size@?$_Wrap_alloc@V?$allocator@U?$_Tree_node@UTelegram@@PAX@std@@@std@@@std@@QBEIU_Nil@2@@Z ENDP ; std::_Wrap_alloc<std::allocator<std::_Tree_node<Telegram,void *> > >::max_size
_TEXT	ENDS
; Function compile flags: /Odtp /RTCsu
; File c:\program files (x86)\microsoft visual studio 14.0\vc\include\xmemory0
;	COMDAT ?deallocate@?$_Wrap_alloc@V?$allocator@U?$_Tree_node@UTelegram@@PAX@std@@@std@@@std@@QAEXPAU?$_Tree_node@UTelegram@@PAX@2@I@Z
_TEXT	SEGMENT
_this$ = -4						; size = 4
__Ptr$ = 8						; size = 4
__Count$ = 12						; size = 4
?deallocate@?$_Wrap_alloc@V?$allocator@U?$_Tree_node@UTelegram@@PAX@std@@@std@@@std@@QAEXPAU?$_Tree_node@UTelegram@@PAX@2@I@Z PROC ; std::_Wrap_alloc<std::allocator<std::_Tree_node<Telegram,void *> > >::deallocate, COMDAT
; _this$ = ecx

; 986  : 		{	// deallocate object at _Ptr, ignore size

	push	ebp
	mov	ebp, esp
	push	ecx
	mov	DWORD PTR [ebp-4], -858993460		; ccccccccH
	mov	DWORD PTR _this$[ebp], ecx

; 987  : 		_Mybase::deallocate(_Ptr, _Count);

	mov	eax, DWORD PTR __Count$[ebp]
	push	eax
	mov	ecx, DWORD PTR __Ptr$[ebp]
	push	ecx
	mov	ecx, DWORD PTR _this$[ebp]
	call	?deallocate@?$allocator@U?$_Tree_node@UTelegram@@PAX@std@@@std@@QAEXPAU?$_Tree_node@UTelegram@@PAX@2@I@Z ; std::allocator<std::_Tree_node<Telegram,void *> >::deallocate

; 988  : 		}

	add	esp, 4
	cmp	ebp, esp
	call	__RTC_CheckEsp
	mov	esp, ebp
	pop	ebp
	ret	8
?deallocate@?$_Wrap_alloc@V?$allocator@U?$_Tree_node@UTelegram@@PAX@std@@@std@@@std@@QAEXPAU?$_Tree_node@UTelegram@@PAX@2@I@Z ENDP ; std::_Wrap_alloc<std::allocator<std::_Tree_node<Telegram,void *> > >::deallocate
_TEXT	ENDS
; Function compile flags: /Odtp /RTCsu
; File c:\program files (x86)\microsoft visual studio 14.0\vc\include\xmemory0
;	COMDAT ?allocate@?$_Wrap_alloc@V?$allocator@U?$_Tree_node@UTelegram@@PAX@std@@@std@@@std@@QAEPAU?$_Tree_node@UTelegram@@PAX@2@I@Z
_TEXT	SEGMENT
_this$ = -4						; size = 4
__Count$ = 8						; size = 4
?allocate@?$_Wrap_alloc@V?$allocator@U?$_Tree_node@UTelegram@@PAX@std@@@std@@@std@@QAEPAU?$_Tree_node@UTelegram@@PAX@2@I@Z PROC ; std::_Wrap_alloc<std::allocator<std::_Tree_node<Telegram,void *> > >::allocate, COMDAT
; _this$ = ecx

; 975  : 		{	// allocate array of _Count elements

	push	ebp
	mov	ebp, esp
	push	ecx
	mov	DWORD PTR [ebp-4], -858993460		; ccccccccH
	mov	DWORD PTR _this$[ebp], ecx

; 976  : 		return (_Mybase::allocate(_Count));

	mov	eax, DWORD PTR __Count$[ebp]
	push	eax
	mov	ecx, DWORD PTR _this$[ebp]
	call	?allocate@?$allocator@U?$_Tree_node@UTelegram@@PAX@std@@@std@@QAEPAU?$_Tree_node@UTelegram@@PAX@2@I@Z ; std::allocator<std::_Tree_node<Telegram,void *> >::allocate

; 977  : 		}

	add	esp, 4
	cmp	ebp, esp
	call	__RTC_CheckEsp
	mov	esp, ebp
	pop	ebp
	ret	4
?allocate@?$_Wrap_alloc@V?$allocator@U?$_Tree_node@UTelegram@@PAX@std@@@std@@@std@@QAEPAU?$_Tree_node@UTelegram@@PAX@2@I@Z ENDP ; std::_Wrap_alloc<std::allocator<std::_Tree_node<Telegram,void *> > >::allocate
_TEXT	ENDS
; Function compile flags: /Odtp /RTCsu
; File c:\program files (x86)\microsoft visual studio 14.0\vc\include\xmemory0
;	COMDAT ??0?$_Wrap_alloc@V?$allocator@U?$_Tree_node@UTelegram@@PAX@std@@@std@@@std@@QAE@XZ
_TEXT	SEGMENT
_this$ = -4						; size = 4
??0?$_Wrap_alloc@V?$allocator@U?$_Tree_node@UTelegram@@PAX@std@@@std@@@std@@QAE@XZ PROC ; std::_Wrap_alloc<std::allocator<std::_Tree_node<Telegram,void *> > >::_Wrap_alloc<std::allocator<std::_Tree_node<Telegram,void *> > >, COMDAT
; _this$ = ecx

; 936  : 		{	// construct default allocator (do nothing)

	push	ebp
	mov	ebp, esp
	push	ecx
	mov	DWORD PTR [ebp-4], -858993460		; ccccccccH
	mov	DWORD PTR _this$[ebp], ecx

; 935  : 		: _Mybase()

	mov	ecx, DWORD PTR _this$[ebp]
	call	??0?$allocator@U?$_Tree_node@UTelegram@@PAX@std@@@std@@QAE@XZ ; std::allocator<std::_Tree_node<Telegram,void *> >::allocator<std::_Tree_node<Telegram,void *> >

; 937  : 		}

	mov	eax, DWORD PTR _this$[ebp]
	add	esp, 4
	cmp	ebp, esp
	call	__RTC_CheckEsp
	mov	esp, ebp
	pop	ebp
	ret	0
??0?$_Wrap_alloc@V?$allocator@U?$_Tree_node@UTelegram@@PAX@std@@@std@@@std@@QAE@XZ ENDP ; std::_Wrap_alloc<std::allocator<std::_Tree_node<Telegram,void *> > >::_Wrap_alloc<std::allocator<std::_Tree_node<Telegram,void *> > >
_TEXT	ENDS
; Function compile flags: /Odtp /RTCsu
; File c:\program files (x86)\microsoft visual studio 14.0\vc\include\xmemory0
;	COMDAT ?max_size@?$allocator_traits@V?$allocator@U?$_Tree_node@UTelegram@@PAX@std@@@std@@@std@@SAIABV?$allocator@U?$_Tree_node@UTelegram@@PAX@std@@@2@@Z
_TEXT	SEGMENT
__Al$ = 8						; size = 4
?max_size@?$allocator_traits@V?$allocator@U?$_Tree_node@UTelegram@@PAX@std@@@std@@@std@@SAIABV?$allocator@U?$_Tree_node@UTelegram@@PAX@std@@@2@@Z PROC ; std::allocator_traits<std::allocator<std::_Tree_node<Telegram,void *> > >::max_size, COMDAT

; 868  : 		{	// get maximum size

	push	ebp
	mov	ebp, esp

; 869  : 		return (_Al.max_size());

	mov	ecx, DWORD PTR __Al$[ebp]
	call	?max_size@?$allocator@U?$_Tree_node@UTelegram@@PAX@std@@@std@@QBEIXZ ; std::allocator<std::_Tree_node<Telegram,void *> >::max_size

; 870  : 		}

	cmp	ebp, esp
	call	__RTC_CheckEsp
	pop	ebp
	ret	0
?max_size@?$allocator_traits@V?$allocator@U?$_Tree_node@UTelegram@@PAX@std@@@std@@@std@@SAIABV?$allocator@U?$_Tree_node@UTelegram@@PAX@std@@@2@@Z ENDP ; std::allocator_traits<std::allocator<std::_Tree_node<Telegram,void *> > >::max_size
_TEXT	ENDS
; Function compile flags: /Odtp /RTCsu
; File c:\program files (x86)\microsoft visual studio 14.0\vc\include\xmemory0
;	COMDAT ?max_size@?$allocator@U?$_Tree_node@UTelegram@@PAX@std@@@std@@QBEIXZ
_TEXT	SEGMENT
_this$ = -4						; size = 4
?max_size@?$allocator@U?$_Tree_node@UTelegram@@PAX@std@@@std@@QBEIXZ PROC ; std::allocator<std::_Tree_node<Telegram,void *> >::max_size, COMDAT
; _this$ = ecx

; 748  : 		{	// estimate maximum array size

	push	ebp
	mov	ebp, esp
	push	ecx
	mov	DWORD PTR [ebp-4], -858993460		; ccccccccH
	mov	DWORD PTR _this$[ebp], ecx

; 749  : 		return ((size_t)(-1) / sizeof (_Ty));

	mov	eax, 89478485				; 05555555H

; 750  : 		}

	mov	esp, ebp
	pop	ebp
	ret	0
?max_size@?$allocator@U?$_Tree_node@UTelegram@@PAX@std@@@std@@QBEIXZ ENDP ; std::allocator<std::_Tree_node<Telegram,void *> >::max_size
_TEXT	ENDS
; Function compile flags: /Odtp /RTCsu
; File c:\program files (x86)\microsoft visual studio 14.0\vc\include\xmemory0
;	COMDAT ?allocate@?$allocator@U?$_Tree_node@UTelegram@@PAX@std@@@std@@QAEPAU?$_Tree_node@UTelegram@@PAX@2@I@Z
_TEXT	SEGMENT
_this$ = -4						; size = 4
__Count$ = 8						; size = 4
?allocate@?$allocator@U?$_Tree_node@UTelegram@@PAX@std@@@std@@QAEPAU?$_Tree_node@UTelegram@@PAX@2@I@Z PROC ; std::allocator<std::_Tree_node<Telegram,void *> >::allocate, COMDAT
; _this$ = ecx

; 724  : 		{	// allocate array of _Count elements

	push	ebp
	mov	ebp, esp
	push	ecx
	mov	DWORD PTR [ebp-4], -858993460		; ccccccccH
	mov	DWORD PTR _this$[ebp], ecx

; 725  : 		return (static_cast<pointer>(_Allocate(_Count, sizeof (_Ty))));

	push	1
	push	48					; 00000030H
	mov	eax, DWORD PTR __Count$[ebp]
	push	eax
	call	?_Allocate@std@@YAPAXII_N@Z		; std::_Allocate
	add	esp, 12					; 0000000cH

; 726  : 		}

	add	esp, 4
	cmp	ebp, esp
	call	__RTC_CheckEsp
	mov	esp, ebp
	pop	ebp
	ret	4
?allocate@?$allocator@U?$_Tree_node@UTelegram@@PAX@std@@@std@@QAEPAU?$_Tree_node@UTelegram@@PAX@2@I@Z ENDP ; std::allocator<std::_Tree_node<Telegram,void *> >::allocate
_TEXT	ENDS
; Function compile flags: /Odtp /RTCsu
; File c:\program files (x86)\microsoft visual studio 14.0\vc\include\xmemory0
;	COMDAT ?deallocate@?$allocator@U?$_Tree_node@UTelegram@@PAX@std@@@std@@QAEXPAU?$_Tree_node@UTelegram@@PAX@2@I@Z
_TEXT	SEGMENT
_this$ = -4						; size = 4
__Ptr$ = 8						; size = 4
__Count$ = 12						; size = 4
?deallocate@?$allocator@U?$_Tree_node@UTelegram@@PAX@std@@@std@@QAEXPAU?$_Tree_node@UTelegram@@PAX@2@I@Z PROC ; std::allocator<std::_Tree_node<Telegram,void *> >::deallocate, COMDAT
; _this$ = ecx

; 719  : 		{	// deallocate object at _Ptr

	push	ebp
	mov	ebp, esp
	push	ecx
	mov	DWORD PTR [ebp-4], -858993460		; ccccccccH
	mov	DWORD PTR _this$[ebp], ecx

; 720  : 		_Deallocate(_Ptr, _Count, sizeof (_Ty));

	push	48					; 00000030H
	mov	eax, DWORD PTR __Count$[ebp]
	push	eax
	mov	ecx, DWORD PTR __Ptr$[ebp]
	push	ecx
	call	?_Deallocate@std@@YAXPAXII@Z		; std::_Deallocate
	add	esp, 12					; 0000000cH

; 721  : 		}

	add	esp, 4
	cmp	ebp, esp
	call	__RTC_CheckEsp
	mov	esp, ebp
	pop	ebp
	ret	8
?deallocate@?$allocator@U?$_Tree_node@UTelegram@@PAX@std@@@std@@QAEXPAU?$_Tree_node@UTelegram@@PAX@2@I@Z ENDP ; std::allocator<std::_Tree_node<Telegram,void *> >::deallocate
_TEXT	ENDS
; Function compile flags: /Odtp /RTCsu
; File c:\program files (x86)\microsoft visual studio 14.0\vc\include\xmemory0
;	COMDAT ??0?$allocator@U?$_Tree_node@UTelegram@@PAX@std@@@std@@QAE@XZ
_TEXT	SEGMENT
_this$ = -4						; size = 4
??0?$allocator@U?$_Tree_node@UTelegram@@PAX@std@@@std@@QAE@XZ PROC ; std::allocator<std::_Tree_node<Telegram,void *> >::allocator<std::_Tree_node<Telegram,void *> >, COMDAT
; _this$ = ecx

; 699  : 	allocator() _THROW0()

	push	ebp
	mov	ebp, esp
	push	ecx
	mov	DWORD PTR [ebp-4], -858993460		; ccccccccH
	mov	DWORD PTR _this$[ebp], ecx

; 700  : 		{	// construct default allocator (do nothing)
; 701  : 		}

	mov	eax, DWORD PTR _this$[ebp]
	mov	esp, ebp
	pop	ebp
	ret	0
??0?$allocator@U?$_Tree_node@UTelegram@@PAX@std@@@std@@QAE@XZ ENDP ; std::allocator<std::_Tree_node<Telegram,void *> >::allocator<std::_Tree_node<Telegram,void *> >
_TEXT	ENDS
; Function compile flags: /Odtp /RTCsu
; File c:\program files (x86)\microsoft visual studio 14.0\vc\include\set
;	COMDAT ?_Kfn@?$_Tset_traits@UTelegram@@U?$less@UTelegram@@@std@@V?$allocator@UTelegram@@@3@$0A@@std@@SAABUTelegram@@ABU3@@Z
_TEXT	SEGMENT
__Val$ = 8						; size = 4
?_Kfn@?$_Tset_traits@UTelegram@@U?$less@UTelegram@@@std@@V?$allocator@UTelegram@@@3@$0A@@std@@SAABUTelegram@@ABU3@@Z PROC ; std::_Tset_traits<Telegram,std::less<Telegram>,std::allocator<Telegram>,0>::_Kfn, COMDAT

; 33   : 		{	// extract key from element value

	push	ebp
	mov	ebp, esp

; 34   : 		return (_Val);

	mov	eax, DWORD PTR __Val$[ebp]

; 35   : 		}

	pop	ebp
	ret	0
?_Kfn@?$_Tset_traits@UTelegram@@U?$less@UTelegram@@@std@@V?$allocator@UTelegram@@@3@$0A@@std@@SAABUTelegram@@ABU3@@Z ENDP ; std::_Tset_traits<Telegram,std::less<Telegram>,std::allocator<Telegram>,0>::_Kfn
_TEXT	ENDS
; Function compile flags: /Odtp /RTCsu
; File e:\documents\cours\git\raven\common\messaging\telegram.h
;	COMDAT ??M@YA_NABUTelegram@@0@Z
_TEXT	SEGMENT
tv72 = -4						; size = 4
_t1$ = 8						; size = 4
_t2$ = 12						; size = 4
??M@YA_NABUTelegram@@0@Z PROC				; operator<, COMDAT

; 76   : {

	push	ebp
	mov	ebp, esp
	push	ecx
	mov	DWORD PTR [ebp-4], -858993460		; ccccccccH

; 77   :   if (t1 == t2)

	mov	eax, DWORD PTR _t2$[ebp]
	push	eax
	mov	ecx, DWORD PTR _t1$[ebp]
	push	ecx
	call	??8@YA_NABUTelegram@@0@Z		; operator==
	add	esp, 8
	movzx	edx, al
	test	edx, edx
	je	SHORT $LN2@operator

; 78   :   {
; 79   :     return false;

	xor	al, al
	jmp	SHORT $LN3@operator

; 80   :   }
; 81   : 
; 82   :   else

	jmp	SHORT $LN3@operator
$LN2@operator:

; 83   :   {
; 84   :     return  (t1.DispatchTime < t2.DispatchTime);

	mov	eax, DWORD PTR _t2$[ebp]
	mov	ecx, DWORD PTR _t1$[ebp]
	movsd	xmm0, QWORD PTR [eax+16]
	comisd	xmm0, QWORD PTR [ecx+16]
	jbe	SHORT $LN5@operator
	mov	DWORD PTR tv72[ebp], 1
	jmp	SHORT $LN6@operator
$LN5@operator:
	mov	DWORD PTR tv72[ebp], 0
$LN6@operator:
	mov	al, BYTE PTR tv72[ebp]
$LN3@operator:

; 85   :   }
; 86   : }

	add	esp, 4
	cmp	ebp, esp
	call	__RTC_CheckEsp
	mov	esp, ebp
	pop	ebp
	ret	0
??M@YA_NABUTelegram@@0@Z ENDP				; operator<
_TEXT	ENDS
; Function compile flags: /Odtp /RTCsu
; File e:\documents\cours\git\raven\common\messaging\telegram.h
;	COMDAT ??8@YA_NABUTelegram@@0@Z
_TEXT	SEGMENT
tv79 = -12						; size = 4
tv88 = -8						; size = 8
_t1$ = 8						; size = 4
_t2$ = 12						; size = 4
??8@YA_NABUTelegram@@0@Z PROC				; operator==, COMDAT

; 68   : {

	push	ebp
	mov	ebp, esp
	sub	esp, 12					; 0000000cH
	mov	DWORD PTR [ebp-12], -858993460		; ccccccccH
	mov	DWORD PTR [ebp-8], -858993460		; ccccccccH
	mov	DWORD PTR [ebp-4], -858993460		; ccccccccH

; 69   :   return ( fabs(t1.DispatchTime-t2.DispatchTime) < SmallestDelay) &&

	mov	eax, DWORD PTR _t1$[ebp]
	mov	ecx, DWORD PTR _t2$[ebp]
	movsd	xmm0, QWORD PTR [eax+16]
	subsd	xmm0, QWORD PTR [ecx+16]
	sub	esp, 8
	movsd	QWORD PTR [esp], xmm0
	call	_fabs
	add	esp, 8
	fstp	QWORD PTR tv88[ebp]
	movsd	xmm0, QWORD PTR __real@3fd0000000000000
	comisd	xmm0, QWORD PTR tv88[ebp]
	jbe	SHORT $LN3@operator
	mov	edx, DWORD PTR _t1$[ebp]
	mov	eax, DWORD PTR _t2$[ebp]
	mov	ecx, DWORD PTR [edx]
	cmp	ecx, DWORD PTR [eax]
	jne	SHORT $LN3@operator
	mov	edx, DWORD PTR _t1$[ebp]
	mov	eax, DWORD PTR _t2$[ebp]
	mov	ecx, DWORD PTR [edx+4]
	cmp	ecx, DWORD PTR [eax+4]
	jne	SHORT $LN3@operator
	mov	edx, DWORD PTR _t1$[ebp]
	mov	eax, DWORD PTR _t2$[ebp]
	mov	ecx, DWORD PTR [edx+8]
	cmp	ecx, DWORD PTR [eax+8]
	jne	SHORT $LN3@operator
	mov	DWORD PTR tv79[ebp], 1
	jmp	SHORT $LN4@operator
$LN3@operator:
	mov	DWORD PTR tv79[ebp], 0
$LN4@operator:
	mov	al, BYTE PTR tv79[ebp]

; 70   :           (t1.Sender == t2.Sender)        &&
; 71   :           (t1.Receiver == t2.Receiver)    &&
; 72   :           (t1.Msg == t2.Msg);
; 73   : }

	add	esp, 12					; 0000000cH
	cmp	ebp, esp
	call	__RTC_CheckEsp
	mov	esp, ebp
	pop	ebp
	ret	0
??8@YA_NABUTelegram@@0@Z ENDP				; operator==
_TEXT	ENDS
; Function compile flags: /Odtp /RTCsu
; File e:\documents\cours\git\raven\common\messaging\telegram.h
;	COMDAT ??0Telegram@@QAE@NHHHPAX@Z
_TEXT	SEGMENT
_this$ = -4						; size = 4
_time$ = 8						; size = 8
_sender$ = 16						; size = 4
_receiver$ = 20						; size = 4
_msg$ = 24						; size = 4
_info$ = 28						; size = 4
??0Telegram@@QAE@NHHHPAX@Z PROC				; Telegram::Telegram, COMDAT
; _this$ = ecx

; 55   :   {}

	push	ebp
	mov	ebp, esp
	push	ecx
	mov	DWORD PTR [ebp-4], -858993460		; ccccccccH
	mov	DWORD PTR _this$[ebp], ecx

; 51   :                                Sender(sender),

	mov	eax, DWORD PTR _this$[ebp]
	mov	ecx, DWORD PTR _sender$[ebp]
	mov	DWORD PTR [eax], ecx

; 52   :                                Receiver(receiver),

	mov	edx, DWORD PTR _this$[ebp]
	mov	eax, DWORD PTR _receiver$[ebp]
	mov	DWORD PTR [edx+4], eax

; 53   :                                Msg(msg),

	mov	ecx, DWORD PTR _this$[ebp]
	mov	edx, DWORD PTR _msg$[ebp]
	mov	DWORD PTR [ecx+8], edx

; 50   :            void*  info = NULL): DispatchTime(time),

	mov	eax, DWORD PTR _this$[ebp]
	movsd	xmm0, QWORD PTR _time$[ebp]
	movsd	QWORD PTR [eax+16], xmm0

; 54   :                                ExtraInfo(info)

	mov	ecx, DWORD PTR _this$[ebp]
	mov	edx, DWORD PTR _info$[ebp]
	mov	DWORD PTR [ecx+24], edx

; 55   :   {}

	mov	eax, DWORD PTR _this$[ebp]
	mov	esp, ebp
	pop	ebp
	ret	24					; 00000018H
??0Telegram@@QAE@NHHHPAX@Z ENDP				; Telegram::Telegram
_TEXT	ENDS
; Function compile flags: /Odtp /RTCsu
; File c:\program files (x86)\microsoft visual studio 14.0\vc\include\xlocale
;	COMDAT ??0id@locale@std@@QAE@I@Z
_TEXT	SEGMENT
_this$ = -4						; size = 4
__Val$ = 8						; size = 4
??0id@locale@std@@QAE@I@Z PROC				; std::locale::id::id, COMDAT
; _this$ = ecx

; 110  : 			{	// construct with specified stamp value

	push	ebp
	mov	ebp, esp
	push	ecx
	mov	DWORD PTR [ebp-4], -858993460		; ccccccccH
	mov	DWORD PTR _this$[ebp], ecx

; 109  : 			: _Id(_Val)

	mov	eax, DWORD PTR _this$[ebp]
	mov	ecx, DWORD PTR __Val$[ebp]
	mov	DWORD PTR [eax], ecx

; 111  : 			}

	mov	eax, DWORD PTR _this$[ebp]
	mov	esp, ebp
	pop	ebp
	ret	4
??0id@locale@std@@QAE@I@Z ENDP				; std::locale::id::id
_TEXT	ENDS
; Function compile flags: /Odtp /RTCsu
; File c:\program files (x86)\microsoft visual studio 14.0\vc\include\xmemory0
;	COMDAT ?_Deallocate@std@@YAXPAXII@Z
_TEXT	SEGMENT
__Ptr_container$1 = -16					; size = 4
__Ptr_ptr$2 = -12					; size = 4
__Ptr_user$3 = -8					; size = 4
__User_size$ = -4					; size = 4
__Ptr$ = 8						; size = 4
__Count$ = 12						; size = 4
__Sz$ = 16						; size = 4
?_Deallocate@std@@YAXPAXII@Z PROC			; std::_Deallocate, COMDAT

; 92   : 	{	// deallocate storage for _Count elements of size _Sz

	push	ebp
	mov	ebp, esp
	sub	esp, 16					; 00000010H
	mov	eax, -858993460				; ccccccccH
	mov	DWORD PTR [ebp-16], eax
	mov	DWORD PTR [ebp-12], eax
	mov	DWORD PTR [ebp-8], eax
	mov	DWORD PTR [ebp-4], eax

; 93   :  #if defined(_M_IX86) || defined(_M_X64)
; 94   : 	_SCL_SECURE_ALWAYS_VALIDATE(_Count <= (size_t)(-1) / _Sz);

	or	eax, -1
	xor	edx, edx
	div	DWORD PTR __Sz$[ebp]
	cmp	DWORD PTR __Count$[ebp], eax
	jbe	SHORT $LN2@Deallocate
	mov	eax, OFFSET ??_C@_0BN@HMCJOMKN@_Count?5?$DM?$DN?5?$CIsize_t?$CJ?$CI?91?$CJ?5?1?5_Sz?$AA@
	test	eax, eax
	je	SHORT $LN10@Deallocate
	xor	ecx, ecx
	jne	SHORT $LN11@Deallocate
$LN10@Deallocate:
	push	OFFSET ??_C@_1EI@MLOBABC@?$AA?$CC?$AA_?$AAC?$AAo?$AAu?$AAn?$AAt?$AA?5?$AA?$DM?$AA?$DN?$AA?5?$AA?$CI?$AAs?$AAi?$AAz?$AAe?$AA_?$AAt?$AA?$CJ?$AA?$CI?$AA?9?$AA1?$AA?$CJ?$AA?5?$AA?1?$AA?5?$AA_?$AAS?$AAz?$AA?$CC?$AA?5?$AA?$CG@
	push	OFFSET ??_C@_17CNPHIMPH@?$AA?$CF?$AAl?$AAs?$AA?$AA@
	push	0
	push	94					; 0000005eH
	push	OFFSET ??_C@_1JA@HEEMAOGC@?$AAC?$AA?3?$AA?2?$AAP?$AAr?$AAo?$AAg?$AAr?$AAa?$AAm?$AA?5?$AAF?$AAi?$AAl?$AAe?$AAs?$AA?5?$AA?$CI?$AAx?$AA8?$AA6?$AA?$CJ?$AA?2?$AAM?$AAi?$AAc?$AAr?$AAo?$AAs?$AAo?$AAf?$AAt@
	push	2
	call	__CrtDbgReportW
	add	esp, 24					; 00000018H
	cmp	eax, 1
	jne	SHORT $LN11@Deallocate
	int	3
$LN11@Deallocate:
	push	0
	push	94					; 0000005eH
	push	OFFSET ??_C@_1JA@HEEMAOGC@?$AAC?$AA?3?$AA?2?$AAP?$AAr?$AAo?$AAg?$AAr?$AAa?$AAm?$AA?5?$AAF?$AAi?$AAl?$AAe?$AAs?$AA?5?$AA?$CI?$AAx?$AA8?$AA6?$AA?$CJ?$AA?2?$AAM?$AAi?$AAc?$AAr?$AAo?$AAs?$AAo?$AAf?$AAt@
	push	OFFSET ??_C@_1CC@LOFJFFDB@?$AAs?$AAt?$AAd?$AA?3?$AA?3?$AA_?$AAD?$AAe?$AAa?$AAl?$AAl?$AAo?$AAc?$AAa?$AAt?$AAe?$AA?$AA@
	push	OFFSET ??_C@_1CG@JNLFBNGN@?$AA?$CC?$AAi?$AAn?$AAv?$AAa?$AAl?$AAi?$AAd?$AA?5?$AAa?$AAr?$AAg?$AAu?$AAm?$AAe?$AAn?$AAt?$AA?$CC?$AA?$AA@
	call	__invalid_parameter
	add	esp, 20					; 00000014H
$LN2@Deallocate:

; 95   : 	const size_t _User_size = _Count * _Sz;

	mov	eax, DWORD PTR __Count$[ebp]
	imul	eax, DWORD PTR __Sz$[ebp]
	mov	DWORD PTR __User_size$[ebp], eax

; 96   : 	if (_BIG_ALLOCATION_THRESHOLD <= _User_size)

	cmp	DWORD PTR __User_size$[ebp], 4096	; 00001000H
	jb	$LN3@Deallocate

; 97   : 		{	// deallocate large block
; 98   : 		const uintptr_t _Ptr_user = reinterpret_cast<uintptr_t>(_Ptr);

	mov	ecx, DWORD PTR __Ptr$[ebp]
	mov	DWORD PTR __Ptr_user$3[ebp], ecx

; 99   : 		_SCL_SECURE_ALWAYS_VALIDATE(

	mov	edx, DWORD PTR __Ptr_user$3[ebp]
	and	edx, 31					; 0000001fH
	je	SHORT $LN4@Deallocate
	mov	eax, OFFSET ??_C@_0DD@GBGGGKGG@?$CI_Ptr_user?5?$CG?5?$CI_BIG_ALLOCATION_AL@
	test	eax, eax
	je	SHORT $LN12@Deallocate
	xor	ecx, ecx
	jne	SHORT $LN13@Deallocate
$LN12@Deallocate:
	push	OFFSET ??_C@_1HE@CDMBFOKC@?$AA?$CC?$AA?$CI?$AA_?$AAP?$AAt?$AAr?$AA_?$AAu?$AAs?$AAe?$AAr?$AA?5?$AA?$CG?$AA?5?$AA?$CI?$AA_?$AAB?$AAI?$AAG?$AA_?$AAA?$AAL?$AAL?$AAO?$AAC?$AAA?$AAT?$AAI?$AAO?$AAN?$AA_?$AAA@
	push	OFFSET ??_C@_17CNPHIMPH@?$AA?$CF?$AAl?$AAs?$AA?$AA@
	push	0
	push	100					; 00000064H
	push	OFFSET ??_C@_1JA@HEEMAOGC@?$AAC?$AA?3?$AA?2?$AAP?$AAr?$AAo?$AAg?$AAr?$AAa?$AAm?$AA?5?$AAF?$AAi?$AAl?$AAe?$AAs?$AA?5?$AA?$CI?$AAx?$AA8?$AA6?$AA?$CJ?$AA?2?$AAM?$AAi?$AAc?$AAr?$AAo?$AAs?$AAo?$AAf?$AAt@
	push	2
	call	__CrtDbgReportW
	add	esp, 24					; 00000018H
	cmp	eax, 1
	jne	SHORT $LN13@Deallocate
	int	3
$LN13@Deallocate:
	push	0
	push	100					; 00000064H
	push	OFFSET ??_C@_1JA@HEEMAOGC@?$AAC?$AA?3?$AA?2?$AAP?$AAr?$AAo?$AAg?$AAr?$AAa?$AAm?$AA?5?$AAF?$AAi?$AAl?$AAe?$AAs?$AA?5?$AA?$CI?$AAx?$AA8?$AA6?$AA?$CJ?$AA?2?$AAM?$AAi?$AAc?$AAr?$AAo?$AAs?$AAo?$AAf?$AAt@
	push	OFFSET ??_C@_1CC@LOFJFFDB@?$AAs?$AAt?$AAd?$AA?3?$AA?3?$AA_?$AAD?$AAe?$AAa?$AAl?$AAl?$AAo?$AAc?$AAa?$AAt?$AAe?$AA?$AA@
	push	OFFSET ??_C@_1CG@JNLFBNGN@?$AA?$CC?$AAi?$AAn?$AAv?$AAa?$AAl?$AAi?$AAd?$AA?5?$AAa?$AAr?$AAg?$AAu?$AAm?$AAe?$AAn?$AAt?$AA?$CC?$AA?$AA@
	call	__invalid_parameter
	add	esp, 20					; 00000014H
$LN4@Deallocate:

; 100  : 			(_Ptr_user & (_BIG_ALLOCATION_ALIGNMENT - 1)) == 0);
; 101  : 		const uintptr_t _Ptr_ptr = _Ptr_user - sizeof(void *);

	mov	eax, DWORD PTR __Ptr_user$3[ebp]
	sub	eax, 4
	mov	DWORD PTR __Ptr_ptr$2[ebp], eax

; 102  : 		const uintptr_t _Ptr_container =
; 103  : 			*reinterpret_cast<uintptr_t *>(_Ptr_ptr);

	mov	ecx, DWORD PTR __Ptr_ptr$2[ebp]
	mov	edx, DWORD PTR [ecx]
	mov	DWORD PTR __Ptr_container$1[ebp], edx

; 104  : 
; 105  :  #ifdef _DEBUG
; 106  : 		// If the following asserts, it likely means that we are performing
; 107  : 		// an aligned delete on memory coming from an unaligned allocation.
; 108  : 		_SCL_SECURE_ALWAYS_VALIDATE(

	mov	eax, 4
	imul	ecx, eax, -1
	mov	edx, DWORD PTR __Ptr_ptr$2[ebp]
	cmp	DWORD PTR [edx+ecx], -84215046		; fafafafaH
	je	SHORT $LN5@Deallocate
	mov	eax, OFFSET ??_C@_0EI@NOJHEJCJ@reinterpret_cast?$DMuintptr_t?5?$CK?$DO?$CI_P@
	test	eax, eax
	je	SHORT $LN14@Deallocate
	xor	ecx, ecx
	jne	SHORT $LN15@Deallocate
$LN14@Deallocate:
	push	OFFSET ??_C@_1JO@EKLKIEHP@?$AA?$CC?$AAr?$AAe?$AAi?$AAn?$AAt?$AAe?$AAr?$AAp?$AAr?$AAe?$AAt?$AA_?$AAc?$AAa?$AAs?$AAt?$AA?$DM?$AAu?$AAi?$AAn?$AAt?$AAp?$AAt?$AAr?$AA_?$AAt?$AA?5?$AA?$CK?$AA?$DO?$AA?$CI?$AA_@
	push	OFFSET ??_C@_17CNPHIMPH@?$AA?$CF?$AAl?$AAs?$AA?$AA@
	push	0
	push	110					; 0000006eH
	push	OFFSET ??_C@_1JA@HEEMAOGC@?$AAC?$AA?3?$AA?2?$AAP?$AAr?$AAo?$AAg?$AAr?$AAa?$AAm?$AA?5?$AAF?$AAi?$AAl?$AAe?$AAs?$AA?5?$AA?$CI?$AAx?$AA8?$AA6?$AA?$CJ?$AA?2?$AAM?$AAi?$AAc?$AAr?$AAo?$AAs?$AAo?$AAf?$AAt@
	push	2
	call	__CrtDbgReportW
	add	esp, 24					; 00000018H
	cmp	eax, 1
	jne	SHORT $LN15@Deallocate
	int	3
$LN15@Deallocate:
	push	0
	push	110					; 0000006eH
	push	OFFSET ??_C@_1JA@HEEMAOGC@?$AAC?$AA?3?$AA?2?$AAP?$AAr?$AAo?$AAg?$AAr?$AAa?$AAm?$AA?5?$AAF?$AAi?$AAl?$AAe?$AAs?$AA?5?$AA?$CI?$AAx?$AA8?$AA6?$AA?$CJ?$AA?2?$AAM?$AAi?$AAc?$AAr?$AAo?$AAs?$AAo?$AAf?$AAt@
	push	OFFSET ??_C@_1CC@LOFJFFDB@?$AAs?$AAt?$AAd?$AA?3?$AA?3?$AA_?$AAD?$AAe?$AAa?$AAl?$AAl?$AAo?$AAc?$AAa?$AAt?$AAe?$AA?$AA@
	push	OFFSET ??_C@_1CG@JNLFBNGN@?$AA?$CC?$AAi?$AAn?$AAv?$AAa?$AAl?$AAi?$AAd?$AA?5?$AAa?$AAr?$AAg?$AAu?$AAm?$AAe?$AAn?$AAt?$AA?$CC?$AA?$AA@
	call	__invalid_parameter
	add	esp, 20					; 00000014H
$LN5@Deallocate:

; 109  : 			reinterpret_cast<uintptr_t *>(_Ptr_ptr)[-1] ==
; 110  : 				_BIG_ALLOCATION_SENTINEL);
; 111  :  #endif /* _DEBUG */
; 112  : 
; 113  : 		// Extra paranoia on aligned allocation/deallocation
; 114  : 		_SCL_SECURE_ALWAYS_VALIDATE(_Ptr_container < _Ptr_user);

	mov	eax, DWORD PTR __Ptr_container$1[ebp]
	cmp	eax, DWORD PTR __Ptr_user$3[ebp]
	jb	SHORT $LN6@Deallocate
	mov	ecx, OFFSET ??_C@_0BL@OCKMEJON@_Ptr_container?5?$DM?5_Ptr_user?$AA@
	test	ecx, ecx
	je	SHORT $LN16@Deallocate
	xor	edx, edx
	jne	SHORT $LN17@Deallocate
$LN16@Deallocate:
	push	OFFSET ??_C@_1EE@PDHAHDDC@?$AA?$CC?$AA_?$AAP?$AAt?$AAr?$AA_?$AAc?$AAo?$AAn?$AAt?$AAa?$AAi?$AAn?$AAe?$AAr?$AA?5?$AA?$DM?$AA?5?$AA_?$AAP?$AAt?$AAr?$AA_?$AAu?$AAs?$AAe?$AAr?$AA?$CC?$AA?5?$AA?$CG?$AA?$CG?$AA?5@
	push	OFFSET ??_C@_17CNPHIMPH@?$AA?$CF?$AAl?$AAs?$AA?$AA@
	push	0
	push	114					; 00000072H
	push	OFFSET ??_C@_1JA@HEEMAOGC@?$AAC?$AA?3?$AA?2?$AAP?$AAr?$AAo?$AAg?$AAr?$AAa?$AAm?$AA?5?$AAF?$AAi?$AAl?$AAe?$AAs?$AA?5?$AA?$CI?$AAx?$AA8?$AA6?$AA?$CJ?$AA?2?$AAM?$AAi?$AAc?$AAr?$AAo?$AAs?$AAo?$AAf?$AAt@
	push	2
	call	__CrtDbgReportW
	add	esp, 24					; 00000018H
	cmp	eax, 1
	jne	SHORT $LN17@Deallocate
	int	3
$LN17@Deallocate:
	push	0
	push	114					; 00000072H
	push	OFFSET ??_C@_1JA@HEEMAOGC@?$AAC?$AA?3?$AA?2?$AAP?$AAr?$AAo?$AAg?$AAr?$AAa?$AAm?$AA?5?$AAF?$AAi?$AAl?$AAe?$AAs?$AA?5?$AA?$CI?$AAx?$AA8?$AA6?$AA?$CJ?$AA?2?$AAM?$AAi?$AAc?$AAr?$AAo?$AAs?$AAo?$AAf?$AAt@
	push	OFFSET ??_C@_1CC@LOFJFFDB@?$AAs?$AAt?$AAd?$AA?3?$AA?3?$AA_?$AAD?$AAe?$AAa?$AAl?$AAl?$AAo?$AAc?$AAa?$AAt?$AAe?$AA?$AA@
	push	OFFSET ??_C@_1CG@JNLFBNGN@?$AA?$CC?$AAi?$AAn?$AAv?$AAa?$AAl?$AAi?$AAd?$AA?5?$AAa?$AAr?$AAg?$AAu?$AAm?$AAe?$AAn?$AAt?$AA?$CC?$AA?$AA@
	call	__invalid_parameter
	add	esp, 20					; 00000014H
$LN6@Deallocate:

; 115  : 
; 116  :  #ifdef _DEBUG
; 117  : 		_SCL_SECURE_ALWAYS_VALIDATE(2 * sizeof(void *)

	mov	ecx, DWORD PTR __Ptr_user$3[ebp]
	sub	ecx, DWORD PTR __Ptr_container$1[ebp]
	cmp	ecx, 8
	jae	SHORT $LN7@Deallocate
	mov	edx, OFFSET ??_C@_0DB@GLFJLNCE@2?5?$CK?5sizeof?$CIvoid?5?$CK?$CJ?5?$DM?$DN?5_Ptr_user?5@
	test	edx, edx
	je	SHORT $LN18@Deallocate
	xor	eax, eax
	jne	SHORT $LN19@Deallocate
$LN18@Deallocate:
	push	OFFSET ??_C@_1HA@NAPGMHAO@?$AA?$CC?$AA2?$AA?5?$AA?$CK?$AA?5?$AAs?$AAi?$AAz?$AAe?$AAo?$AAf?$AA?$CI?$AAv?$AAo?$AAi?$AAd?$AA?5?$AA?$CK?$AA?$CJ?$AA?5?$AA?$DM?$AA?$DN?$AA?5?$AA_?$AAP?$AAt?$AAr?$AA_?$AAu?$AAs?$AAe?$AAr@
	push	OFFSET ??_C@_17CNPHIMPH@?$AA?$CF?$AAl?$AAs?$AA?$AA@
	push	0
	push	118					; 00000076H
	push	OFFSET ??_C@_1JA@HEEMAOGC@?$AAC?$AA?3?$AA?2?$AAP?$AAr?$AAo?$AAg?$AAr?$AAa?$AAm?$AA?5?$AAF?$AAi?$AAl?$AAe?$AAs?$AA?5?$AA?$CI?$AAx?$AA8?$AA6?$AA?$CJ?$AA?2?$AAM?$AAi?$AAc?$AAr?$AAo?$AAs?$AAo?$AAf?$AAt@
	push	2
	call	__CrtDbgReportW
	add	esp, 24					; 00000018H
	cmp	eax, 1
	jne	SHORT $LN19@Deallocate
	int	3
$LN19@Deallocate:
	push	0
	push	118					; 00000076H
	push	OFFSET ??_C@_1JA@HEEMAOGC@?$AAC?$AA?3?$AA?2?$AAP?$AAr?$AAo?$AAg?$AAr?$AAa?$AAm?$AA?5?$AAF?$AAi?$AAl?$AAe?$AAs?$AA?5?$AA?$CI?$AAx?$AA8?$AA6?$AA?$CJ?$AA?2?$AAM?$AAi?$AAc?$AAr?$AAo?$AAs?$AAo?$AAf?$AAt@
	push	OFFSET ??_C@_1CC@LOFJFFDB@?$AAs?$AAt?$AAd?$AA?3?$AA?3?$AA_?$AAD?$AAe?$AAa?$AAl?$AAl?$AAo?$AAc?$AAa?$AAt?$AAe?$AA?$AA@
	push	OFFSET ??_C@_1CG@JNLFBNGN@?$AA?$CC?$AAi?$AAn?$AAv?$AAa?$AAl?$AAi?$AAd?$AA?5?$AAa?$AAr?$AAg?$AAu?$AAm?$AAe?$AAn?$AAt?$AA?$CC?$AA?$AA@
	call	__invalid_parameter
	add	esp, 20					; 00000014H
$LN7@Deallocate:

; 118  : 			<= _Ptr_user - _Ptr_container);
; 119  : 
; 120  :  #else /* _DEBUG */
; 121  : 		_SCL_SECURE_ALWAYS_VALIDATE(sizeof(void *)
; 122  : 			<= _Ptr_user - _Ptr_container);
; 123  :  #endif /* _DEBUG */
; 124  : 
; 125  : 		_SCL_SECURE_ALWAYS_VALIDATE(_Ptr_user - _Ptr_container

	mov	edx, DWORD PTR __Ptr_user$3[ebp]
	sub	edx, DWORD PTR __Ptr_container$1[ebp]
	cmp	edx, 39					; 00000027H
	jbe	SHORT $LN8@Deallocate
	mov	eax, OFFSET ??_C@_0CN@BLHJCAL@_Ptr_user?5?9?5_Ptr_container?5?$DM?$DN?5_N@
	test	eax, eax
	je	SHORT $LN20@Deallocate
	xor	ecx, ecx
	jne	SHORT $LN21@Deallocate
$LN20@Deallocate:
	push	OFFSET ??_C@_1GI@DHJGPFNI@?$AA?$CC?$AA_?$AAP?$AAt?$AAr?$AA_?$AAu?$AAs?$AAe?$AAr?$AA?5?$AA?9?$AA?5?$AA_?$AAP?$AAt?$AAr?$AA_?$AAc?$AAo?$AAn?$AAt?$AAa?$AAi?$AAn?$AAe?$AAr?$AA?5?$AA?$DM?$AA?$DN?$AA?5?$AA_@
	push	OFFSET ??_C@_17CNPHIMPH@?$AA?$CF?$AAl?$AAs?$AA?$AA@
	push	0
	push	126					; 0000007eH
	push	OFFSET ??_C@_1JA@HEEMAOGC@?$AAC?$AA?3?$AA?2?$AAP?$AAr?$AAo?$AAg?$AAr?$AAa?$AAm?$AA?5?$AAF?$AAi?$AAl?$AAe?$AAs?$AA?5?$AA?$CI?$AAx?$AA8?$AA6?$AA?$CJ?$AA?2?$AAM?$AAi?$AAc?$AAr?$AAo?$AAs?$AAo?$AAf?$AAt@
	push	2
	call	__CrtDbgReportW
	add	esp, 24					; 00000018H
	cmp	eax, 1
	jne	SHORT $LN21@Deallocate
	int	3
$LN21@Deallocate:
	push	0
	push	126					; 0000007eH
	push	OFFSET ??_C@_1JA@HEEMAOGC@?$AAC?$AA?3?$AA?2?$AAP?$AAr?$AAo?$AAg?$AAr?$AAa?$AAm?$AA?5?$AAF?$AAi?$AAl?$AAe?$AAs?$AA?5?$AA?$CI?$AAx?$AA8?$AA6?$AA?$CJ?$AA?2?$AAM?$AAi?$AAc?$AAr?$AAo?$AAs?$AAo?$AAf?$AAt@
	push	OFFSET ??_C@_1CC@LOFJFFDB@?$AAs?$AAt?$AAd?$AA?3?$AA?3?$AA_?$AAD?$AAe?$AAa?$AAl?$AAl?$AAo?$AAc?$AAa?$AAt?$AAe?$AA?$AA@
	push	OFFSET ??_C@_1CG@JNLFBNGN@?$AA?$CC?$AAi?$AAn?$AAv?$AAa?$AAl?$AAi?$AAd?$AA?5?$AAa?$AAr?$AAg?$AAu?$AAm?$AAe?$AAn?$AAt?$AA?$CC?$AA?$AA@
	call	__invalid_parameter
	add	esp, 20					; 00000014H
$LN8@Deallocate:

; 126  : 			<= _NON_USER_SIZE);
; 127  : 
; 128  : 		_Ptr = reinterpret_cast<void *>(_Ptr_container);

	mov	eax, DWORD PTR __Ptr_container$1[ebp]
	mov	DWORD PTR __Ptr$[ebp], eax
$LN3@Deallocate:

; 129  : 		}
; 130  :  #endif /* defined(_M_IX86) || defined(_M_X64) */
; 131  : 
; 132  : 	::operator delete(_Ptr);

	mov	ecx, DWORD PTR __Ptr$[ebp]
	push	ecx
	call	??3@YAXPAX@Z				; operator delete
	add	esp, 4

; 133  : 	}

	add	esp, 16					; 00000010H
	cmp	ebp, esp
	call	__RTC_CheckEsp
	mov	esp, ebp
	pop	ebp
	ret	0
?_Deallocate@std@@YAXPAXII@Z ENDP			; std::_Deallocate
_TEXT	ENDS
; Function compile flags: /Odtp /RTCsu
; File c:\program files (x86)\microsoft visual studio 14.0\vc\include\xmemory0
;	COMDAT ?_Allocate@std@@YAPAXII_N@Z
_TEXT	SEGMENT
__Ptr_container$1 = -16					; size = 4
__Block_size$2 = -12					; size = 4
__User_size$ = -8					; size = 4
__Ptr$ = -4						; size = 4
__Count$ = 8						; size = 4
__Sz$ = 12						; size = 4
__Try_aligned_allocation$ = 16				; size = 1
?_Allocate@std@@YAPAXII_N@Z PROC			; std::_Allocate, COMDAT

; 48   : 	{	// allocate storage for _Count elements of size _Sz

	push	ebp
	mov	ebp, esp
	sub	esp, 16					; 00000010H
	mov	eax, -858993460				; ccccccccH
	mov	DWORD PTR [ebp-16], eax
	mov	DWORD PTR [ebp-12], eax
	mov	DWORD PTR [ebp-8], eax
	mov	DWORD PTR [ebp-4], eax

; 49   : 	void *_Ptr = 0;

	mov	DWORD PTR __Ptr$[ebp], 0

; 50   : 
; 51   : 	if (_Count == 0)

	cmp	DWORD PTR __Count$[ebp], 0
	jne	SHORT $LN2@Allocate

; 52   : 		return (_Ptr);

	mov	eax, DWORD PTR __Ptr$[ebp]
	jmp	$LN9@Allocate
$LN2@Allocate:

; 53   : 
; 54   : 	// check overflow of multiply
; 55   : 	if ((size_t)(-1) / _Sz < _Count)

	or	eax, -1
	xor	edx, edx
	div	DWORD PTR __Sz$[ebp]
	cmp	eax, DWORD PTR __Count$[ebp]
	jae	SHORT $LN3@Allocate

; 56   : 		_Xbad_alloc();	// report no memory

	call	?_Xbad_alloc@std@@YAXXZ			; std::_Xbad_alloc
$LN3@Allocate:

; 57   : 	const size_t _User_size = _Count * _Sz;

	mov	eax, DWORD PTR __Count$[ebp]
	imul	eax, DWORD PTR __Sz$[ebp]
	mov	DWORD PTR __User_size$[ebp], eax

; 58   : 
; 59   :  #if defined(_M_IX86) || defined(_M_X64)
; 60   : 	if (_Try_aligned_allocation
; 61   : 		&& _BIG_ALLOCATION_THRESHOLD <= _User_size)

	movzx	ecx, BYTE PTR __Try_aligned_allocation$[ebp]
	test	ecx, ecx
	je	$LN4@Allocate
	cmp	DWORD PTR __User_size$[ebp], 4096	; 00001000H
	jb	$LN4@Allocate

; 62   : 		{	// allocate large block
; 63   : 		static_assert(sizeof (void *) < _BIG_ALLOCATION_ALIGNMENT,
; 64   : 			"Big allocations should at least match vector register size");
; 65   : 		const size_t _Block_size = _NON_USER_SIZE + _User_size;

	mov	edx, DWORD PTR __User_size$[ebp]
	add	edx, 39					; 00000027H
	mov	DWORD PTR __Block_size$2[ebp], edx

; 66   : 		if (_Block_size <= _User_size)

	mov	eax, DWORD PTR __Block_size$2[ebp]
	cmp	eax, DWORD PTR __User_size$[ebp]
	ja	SHORT $LN6@Allocate

; 67   : 			_Xbad_alloc();	// report no memory

	call	?_Xbad_alloc@std@@YAXXZ			; std::_Xbad_alloc
$LN6@Allocate:

; 68   : 		const uintptr_t _Ptr_container =
; 69   : 			reinterpret_cast<uintptr_t>(::operator new(_Block_size));

	mov	ecx, DWORD PTR __Block_size$2[ebp]
	push	ecx
	call	??2@YAPAXI@Z				; operator new
	add	esp, 4
	mov	DWORD PTR __Ptr_container$1[ebp], eax

; 70   : 		_SCL_SECURE_ALWAYS_VALIDATE(_Ptr_container != 0);

	cmp	DWORD PTR __Ptr_container$1[ebp], 0
	jne	SHORT $LN7@Allocate
	mov	edx, OFFSET ??_C@_0BE@LMNLACIC@_Ptr_container?5?$CB?$DN?50?$AA@
	test	edx, edx
	je	SHORT $LN10@Allocate
	xor	eax, eax
	jne	SHORT $LN11@Allocate
$LN10@Allocate:
	push	OFFSET ??_C@_1DG@HGDKEBPG@?$AA?$CC?$AA_?$AAP?$AAt?$AAr?$AA_?$AAc?$AAo?$AAn?$AAt?$AAa?$AAi?$AAn?$AAe?$AAr?$AA?5?$AA?$CB?$AA?$DN?$AA?5?$AA0?$AA?$CC?$AA?5?$AA?$CG?$AA?$CG?$AA?5?$AA0?$AA?$AA@
	push	OFFSET ??_C@_17CNPHIMPH@?$AA?$CF?$AAl?$AAs?$AA?$AA@
	push	0
	push	70					; 00000046H
	push	OFFSET ??_C@_1JA@HEEMAOGC@?$AAC?$AA?3?$AA?2?$AAP?$AAr?$AAo?$AAg?$AAr?$AAa?$AAm?$AA?5?$AAF?$AAi?$AAl?$AAe?$AAs?$AA?5?$AA?$CI?$AAx?$AA8?$AA6?$AA?$CJ?$AA?2?$AAM?$AAi?$AAc?$AAr?$AAo?$AAs?$AAo?$AAf?$AAt@
	push	2
	call	__CrtDbgReportW
	add	esp, 24					; 00000018H
	cmp	eax, 1
	jne	SHORT $LN11@Allocate
	int	3
$LN11@Allocate:
	push	0
	push	70					; 00000046H
	push	OFFSET ??_C@_1JA@HEEMAOGC@?$AAC?$AA?3?$AA?2?$AAP?$AAr?$AAo?$AAg?$AAr?$AAa?$AAm?$AA?5?$AAF?$AAi?$AAl?$AAe?$AAs?$AA?5?$AA?$CI?$AAx?$AA8?$AA6?$AA?$CJ?$AA?2?$AAM?$AAi?$AAc?$AAr?$AAo?$AAs?$AAo?$AAf?$AAt@
	push	OFFSET ??_C@_1BO@NKFMJPA@?$AAs?$AAt?$AAd?$AA?3?$AA?3?$AA_?$AAA?$AAl?$AAl?$AAo?$AAc?$AAa?$AAt?$AAe?$AA?$AA@
	push	OFFSET ??_C@_1CG@JNLFBNGN@?$AA?$CC?$AAi?$AAn?$AAv?$AAa?$AAl?$AAi?$AAd?$AA?5?$AAa?$AAr?$AAg?$AAu?$AAm?$AAe?$AAn?$AAt?$AA?$CC?$AA?$AA@
	call	__invalid_parameter
	add	esp, 20					; 00000014H
$LN7@Allocate:

; 71   : 		_Ptr = reinterpret_cast<void *>((_Ptr_container + _NON_USER_SIZE)

	mov	edx, DWORD PTR __Ptr_container$1[ebp]
	add	edx, 39					; 00000027H
	and	edx, -32				; ffffffe0H
	mov	DWORD PTR __Ptr$[ebp], edx

; 72   : 			& ~(_BIG_ALLOCATION_ALIGNMENT - 1));
; 73   : 		static_cast<uintptr_t *>(_Ptr)[-1] = _Ptr_container;

	mov	eax, 4
	imul	ecx, eax, -1
	mov	edx, DWORD PTR __Ptr$[ebp]
	mov	eax, DWORD PTR __Ptr_container$1[ebp]
	mov	DWORD PTR [edx+ecx], eax

; 74   : 
; 75   :  #ifdef _DEBUG
; 76   : 		static_cast<uintptr_t *>(_Ptr)[-2] = _BIG_ALLOCATION_SENTINEL;

	mov	ecx, 4
	imul	edx, ecx, -2
	mov	eax, DWORD PTR __Ptr$[ebp]
	mov	DWORD PTR [eax+edx], -84215046		; fafafafaH

; 77   :  #endif /* _DEBUG */
; 78   : 		}
; 79   : 	else

	jmp	SHORT $LN5@Allocate
$LN4@Allocate:

; 80   :  #endif /* defined(_M_IX86) || defined(_M_X64) */
; 81   : 
; 82   : 		{	// allocate normal block
; 83   : 		_Ptr = ::operator new(_User_size);

	mov	ecx, DWORD PTR __User_size$[ebp]
	push	ecx
	call	??2@YAPAXI@Z				; operator new
	add	esp, 4
	mov	DWORD PTR __Ptr$[ebp], eax

; 84   : 		_SCL_SECURE_ALWAYS_VALIDATE(_Ptr != 0);

	cmp	DWORD PTR __Ptr$[ebp], 0
	jne	SHORT $LN5@Allocate
	mov	edx, OFFSET ??_C@_09GLJCAGLP@_Ptr?5?$CB?$DN?50?$AA@
	test	edx, edx
	je	SHORT $LN12@Allocate
	xor	eax, eax
	jne	SHORT $LN13@Allocate
$LN12@Allocate:
	push	OFFSET ??_C@_1CC@GKJLLHIM@?$AA?$CC?$AA_?$AAP?$AAt?$AAr?$AA?5?$AA?$CB?$AA?$DN?$AA?5?$AA0?$AA?$CC?$AA?5?$AA?$CG?$AA?$CG?$AA?5?$AA0?$AA?$AA@
	push	OFFSET ??_C@_17CNPHIMPH@?$AA?$CF?$AAl?$AAs?$AA?$AA@
	push	0
	push	84					; 00000054H
	push	OFFSET ??_C@_1JA@HEEMAOGC@?$AAC?$AA?3?$AA?2?$AAP?$AAr?$AAo?$AAg?$AAr?$AAa?$AAm?$AA?5?$AAF?$AAi?$AAl?$AAe?$AAs?$AA?5?$AA?$CI?$AAx?$AA8?$AA6?$AA?$CJ?$AA?2?$AAM?$AAi?$AAc?$AAr?$AAo?$AAs?$AAo?$AAf?$AAt@
	push	2
	call	__CrtDbgReportW
	add	esp, 24					; 00000018H
	cmp	eax, 1
	jne	SHORT $LN13@Allocate
	int	3
$LN13@Allocate:
	push	0
	push	84					; 00000054H
	push	OFFSET ??_C@_1JA@HEEMAOGC@?$AAC?$AA?3?$AA?2?$AAP?$AAr?$AAo?$AAg?$AAr?$AAa?$AAm?$AA?5?$AAF?$AAi?$AAl?$AAe?$AAs?$AA?5?$AA?$CI?$AAx?$AA8?$AA6?$AA?$CJ?$AA?2?$AAM?$AAi?$AAc?$AAr?$AAo?$AAs?$AAo?$AAf?$AAt@
	push	OFFSET ??_C@_1BO@NKFMJPA@?$AAs?$AAt?$AAd?$AA?3?$AA?3?$AA_?$AAA?$AAl?$AAl?$AAo?$AAc?$AAa?$AAt?$AAe?$AA?$AA@
	push	OFFSET ??_C@_1CG@JNLFBNGN@?$AA?$CC?$AAi?$AAn?$AAv?$AAa?$AAl?$AAi?$AAd?$AA?5?$AAa?$AAr?$AAg?$AAu?$AAm?$AAe?$AAn?$AAt?$AA?$CC?$AA?$AA@
	call	__invalid_parameter
	add	esp, 20					; 00000014H
$LN5@Allocate:

; 85   : 		}
; 86   : 	return (_Ptr);

	mov	eax, DWORD PTR __Ptr$[ebp]
$LN9@Allocate:

; 87   : 	}

	add	esp, 16					; 00000010H
	cmp	ebp, esp
	call	__RTC_CheckEsp
	mov	esp, ebp
	pop	ebp
	ret	0
?_Allocate@std@@YAPAXII_N@Z ENDP			; std::_Allocate
_TEXT	ENDS
; Function compile flags: /Odtp /RTCsu
; File c:\program files (x86)\microsoft visual studio 14.0\vc\include\xutility
;	COMDAT ?_Orphan_me@_Iterator_base12@std@@QAEXXZ
_TEXT	SEGMENT
__Pnext$1 = -8						; size = 4
_this$ = -4						; size = 4
?_Orphan_me@_Iterator_base12@std@@QAEXXZ PROC		; std::_Iterator_base12::_Orphan_me, COMDAT
; _this$ = ecx

; 193  : 		{	// cut ties with parent

	push	ebp
	mov	ebp, esp
	sub	esp, 8
	mov	DWORD PTR [ebp-8], -858993460		; ccccccccH
	mov	DWORD PTR [ebp-4], -858993460		; ccccccccH
	mov	DWORD PTR _this$[ebp], ecx

; 194  :  #if _ITERATOR_DEBUG_LEVEL == 2
; 195  : 		if (_Myproxy != 0)

	mov	eax, DWORD PTR _this$[ebp]
	cmp	DWORD PTR [eax], 0
	je	SHORT $LN1@Orphan_me

; 196  : 			{	// adopted, remove self from list
; 197  : 			_Iterator_base12 **_Pnext = &_Myproxy->_Myfirstiter;

	mov	ecx, DWORD PTR _this$[ebp]
	mov	edx, DWORD PTR [ecx]
	add	edx, 4
	mov	DWORD PTR __Pnext$1[ebp], edx
$LN2@Orphan_me:

; 198  : 			while (*_Pnext != 0 && *_Pnext != this)

	mov	eax, DWORD PTR __Pnext$1[ebp]
	cmp	DWORD PTR [eax], 0
	je	SHORT $LN3@Orphan_me
	mov	ecx, DWORD PTR __Pnext$1[ebp]
	mov	edx, DWORD PTR [ecx]
	cmp	edx, DWORD PTR _this$[ebp]
	je	SHORT $LN3@Orphan_me

; 199  : 				_Pnext = &(*_Pnext)->_Mynextiter;

	mov	eax, DWORD PTR __Pnext$1[ebp]
	mov	ecx, DWORD PTR [eax]
	add	ecx, 4
	mov	DWORD PTR __Pnext$1[ebp], ecx
	jmp	SHORT $LN2@Orphan_me
$LN3@Orphan_me:

; 200  : 
; 201  : 			if (*_Pnext == 0)

	mov	edx, DWORD PTR __Pnext$1[ebp]
	cmp	DWORD PTR [edx], 0
	jne	SHORT $LN5@Orphan_me

; 202  : 				_DEBUG_ERROR("ITERATOR LIST CORRUPTED!");

	push	202					; 000000caH
	push	OFFSET ??_C@_1JA@IJKHNLMB@?$AAC?$AA?3?$AA?2?$AAP?$AAr?$AAo?$AAg?$AAr?$AAa?$AAm?$AA?5?$AAF?$AAi?$AAl?$AAe?$AAs?$AA?5?$AA?$CI?$AAx?$AA8?$AA6?$AA?$CJ?$AA?2?$AAM?$AAi?$AAc?$AAr?$AAo?$AAs?$AAo?$AAf?$AAt@
	push	OFFSET ??_C@_1DC@POOIKBAO@?$AAI?$AAT?$AAE?$AAR?$AAA?$AAT?$AAO?$AAR?$AA?5?$AAL?$AAI?$AAS?$AAT?$AA?5?$AAC?$AAO?$AAR?$AAR?$AAU?$AAP?$AAT?$AAE?$AAD?$AA?$CB?$AA?$AA@
	call	?_Debug_message@std@@YAXPB_W0I@Z	; std::_Debug_message
	add	esp, 12					; 0000000cH
$LN5@Orphan_me:

; 203  : 			*_Pnext = _Mynextiter;

	mov	eax, DWORD PTR __Pnext$1[ebp]
	mov	ecx, DWORD PTR _this$[ebp]
	mov	edx, DWORD PTR [ecx+4]
	mov	DWORD PTR [eax], edx

; 204  : 			_Myproxy = 0;

	mov	eax, DWORD PTR _this$[ebp]
	mov	DWORD PTR [eax], 0
$LN1@Orphan_me:

; 205  : 			}
; 206  :  #endif /* _ITERATOR_DEBUG_LEVEL == 2 */
; 207  : 		}

	add	esp, 8
	cmp	ebp, esp
	call	__RTC_CheckEsp
	mov	esp, ebp
	pop	ebp
	ret	0
?_Orphan_me@_Iterator_base12@std@@QAEXXZ ENDP		; std::_Iterator_base12::_Orphan_me
_TEXT	ENDS
; Function compile flags: /Odtp /RTCsu
; File c:\program files (x86)\microsoft visual studio 14.0\vc\include\xutility
;	COMDAT ?_Getpnext@_Iterator_base12@std@@QAEPAPAU12@XZ
_TEXT	SEGMENT
_this$ = -4						; size = 4
?_Getpnext@_Iterator_base12@std@@QAEPAPAU12@XZ PROC	; std::_Iterator_base12::_Getpnext, COMDAT
; _this$ = ecx

; 188  : 		{	// get address of remaining iterator chain

	push	ebp
	mov	ebp, esp
	push	ecx
	mov	DWORD PTR [ebp-4], -858993460		; ccccccccH
	mov	DWORD PTR _this$[ebp], ecx

; 189  : 		return (&_Mynextiter);

	mov	eax, DWORD PTR _this$[ebp]
	add	eax, 4

; 190  : 		}

	mov	esp, ebp
	pop	ebp
	ret	0
?_Getpnext@_Iterator_base12@std@@QAEPAPAU12@XZ ENDP	; std::_Iterator_base12::_Getpnext
_TEXT	ENDS
; Function compile flags: /Odtp /RTCsu
; File c:\program files (x86)\microsoft visual studio 14.0\vc\include\xutility
;	COMDAT ?_Getcont@_Iterator_base12@std@@QBEPBU_Container_base12@2@XZ
_TEXT	SEGMENT
tv68 = -8						; size = 4
_this$ = -4						; size = 4
?_Getcont@_Iterator_base12@std@@QBEPBU_Container_base12@2@XZ PROC ; std::_Iterator_base12::_Getcont, COMDAT
; _this$ = ecx

; 183  : 		{	// get owning container

	push	ebp
	mov	ebp, esp
	sub	esp, 8
	mov	DWORD PTR [ebp-8], -858993460		; ccccccccH
	mov	DWORD PTR [ebp-4], -858993460		; ccccccccH
	mov	DWORD PTR _this$[ebp], ecx

; 184  : 		return (_Myproxy == 0 ? 0 : _Myproxy->_Mycont);

	mov	eax, DWORD PTR _this$[ebp]
	cmp	DWORD PTR [eax], 0
	jne	SHORT $LN3@Getcont
	mov	DWORD PTR tv68[ebp], 0
	jmp	SHORT $LN4@Getcont
$LN3@Getcont:
	mov	ecx, DWORD PTR _this$[ebp]
	mov	edx, DWORD PTR [ecx]
	mov	eax, DWORD PTR [edx]
	mov	DWORD PTR tv68[ebp], eax
$LN4@Getcont:
	mov	eax, DWORD PTR tv68[ebp]

; 185  : 		}

	mov	esp, ebp
	pop	ebp
	ret	0
?_Getcont@_Iterator_base12@std@@QBEPBU_Container_base12@2@XZ ENDP ; std::_Iterator_base12::_Getcont
_TEXT	ENDS
; Function compile flags: /Odtp /RTCsu
; File c:\program files (x86)\microsoft visual studio 14.0\vc\include\xutility
;	COMDAT ?_Clrcont@_Iterator_base12@std@@QAEXXZ
_TEXT	SEGMENT
_this$ = -4						; size = 4
?_Clrcont@_Iterator_base12@std@@QAEXXZ PROC		; std::_Iterator_base12::_Clrcont, COMDAT
; _this$ = ecx

; 178  : 		{	// disown owning container

	push	ebp
	mov	ebp, esp
	push	ecx
	mov	DWORD PTR [ebp-4], -858993460		; ccccccccH
	mov	DWORD PTR _this$[ebp], ecx

; 179  : 		_Myproxy = 0;

	mov	eax, DWORD PTR _this$[ebp]
	mov	DWORD PTR [eax], 0

; 180  : 		}

	mov	esp, ebp
	pop	ebp
	ret	0
?_Clrcont@_Iterator_base12@std@@QAEXXZ ENDP		; std::_Iterator_base12::_Clrcont
_TEXT	ENDS
; Function compile flags: /Odtp /RTCsu
; File c:\program files (x86)\microsoft visual studio 14.0\vc\include\xutility
;	COMDAT ?_Adopt@_Iterator_base12@std@@QAEXPBU_Container_base12@2@@Z
_TEXT	SEGMENT
__Lock$2 = -40						; size = 4
__Parent_proxy$3 = -32					; size = 4
__Lock$4 = -24						; size = 4
_this$ = -16						; size = 4
__$EHRec$ = -12						; size = 12
__Parent$ = 8						; size = 4
?_Adopt@_Iterator_base12@std@@QAEXPBU_Container_base12@2@@Z PROC ; std::_Iterator_base12::_Adopt, COMDAT
; _this$ = ecx

; 149  : 		{	// adopt this iterator by parent

	push	ebp
	mov	ebp, esp
	push	-1
	push	__ehhandler$?_Adopt@_Iterator_base12@std@@QAEXPBU_Container_base12@2@@Z
	mov	eax, DWORD PTR fs:0
	push	eax
	sub	esp, 32					; 00000020H
	mov	eax, -858993460				; ccccccccH
	mov	DWORD PTR [ebp-44], eax
	mov	DWORD PTR [ebp-40], eax
	mov	DWORD PTR [ebp-36], eax
	mov	DWORD PTR [ebp-32], eax
	mov	DWORD PTR [ebp-28], eax
	mov	DWORD PTR [ebp-24], eax
	mov	DWORD PTR [ebp-20], eax
	mov	DWORD PTR [ebp-16], eax
	mov	eax, DWORD PTR ___security_cookie
	xor	eax, ebp
	push	eax
	lea	eax, DWORD PTR __$EHRec$[ebp]
	mov	DWORD PTR fs:0, eax
	mov	DWORD PTR _this$[ebp], ecx

; 150  : 		if (_Parent == 0)

	cmp	DWORD PTR __Parent$[ebp], 0
	jne	SHORT $LN2@Adopt

; 151  : 			{	// no future parent, just disown current parent
; 152  :  #if _ITERATOR_DEBUG_LEVEL == 2
; 153  : 			_Lockit _Lock(_LOCK_DEBUG);

	push	3
	lea	ecx, DWORD PTR __Lock$4[ebp]
	call	??0_Lockit@std@@QAE@H@Z			; std::_Lockit::_Lockit
	mov	DWORD PTR __$EHRec$[ebp+8], 0

; 154  : 			_Orphan_me();

	mov	ecx, DWORD PTR _this$[ebp]
	call	?_Orphan_me@_Iterator_base12@std@@QAEXXZ ; std::_Iterator_base12::_Orphan_me

; 155  :  #endif /* _ITERATOR_DEBUG_LEVEL == 2 */
; 156  : 			}

	mov	DWORD PTR __$EHRec$[ebp+8], -1
	lea	ecx, DWORD PTR __Lock$4[ebp]
	call	??1_Lockit@std@@QAE@XZ			; std::_Lockit::~_Lockit

; 157  : 		else

	jmp	SHORT $LN1@Adopt
$LN2@Adopt:

; 158  : 			{	// have a parent, do adoption
; 159  : 			_Container_proxy *_Parent_proxy = _Parent->_Myproxy;

	mov	eax, DWORD PTR __Parent$[ebp]
	mov	ecx, DWORD PTR [eax]
	mov	DWORD PTR __Parent_proxy$3[ebp], ecx

; 160  : 
; 161  :  #if _ITERATOR_DEBUG_LEVEL == 2
; 162  : 			if (_Myproxy != _Parent_proxy)

	mov	edx, DWORD PTR _this$[ebp]
	mov	eax, DWORD PTR [edx]
	cmp	eax, DWORD PTR __Parent_proxy$3[ebp]
	je	SHORT $LN1@Adopt

; 163  : 				{	// change parentage
; 164  : 				_Lockit _Lock(_LOCK_DEBUG);

	push	3
	lea	ecx, DWORD PTR __Lock$2[ebp]
	call	??0_Lockit@std@@QAE@H@Z			; std::_Lockit::_Lockit
	mov	DWORD PTR __$EHRec$[ebp+8], 1

; 165  : 				_Orphan_me();

	mov	ecx, DWORD PTR _this$[ebp]
	call	?_Orphan_me@_Iterator_base12@std@@QAEXXZ ; std::_Iterator_base12::_Orphan_me

; 166  : 				_Mynextiter = _Parent_proxy->_Myfirstiter;

	mov	ecx, DWORD PTR _this$[ebp]
	mov	edx, DWORD PTR __Parent_proxy$3[ebp]
	mov	eax, DWORD PTR [edx+4]
	mov	DWORD PTR [ecx+4], eax

; 167  : 				_Parent_proxy->_Myfirstiter = this;

	mov	ecx, DWORD PTR __Parent_proxy$3[ebp]
	mov	edx, DWORD PTR _this$[ebp]
	mov	DWORD PTR [ecx+4], edx

; 168  : 				_Myproxy = _Parent_proxy;

	mov	eax, DWORD PTR _this$[ebp]
	mov	ecx, DWORD PTR __Parent_proxy$3[ebp]
	mov	DWORD PTR [eax], ecx

; 169  : 				}

	mov	DWORD PTR __$EHRec$[ebp+8], -1
	lea	ecx, DWORD PTR __Lock$2[ebp]
	call	??1_Lockit@std@@QAE@XZ			; std::_Lockit::~_Lockit
$LN1@Adopt:

; 170  : 
; 171  :  #else /* _ITERATOR_DEBUG_LEVEL == 2 */
; 172  : 			_Myproxy = _Parent_proxy;
; 173  :  #endif /* _ITERATOR_DEBUG_LEVEL == 2 */
; 174  : 			}
; 175  : 		}

	push	edx
	mov	ecx, ebp
	push	eax
	lea	edx, DWORD PTR $LN12@Adopt
	call	@_RTC_CheckStackVars@8
	pop	eax
	pop	edx
	mov	ecx, DWORD PTR __$EHRec$[ebp]
	mov	DWORD PTR fs:0, ecx
	pop	ecx
	add	esp, 44					; 0000002cH
	cmp	ebp, esp
	call	__RTC_CheckEsp
	mov	esp, ebp
	pop	ebp
	ret	4
$LN12@Adopt:
	DD	2
	DD	$LN11@Adopt
$LN11@Adopt:
	DD	-24					; ffffffe8H
	DD	4
	DD	$LN8@Adopt
	DD	-40					; ffffffd8H
	DD	4
	DD	$LN9@Adopt
$LN9@Adopt:
	DB	95					; 0000005fH
	DB	76					; 0000004cH
	DB	111					; 0000006fH
	DB	99					; 00000063H
	DB	107					; 0000006bH
	DB	0
$LN8@Adopt:
	DB	95					; 0000005fH
	DB	76					; 0000004cH
	DB	111					; 0000006fH
	DB	99					; 00000063H
	DB	107					; 0000006bH
	DB	0
_TEXT	ENDS
;	COMDAT text$x
text$x	SEGMENT
__unwindfunclet$?_Adopt@_Iterator_base12@std@@QAEXPBU_Container_base12@2@@Z$0:
	lea	ecx, DWORD PTR __Lock$4[ebp]
	jmp	??1_Lockit@std@@QAE@XZ			; std::_Lockit::~_Lockit
__unwindfunclet$?_Adopt@_Iterator_base12@std@@QAEXPBU_Container_base12@2@@Z$1:
	lea	ecx, DWORD PTR __Lock$2[ebp]
	jmp	??1_Lockit@std@@QAE@XZ			; std::_Lockit::~_Lockit
__ehhandler$?_Adopt@_Iterator_base12@std@@QAEXPBU_Container_base12@2@@Z:
	mov	edx, DWORD PTR [esp+8]
	lea	eax, DWORD PTR [edx+12]
	mov	ecx, DWORD PTR [edx-36]
	xor	ecx, eax
	call	@__security_check_cookie@4
	mov	eax, OFFSET __ehfuncinfo$?_Adopt@_Iterator_base12@std@@QAEXPBU_Container_base12@2@@Z
	jmp	___CxxFrameHandler3
text$x	ENDS
?_Adopt@_Iterator_base12@std@@QAEXPBU_Container_base12@2@@Z ENDP ; std::_Iterator_base12::_Adopt
; Function compile flags: /Odtp /RTCsu
; File c:\program files (x86)\microsoft visual studio 14.0\vc\include\xutility
;	COMDAT ??1_Iterator_base12@std@@QAE@XZ
_TEXT	SEGMENT
__Lock$ = -24						; size = 4
_this$ = -16						; size = 4
__$EHRec$ = -12						; size = 12
??1_Iterator_base12@std@@QAE@XZ PROC			; std::_Iterator_base12::~_Iterator_base12, COMDAT
; _this$ = ecx

; 141  : 		{	// destroy the iterator

	push	ebp
	mov	ebp, esp
	push	-1
	push	__ehhandler$??1_Iterator_base12@std@@QAE@XZ
	mov	eax, DWORD PTR fs:0
	push	eax
	sub	esp, 16					; 00000010H
	mov	eax, -858993460				; ccccccccH
	mov	DWORD PTR [ebp-28], eax
	mov	DWORD PTR [ebp-24], eax
	mov	DWORD PTR [ebp-20], eax
	mov	DWORD PTR [ebp-16], eax
	mov	eax, DWORD PTR ___security_cookie
	xor	eax, ebp
	push	eax
	lea	eax, DWORD PTR __$EHRec$[ebp]
	mov	DWORD PTR fs:0, eax
	mov	DWORD PTR _this$[ebp], ecx

; 142  :  #if _ITERATOR_DEBUG_LEVEL == 2
; 143  : 		_Lockit _Lock(_LOCK_DEBUG);

	push	3
	lea	ecx, DWORD PTR __Lock$[ebp]
	call	??0_Lockit@std@@QAE@H@Z			; std::_Lockit::_Lockit

; 144  : 		_Orphan_me();

	mov	ecx, DWORD PTR _this$[ebp]
	call	?_Orphan_me@_Iterator_base12@std@@QAEXXZ ; std::_Iterator_base12::_Orphan_me

; 145  :  #endif /* _ITERATOR_DEBUG_LEVEL == 2 */
; 146  : 		}

	lea	ecx, DWORD PTR __Lock$[ebp]
	call	??1_Lockit@std@@QAE@XZ			; std::_Lockit::~_Lockit
	push	edx
	mov	ecx, ebp
	push	eax
	lea	edx, DWORD PTR $LN6@Iterator_b
	call	@_RTC_CheckStackVars@8
	pop	eax
	pop	edx
	mov	ecx, DWORD PTR __$EHRec$[ebp]
	mov	DWORD PTR fs:0, ecx
	pop	ecx
	add	esp, 28					; 0000001cH
	cmp	ebp, esp
	call	__RTC_CheckEsp
	mov	esp, ebp
	pop	ebp
	ret	0
	npad	3
$LN6@Iterator_b:
	DD	1
	DD	$LN5@Iterator_b
$LN5@Iterator_b:
	DD	-24					; ffffffe8H
	DD	4
	DD	$LN3@Iterator_b
$LN3@Iterator_b:
	DB	95					; 0000005fH
	DB	76					; 0000004cH
	DB	111					; 0000006fH
	DB	99					; 00000063H
	DB	107					; 0000006bH
	DB	0
_TEXT	ENDS
;	COMDAT text$x
text$x	SEGMENT
__ehhandler$??1_Iterator_base12@std@@QAE@XZ:
	mov	edx, DWORD PTR [esp+8]
	lea	eax, DWORD PTR [edx+12]
	mov	ecx, DWORD PTR [edx-20]
	xor	ecx, eax
	call	@__security_check_cookie@4
	mov	eax, OFFSET __ehfuncinfo$??1_Iterator_base12@std@@QAE@XZ
	jmp	___CxxFrameHandler3
text$x	ENDS
??1_Iterator_base12@std@@QAE@XZ ENDP			; std::_Iterator_base12::~_Iterator_base12
; Function compile flags: /Odtp /RTCsu
; File c:\program files (x86)\microsoft visual studio 14.0\vc\include\xutility
;	COMDAT ??4_Iterator_base12@std@@QAEAAU01@ABU01@@Z
_TEXT	SEGMENT
__Lock$2 = -24						; size = 4
_this$ = -16						; size = 4
__$EHRec$ = -12						; size = 12
__Right$ = 8						; size = 4
??4_Iterator_base12@std@@QAEAAU01@ABU01@@Z PROC		; std::_Iterator_base12::operator=, COMDAT
; _this$ = ecx

; 124  : 		{	// assign an iterator

	push	ebp
	mov	ebp, esp
	push	-1
	push	__ehhandler$??4_Iterator_base12@std@@QAEAAU01@ABU01@@Z
	mov	eax, DWORD PTR fs:0
	push	eax
	sub	esp, 16					; 00000010H
	mov	eax, -858993460				; ccccccccH
	mov	DWORD PTR [ebp-28], eax
	mov	DWORD PTR [ebp-24], eax
	mov	DWORD PTR [ebp-20], eax
	mov	DWORD PTR [ebp-16], eax
	mov	eax, DWORD PTR ___security_cookie
	xor	eax, ebp
	push	eax
	lea	eax, DWORD PTR __$EHRec$[ebp]
	mov	DWORD PTR fs:0, eax
	mov	DWORD PTR _this$[ebp], ecx

; 125  : 		if (_Myproxy == _Right._Myproxy)

	mov	eax, DWORD PTR _this$[ebp]
	mov	ecx, DWORD PTR __Right$[ebp]
	mov	edx, DWORD PTR [eax]
	cmp	edx, DWORD PTR [ecx]
	jne	SHORT $LN2@operator
	jmp	SHORT $LN3@operator
$LN2@operator:

; 126  : 			;
; 127  : 		else if (_Right._Myproxy != 0)

	mov	eax, DWORD PTR __Right$[ebp]
	cmp	DWORD PTR [eax], 0
	je	SHORT $LN4@operator

; 128  : 			_Adopt(_Right._Myproxy->_Mycont);

	mov	ecx, DWORD PTR __Right$[ebp]
	mov	edx, DWORD PTR [ecx]
	mov	eax, DWORD PTR [edx]
	push	eax
	mov	ecx, DWORD PTR _this$[ebp]
	call	?_Adopt@_Iterator_base12@std@@QAEXPBU_Container_base12@2@@Z ; std::_Iterator_base12::_Adopt

; 129  : 		else

	jmp	SHORT $LN3@operator
$LN4@operator:

; 130  : 			{	// becoming invalid, disown current parent
; 131  :  #if _ITERATOR_DEBUG_LEVEL == 2
; 132  : 			_Lockit _Lock(_LOCK_DEBUG);

	push	3
	lea	ecx, DWORD PTR __Lock$2[ebp]
	call	??0_Lockit@std@@QAE@H@Z			; std::_Lockit::_Lockit
	mov	DWORD PTR __$EHRec$[ebp+8], 0

; 133  : 			_Orphan_me();

	mov	ecx, DWORD PTR _this$[ebp]
	call	?_Orphan_me@_Iterator_base12@std@@QAEXXZ ; std::_Iterator_base12::_Orphan_me

; 134  :  #endif /* _ITERATOR_DEBUG_LEVEL == 2 */
; 135  : 			}

	mov	DWORD PTR __$EHRec$[ebp+8], -1
	lea	ecx, DWORD PTR __Lock$2[ebp]
	call	??1_Lockit@std@@QAE@XZ			; std::_Lockit::~_Lockit
$LN3@operator:

; 136  : 
; 137  : 		return (*this);

	mov	eax, DWORD PTR _this$[ebp]

; 138  : 		}

	push	edx
	mov	ecx, ebp
	push	eax
	lea	edx, DWORD PTR $LN11@operator
	call	@_RTC_CheckStackVars@8
	pop	eax
	pop	edx
	mov	ecx, DWORD PTR __$EHRec$[ebp]
	mov	DWORD PTR fs:0, ecx
	pop	ecx
	add	esp, 28					; 0000001cH
	cmp	ebp, esp
	call	__RTC_CheckEsp
	mov	esp, ebp
	pop	ebp
	ret	4
$LN11@operator:
	DD	1
	DD	$LN10@operator
$LN10@operator:
	DD	-24					; ffffffe8H
	DD	4
	DD	$LN8@operator
$LN8@operator:
	DB	95					; 0000005fH
	DB	76					; 0000004cH
	DB	111					; 0000006fH
	DB	99					; 00000063H
	DB	107					; 0000006bH
	DB	0
_TEXT	ENDS
;	COMDAT text$x
text$x	SEGMENT
__unwindfunclet$??4_Iterator_base12@std@@QAEAAU01@ABU01@@Z$0:
	lea	ecx, DWORD PTR __Lock$2[ebp]
	jmp	??1_Lockit@std@@QAE@XZ			; std::_Lockit::~_Lockit
__ehhandler$??4_Iterator_base12@std@@QAEAAU01@ABU01@@Z:
	mov	edx, DWORD PTR [esp+8]
	lea	eax, DWORD PTR [edx+12]
	mov	ecx, DWORD PTR [edx-20]
	xor	ecx, eax
	call	@__security_check_cookie@4
	mov	eax, OFFSET __ehfuncinfo$??4_Iterator_base12@std@@QAEAAU01@ABU01@@Z
	jmp	___CxxFrameHandler3
text$x	ENDS
??4_Iterator_base12@std@@QAEAAU01@ABU01@@Z ENDP		; std::_Iterator_base12::operator=
; Function compile flags: /Odtp /RTCsu
; File c:\program files (x86)\microsoft visual studio 14.0\vc\include\xutility
;	COMDAT ??0_Iterator_base12@std@@QAE@ABU01@@Z
_TEXT	SEGMENT
_this$ = -4						; size = 4
__Right$ = 8						; size = 4
??0_Iterator_base12@std@@QAE@ABU01@@Z PROC		; std::_Iterator_base12::_Iterator_base12, COMDAT
; _this$ = ecx

; 119  : 		{	// copy an iterator

	push	ebp
	mov	ebp, esp
	push	ecx
	mov	DWORD PTR [ebp-4], -858993460		; ccccccccH
	mov	DWORD PTR _this$[ebp], ecx

; 118  : 		: _Myproxy(0), _Mynextiter(0)

	mov	eax, DWORD PTR _this$[ebp]
	mov	DWORD PTR [eax], 0
	mov	ecx, DWORD PTR _this$[ebp]
	mov	DWORD PTR [ecx+4], 0

; 120  : 		*this = _Right;

	mov	edx, DWORD PTR __Right$[ebp]
	push	edx
	mov	ecx, DWORD PTR _this$[ebp]
	call	??4_Iterator_base12@std@@QAEAAU01@ABU01@@Z ; std::_Iterator_base12::operator=

; 121  : 		}

	mov	eax, DWORD PTR _this$[ebp]
	add	esp, 4
	cmp	ebp, esp
	call	__RTC_CheckEsp
	mov	esp, ebp
	pop	ebp
	ret	4
??0_Iterator_base12@std@@QAE@ABU01@@Z ENDP		; std::_Iterator_base12::_Iterator_base12
_TEXT	ENDS
; Function compile flags: /Odtp /RTCsu
; File c:\program files (x86)\microsoft visual studio 14.0\vc\include\xutility
;	COMDAT ??0_Iterator_base12@std@@QAE@XZ
_TEXT	SEGMENT
_this$ = -4						; size = 4
??0_Iterator_base12@std@@QAE@XZ PROC			; std::_Iterator_base12::_Iterator_base12, COMDAT
; _this$ = ecx

; 114  : 		{	// construct orphaned iterator

	push	ebp
	mov	ebp, esp
	push	ecx
	mov	DWORD PTR [ebp-4], -858993460		; ccccccccH
	mov	DWORD PTR _this$[ebp], ecx

; 113  : 		: _Myproxy(0), _Mynextiter(0)

	mov	eax, DWORD PTR _this$[ebp]
	mov	DWORD PTR [eax], 0
	mov	ecx, DWORD PTR _this$[ebp]
	mov	DWORD PTR [ecx+4], 0

; 115  : 		}

	mov	eax, DWORD PTR _this$[ebp]
	mov	esp, ebp
	pop	ebp
	ret	0
??0_Iterator_base12@std@@QAE@XZ ENDP			; std::_Iterator_base12::_Iterator_base12
_TEXT	ENDS
; Function compile flags: /Odtp /RTCsu
; File c:\program files (x86)\microsoft visual studio 14.0\vc\include\xutility
;	COMDAT ?_Orphan_all@_Container_base12@std@@QAEXXZ
_TEXT	SEGMENT
__Pnext$1 = -20						; size = 4
__Lock$2 = -12						; size = 4
_this$ = -4						; size = 4
?_Orphan_all@_Container_base12@std@@QAEXXZ PROC		; std::_Container_base12::_Orphan_all, COMDAT
; _this$ = ecx

; 215  : 	{	// orphan all iterators

	push	ebp
	mov	ebp, esp
	sub	esp, 20					; 00000014H
	mov	eax, -858993460				; ccccccccH
	mov	DWORD PTR [ebp-20], eax
	mov	DWORD PTR [ebp-16], eax
	mov	DWORD PTR [ebp-12], eax
	mov	DWORD PTR [ebp-8], eax
	mov	DWORD PTR [ebp-4], eax
	mov	DWORD PTR _this$[ebp], ecx

; 216  :  #if _ITERATOR_DEBUG_LEVEL == 2
; 217  : 	if (_Myproxy != 0)

	mov	eax, DWORD PTR _this$[ebp]
	cmp	DWORD PTR [eax], 0
	je	SHORT $LN1@Orphan_all

; 218  : 		{	// proxy allocated, drain it
; 219  : 		_Lockit _Lock(_LOCK_DEBUG);

	push	3
	lea	ecx, DWORD PTR __Lock$2[ebp]
	call	??0_Lockit@std@@QAE@H@Z			; std::_Lockit::_Lockit

; 220  : 
; 221  : 		for (_Iterator_base12 **_Pnext = &_Myproxy->_Myfirstiter;

	mov	ecx, DWORD PTR _this$[ebp]
	mov	edx, DWORD PTR [ecx]
	add	edx, 4
	mov	DWORD PTR __Pnext$1[ebp], edx
	jmp	SHORT $LN4@Orphan_all
$LN2@Orphan_all:

; 222  : 			*_Pnext != 0; *_Pnext = (*_Pnext)->_Mynextiter)

	mov	eax, DWORD PTR __Pnext$1[ebp]
	mov	ecx, DWORD PTR [eax]
	mov	edx, DWORD PTR __Pnext$1[ebp]
	mov	eax, DWORD PTR [ecx+4]
	mov	DWORD PTR [edx], eax
$LN4@Orphan_all:
	mov	ecx, DWORD PTR __Pnext$1[ebp]
	cmp	DWORD PTR [ecx], 0
	je	SHORT $LN3@Orphan_all

; 223  : 			(*_Pnext)->_Myproxy = 0;

	mov	edx, DWORD PTR __Pnext$1[ebp]
	mov	eax, DWORD PTR [edx]
	mov	DWORD PTR [eax], 0
	jmp	SHORT $LN2@Orphan_all
$LN3@Orphan_all:

; 224  : 		_Myproxy->_Myfirstiter = 0;

	mov	ecx, DWORD PTR _this$[ebp]
	mov	edx, DWORD PTR [ecx]
	mov	DWORD PTR [edx+4], 0

; 225  : 		}

	lea	ecx, DWORD PTR __Lock$2[ebp]
	call	??1_Lockit@std@@QAE@XZ			; std::_Lockit::~_Lockit
$LN1@Orphan_all:

; 226  :  #endif /* _ITERATOR_DEBUG_LEVEL == 2 */
; 227  : 	}

	push	edx
	mov	ecx, ebp
	push	eax
	lea	edx, DWORD PTR $LN10@Orphan_all
	call	@_RTC_CheckStackVars@8
	pop	eax
	pop	edx
	add	esp, 20					; 00000014H
	cmp	ebp, esp
	call	__RTC_CheckEsp
	mov	esp, ebp
	pop	ebp
	ret	0
	npad	3
$LN10@Orphan_all:
	DD	1
	DD	$LN9@Orphan_all
$LN9@Orphan_all:
	DD	-12					; fffffff4H
	DD	4
	DD	$LN8@Orphan_all
$LN8@Orphan_all:
	DB	95					; 0000005fH
	DB	76					; 0000004cH
	DB	111					; 0000006fH
	DB	99					; 00000063H
	DB	107					; 0000006bH
	DB	0
?_Orphan_all@_Container_base12@std@@QAEXXZ ENDP		; std::_Container_base12::_Orphan_all
_TEXT	ENDS
; Function compile flags: /Odtp /RTCsu
; File c:\program files (x86)\microsoft visual studio 14.0\vc\include\xutility
;	COMDAT ?_Getpfirst@_Container_base12@std@@QBEPAPAU_Iterator_base12@2@XZ
_TEXT	SEGMENT
tv68 = -8						; size = 4
_this$ = -4						; size = 4
?_Getpfirst@_Container_base12@std@@QBEPAPAU_Iterator_base12@2@XZ PROC ; std::_Container_base12::_Getpfirst, COMDAT
; _this$ = ecx

; 99   : 		{	// get address of iterator chain

	push	ebp
	mov	ebp, esp
	sub	esp, 8
	mov	DWORD PTR [ebp-8], -858993460		; ccccccccH
	mov	DWORD PTR [ebp-4], -858993460		; ccccccccH
	mov	DWORD PTR _this$[ebp], ecx

; 100  : 		return (_Myproxy == 0 ? 0 : &_Myproxy->_Myfirstiter);

	mov	eax, DWORD PTR _this$[ebp]
	cmp	DWORD PTR [eax], 0
	jne	SHORT $LN3@Getpfirst
	mov	DWORD PTR tv68[ebp], 0
	jmp	SHORT $LN4@Getpfirst
$LN3@Getpfirst:
	mov	ecx, DWORD PTR _this$[ebp]
	mov	edx, DWORD PTR [ecx]
	add	edx, 4
	mov	DWORD PTR tv68[ebp], edx
$LN4@Getpfirst:
	mov	eax, DWORD PTR tv68[ebp]

; 101  : 		}

	mov	esp, ebp
	pop	ebp
	ret	0
?_Getpfirst@_Container_base12@std@@QBEPAPAU_Iterator_base12@2@XZ ENDP ; std::_Container_base12::_Getpfirst
_TEXT	ENDS
; Function compile flags: /Odtp /RTCsu
; File c:\program files (x86)\microsoft visual studio 14.0\vc\include\xutility
;	COMDAT ??1_Container_base12@std@@QAE@XZ
_TEXT	SEGMENT
_this$ = -16						; size = 4
__$EHRec$ = -12						; size = 12
??1_Container_base12@std@@QAE@XZ PROC			; std::_Container_base12::~_Container_base12, COMDAT
; _this$ = ecx

; 94   : 		{	// destroy the container

	push	ebp
	mov	ebp, esp
	push	-1
	push	__ehhandler$??1_Container_base12@std@@QAE@XZ
	mov	eax, DWORD PTR fs:0
	push	eax
	push	ecx
	mov	DWORD PTR [ebp-16], -858993460		; ccccccccH
	mov	eax, DWORD PTR ___security_cookie
	xor	eax, ebp
	push	eax
	lea	eax, DWORD PTR __$EHRec$[ebp]
	mov	DWORD PTR fs:0, eax
	mov	DWORD PTR _this$[ebp], ecx

; 95   : 		_Orphan_all();

	mov	ecx, DWORD PTR _this$[ebp]
	call	?_Orphan_all@_Container_base12@std@@QAEXXZ ; std::_Container_base12::_Orphan_all

; 96   : 		}

	mov	ecx, DWORD PTR __$EHRec$[ebp]
	mov	DWORD PTR fs:0, ecx
	pop	ecx
	add	esp, 16					; 00000010H
	cmp	ebp, esp
	call	__RTC_CheckEsp
	mov	esp, ebp
	pop	ebp
	ret	0
_TEXT	ENDS
;	COMDAT text$x
text$x	SEGMENT
__ehhandler$??1_Container_base12@std@@QAE@XZ:
	mov	edx, DWORD PTR [esp+8]
	lea	eax, DWORD PTR [edx+12]
	mov	ecx, DWORD PTR [edx-8]
	xor	ecx, eax
	call	@__security_check_cookie@4
	mov	eax, OFFSET __ehfuncinfo$??1_Container_base12@std@@QAE@XZ
	jmp	___CxxFrameHandler3
text$x	ENDS
??1_Container_base12@std@@QAE@XZ ENDP			; std::_Container_base12::~_Container_base12
; Function compile flags: /Odtp /RTCsu
; File c:\program files (x86)\microsoft visual studio 14.0\vc\include\xutility
;	COMDAT ??0_Container_base12@std@@QAE@XZ
_TEXT	SEGMENT
_this$ = -4						; size = 4
??0_Container_base12@std@@QAE@XZ PROC			; std::_Container_base12::_Container_base12, COMDAT
; _this$ = ecx

; 80   : 		{	// construct childless container

	push	ebp
	mov	ebp, esp
	push	ecx
	mov	DWORD PTR [ebp-4], -858993460		; ccccccccH
	mov	DWORD PTR _this$[ebp], ecx

; 79   : 		: _Myproxy(0)

	mov	eax, DWORD PTR _this$[ebp]
	mov	DWORD PTR [eax], 0

; 81   : 		}

	mov	eax, DWORD PTR _this$[ebp]
	mov	esp, ebp
	pop	ebp
	ret	0
??0_Container_base12@std@@QAE@XZ ENDP			; std::_Container_base12::_Container_base12
_TEXT	ENDS
; Function compile flags: /Odtp /RTCsu
; File c:\program files (x86)\microsoft visual studio 14.0\vc\include\xutility
;	COMDAT ??0_Container_proxy@std@@QAE@XZ
_TEXT	SEGMENT
_this$ = -4						; size = 4
??0_Container_proxy@std@@QAE@XZ PROC			; std::_Container_proxy::_Container_proxy, COMDAT
; _this$ = ecx

; 68   : 		{	// construct from pointers

	push	ebp
	mov	ebp, esp
	push	ecx
	mov	DWORD PTR [ebp-4], -858993460		; ccccccccH
	mov	DWORD PTR _this$[ebp], ecx

; 67   : 		: _Mycont(0), _Myfirstiter(0)

	mov	eax, DWORD PTR _this$[ebp]
	mov	DWORD PTR [eax], 0
	mov	ecx, DWORD PTR _this$[ebp]
	mov	DWORD PTR [ecx+4], 0

; 69   : 		}

	mov	eax, DWORD PTR _this$[ebp]
	mov	esp, ebp
	pop	ebp
	ret	0
??0_Container_proxy@std@@QAE@XZ ENDP			; std::_Container_proxy::_Container_proxy
_TEXT	ENDS
; Function compile flags: /Odtp /RTCsu
; File c:\program files (x86)\microsoft visual studio 14.0\vc\include\vcruntime_new.h
;	COMDAT ??2@YAPAXIPAX@Z
_TEXT	SEGMENT
__Size$ = 8						; size = 4
__Where$ = 12						; size = 4
??2@YAPAXIPAX@Z PROC					; operator new, COMDAT

; 87   :     {

	push	ebp
	mov	ebp, esp

; 88   :         (void)_Size;
; 89   :         return _Where;

	mov	eax, DWORD PTR __Where$[ebp]

; 90   :     }

	pop	ebp
	ret	0
??2@YAPAXIPAX@Z ENDP					; operator new
_TEXT	ENDS
; Function compile flags: /Odtp /RTCsu
; File c:\program files (x86)\microsoft visual studio 14.0\vc\include\limits
;	COMDAT ?max@?$numeric_limits@N@std@@SANXZ
_TEXT	SEGMENT
?max@?$numeric_limits@N@std@@SANXZ PROC			; std::numeric_limits<double>::max, COMDAT

; 1150 : 		{	// return maximum value

	push	ebp
	mov	ebp, esp

; 1151 : 		return (_DBL_MAX);

	fld	QWORD PTR __real@7fefffffffffffff

; 1152 : 		}

	pop	ebp
	ret	0
?max@?$numeric_limits@N@std@@SANXZ ENDP			; std::numeric_limits<double>::max
_TEXT	ENDS
; Function compile flags: /Odtp /RTCsu
; File c:\program files (x86)\microsoft visual studio 14.0\vc\include\limits
;	COMDAT ?min@?$numeric_limits@N@std@@SANXZ
_TEXT	SEGMENT
?min@?$numeric_limits@N@std@@SANXZ PROC			; std::numeric_limits<double>::min, COMDAT

; 1145 : 		{	// return minimum value

	push	ebp
	mov	ebp, esp

; 1146 : 		return (_DBL_MIN);

	fld	QWORD PTR __real@0010000000000000

; 1147 : 		}

	pop	ebp
	ret	0
?min@?$numeric_limits@N@std@@SANXZ ENDP			; std::numeric_limits<double>::min
_TEXT	ENDS
; Function compile flags: /Odtp /RTCsu
; File c:\program files (x86)\microsoft visual studio 14.0\vc\include\limits
;	COMDAT ?max@?$numeric_limits@M@std@@SAMXZ
_TEXT	SEGMENT
?max@?$numeric_limits@M@std@@SAMXZ PROC			; std::numeric_limits<float>::max, COMDAT

; 1087 : 		{	// return maximum value

	push	ebp
	mov	ebp, esp

; 1088 : 		return (_FLT_MAX);

	fld	DWORD PTR __real@7f7fffff

; 1089 : 		}

	pop	ebp
	ret	0
?max@?$numeric_limits@M@std@@SAMXZ ENDP			; std::numeric_limits<float>::max
_TEXT	ENDS
; Function compile flags: /Odtp /RTCsu
; File c:\program files (x86)\microsoft visual studio 14.0\vc\include\limits
;	COMDAT ?min@?$numeric_limits@M@std@@SAMXZ
_TEXT	SEGMENT
?min@?$numeric_limits@M@std@@SAMXZ PROC			; std::numeric_limits<float>::min, COMDAT

; 1082 : 		{	// return minimum value

	push	ebp
	mov	ebp, esp

; 1083 : 		return (_FLT_MIN);

	fld	DWORD PTR __real@00800000

; 1084 : 		}

	pop	ebp
	ret	0
?min@?$numeric_limits@M@std@@SAMXZ ENDP			; std::numeric_limits<float>::min
_TEXT	ENDS
; Function compile flags: /Odtp /RTCsu
; File c:\program files (x86)\microsoft visual studio 14.0\vc\include\limits
;	COMDAT ?max@?$numeric_limits@H@std@@SAHXZ
_TEXT	SEGMENT
?max@?$numeric_limits@H@std@@SAHXZ PROC			; std::numeric_limits<int>::max, COMDAT

; 681  : 		{	// return maximum value

	push	ebp
	mov	ebp, esp

; 682  : 		return (INT_MAX);

	mov	eax, 2147483647				; 7fffffffH

; 683  : 		}

	pop	ebp
	ret	0
?max@?$numeric_limits@H@std@@SAHXZ ENDP			; std::numeric_limits<int>::max
_TEXT	ENDS
; Function compile flags: /Odtp /RTCsu
; File e:\documents\cours\git\raven\common\messaging\messagedispatcher.cpp
;	COMDAT ?__empty_global_delete@@YAXPAXI@Z
_TEXT	SEGMENT
___formal$ = 8						; size = 4
___formal$ = 12						; size = 4
?__empty_global_delete@@YAXPAXI@Z PROC			; __empty_global_delete, COMDAT

	push	ebp
	mov	ebp, esp
	pop	ebp
	ret	0
?__empty_global_delete@@YAXPAXI@Z ENDP			; __empty_global_delete
_TEXT	ENDS
; Function compile flags: /Odtp /RTCsu
; File e:\documents\cours\git\raven\common\messaging\messagedispatcher.cpp
;	COMDAT ?__empty_global_delete@@YAXPAX@Z
_TEXT	SEGMENT
___formal$ = 8						; size = 4
?__empty_global_delete@@YAXPAX@Z PROC			; __empty_global_delete, COMDAT

	push	ebp
	mov	ebp, esp
	pop	ebp
	ret	0
?__empty_global_delete@@YAXPAX@Z ENDP			; __empty_global_delete
_TEXT	ENDS
END
