; Listing generated by Microsoft (R) Optimizing Compiler Version 19.00.24213.1 

	TITLE	E:\Documents\Cours\Git\Raven\Raven\armory\Projectile_Slug.cpp
	.686P
	.XMM
	include listing.inc
	.model	flat

INCLUDELIB LIBCMTD
INCLUDELIB OLDNAMES

CONST	SEGMENT
$SG169135 DB	'Slug_MaxForce', 00H
	ORG $+2
$SG169136 DB	'Slug_Mass', 00H
	ORG $+2
$SG169137 DB	'Slug_MaxSpeed', 00H
	ORG $+2
$SG169138 DB	'Slug_Scale', 00H
	ORG $+1
$SG169139 DB	'Slug_Damage', 00H
$SG169140 DB	'Slug_Persistance', 00H
	ORG $+3
?colors@@3QBKB DD 0ffH					; colors
	DD	0ff0000H
	DD	0ff00H
	DD	00H
	DD	0c8c8ffH
	DD	0c8c8c8H
	DD	0ffffH
	DD	0aaffH
	DD	0aa00ffH
	DD	05a85H
	DD	0ffffffH
	DD	06400H
	DD	0ffff00H
	DD	0c8c8c8H
	DD	0e6e6ffH
CONST	ENDS
PUBLIC	?__empty_global_delete@@YAXPAX@Z		; __empty_global_delete
PUBLIC	?__empty_global_delete@@YAXPAXI@Z		; __empty_global_delete
PUBLIC	??2@YAPAXIPAX@Z					; operator new
PUBLIC	?length@?$char_traits@D@std@@SAIPBD@Z		; std::char_traits<char>::length
PUBLIC	?copy@?$char_traits@D@std@@SAPADPADPBDI@Z	; std::char_traits<char>::copy
PUBLIC	?move@?$char_traits@D@std@@SAPADPADPBDI@Z	; std::char_traits<char>::move
PUBLIC	?assign@?$char_traits@D@std@@SAXAADABD@Z	; std::char_traits<char>::assign
PUBLIC	?max@?$numeric_limits@H@std@@SAHXZ		; std::numeric_limits<int>::max
PUBLIC	?min@?$numeric_limits@M@std@@SAMXZ		; std::numeric_limits<float>::min
PUBLIC	?max@?$numeric_limits@M@std@@SAMXZ		; std::numeric_limits<float>::max
PUBLIC	?min@?$numeric_limits@N@std@@SANXZ		; std::numeric_limits<double>::min
PUBLIC	?max@?$numeric_limits@N@std@@SANXZ		; std::numeric_limits<double>::max
PUBLIC	?epsilon@?$numeric_limits@N@std@@SANXZ		; std::numeric_limits<double>::epsilon
PUBLIC	??0exception@std@@QAE@QBD@Z			; std::exception::exception
PUBLIC	??0exception@std@@QAE@ABV01@@Z			; std::exception::exception
PUBLIC	??1exception@std@@UAE@XZ			; std::exception::~exception
PUBLIC	?what@exception@std@@UBEPBDXZ			; std::exception::what
PUBLIC	??_Gexception@std@@UAEPAXI@Z			; std::exception::`scalar deleting destructor'
PUBLIC	??0_Container_proxy@std@@QAE@XZ			; std::_Container_proxy::_Container_proxy
PUBLIC	??0_Container_base12@std@@QAE@XZ		; std::_Container_base12::_Container_base12
PUBLIC	??1_Container_base12@std@@QAE@XZ		; std::_Container_base12::~_Container_base12
PUBLIC	?_Getpfirst@_Container_base12@std@@QBEPAPAU_Iterator_base12@2@XZ ; std::_Container_base12::_Getpfirst
PUBLIC	?_Orphan_all@_Container_base12@std@@QAEXXZ	; std::_Container_base12::_Orphan_all
PUBLIC	??0_Iterator_base12@std@@QAE@XZ			; std::_Iterator_base12::_Iterator_base12
PUBLIC	??4_Iterator_base12@std@@QAEAAU01@ABU01@@Z	; std::_Iterator_base12::operator=
PUBLIC	??1_Iterator_base12@std@@QAE@XZ			; std::_Iterator_base12::~_Iterator_base12
PUBLIC	?_Adopt@_Iterator_base12@std@@QAEXPBU_Container_base12@2@@Z ; std::_Iterator_base12::_Adopt
PUBLIC	?_Clrcont@_Iterator_base12@std@@QAEXXZ		; std::_Iterator_base12::_Clrcont
PUBLIC	?_Getcont@_Iterator_base12@std@@QBEPBU_Container_base12@2@XZ ; std::_Iterator_base12::_Getcont
PUBLIC	?_Getpnext@_Iterator_base12@std@@QAEPAPAU12@XZ	; std::_Iterator_base12::_Getpnext
PUBLIC	?_Orphan_me@_Iterator_base12@std@@QAEXXZ	; std::_Iterator_base12::_Orphan_me
PUBLIC	?_Allocate@std@@YAPAXII_N@Z			; std::_Allocate
PUBLIC	?_Deallocate@std@@YAXPAXII@Z			; std::_Deallocate
PUBLIC	??0?$allocator@D@std@@QAE@XZ			; std::allocator<char>::allocator<char>
PUBLIC	??0?$allocator@D@std@@QAE@ABV01@@Z		; std::allocator<char>::allocator<char>
PUBLIC	?deallocate@?$allocator@D@std@@QAEXPADI@Z	; std::allocator<char>::deallocate
PUBLIC	?allocate@?$allocator@D@std@@QAEPADI@Z		; std::allocator<char>::allocate
PUBLIC	?max_size@?$allocator@D@std@@QBEIXZ		; std::allocator<char>::max_size
PUBLIC	?max_size@?$allocator_traits@V?$allocator@D@std@@@std@@SAIABV?$allocator@D@2@@Z ; std::allocator_traits<std::allocator<char> >::max_size
PUBLIC	??0?$_Wrap_alloc@V?$allocator@D@std@@@std@@QAE@XZ ; std::_Wrap_alloc<std::allocator<char> >::_Wrap_alloc<std::allocator<char> >
PUBLIC	??0?$_Wrap_alloc@V?$allocator@D@std@@@std@@QAE@$$QAU01@@Z ; std::_Wrap_alloc<std::allocator<char> >::_Wrap_alloc<std::allocator<char> >
PUBLIC	?allocate@?$_Wrap_alloc@V?$allocator@D@std@@@std@@QAEPADI@Z ; std::_Wrap_alloc<std::allocator<char> >::allocate
PUBLIC	?deallocate@?$_Wrap_alloc@V?$allocator@D@std@@@std@@QAEXPADI@Z ; std::_Wrap_alloc<std::allocator<char> >::deallocate
PUBLIC	?max_size@?$_Wrap_alloc@V?$allocator@D@std@@@std@@QBEIU_Nil@2@@Z ; std::_Wrap_alloc<std::allocator<char> >::max_size
PUBLIC	??0?$_String_val@U?$_Simple_types@D@std@@@std@@QAE@XZ ; std::_String_val<std::_Simple_types<char> >::_String_val<std::_Simple_types<char> >
PUBLIC	?_Myptr@?$_String_val@U?$_Simple_types@D@std@@@std@@QAEPADXZ ; std::_String_val<std::_Simple_types<char> >::_Myptr
PUBLIC	?_Myptr@?$_String_val@U?$_Simple_types@D@std@@@std@@QBEPBDXZ ; std::_String_val<std::_Simple_types<char> >::_Myptr
PUBLIC	??0_Bxty@?$_String_val@U?$_Simple_types@D@std@@@std@@QAE@XZ ; std::_String_val<std::_Simple_types<char> >::_Bxty::_Bxty
PUBLIC	??1_Bxty@?$_String_val@U?$_Simple_types@D@std@@@std@@QAE@XZ ; std::_String_val<std::_Simple_types<char> >::_Bxty::~_Bxty
PUBLIC	??1?$_String_val@U?$_Simple_types@D@std@@@std@@QAE@XZ ; std::_String_val<std::_Simple_types<char> >::~_String_val<std::_Simple_types<char> >
PUBLIC	?_Myptr@?$_String_alloc@U?$_String_base_types@DV?$allocator@D@std@@@std@@@std@@QAEPADXZ ; std::_String_alloc<std::_String_base_types<char,std::allocator<char> > >::_Myptr
PUBLIC	?_Myptr@?$_String_alloc@U?$_String_base_types@DV?$allocator@D@std@@@std@@@std@@QBEPBDXZ ; std::_String_alloc<std::_String_base_types<char,std::allocator<char> > >::_Myptr
PUBLIC	??0?$_String_alloc@U?$_String_base_types@DV?$allocator@D@std@@@std@@@std@@QAE@XZ ; std::_String_alloc<std::_String_base_types<char,std::allocator<char> > >::_String_alloc<std::_String_base_types<char,std::allocator<char> > >
PUBLIC	??1?$_String_alloc@U?$_String_base_types@DV?$allocator@D@std@@@std@@@std@@QAE@XZ ; std::_String_alloc<std::_String_base_types<char,std::allocator<char> > >::~_String_alloc<std::_String_base_types<char,std::allocator<char> > >
PUBLIC	?_Alloc_proxy@?$_String_alloc@U?$_String_base_types@DV?$allocator@D@std@@@std@@@std@@QAEXXZ ; std::_String_alloc<std::_String_base_types<char,std::allocator<char> > >::_Alloc_proxy
PUBLIC	?_Free_proxy@?$_String_alloc@U?$_String_base_types@DV?$allocator@D@std@@@std@@@std@@QAEXXZ ; std::_String_alloc<std::_String_base_types<char,std::allocator<char> > >::_Free_proxy
PUBLIC	?_Myproxy@?$_String_alloc@U?$_String_base_types@DV?$allocator@D@std@@@std@@@std@@QAEAAPAU_Container_proxy@2@XZ ; std::_String_alloc<std::_String_base_types<char,std::allocator<char> > >::_Myproxy
PUBLIC	?_Orphan_all@?$_String_alloc@U?$_String_base_types@DV?$allocator@D@std@@@std@@@std@@QAEXXZ ; std::_String_alloc<std::_String_base_types<char,std::allocator<char> > >::_Orphan_all
PUBLIC	?_Getal@?$_String_alloc@U?$_String_base_types@DV?$allocator@D@std@@@std@@@std@@QAEAAU?$_Wrap_alloc@V?$allocator@D@std@@@2@XZ ; std::_String_alloc<std::_String_base_types<char,std::allocator<char> > >::_Getal
PUBLIC	?_Getal@?$_String_alloc@U?$_String_base_types@DV?$allocator@D@std@@@std@@@std@@QBEABU?$_Wrap_alloc@V?$allocator@D@std@@@2@XZ ; std::_String_alloc<std::_String_base_types<char,std::allocator<char> > >::_Getal
PUBLIC	?_Get_data@?$_String_alloc@U?$_String_base_types@DV?$allocator@D@std@@@std@@@std@@QAEAAV?$_String_val@U?$_Simple_types@D@std@@@2@XZ ; std::_String_alloc<std::_String_base_types<char,std::allocator<char> > >::_Get_data
PUBLIC	?_Get_data@?$_String_alloc@U?$_String_base_types@DV?$allocator@D@std@@@std@@@std@@QBEABV?$_String_val@U?$_Simple_types@D@std@@@2@XZ ; std::_String_alloc<std::_String_base_types<char,std::allocator<char> > >::_Get_data
PUBLIC	?_Bx@?$_String_alloc@U?$_String_base_types@DV?$allocator@D@std@@@std@@@std@@QAEAAT_Bxty@?$_String_val@U?$_Simple_types@D@std@@@2@XZ ; std::_String_alloc<std::_String_base_types<char,std::allocator<char> > >::_Bx
PUBLIC	?_Mysize@?$_String_alloc@U?$_String_base_types@DV?$allocator@D@std@@@std@@@std@@QAEAAIXZ ; std::_String_alloc<std::_String_base_types<char,std::allocator<char> > >::_Mysize
PUBLIC	?_Mysize@?$_String_alloc@U?$_String_base_types@DV?$allocator@D@std@@@std@@@std@@QBEABIXZ ; std::_String_alloc<std::_String_base_types<char,std::allocator<char> > >::_Mysize
PUBLIC	?_Myres@?$_String_alloc@U?$_String_base_types@DV?$allocator@D@std@@@std@@@std@@QAEAAIXZ ; std::_String_alloc<std::_String_base_types<char,std::allocator<char> > >::_Myres
PUBLIC	?_Get_first@?$_Compressed_pair@U?$_Wrap_alloc@V?$allocator@D@std@@@std@@V?$_String_val@U?$_Simple_types@D@std@@@2@$00@std@@QAEAAU?$_Wrap_alloc@V?$allocator@D@std@@@2@XZ ; std::_Compressed_pair<std::_Wrap_alloc<std::allocator<char> >,std::_String_val<std::_Simple_types<char> >,1>::_Get_first
PUBLIC	?_Get_first@?$_Compressed_pair@U?$_Wrap_alloc@V?$allocator@D@std@@@std@@V?$_String_val@U?$_Simple_types@D@std@@@2@$00@std@@QBEABU?$_Wrap_alloc@V?$allocator@D@std@@@2@XZ ; std::_Compressed_pair<std::_Wrap_alloc<std::allocator<char> >,std::_String_val<std::_Simple_types<char> >,1>::_Get_first
PUBLIC	?_Get_second@?$_Compressed_pair@U?$_Wrap_alloc@V?$allocator@D@std@@@std@@V?$_String_val@U?$_Simple_types@D@std@@@2@$00@std@@QAEAAV?$_String_val@U?$_Simple_types@D@std@@@2@XZ ; std::_Compressed_pair<std::_Wrap_alloc<std::allocator<char> >,std::_String_val<std::_Simple_types<char> >,1>::_Get_second
PUBLIC	?_Get_second@?$_Compressed_pair@U?$_Wrap_alloc@V?$allocator@D@std@@@std@@V?$_String_val@U?$_Simple_types@D@std@@@2@$00@std@@QBEABV?$_String_val@U?$_Simple_types@D@std@@@2@XZ ; std::_Compressed_pair<std::_Wrap_alloc<std::allocator<char> >,std::_String_val<std::_Simple_types<char> >,1>::_Get_second
PUBLIC	??1?$_Compressed_pair@U?$_Wrap_alloc@V?$allocator@D@std@@@std@@V?$_String_val@U?$_Simple_types@D@std@@@2@$00@std@@QAE@XZ ; std::_Compressed_pair<std::_Wrap_alloc<std::allocator<char> >,std::_String_val<std::_Simple_types<char> >,1>::~_Compressed_pair<std::_Wrap_alloc<std::allocator<char> >,std::_String_val<std::_Simple_types<char> >,1>
PUBLIC	??0?$basic_string@DU?$char_traits@D@std@@V?$allocator@D@2@@std@@QAE@XZ ; std::basic_string<char,std::char_traits<char>,std::allocator<char> >::basic_string<char,std::char_traits<char>,std::allocator<char> >
PUBLIC	??0?$basic_string@DU?$char_traits@D@std@@V?$allocator@D@2@@std@@QAE@PBD@Z ; std::basic_string<char,std::char_traits<char>,std::allocator<char> >::basic_string<char,std::char_traits<char>,std::allocator<char> >
PUBLIC	??0?$basic_string@DU?$char_traits@D@std@@V?$allocator@D@2@@std@@QAE@$$QAV01@@Z ; std::basic_string<char,std::char_traits<char>,std::allocator<char> >::basic_string<char,std::char_traits<char>,std::allocator<char> >
PUBLIC	?_Assign_rv@?$basic_string@DU?$char_traits@D@std@@V?$allocator@D@2@@std@@QAEX$$QAV12@@Z ; std::basic_string<char,std::char_traits<char>,std::allocator<char> >::_Assign_rv
PUBLIC	??1?$basic_string@DU?$char_traits@D@std@@V?$allocator@D@2@@std@@QAE@XZ ; std::basic_string<char,std::char_traits<char>,std::allocator<char> >::~basic_string<char,std::char_traits<char>,std::allocator<char> >
PUBLIC	??Y?$basic_string@DU?$char_traits@D@std@@V?$allocator@D@2@@std@@QAEAAV01@ABV01@@Z ; std::basic_string<char,std::char_traits<char>,std::allocator<char> >::operator+=
PUBLIC	??Y?$basic_string@DU?$char_traits@D@std@@V?$allocator@D@2@@std@@QAEAAV01@PBD@Z ; std::basic_string<char,std::char_traits<char>,std::allocator<char> >::operator+=
PUBLIC	?append@?$basic_string@DU?$char_traits@D@std@@V?$allocator@D@2@@std@@QAEAAV12@ABV12@@Z ; std::basic_string<char,std::char_traits<char>,std::allocator<char> >::append
PUBLIC	?append@?$basic_string@DU?$char_traits@D@std@@V?$allocator@D@2@@std@@QAEAAV12@ABV12@II@Z ; std::basic_string<char,std::char_traits<char>,std::allocator<char> >::append
PUBLIC	?append@?$basic_string@DU?$char_traits@D@std@@V?$allocator@D@2@@std@@QAEAAV12@PBDI@Z ; std::basic_string<char,std::char_traits<char>,std::allocator<char> >::append
PUBLIC	?append@?$basic_string@DU?$char_traits@D@std@@V?$allocator@D@2@@std@@QAEAAV12@PBD@Z ; std::basic_string<char,std::char_traits<char>,std::allocator<char> >::append
PUBLIC	?assign@?$basic_string@DU?$char_traits@D@std@@V?$allocator@D@2@@std@@QAEAAV12@ABV12@II@Z ; std::basic_string<char,std::char_traits<char>,std::allocator<char> >::assign
PUBLIC	?assign@?$basic_string@DU?$char_traits@D@std@@V?$allocator@D@2@@std@@QAEAAV12@PBDI@Z ; std::basic_string<char,std::char_traits<char>,std::allocator<char> >::assign
PUBLIC	?assign@?$basic_string@DU?$char_traits@D@std@@V?$allocator@D@2@@std@@QAEAAV12@PBD@Z ; std::basic_string<char,std::char_traits<char>,std::allocator<char> >::assign
PUBLIC	?erase@?$basic_string@DU?$char_traits@D@std@@V?$allocator@D@2@@std@@QAEAAV12@I@Z ; std::basic_string<char,std::char_traits<char>,std::allocator<char> >::erase
PUBLIC	?erase@?$basic_string@DU?$char_traits@D@std@@V?$allocator@D@2@@std@@QAEAAV12@II@Z ; std::basic_string<char,std::char_traits<char>,std::allocator<char> >::erase
PUBLIC	?c_str@?$basic_string@DU?$char_traits@D@std@@V?$allocator@D@2@@std@@QBEPBDXZ ; std::basic_string<char,std::char_traits<char>,std::allocator<char> >::c_str
PUBLIC	?size@?$basic_string@DU?$char_traits@D@std@@V?$allocator@D@2@@std@@QBEIXZ ; std::basic_string<char,std::char_traits<char>,std::allocator<char> >::size
PUBLIC	?max_size@?$basic_string@DU?$char_traits@D@std@@V?$allocator@D@2@@std@@QBEIXZ ; std::basic_string<char,std::char_traits<char>,std::allocator<char> >::max_size
PUBLIC	?reserve@?$basic_string@DU?$char_traits@D@std@@V?$allocator@D@2@@std@@QAEXI@Z ; std::basic_string<char,std::char_traits<char>,std::allocator<char> >::reserve
PUBLIC	?_Clamp_suffix_size@?$basic_string@DU?$char_traits@D@std@@V?$allocator@D@2@@std@@QBEIII@Z ; std::basic_string<char,std::char_traits<char>,std::allocator<char> >::_Clamp_suffix_size
PUBLIC	?_Copy@?$basic_string@DU?$char_traits@D@std@@V?$allocator@D@2@@std@@QAEXII@Z ; std::basic_string<char,std::char_traits<char>,std::allocator<char> >::_Copy
PUBLIC	?_Eos@?$basic_string@DU?$char_traits@D@std@@V?$allocator@D@2@@std@@QAEXI@Z ; std::basic_string<char,std::char_traits<char>,std::allocator<char> >::_Eos
PUBLIC	?_Grow@?$basic_string@DU?$char_traits@D@std@@V?$allocator@D@2@@std@@QAE_NI_N@Z ; std::basic_string<char,std::char_traits<char>,std::allocator<char> >::_Grow
PUBLIC	?_Inside@?$basic_string@DU?$char_traits@D@std@@V?$allocator@D@2@@std@@QAE_NPBD@Z ; std::basic_string<char,std::char_traits<char>,std::allocator<char> >::_Inside
PUBLIC	?_Tidy@?$basic_string@DU?$char_traits@D@std@@V?$allocator@D@2@@std@@QAEX_NI@Z ; std::basic_string<char,std::char_traits<char>,std::allocator<char> >::_Tidy
PUBLIC	?_Xlen@?$basic_string@DU?$char_traits@D@std@@V?$allocator@D@2@@std@@QBEXXZ ; std::basic_string<char,std::char_traits<char>,std::allocator<char> >::_Xlen
PUBLIC	?_Check_offset@?$basic_string@DU?$char_traits@D@std@@V?$allocator@D@2@@std@@QBEXI@Z ; std::basic_string<char,std::char_traits<char>,std::allocator<char> >::_Check_offset
PUBLIC	?_Xran@?$basic_string@DU?$char_traits@D@std@@V?$allocator@D@2@@std@@QBEXXZ ; std::basic_string<char,std::char_traits<char>,std::allocator<char> >::_Xran
PUBLIC	??0runtime_error@std@@QAE@ABV?$basic_string@DU?$char_traits@D@std@@V?$allocator@D@2@@1@@Z ; std::runtime_error::runtime_error
PUBLIC	??1runtime_error@std@@UAE@XZ			; std::runtime_error::~runtime_error
PUBLIC	??0runtime_error@std@@QAE@ABV01@@Z		; std::runtime_error::runtime_error
PUBLIC	??_Gruntime_error@std@@UAEPAXI@Z		; std::runtime_error::`scalar deleting destructor'
PUBLIC	??0id@locale@std@@QAE@I@Z			; std::locale::id::id
PUBLIC	??0Vector2D@@QAE@XZ				; Vector2D::Vector2D
PUBLIC	??0Vector2D@@QAE@NN@Z				; Vector2D::Vector2D
PUBLIC	?Length@Vector2D@@QBENXZ			; Vector2D::Length
PUBLIC	?Normalize@Vector2D@@QAEXXZ			; Vector2D::Normalize
PUBLIC	?Perp@Vector2D@@QBE?AU1@XZ			; Vector2D::Perp
PUBLIC	?Truncate@Vector2D@@QAEXN@Z			; Vector2D::Truncate
PUBLIC	??YVector2D@@QAEABU0@ABU0@@Z			; Vector2D::operator+=
PUBLIC	??XVector2D@@QAEABU0@ABN@Z			; Vector2D::operator*=
PUBLIC	??D@YA?AUVector2D@@ABU0@N@Z			; operator*
PUBLIC	??D@YA?AUVector2D@@NABU0@@Z			; operator*
PUBLIC	??G@YA?AUVector2D@@ABU0@0@Z			; operator-
PUBLIC	??H@YA?AUVector2D@@ABU0@0@Z			; operator+
PUBLIC	??K@YA?AUVector2D@@ABU0@N@Z			; operator/
PUBLIC	?Vec2DNormalize@@YA?AUVector2D@@ABU1@@Z		; Vec2DNormalize
PUBLIC	?Vec2DDistance@@YANABUVector2D@@0@Z		; Vec2DDistance
PUBLIC	?LineIntersection2D@@YA_NUVector2D@@000AANAAU1@@Z ; LineIntersection2D
PUBLIC	??1BaseGameEntity@@UAE@XZ			; BaseGameEntity::~BaseGameEntity
PUBLIC	?Update@BaseGameEntity@@UAEXXZ			; BaseGameEntity::Update
PUBLIC	?HandleMessage@BaseGameEntity@@UAE_NABUTelegram@@@Z ; BaseGameEntity::HandleMessage
PUBLIC	?Write@BaseGameEntity@@UBEXAAV?$basic_ostream@DU?$char_traits@D@std@@@std@@@Z ; BaseGameEntity::Write
PUBLIC	?Read@BaseGameEntity@@UAEXAAV?$basic_ifstream@DU?$char_traits@D@std@@@std@@@Z ; BaseGameEntity::Read
PUBLIC	?GetNextValidID@BaseGameEntity@@SAHXZ		; BaseGameEntity::GetNextValidID
PUBLIC	?Pos@BaseGameEntity@@QBE?AUVector2D@@XZ		; BaseGameEntity::Pos
PUBLIC	?ID@BaseGameEntity@@QBEHXZ			; BaseGameEntity::ID
PUBLIC	??_GBaseGameEntity@@UAEPAXI@Z			; BaseGameEntity::`scalar deleting destructor'
PUBLIC	??0MovingEntity@@QAE@UVector2D@@N0N0N0NN@Z	; MovingEntity::MovingEntity
PUBLIC	??1MovingEntity@@UAE@XZ				; MovingEntity::~MovingEntity
PUBLIC	?Velocity@MovingEntity@@QBE?AUVector2D@@XZ	; MovingEntity::Velocity
PUBLIC	?MaxSpeed@MovingEntity@@QBENXZ			; MovingEntity::MaxSpeed
PUBLIC	??_GMovingEntity@@UAEPAXI@Z			; MovingEntity::`scalar deleting destructor'
PUBLIC	?GetTickCount@CrudeTimer@@QAENXZ		; CrudeTimer::GetTickCount
PUBLIC	??0Raven_Projectile@@QAE@UVector2D@@PAVRaven_Game@@H00HNNNN@Z ; Raven_Projectile::Raven_Projectile
PUBLIC	?Write@Raven_Projectile@@UBEXAAV?$basic_ostream@DU?$char_traits@D@std@@@std@@@Z ; Raven_Projectile::Write
PUBLIC	?Read@Raven_Projectile@@UAEXAAV?$basic_ifstream@DU?$char_traits@D@std@@@std@@@Z ; Raven_Projectile::Read
PUBLIC	?HasImpacted@Raven_Projectile@@QBE_NXZ		; Raven_Projectile::HasImpacted
PUBLIC	??1Raven_Projectile@@UAE@XZ			; Raven_Projectile::~Raven_Projectile
PUBLIC	??_GRaven_Projectile@@UAEPAXI@Z			; Raven_Projectile::`scalar deleting destructor'
PUBLIC	?TestForImpact@Slug@@AAEXXZ			; Slug::TestForImpact
PUBLIC	?isVisibleToPlayer@Slug@@ABE_NXZ		; Slug::isVisibleToPlayer
PUBLIC	??0Slug@@QAE@PAVRaven_Bot@@UVector2D@@@Z	; Slug::Slug
PUBLIC	?Render@Slug@@UAEXXZ				; Slug::Render
PUBLIC	?Update@Slug@@UAEXXZ				; Slug::Update
PUBLIC	??1Slug@@UAE@XZ					; Slug::~Slug
PUBLIC	??_GSlug@@UAEPAXI@Z				; Slug::`scalar deleting destructor'
PUBLIC	??$?HDU?$char_traits@D@std@@V?$allocator@D@1@@std@@YA?AV?$basic_string@DU?$char_traits@D@std@@V?$allocator@D@2@@0@ABV10@PBD@Z ; std::operator+<char,std::char_traits<char>,std::allocator<char> >
PUBLIC	?GetInt@Scriptor@@QAEHPAD@Z			; Scriptor::GetInt
PUBLIC	?GetDouble@Scriptor@@QAENPAD@Z			; Scriptor::GetDouble
PUBLIC	??$PopLuaNumber@H@@YAHPAUlua_State@@PBD@Z	; PopLuaNumber<int>
PUBLIC	??$PopLuaNumber@N@@YANPAUlua_State@@PBD@Z	; PopLuaNumber<double>
PUBLIC	?GreenPen@Cgdi@@QAEXXZ				; Cgdi::GreenPen
PUBLIC	?Line@Cgdi@@QAEXUVector2D@@0@Z			; Cgdi::Line
PUBLIC	?Facing@Raven_Bot@@QBE?AUVector2D@@XZ		; Raven_Bot::Facing
PUBLIC	?GetWorld@Raven_Bot@@QAEQAVRaven_Game@@XZ	; Raven_Bot::GetWorld
PUBLIC	?From@Wall2D@@QBE?AUVector2D@@XZ		; Wall2D::From
PUBLIC	?To@Wall2D@@QBE?AUVector2D@@XZ			; Wall2D::To
PUBLIC	?deallocate@?$allocator@U?$_List_node@PAVRaven_Bot@@PAX@std@@@std@@QAEXPAU?$_List_node@PAVRaven_Bot@@PAX@2@I@Z ; std::allocator<std::_List_node<Raven_Bot *,void *> >::deallocate
PUBLIC	?deallocate@?$_Wrap_alloc@V?$allocator@U?$_List_node@PAVRaven_Bot@@PAX@std@@@std@@@std@@QAEXPAU?$_List_node@PAVRaven_Bot@@PAX@2@I@Z ; std::_Wrap_alloc<std::allocator<std::_List_node<Raven_Bot *,void *> > >::deallocate
PUBLIC	?_Nextnode@?$_List_alloc@U?$_List_base_types@PAVRaven_Bot@@V?$allocator@PAVRaven_Bot@@@std@@@std@@@std@@SAAAPAU?$_List_node@PAVRaven_Bot@@PAX@2@PAU32@@Z ; std::_List_alloc<std::_List_base_types<Raven_Bot *,std::allocator<Raven_Bot *> > >::_Nextnode
PUBLIC	?_Prevnode@?$_List_alloc@U?$_List_base_types@PAVRaven_Bot@@V?$allocator@PAVRaven_Bot@@@std@@@std@@@std@@SAAAPAU?$_List_node@PAVRaven_Bot@@PAX@2@PAU32@@Z ; std::_List_alloc<std::_List_base_types<Raven_Bot *,std::allocator<Raven_Bot *> > >::_Prevnode
PUBLIC	?_Myval@?$_List_alloc@U?$_List_base_types@PAVRaven_Bot@@V?$allocator@PAVRaven_Bot@@@std@@@std@@@std@@SAAAPAVRaven_Bot@@PAU?$_List_node@PAVRaven_Bot@@PAX@2@@Z ; std::_List_alloc<std::_List_base_types<Raven_Bot *,std::allocator<Raven_Bot *> > >::_Myval
PUBLIC	??1?$_List_alloc@U?$_List_base_types@PAVRaven_Bot@@V?$allocator@PAVRaven_Bot@@@std@@@std@@@std@@QAE@XZ ; std::_List_alloc<std::_List_base_types<Raven_Bot *,std::allocator<Raven_Bot *> > >::~_List_alloc<std::_List_base_types<Raven_Bot *,std::allocator<Raven_Bot *> > >
PUBLIC	?_Free_proxy@?$_List_alloc@U?$_List_base_types@PAVRaven_Bot@@V?$allocator@PAVRaven_Bot@@@std@@@std@@@std@@QAEXXZ ; std::_List_alloc<std::_List_base_types<Raven_Bot *,std::allocator<Raven_Bot *> > >::_Free_proxy
PUBLIC	?_Getpfirst@?$_List_alloc@U?$_List_base_types@PAVRaven_Bot@@V?$allocator@PAVRaven_Bot@@@std@@@std@@@std@@QBEPAPAU_Iterator_base12@2@XZ ; std::_List_alloc<std::_List_base_types<Raven_Bot *,std::allocator<Raven_Bot *> > >::_Getpfirst
PUBLIC	?_Myproxy@?$_List_alloc@U?$_List_base_types@PAVRaven_Bot@@V?$allocator@PAVRaven_Bot@@@std@@@std@@@std@@QAEAAPAU_Container_proxy@2@XZ ; std::_List_alloc<std::_List_base_types<Raven_Bot *,std::allocator<Raven_Bot *> > >::_Myproxy
PUBLIC	?_Freeheadnode@?$_List_alloc@U?$_List_base_types@PAVRaven_Bot@@V?$allocator@PAVRaven_Bot@@@std@@@std@@@std@@QAEXPAU?$_List_node@PAVRaven_Bot@@PAX@2@@Z ; std::_List_alloc<std::_List_base_types<Raven_Bot *,std::allocator<Raven_Bot *> > >::_Freeheadnode
PUBLIC	?_Orphan_all@?$_List_alloc@U?$_List_base_types@PAVRaven_Bot@@V?$allocator@PAVRaven_Bot@@@std@@@std@@@std@@QAEXXZ ; std::_List_alloc<std::_List_base_types<Raven_Bot *,std::allocator<Raven_Bot *> > >::_Orphan_all
PUBLIC	?_Getal@?$_List_alloc@U?$_List_base_types@PAVRaven_Bot@@V?$allocator@PAVRaven_Bot@@@std@@@std@@@std@@QAEAAU?$_Wrap_alloc@V?$allocator@U?$_List_node@PAVRaven_Bot@@PAX@std@@@std@@@2@XZ ; std::_List_alloc<std::_List_base_types<Raven_Bot *,std::allocator<Raven_Bot *> > >::_Getal
PUBLIC	?_Get_data@?$_List_alloc@U?$_List_base_types@PAVRaven_Bot@@V?$allocator@PAVRaven_Bot@@@std@@@std@@@std@@QAEAAV?$_List_val@U?$_List_simple_types@PAVRaven_Bot@@@std@@@2@XZ ; std::_List_alloc<std::_List_base_types<Raven_Bot *,std::allocator<Raven_Bot *> > >::_Get_data
PUBLIC	?_Get_data@?$_List_alloc@U?$_List_base_types@PAVRaven_Bot@@V?$allocator@PAVRaven_Bot@@@std@@@std@@@std@@QBEABV?$_List_val@U?$_List_simple_types@PAVRaven_Bot@@@std@@@2@XZ ; std::_List_alloc<std::_List_base_types<Raven_Bot *,std::allocator<Raven_Bot *> > >::_Get_data
PUBLIC	?_Myhead@?$_List_alloc@U?$_List_base_types@PAVRaven_Bot@@V?$allocator@PAVRaven_Bot@@@std@@@std@@@std@@QAEAAPAU?$_List_node@PAVRaven_Bot@@PAX@2@XZ ; std::_List_alloc<std::_List_base_types<Raven_Bot *,std::allocator<Raven_Bot *> > >::_Myhead
PUBLIC	?_Mysize@?$_List_alloc@U?$_List_base_types@PAVRaven_Bot@@V?$allocator@PAVRaven_Bot@@@std@@@std@@@std@@QAEAAIXZ ; std::_List_alloc<std::_List_base_types<Raven_Bot *,std::allocator<Raven_Bot *> > >::_Mysize
PUBLIC	?_Mysize@?$_List_alloc@U?$_List_base_types@PAVRaven_Bot@@V?$allocator@PAVRaven_Bot@@@std@@@std@@@std@@QBEABIXZ ; std::_List_alloc<std::_List_base_types<Raven_Bot *,std::allocator<Raven_Bot *> > >::_Mysize
PUBLIC	?_Nextnode@?$_List_val@U?$_List_simple_types@PAVRaven_Bot@@@std@@@std@@SAAAPAU?$_List_node@PAVRaven_Bot@@PAX@2@PAU32@@Z ; std::_List_val<std::_List_simple_types<Raven_Bot *> >::_Nextnode
PUBLIC	?_Prevnode@?$_List_val@U?$_List_simple_types@PAVRaven_Bot@@@std@@@std@@SAAAPAU?$_List_node@PAVRaven_Bot@@PAX@2@PAU32@@Z ; std::_List_val<std::_List_simple_types<Raven_Bot *> >::_Prevnode
PUBLIC	?_Myval@?$_List_val@U?$_List_simple_types@PAVRaven_Bot@@@std@@@std@@SAAAPAVRaven_Bot@@PAU?$_List_node@PAVRaven_Bot@@PAX@2@@Z ; std::_List_val<std::_List_simple_types<Raven_Bot *> >::_Myval
PUBLIC	??1?$_List_val@U?$_List_simple_types@PAVRaven_Bot@@@std@@@std@@QAE@XZ ; std::_List_val<std::_List_simple_types<Raven_Bot *> >::~_List_val<std::_List_simple_types<Raven_Bot *> >
PUBLIC	?_Get_first@?$_Compressed_pair@U?$_Wrap_alloc@V?$allocator@U?$_List_node@PAVRaven_Bot@@PAX@std@@@std@@@std@@V?$_List_val@U?$_List_simple_types@PAVRaven_Bot@@@std@@@2@$00@std@@QAEAAU?$_Wrap_alloc@V?$allocator@U?$_List_node@PAVRaven_Bot@@PAX@std@@@std@@@2@XZ ; std::_Compressed_pair<std::_Wrap_alloc<std::allocator<std::_List_node<Raven_Bot *,void *> > >,std::_List_val<std::_List_simple_types<Raven_Bot *> >,1>::_Get_first
PUBLIC	?_Get_second@?$_Compressed_pair@U?$_Wrap_alloc@V?$allocator@U?$_List_node@PAVRaven_Bot@@PAX@std@@@std@@@std@@V?$_List_val@U?$_List_simple_types@PAVRaven_Bot@@@std@@@2@$00@std@@QAEAAV?$_List_val@U?$_List_simple_types@PAVRaven_Bot@@@std@@@2@XZ ; std::_Compressed_pair<std::_Wrap_alloc<std::allocator<std::_List_node<Raven_Bot *,void *> > >,std::_List_val<std::_List_simple_types<Raven_Bot *> >,1>::_Get_second
PUBLIC	?_Get_second@?$_Compressed_pair@U?$_Wrap_alloc@V?$allocator@U?$_List_node@PAVRaven_Bot@@PAX@std@@@std@@@std@@V?$_List_val@U?$_List_simple_types@PAVRaven_Bot@@@std@@@2@$00@std@@QBEABV?$_List_val@U?$_List_simple_types@PAVRaven_Bot@@@std@@@2@XZ ; std::_Compressed_pair<std::_Wrap_alloc<std::allocator<std::_List_node<Raven_Bot *,void *> > >,std::_List_val<std::_List_simple_types<Raven_Bot *> >,1>::_Get_second
PUBLIC	??1?$_Compressed_pair@U?$_Wrap_alloc@V?$allocator@U?$_List_node@PAVRaven_Bot@@PAX@std@@@std@@@std@@V?$_List_val@U?$_List_simple_types@PAVRaven_Bot@@@std@@@2@$00@std@@QAE@XZ ; std::_Compressed_pair<std::_Wrap_alloc<std::allocator<std::_List_node<Raven_Bot *,void *> > >,std::_List_val<std::_List_simple_types<Raven_Bot *> >,1>::~_Compressed_pair<std::_Wrap_alloc<std::allocator<std::_List_node<Raven_Bot *,void *> > >,std::_List_val<std::_List_simple_types<Raven_Bot *> >,1>
PUBLIC	?_Freenode@?$_List_buy@PAVRaven_Bot@@V?$allocator@PAVRaven_Bot@@@std@@@std@@QAEXPAU?$_List_node@PAVRaven_Bot@@PAX@2@@Z ; std::_List_buy<Raven_Bot *,std::allocator<Raven_Bot *> >::_Freenode
PUBLIC	??1?$_List_buy@PAVRaven_Bot@@V?$allocator@PAVRaven_Bot@@@std@@@std@@QAE@XZ ; std::_List_buy<Raven_Bot *,std::allocator<Raven_Bot *> >::~_List_buy<Raven_Bot *,std::allocator<Raven_Bot *> >
PUBLIC	??1?$list@PAVRaven_Bot@@V?$allocator@PAVRaven_Bot@@@std@@@std@@QAE@XZ ; std::list<Raven_Bot *,std::allocator<Raven_Bot *> >::~list<Raven_Bot *,std::allocator<Raven_Bot *> >
PUBLIC	?begin@?$list@PAVRaven_Bot@@V?$allocator@PAVRaven_Bot@@@std@@@std@@QAE?AV?$_List_iterator@V?$_List_val@U?$_List_simple_types@PAVRaven_Bot@@@std@@@std@@@2@XZ ; std::list<Raven_Bot *,std::allocator<Raven_Bot *> >::begin
PUBLIC	?end@?$list@PAVRaven_Bot@@V?$allocator@PAVRaven_Bot@@@std@@@std@@QAE?AV?$_List_iterator@V?$_List_val@U?$_List_simple_types@PAVRaven_Bot@@@std@@@std@@@2@XZ ; std::list<Raven_Bot *,std::allocator<Raven_Bot *> >::end
PUBLIC	?empty@?$list@PAVRaven_Bot@@V?$allocator@PAVRaven_Bot@@@std@@@std@@QBE_NXZ ; std::list<Raven_Bot *,std::allocator<Raven_Bot *> >::empty
PUBLIC	?clear@?$list@PAVRaven_Bot@@V?$allocator@PAVRaven_Bot@@@std@@@std@@QAEXXZ ; std::list<Raven_Bot *,std::allocator<Raven_Bot *> >::clear
PUBLIC	?_Tidy@?$list@PAVRaven_Bot@@V?$allocator@PAVRaven_Bot@@@std@@@std@@QAEXXZ ; std::list<Raven_Bot *,std::allocator<Raven_Bot *> >::_Tidy
PUBLIC	?_Orphan_ptr@?$list@PAVRaven_Bot@@V?$allocator@PAVRaven_Bot@@@std@@@std@@QAEXPAU?$_List_node@PAVRaven_Bot@@PAX@2@@Z ; std::list<Raven_Bot *,std::allocator<Raven_Bot *> >::_Orphan_ptr
PUBLIC	?GetMap@Raven_Game@@QAEQAVRaven_Map@@XZ		; Raven_Game::GetMap
PUBLIC	?_Get_data@?$_Vector_alloc@U?$_Vec_base_types@PAVWall2D@@V?$allocator@PAVWall2D@@@std@@@std@@@std@@QBEABV?$_Vector_val@U?$_Simple_types@PAVWall2D@@@std@@@2@XZ ; std::_Vector_alloc<std::_Vec_base_types<Wall2D *,std::allocator<Wall2D *> > >::_Get_data
PUBLIC	?_Myfirst@?$_Vector_alloc@U?$_Vec_base_types@PAVWall2D@@V?$allocator@PAVWall2D@@@std@@@std@@@std@@QBEABQAPAVWall2D@@XZ ; std::_Vector_alloc<std::_Vec_base_types<Wall2D *,std::allocator<Wall2D *> > >::_Myfirst
PUBLIC	?_Mylast@?$_Vector_alloc@U?$_Vec_base_types@PAVWall2D@@V?$allocator@PAVWall2D@@@std@@@std@@@std@@QBEABQAPAVWall2D@@XZ ; std::_Vector_alloc<std::_Vec_base_types<Wall2D *,std::allocator<Wall2D *> > >::_Mylast
PUBLIC	?_Get_second@?$_Compressed_pair@U?$_Wrap_alloc@V?$allocator@PAVWall2D@@@std@@@std@@V?$_Vector_val@U?$_Simple_types@PAVWall2D@@@std@@@2@$00@std@@QBEABV?$_Vector_val@U?$_Simple_types@PAVWall2D@@@std@@@2@XZ ; std::_Compressed_pair<std::_Wrap_alloc<std::allocator<Wall2D *> >,std::_Vector_val<std::_Simple_types<Wall2D *> >,1>::_Get_second
PUBLIC	?begin@?$vector@PAVWall2D@@V?$allocator@PAVWall2D@@@std@@@std@@QBE?AV?$_Vector_const_iterator@V?$_Vector_val@U?$_Simple_types@PAVWall2D@@@std@@@std@@@2@XZ ; std::vector<Wall2D *,std::allocator<Wall2D *> >::begin
PUBLIC	?end@?$vector@PAVWall2D@@V?$allocator@PAVWall2D@@@std@@@std@@QBE?AV?$_Vector_const_iterator@V?$_Vector_val@U?$_Simple_types@PAVWall2D@@@std@@@std@@@2@XZ ; std::vector<Wall2D *,std::allocator<Wall2D *> >::end
PUBLIC	?GetWalls@Raven_Map@@QBEABV?$vector@PAVWall2D@@V?$allocator@PAVWall2D@@@std@@@std@@XZ ; Raven_Map::GetWalls
PUBLIC	??$FindClosestPointOfIntersectionWithWalls@V?$vector@PAVWall2D@@V?$allocator@PAVWall2D@@@std@@@std@@@@YA_NUVector2D@@0AANAAU0@ABV?$vector@PAVWall2D@@V?$allocator@PAVWall2D@@@std@@@std@@@Z ; FindClosestPointOfIntersectionWithWalls<std::vector<Wall2D *,std::allocator<Wall2D *> > >
PUBLIC	??0?$_Iterator012@Ubidirectional_iterator_tag@std@@PAVRaven_Bot@@HPBQAV3@ABQAV3@U_Iterator_base12@2@@std@@QAE@XZ ; std::_Iterator012<std::bidirectional_iterator_tag,Raven_Bot *,int,Raven_Bot * const *,Raven_Bot * const &,std::_Iterator_base12>::_Iterator012<std::bidirectional_iterator_tag,Raven_Bot *,int,Raven_Bot * const *,Raven_Bot * const &,std::_Iterator_base12>
PUBLIC	??1?$_Iterator012@Ubidirectional_iterator_tag@std@@PAVRaven_Bot@@HPBQAV3@ABQAV3@U_Iterator_base12@2@@std@@QAE@XZ ; std::_Iterator012<std::bidirectional_iterator_tag,Raven_Bot *,int,Raven_Bot * const *,Raven_Bot * const &,std::_Iterator_base12>::~_Iterator012<std::bidirectional_iterator_tag,Raven_Bot *,int,Raven_Bot * const *,Raven_Bot * const &,std::_Iterator_base12>
PUBLIC	??4?$_Iterator012@Ubidirectional_iterator_tag@std@@PAVRaven_Bot@@HPBQAV3@ABQAV3@U_Iterator_base12@2@@std@@QAEAAU01@$$QAU01@@Z ; std::_Iterator012<std::bidirectional_iterator_tag,Raven_Bot *,int,Raven_Bot * const *,Raven_Bot * const &,std::_Iterator_base12>::operator=
PUBLIC	??0?$_List_unchecked_const_iterator@V?$_List_val@U?$_List_simple_types@PAVRaven_Bot@@@std@@@std@@U_Iterator_base12@2@@std@@QAE@XZ ; std::_List_unchecked_const_iterator<std::_List_val<std::_List_simple_types<Raven_Bot *> >,std::_Iterator_base12>::_List_unchecked_const_iterator<std::_List_val<std::_List_simple_types<Raven_Bot *> >,std::_Iterator_base12>
PUBLIC	??0?$_List_unchecked_const_iterator@V?$_List_val@U?$_List_simple_types@PAVRaven_Bot@@@std@@@std@@U_Iterator_base12@2@@std@@QAE@PAU?$_List_node@PAVRaven_Bot@@PAX@1@PBV?$_List_val@U?$_List_simple_types@PAVRaven_Bot@@@std@@@1@@Z ; std::_List_unchecked_const_iterator<std::_List_val<std::_List_simple_types<Raven_Bot *> >,std::_Iterator_base12>::_List_unchecked_const_iterator<std::_List_val<std::_List_simple_types<Raven_Bot *> >,std::_Iterator_base12>
PUBLIC	??1?$_List_unchecked_const_iterator@V?$_List_val@U?$_List_simple_types@PAVRaven_Bot@@@std@@@std@@U_Iterator_base12@2@@std@@QAE@XZ ; std::_List_unchecked_const_iterator<std::_List_val<std::_List_simple_types<Raven_Bot *> >,std::_Iterator_base12>::~_List_unchecked_const_iterator<std::_List_val<std::_List_simple_types<Raven_Bot *> >,std::_Iterator_base12>
PUBLIC	??4?$_List_unchecked_const_iterator@V?$_List_val@U?$_List_simple_types@PAVRaven_Bot@@@std@@@std@@U_Iterator_base12@2@@std@@QAEAAV01@$$QAV01@@Z ; std::_List_unchecked_const_iterator<std::_List_val<std::_List_simple_types<Raven_Bot *> >,std::_Iterator_base12>::operator=
PUBLIC	??0?$_List_const_iterator@V?$_List_val@U?$_List_simple_types@PAVRaven_Bot@@@std@@@std@@@std@@QAE@XZ ; std::_List_const_iterator<std::_List_val<std::_List_simple_types<Raven_Bot *> > >::_List_const_iterator<std::_List_val<std::_List_simple_types<Raven_Bot *> > >
PUBLIC	??0?$_List_const_iterator@V?$_List_val@U?$_List_simple_types@PAVRaven_Bot@@@std@@@std@@@std@@QAE@PAU?$_List_node@PAVRaven_Bot@@PAX@1@PBV?$_List_val@U?$_List_simple_types@PAVRaven_Bot@@@std@@@1@@Z ; std::_List_const_iterator<std::_List_val<std::_List_simple_types<Raven_Bot *> > >::_List_const_iterator<std::_List_val<std::_List_simple_types<Raven_Bot *> > >
PUBLIC	??D?$_List_const_iterator@V?$_List_val@U?$_List_simple_types@PAVRaven_Bot@@@std@@@std@@@std@@QBEABQAVRaven_Bot@@XZ ; std::_List_const_iterator<std::_List_val<std::_List_simple_types<Raven_Bot *> > >::operator*
PUBLIC	??E?$_List_const_iterator@V?$_List_val@U?$_List_simple_types@PAVRaven_Bot@@@std@@@std@@@std@@QAEAAV01@XZ ; std::_List_const_iterator<std::_List_val<std::_List_simple_types<Raven_Bot *> > >::operator++
PUBLIC	??8?$_List_const_iterator@V?$_List_val@U?$_List_simple_types@PAVRaven_Bot@@@std@@@std@@@std@@QBE_NABV01@@Z ; std::_List_const_iterator<std::_List_val<std::_List_simple_types<Raven_Bot *> > >::operator==
PUBLIC	??9?$_List_const_iterator@V?$_List_val@U?$_List_simple_types@PAVRaven_Bot@@@std@@@std@@@std@@QBE_NABV01@@Z ; std::_List_const_iterator<std::_List_val<std::_List_simple_types<Raven_Bot *> > >::operator!=
PUBLIC	??1?$_List_const_iterator@V?$_List_val@U?$_List_simple_types@PAVRaven_Bot@@@std@@@std@@@std@@QAE@XZ ; std::_List_const_iterator<std::_List_val<std::_List_simple_types<Raven_Bot *> > >::~_List_const_iterator<std::_List_val<std::_List_simple_types<Raven_Bot *> > >
PUBLIC	??4?$_List_const_iterator@V?$_List_val@U?$_List_simple_types@PAVRaven_Bot@@@std@@@std@@@std@@QAEAAV01@$$QAV01@@Z ; std::_List_const_iterator<std::_List_val<std::_List_simple_types<Raven_Bot *> > >::operator=
PUBLIC	??0?$_List_iterator@V?$_List_val@U?$_List_simple_types@PAVRaven_Bot@@@std@@@std@@@std@@QAE@XZ ; std::_List_iterator<std::_List_val<std::_List_simple_types<Raven_Bot *> > >::_List_iterator<std::_List_val<std::_List_simple_types<Raven_Bot *> > >
PUBLIC	??0?$_List_iterator@V?$_List_val@U?$_List_simple_types@PAVRaven_Bot@@@std@@@std@@@std@@QAE@PAU?$_List_node@PAVRaven_Bot@@PAX@1@PBV?$_List_val@U?$_List_simple_types@PAVRaven_Bot@@@std@@@1@@Z ; std::_List_iterator<std::_List_val<std::_List_simple_types<Raven_Bot *> > >::_List_iterator<std::_List_val<std::_List_simple_types<Raven_Bot *> > >
PUBLIC	??D?$_List_iterator@V?$_List_val@U?$_List_simple_types@PAVRaven_Bot@@@std@@@std@@@std@@QBEAAPAVRaven_Bot@@XZ ; std::_List_iterator<std::_List_val<std::_List_simple_types<Raven_Bot *> > >::operator*
PUBLIC	??E?$_List_iterator@V?$_List_val@U?$_List_simple_types@PAVRaven_Bot@@@std@@@std@@@std@@QAEAAV01@XZ ; std::_List_iterator<std::_List_val<std::_List_simple_types<Raven_Bot *> > >::operator++
PUBLIC	??1?$_List_iterator@V?$_List_val@U?$_List_simple_types@PAVRaven_Bot@@@std@@@std@@@std@@QAE@XZ ; std::_List_iterator<std::_List_val<std::_List_simple_types<Raven_Bot *> > >::~_List_iterator<std::_List_val<std::_List_simple_types<Raven_Bot *> > >
PUBLIC	??4?$_List_iterator@V?$_List_val@U?$_List_simple_types@PAVRaven_Bot@@@std@@@std@@@std@@QAEAAV01@$$QAV01@@Z ; std::_List_iterator<std::_List_val<std::_List_simple_types<Raven_Bot *> > >::operator=
PUBLIC	??$_Debug_pointer@$$CBD@std@@YAXPBDPB_WI@Z	; std::_Debug_pointer<char const >
PUBLIC	??$move@AAU?$_Wrap_alloc@V?$allocator@D@std@@@std@@@std@@YA$$QAU?$_Wrap_alloc@V?$allocator@D@std@@@0@AAU10@@Z ; std::move<std::_Wrap_alloc<std::allocator<char> > &>
PUBLIC	??$?0U?$_Wrap_alloc@V?$allocator@D@std@@@std@@X@?$_String_alloc@U?$_String_base_types@DV?$allocator@D@std@@@std@@@std@@QAE@$$QAU?$_Wrap_alloc@V?$allocator@D@std@@@1@@Z ; std::_String_alloc<std::_String_base_types<char,std::allocator<char> > >::_String_alloc<std::_String_base_types<char,std::allocator<char> > ><std::_Wrap_alloc<std::allocator<char> >,void>
PUBLIC	??$forward@V?$basic_string@DU?$char_traits@D@std@@V?$allocator@D@2@@std@@@std@@YA$$QAV?$basic_string@DU?$char_traits@D@std@@V?$allocator@D@2@@0@AAV10@@Z ; std::forward<std::basic_string<char,std::char_traits<char>,std::allocator<char> > >
PUBLIC	??$?0$$V@?$_Compressed_pair@U?$_Wrap_alloc@V?$allocator@D@std@@@std@@V?$_String_val@U?$_Simple_types@D@std@@@2@$00@std@@QAE@U_Zero_then_variadic_args_t@1@@Z ; std::_Compressed_pair<std::_Wrap_alloc<std::allocator<char> >,std::_String_val<std::_Simple_types<char> >,1>::_Compressed_pair<std::_Wrap_alloc<std::allocator<char> >,std::_String_val<std::_Simple_types<char> >,1><>
PUBLIC	??$addressof@PAD@std@@YAPAPADAAPAD@Z		; std::addressof<char *>
PUBLIC	??$destroy@PAD@?$_Wrap_alloc@V?$allocator@D@std@@@std@@QAEXPAPAD@Z ; std::_Wrap_alloc<std::allocator<char> >::destroy<char *>
PUBLIC	??$_Unfancy@D@std@@YAPADPAD@Z			; std::_Unfancy<char>
PUBLIC	??$_Debug_pointer_if@$$CBD@std@@YAX_NPBDPB_WI@Z	; std::_Debug_pointer_if<char const >
PUBLIC	??$construct@PADAAPAD@?$_Wrap_alloc@V?$allocator@D@std@@@std@@QAEXPAPADAAPAD@Z ; std::_Wrap_alloc<std::allocator<char> >::construct<char *,char * &>
PUBLIC	?deallocate@?$allocator@U_Container_proxy@std@@@std@@QAEXPAU_Container_proxy@2@I@Z ; std::allocator<std::_Container_proxy>::deallocate
PUBLIC	?allocate@?$allocator@U_Container_proxy@std@@@std@@QAEPAU_Container_proxy@2@I@Z ; std::allocator<std::_Container_proxy>::allocate
PUBLIC	?address@?$_Wrap_alloc@V?$allocator@U_Container_proxy@std@@@std@@@std@@QBEPAU_Container_proxy@2@AAU32@@Z ; std::_Wrap_alloc<std::allocator<std::_Container_proxy> >::address
PUBLIC	?allocate@?$_Wrap_alloc@V?$allocator@U_Container_proxy@std@@@std@@@std@@QAEPAU_Container_proxy@2@I@Z ; std::_Wrap_alloc<std::allocator<std::_Container_proxy> >::allocate
PUBLIC	?deallocate@?$_Wrap_alloc@V?$allocator@U_Container_proxy@std@@@std@@@std@@QAEXPAU_Container_proxy@2@I@Z ; std::_Wrap_alloc<std::allocator<std::_Container_proxy> >::deallocate
PUBLIC	??$destroy@U_Container_proxy@std@@@?$_Wrap_alloc@V?$allocator@U_Container_proxy@std@@@std@@@std@@QAEXPAU_Container_proxy@1@@Z ; std::_Wrap_alloc<std::allocator<std::_Container_proxy> >::destroy<std::_Container_proxy>
PUBLIC	??$addressof@PAU?$_List_node@PAVRaven_Bot@@PAX@std@@@std@@YAPAPAU?$_List_node@PAVRaven_Bot@@PAX@0@AAPAU10@@Z ; std::addressof<std::_List_node<Raven_Bot *,void *> *>
PUBLIC	??$destroy@PAU?$_List_node@PAVRaven_Bot@@PAX@std@@@?$_Wrap_alloc@V?$allocator@U?$_List_node@PAVRaven_Bot@@PAX@std@@@std@@@std@@QAEXPAPAU?$_List_node@PAVRaven_Bot@@PAX@1@@Z ; std::_Wrap_alloc<std::allocator<std::_List_node<Raven_Bot *,void *> > >::destroy<std::_List_node<Raven_Bot *,void *> *>
PUBLIC	??$?0AAU?$_Wrap_alloc@V?$allocator@U?$_List_node@PAVRaven_Bot@@PAX@std@@@std@@@std@@@?$_Wrap_alloc@V?$allocator@U_Container_proxy@std@@@std@@@std@@QAE@AAU?$_Wrap_alloc@V?$allocator@U?$_List_node@PAVRaven_Bot@@PAX@std@@@std@@@1@@Z ; std::_Wrap_alloc<std::allocator<std::_Container_proxy> >::_Wrap_alloc<std::allocator<std::_Container_proxy> ><std::_Wrap_alloc<std::allocator<std::_List_node<Raven_Bot *,void *> > > &>
PUBLIC	??$_Unfancy@U_Container_proxy@std@@@std@@YAPAU_Container_proxy@0@PAU10@@Z ; std::_Unfancy<std::_Container_proxy>
PUBLIC	??$construct@U_Container_proxy@std@@U12@@?$_Wrap_alloc@V?$allocator@U_Container_proxy@std@@@std@@@std@@QAEXPAU_Container_proxy@1@$$QAU21@@Z ; std::_Wrap_alloc<std::allocator<std::_Container_proxy> >::construct<std::_Container_proxy,std::_Container_proxy>
PUBLIC	??$?0AAU?$_Wrap_alloc@V?$allocator@D@std@@@std@@@?$_Wrap_alloc@V?$allocator@U_Container_proxy@std@@@std@@@std@@QAE@AAU?$_Wrap_alloc@V?$allocator@D@std@@@1@@Z ; std::_Wrap_alloc<std::allocator<std::_Container_proxy> >::_Wrap_alloc<std::allocator<std::_Container_proxy> ><std::_Wrap_alloc<std::allocator<char> > &>
PUBLIC	?pointer_to@?$pointer_traits@PAU_Container_proxy@std@@@std@@SAPAU_Container_proxy@2@AAU32@@Z ; std::pointer_traits<std::_Container_proxy *>::pointer_to
PUBLIC	??$addressof@PAVRaven_Bot@@@std@@YAPAPAVRaven_Bot@@AAPAV1@@Z ; std::addressof<Raven_Bot *>
PUBLIC	??$destroy@PAVRaven_Bot@@@?$_Wrap_alloc@V?$allocator@U?$_List_node@PAVRaven_Bot@@PAX@std@@@std@@@std@@QAEXPAPAVRaven_Bot@@@Z ; std::_Wrap_alloc<std::allocator<std::_List_node<Raven_Bot *,void *> > >::destroy<Raven_Bot *>
PUBLIC	??$addressof@U_Container_proxy@std@@@std@@YAPAU_Container_proxy@0@AAU10@@Z ; std::addressof<std::_Container_proxy>
PUBLIC	??0?$_Iterator012@Urandom_access_iterator_tag@std@@PAVWall2D@@HPBQAV3@ABQAV3@U_Iterator_base12@2@@std@@QAE@XZ ; std::_Iterator012<std::random_access_iterator_tag,Wall2D *,int,Wall2D * const *,Wall2D * const &,std::_Iterator_base12>::_Iterator012<std::random_access_iterator_tag,Wall2D *,int,Wall2D * const *,Wall2D * const &,std::_Iterator_base12>
PUBLIC	??1?$_Iterator012@Urandom_access_iterator_tag@std@@PAVWall2D@@HPBQAV3@ABQAV3@U_Iterator_base12@2@@std@@QAE@XZ ; std::_Iterator012<std::random_access_iterator_tag,Wall2D *,int,Wall2D * const *,Wall2D * const &,std::_Iterator_base12>::~_Iterator012<std::random_access_iterator_tag,Wall2D *,int,Wall2D * const *,Wall2D * const &,std::_Iterator_base12>
PUBLIC	??0?$_Vector_const_iterator@V?$_Vector_val@U?$_Simple_types@PAVWall2D@@@std@@@std@@@std@@QAE@PAPAVWall2D@@PBU_Container_base12@1@@Z ; std::_Vector_const_iterator<std::_Vector_val<std::_Simple_types<Wall2D *> > >::_Vector_const_iterator<std::_Vector_val<std::_Simple_types<Wall2D *> > >
PUBLIC	??D?$_Vector_const_iterator@V?$_Vector_val@U?$_Simple_types@PAVWall2D@@@std@@@std@@@std@@QBEABQAVWall2D@@XZ ; std::_Vector_const_iterator<std::_Vector_val<std::_Simple_types<Wall2D *> > >::operator*
PUBLIC	??E?$_Vector_const_iterator@V?$_Vector_val@U?$_Simple_types@PAVWall2D@@@std@@@std@@@std@@QAEAAV01@XZ ; std::_Vector_const_iterator<std::_Vector_val<std::_Simple_types<Wall2D *> > >::operator++
PUBLIC	??8?$_Vector_const_iterator@V?$_Vector_val@U?$_Simple_types@PAVWall2D@@@std@@@std@@@std@@QBE_NABV01@@Z ; std::_Vector_const_iterator<std::_Vector_val<std::_Simple_types<Wall2D *> > >::operator==
PUBLIC	??9?$_Vector_const_iterator@V?$_Vector_val@U?$_Simple_types@PAVWall2D@@@std@@@std@@@std@@QBE_NABV01@@Z ; std::_Vector_const_iterator<std::_Vector_val<std::_Simple_types<Wall2D *> > >::operator!=
PUBLIC	?_Compat@?$_Vector_const_iterator@V?$_Vector_val@U?$_Simple_types@PAVWall2D@@@std@@@std@@@std@@QBEXABV12@@Z ; std::_Vector_const_iterator<std::_Vector_val<std::_Simple_types<Wall2D *> > >::_Compat
PUBLIC	??1?$_Vector_const_iterator@V?$_Vector_val@U?$_Simple_types@PAVWall2D@@@std@@@std@@@std@@QAE@XZ ; std::_Vector_const_iterator<std::_Vector_val<std::_Simple_types<Wall2D *> > >::~_Vector_const_iterator<std::_Vector_val<std::_Simple_types<Wall2D *> > >
PUBLIC	??$forward@U?$_Wrap_alloc@V?$allocator@D@std@@@std@@@std@@YA$$QAU?$_Wrap_alloc@V?$allocator@D@std@@@0@AAU10@@Z ; std::forward<std::_Wrap_alloc<std::allocator<char> > >
PUBLIC	??$?0U?$_Wrap_alloc@V?$allocator@D@std@@@std@@$$V@?$_Compressed_pair@U?$_Wrap_alloc@V?$allocator@D@std@@@std@@V?$_String_val@U?$_Simple_types@D@std@@@2@$00@std@@QAE@U_One_then_variadic_args_t@1@$$QAU?$_Wrap_alloc@V?$allocator@D@std@@@1@@Z ; std::_Compressed_pair<std::_Wrap_alloc<std::allocator<char> >,std::_String_val<std::_Simple_types<char> >,1>::_Compressed_pair<std::_Wrap_alloc<std::allocator<char> >,std::_String_val<std::_Simple_types<char> >,1><std::_Wrap_alloc<std::allocator<char> > >
PUBLIC	??$destroy@PAD@?$allocator_traits@V?$allocator@D@std@@@std@@SAXAAV?$allocator@D@1@PAPAD@Z ; std::allocator_traits<std::allocator<char> >::destroy<char *>
PUBLIC	??$forward@AAPAD@std@@YAAAPADAAPAD@Z		; std::forward<char * &>
PUBLIC	??$construct@PADAAPAD@?$allocator_traits@V?$allocator@D@std@@@std@@SAXAAV?$allocator@D@1@PAPADAAPAD@Z ; std::allocator_traits<std::allocator<char> >::construct<char *,char * &>
PUBLIC	??$destroy@U_Container_proxy@std@@@?$allocator_traits@V?$allocator@U_Container_proxy@std@@@std@@@std@@SAXAAV?$allocator@U_Container_proxy@std@@@1@PAU_Container_proxy@1@@Z ; std::allocator_traits<std::allocator<std::_Container_proxy> >::destroy<std::_Container_proxy>
PUBLIC	??$destroy@PAU?$_List_node@PAVRaven_Bot@@PAX@std@@@?$allocator_traits@V?$allocator@U?$_List_node@PAVRaven_Bot@@PAX@std@@@std@@@std@@SAXAAV?$allocator@U?$_List_node@PAVRaven_Bot@@PAX@std@@@1@PAPAU?$_List_node@PAVRaven_Bot@@PAX@1@@Z ; std::allocator_traits<std::allocator<std::_List_node<Raven_Bot *,void *> > >::destroy<std::_List_node<Raven_Bot *,void *> *>
PUBLIC	??$forward@AAU?$_Wrap_alloc@V?$allocator@U?$_List_node@PAVRaven_Bot@@PAX@std@@@std@@@std@@@std@@YAAAU?$_Wrap_alloc@V?$allocator@U?$_List_node@PAVRaven_Bot@@PAX@std@@@std@@@0@AAU10@@Z ; std::forward<std::_Wrap_alloc<std::allocator<std::_List_node<Raven_Bot *,void *> > > &>
PUBLIC	??$?0U?$_List_node@PAVRaven_Bot@@PAX@std@@@?$allocator@U_Container_proxy@std@@@std@@QAE@ABV?$allocator@U?$_List_node@PAVRaven_Bot@@PAX@std@@@1@@Z ; std::allocator<std::_Container_proxy>::allocator<std::_Container_proxy><std::_List_node<Raven_Bot *,void *> >
PUBLIC	??$forward@U_Container_proxy@std@@@std@@YA$$QAU_Container_proxy@0@AAU10@@Z ; std::forward<std::_Container_proxy>
PUBLIC	??$construct@U_Container_proxy@std@@U12@@?$allocator_traits@V?$allocator@U_Container_proxy@std@@@std@@@std@@SAXAAV?$allocator@U_Container_proxy@std@@@1@PAU_Container_proxy@1@$$QAU31@@Z ; std::allocator_traits<std::allocator<std::_Container_proxy> >::construct<std::_Container_proxy,std::_Container_proxy>
PUBLIC	??$forward@AAU?$_Wrap_alloc@V?$allocator@D@std@@@std@@@std@@YAAAU?$_Wrap_alloc@V?$allocator@D@std@@@0@AAU10@@Z ; std::forward<std::_Wrap_alloc<std::allocator<char> > &>
PUBLIC	??$?0D@?$allocator@U_Container_proxy@std@@@std@@QAE@ABV?$allocator@D@1@@Z ; std::allocator<std::_Container_proxy>::allocator<std::_Container_proxy><char>
PUBLIC	??$destroy@PAVRaven_Bot@@@?$allocator_traits@V?$allocator@U?$_List_node@PAVRaven_Bot@@PAX@std@@@std@@@std@@SAXAAV?$allocator@U?$_List_node@PAVRaven_Bot@@PAX@std@@@1@PAPAVRaven_Bot@@@Z ; std::allocator_traits<std::allocator<std::_List_node<Raven_Bot *,void *> > >::destroy<Raven_Bot *>
PUBLIC	??$destroy@PAD@?$allocator@D@std@@QAEXPAPAD@Z	; std::allocator<char>::destroy<char *>
PUBLIC	??$construct@PADAAPAD@?$allocator@D@std@@QAEXPAPADAAPAD@Z ; std::allocator<char>::construct<char *,char * &>
PUBLIC	??$destroy@U_Container_proxy@std@@@?$allocator@U_Container_proxy@std@@@std@@QAEXPAU_Container_proxy@1@@Z ; std::allocator<std::_Container_proxy>::destroy<std::_Container_proxy>
PUBLIC	??$destroy@PAU?$_List_node@PAVRaven_Bot@@PAX@std@@@?$allocator@U?$_List_node@PAVRaven_Bot@@PAX@std@@@std@@QAEXPAPAU?$_List_node@PAVRaven_Bot@@PAX@1@@Z ; std::allocator<std::_List_node<Raven_Bot *,void *> >::destroy<std::_List_node<Raven_Bot *,void *> *>
PUBLIC	??$construct@U_Container_proxy@std@@U12@@?$allocator@U_Container_proxy@std@@@std@@QAEXPAU_Container_proxy@1@$$QAU21@@Z ; std::allocator<std::_Container_proxy>::construct<std::_Container_proxy,std::_Container_proxy>
PUBLIC	??$destroy@PAVRaven_Bot@@@?$allocator@U?$_List_node@PAVRaven_Bot@@PAX@std@@@std@@QAEXPAPAVRaven_Bot@@@Z ; std::allocator<std::_List_node<Raven_Bot *,void *> >::destroy<Raven_Bot *>
PUBLIC	??_C@_17CNPHIMPH@?$AA?$CF?$AAl?$AAs?$AA?$AA@	; `string'
PUBLIC	??_7exception@std@@6B@				; std::exception::`vftable'
PUBLIC	??_C@_0BC@EOODALEL@Unknown?5exception?$AA@	; `string'
PUBLIC	??_C@_1JA@IJKHNLMB@?$AAC?$AA?3?$AA?2?$AAP?$AAr?$AAo?$AAg?$AAr?$AAa?$AAm?$AA?5?$AAF?$AAi?$AAl?$AAe?$AAs?$AA?5?$AA?$CI?$AAx?$AA8?$AA6?$AA?$CJ?$AA?2?$AAM?$AAi?$AAc?$AAr?$AAo?$AAs?$AAo?$AAf?$AAt@ ; `string'
PUBLIC	??_C@_1DC@POOIKBAO@?$AAI?$AAT?$AAE?$AAR?$AAA?$AAT?$AAO?$AAR?$AA?5?$AAL?$AAI?$AAS?$AAT?$AA?5?$AAC?$AAO?$AAR?$AAR?$AAU?$AAP?$AAT?$AAE?$AAD?$AA?$CB?$AA?$AA@ ; `string'
PUBLIC	??_C@_0BE@LMNLACIC@_Ptr_container?5?$CB?$DN?50?$AA@ ; `string'
PUBLIC	??_C@_1DG@HGDKEBPG@?$AA?$CC?$AA_?$AAP?$AAt?$AAr?$AA_?$AAc?$AAo?$AAn?$AAt?$AAa?$AAi?$AAn?$AAe?$AAr?$AA?5?$AA?$CB?$AA?$DN?$AA?5?$AA0?$AA?$CC?$AA?5?$AA?$CG?$AA?$CG?$AA?5?$AA0?$AA?$AA@ ; `string'
PUBLIC	??_C@_1JA@HEEMAOGC@?$AAC?$AA?3?$AA?2?$AAP?$AAr?$AAo?$AAg?$AAr?$AAa?$AAm?$AA?5?$AAF?$AAi?$AAl?$AAe?$AAs?$AA?5?$AA?$CI?$AAx?$AA8?$AA6?$AA?$CJ?$AA?2?$AAM?$AAi?$AAc?$AAr?$AAo?$AAs?$AAo?$AAf?$AAt@ ; `string'
PUBLIC	??_C@_1BO@NKFMJPA@?$AAs?$AAt?$AAd?$AA?3?$AA?3?$AA_?$AAA?$AAl?$AAl?$AAo?$AAc?$AAa?$AAt?$AAe?$AA?$AA@ ; `string'
PUBLIC	??_C@_1CG@JNLFBNGN@?$AA?$CC?$AAi?$AAn?$AAv?$AAa?$AAl?$AAi?$AAd?$AA?5?$AAa?$AAr?$AAg?$AAu?$AAm?$AAe?$AAn?$AAt?$AA?$CC?$AA?$AA@ ; `string'
PUBLIC	??_C@_09GLJCAGLP@_Ptr?5?$CB?$DN?50?$AA@		; `string'
PUBLIC	??_C@_1CC@GKJLLHIM@?$AA?$CC?$AA_?$AAP?$AAt?$AAr?$AA?5?$AA?$CB?$AA?$DN?$AA?5?$AA0?$AA?$CC?$AA?5?$AA?$CG?$AA?$CG?$AA?5?$AA0?$AA?$AA@ ; `string'
PUBLIC	??_C@_0BN@HMCJOMKN@_Count?5?$DM?$DN?5?$CIsize_t?$CJ?$CI?91?$CJ?5?1?5_Sz?$AA@ ; `string'
PUBLIC	??_C@_1EI@MLOBABC@?$AA?$CC?$AA_?$AAC?$AAo?$AAu?$AAn?$AAt?$AA?5?$AA?$DM?$AA?$DN?$AA?5?$AA?$CI?$AAs?$AAi?$AAz?$AAe?$AA_?$AAt?$AA?$CJ?$AA?$CI?$AA?9?$AA1?$AA?$CJ?$AA?5?$AA?1?$AA?5?$AA_?$AAS?$AAz?$AA?$CC?$AA?5?$AA?$CG@ ; `string'
PUBLIC	??_C@_1CC@LOFJFFDB@?$AAs?$AAt?$AAd?$AA?3?$AA?3?$AA_?$AAD?$AAe?$AAa?$AAl?$AAl?$AAo?$AAc?$AAa?$AAt?$AAe?$AA?$AA@ ; `string'
PUBLIC	??_C@_0DD@GBGGGKGG@?$CI_Ptr_user?5?$CG?5?$CI_BIG_ALLOCATION_AL@ ; `string'
PUBLIC	??_C@_1HE@CDMBFOKC@?$AA?$CC?$AA?$CI?$AA_?$AAP?$AAt?$AAr?$AA_?$AAu?$AAs?$AAe?$AAr?$AA?5?$AA?$CG?$AA?5?$AA?$CI?$AA_?$AAB?$AAI?$AAG?$AA_?$AAA?$AAL?$AAL?$AAO?$AAC?$AAA?$AAT?$AAI?$AAO?$AAN?$AA_?$AAA@ ; `string'
PUBLIC	??_C@_0EI@NOJHEJCJ@reinterpret_cast?$DMuintptr_t?5?$CK?$DO?$CI_P@ ; `string'
PUBLIC	??_C@_1JO@EKLKIEHP@?$AA?$CC?$AAr?$AAe?$AAi?$AAn?$AAt?$AAe?$AAr?$AAp?$AAr?$AAe?$AAt?$AA_?$AAc?$AAa?$AAs?$AAt?$AA?$DM?$AAu?$AAi?$AAn?$AAt?$AAp?$AAt?$AAr?$AA_?$AAt?$AA?5?$AA?$CK?$AA?$DO?$AA?$CI?$AA_@ ; `string'
PUBLIC	??_C@_0BL@OCKMEJON@_Ptr_container?5?$DM?5_Ptr_user?$AA@ ; `string'
PUBLIC	??_C@_1EE@PDHAHDDC@?$AA?$CC?$AA_?$AAP?$AAt?$AAr?$AA_?$AAc?$AAo?$AAn?$AAt?$AAa?$AAi?$AAn?$AAe?$AAr?$AA?5?$AA?$DM?$AA?5?$AA_?$AAP?$AAt?$AAr?$AA_?$AAu?$AAs?$AAe?$AAr?$AA?$CC?$AA?5?$AA?$CG?$AA?$CG?$AA?5@ ; `string'
PUBLIC	??_C@_0DB@GLFJLNCE@2?5?$CK?5sizeof?$CIvoid?5?$CK?$CJ?5?$DM?$DN?5_Ptr_user?5@ ; `string'
PUBLIC	??_C@_1HA@NAPGMHAO@?$AA?$CC?$AA2?$AA?5?$AA?$CK?$AA?5?$AAs?$AAi?$AAz?$AAe?$AAo?$AAf?$AA?$CI?$AAv?$AAo?$AAi?$AAd?$AA?5?$AA?$CK?$AA?$CJ?$AA?5?$AA?$DM?$AA?$DN?$AA?5?$AA_?$AAP?$AAt?$AAr?$AA_?$AAu?$AAs?$AAe?$AAr@ ; `string'
PUBLIC	??_C@_0CN@BLHJCAL@_Ptr_user?5?9?5_Ptr_container?5?$DM?$DN?5_N@ ; `string'
PUBLIC	??_C@_1GI@DHJGPFNI@?$AA?$CC?$AA_?$AAP?$AAt?$AAr?$AA_?$AAu?$AAs?$AAe?$AAr?$AA?5?$AA?9?$AA?5?$AA_?$AAP?$AAt?$AAr?$AA_?$AAc?$AAo?$AAn?$AAt?$AAa?$AAi?$AAn?$AAe?$AAr?$AA?5?$AA?$DM?$AA?$DN?$AA?5?$AA_@ ; `string'
PUBLIC	?npos@?$basic_string@DU?$char_traits@D@std@@V?$allocator@D@2@@std@@2IB ; std::basic_string<char,std::char_traits<char>,std::allocator<char> >::npos
PUBLIC	??_7runtime_error@std@@6B@			; std::runtime_error::`vftable'
PUBLIC	__TI2?AVruntime_error@std@@
PUBLIC	__CTA2?AVruntime_error@std@@
PUBLIC	??_R0?AVruntime_error@std@@@8			; std::runtime_error `RTTI Type Descriptor'
PUBLIC	__CT??_R0?AVruntime_error@std@@@8??0runtime_error@std@@QAE@ABV01@@Z12
PUBLIC	??_R0?AVexception@std@@@8			; std::exception `RTTI Type Descriptor'
PUBLIC	__CT??_R0?AVexception@std@@@8??0exception@std@@QAE@ABV01@@Z12
PUBLIC	??_7BaseGameEntity@@6B@				; BaseGameEntity::`vftable'
PUBLIC	??_7MovingEntity@@6B@				; MovingEntity::`vftable'
PUBLIC	??_7Raven_Projectile@@6B@			; Raven_Projectile::`vftable'
PUBLIC	??_7Slug@@6B@					; Slug::`vftable'
PUBLIC	??_C@_1IM@LECEOODI@?$AAC?$AA?3?$AA?2?$AAP?$AAr?$AAo?$AAg?$AAr?$AAa?$AAm?$AA?5?$AAF?$AAi?$AAl?$AAe?$AAs?$AA?5?$AA?$CI?$AAx?$AA8?$AA6?$AA?$CJ?$AA?2?$AAM?$AAi?$AAc?$AAr?$AAo?$AAs?$AAo?$AAf?$AAt@ ; `string'
PUBLIC	??_C@_0CE@OFMIGAMM@Standard?5C?$CL?$CL?5Libraries?5Out?5of?5Ra@ ; `string'
PUBLIC	??_C@_1FG@IBPIFFN@?$AA?$CC?$AAS?$AAt?$AAa?$AAn?$AAd?$AAa?$AAr?$AAd?$AA?5?$AAC?$AA?$CL?$AA?$CL?$AA?5?$AAL?$AAi?$AAb?$AAr?$AAa?$AAr?$AAi?$AAe?$AAs?$AA?5?$AAO?$AAu?$AAt?$AA?5?$AAo?$AAf?$AA?5?$AAR@ ; `string'
PUBLIC	??_C@_1BO@MEPPHOO@?$AA?$CC?$AAo?$AAu?$AAt?$AA?5?$AAo?$AAf?$AA?5?$AAr?$AAa?$AAn?$AAg?$AAe?$AA?$CC?$AA?$AA@ ; `string'
PUBLIC	??_C@_1IO@IPMLDGDI@?$AAC?$AA?3?$AA?2?$AAP?$AAr?$AAo?$AAg?$AAr?$AAa?$AAm?$AA?5?$AAF?$AAi?$AAl?$AAe?$AAs?$AA?5?$AA?$CI?$AAx?$AA8?$AA6?$AA?$CJ?$AA?2?$AAM?$AAi?$AAc?$AAr?$AAo?$AAs?$AAo?$AAf?$AAt@ ; `string'
PUBLIC	?id@?$codecvt@DDU_Mbstatet@@@std@@2V0locale@2@A	; std::codecvt<char,char,_Mbstatet>::id
PUBLIC	?id@?$num_put@DV?$ostreambuf_iterator@DU?$char_traits@D@std@@@std@@@std@@2V0locale@2@A ; std::num_put<char,std::ostreambuf_iterator<char,std::char_traits<char> > >::id
PUBLIC	?id@?$num_get@DV?$istreambuf_iterator@DU?$char_traits@D@std@@@std@@@std@@2V0locale@2@A ; std::num_get<char,std::istreambuf_iterator<char,std::char_traits<char> > >::id
PUBLIC	??_C@_1II@PHKIGFNF@?$AAC?$AA?3?$AA?2?$AAP?$AAr?$AAo?$AAg?$AAr?$AAa?$AAm?$AA?5?$AAF?$AAi?$AAl?$AAe?$AAs?$AA?5?$AA?$CI?$AAx?$AA8?$AA6?$AA?$CJ?$AA?2?$AAM?$AAi?$AAc?$AAr?$AAo?$AAs?$AAo?$AAf?$AAt@ ; `string'
PUBLIC	??_C@_1DI@MDELDGPI@?$AAl?$AAi?$AAs?$AAt?$AA?5?$AAi?$AAt?$AAe?$AAr?$AAa?$AAt?$AAo?$AAr?$AAs?$AA?5?$AAi?$AAn?$AAc?$AAo?$AAm?$AAp?$AAa?$AAt?$AAi?$AAb?$AAl?$AAe?$AA?$AA@ ; `string'
PUBLIC	??_C@_0CI@FNPHFCCM@Standard?5C?$CL?$CL?5Libraries?5Invalid?5A@ ; `string'
PUBLIC	??_C@_1FO@GJIHNDLM@?$AA?$CC?$AAS?$AAt?$AAa?$AAn?$AAd?$AAa?$AAr?$AAd?$AA?5?$AAC?$AA?$CL?$AA?$CL?$AA?5?$AAL?$AAi?$AAb?$AAr?$AAa?$AAr?$AAi?$AAe?$AAs?$AA?5?$AAI?$AAn?$AAv?$AAa?$AAl?$AAi?$AAd?$AA?5@ ; `string'
PUBLIC	??_C@_1OE@HJIALJKP@?$AAs?$AAt?$AAd?$AA?3?$AA?3?$AA_?$AAL?$AAi?$AAs?$AAt?$AA_?$AAc?$AAo?$AAn?$AAs?$AAt?$AA_?$AAi?$AAt?$AAe?$AAr?$AAa?$AAt?$AAo?$AAr?$AA?$DM?$AAc?$AAl?$AAa?$AAs?$AAs?$AA?5@ ; `string'
PUBLIC	??_C@_1EA@DOGAGKDH@?$AAl?$AAi?$AAs?$AAt?$AA?5?$AAi?$AAt?$AAe?$AAr?$AAa?$AAt?$AAo?$AAr?$AA?5?$AAn?$AAo?$AAt?$AA?5?$AAi?$AAn?$AAc?$AAr?$AAe?$AAm?$AAe?$AAn?$AAt?$AAa?$AAb?$AAl?$AAe?$AA?$AA@ ; `string'
PUBLIC	??_C@_1OE@NJHNFAGK@?$AAs?$AAt?$AAd?$AA?3?$AA?3?$AA_?$AAL?$AAi?$AAs?$AAt?$AA_?$AAc?$AAo?$AAn?$AAs?$AAt?$AA_?$AAi?$AAt?$AAe?$AAr?$AAa?$AAt?$AAo?$AAr?$AA?$DM?$AAc?$AAl?$AAa?$AAs?$AAs?$AA?5@ ; `string'
PUBLIC	??_C@_1EC@HILJLMMC@?$AAl?$AAi?$AAs?$AAt?$AA?5?$AAi?$AAt?$AAe?$AAr?$AAa?$AAt?$AAo?$AAr?$AA?5?$AAn?$AAo?$AAt?$AA?5?$AAd?$AAe?$AAr?$AAe?$AAf?$AAe?$AAr?$AAe?$AAn?$AAc?$AAa?$AAb?$AAl?$AAe@ ; `string'
PUBLIC	??_C@_1OC@BFEHCKCD@?$AAs?$AAt?$AAd?$AA?3?$AA?3?$AA_?$AAL?$AAi?$AAs?$AAt?$AA_?$AAc?$AAo?$AAn?$AAs?$AAt?$AA_?$AAi?$AAt?$AAe?$AAr?$AAa?$AAt?$AAo?$AAr?$AA?$DM?$AAc?$AAl?$AAa?$AAs?$AAs?$AA?5@ ; `string'
PUBLIC	?id@?$numpunct@D@std@@2V0locale@2@A		; std::numpunct<char>::id
PUBLIC	??_C@_0BA@JFNIOLAK@string?5too?5long?$AA@	; `string'
PUBLIC	??_C@_0BI@CFPLBAOH@invalid?5string?5position?$AA@ ; `string'
PUBLIC	??_C@_0CB@NOKEJIID@?$DMPopLuaNumber?$DO?5Cannot?5retrieve?3?5@ ; `string'
PUBLIC	??_C@_1CK@EOPGIILJ@?$AAi?$AAn?$AAv?$AAa?$AAl?$AAi?$AAd?$AA?5?$AAn?$AAu?$AAl?$AAl?$AA?5?$AAp?$AAo?$AAi?$AAn?$AAt?$AAe?$AAr?$AA?$AA@ ; `string'
PUBLIC	??_C@_1EE@EJDKCLKB@?$AAv?$AAe?$AAc?$AAt?$AAo?$AAr?$AA?5?$AAi?$AAt?$AAe?$AAr?$AAa?$AAt?$AAo?$AAr?$AA?5?$AAn?$AAo?$AAt?$AA?5?$AAi?$AAn?$AAc?$AAr?$AAe?$AAm?$AAe?$AAn?$AAt?$AAa?$AAb?$AAl@ ; `string'
PUBLIC	??_C@_1NM@PEGKDBJC@?$AAs?$AAt?$AAd?$AA?3?$AA?3?$AA_?$AAV?$AAe?$AAc?$AAt?$AAo?$AAr?$AA_?$AAc?$AAo?$AAn?$AAs?$AAt?$AA_?$AAi?$AAt?$AAe?$AAr?$AAa?$AAt?$AAo?$AAr?$AA?$DM?$AAc?$AAl?$AAa?$AAs@ ; `string'
PUBLIC	??_C@_1EG@FOHJJHAC@?$AAv?$AAe?$AAc?$AAt?$AAo?$AAr?$AA?5?$AAi?$AAt?$AAe?$AAr?$AAa?$AAt?$AAo?$AAr?$AA?5?$AAn?$AAo?$AAt?$AA?5?$AAd?$AAe?$AAr?$AAe?$AAf?$AAe?$AAr?$AAe?$AAn?$AAc?$AAa?$AAb@ ; `string'
PUBLIC	??_C@_1NK@EBBPJMHO@?$AAs?$AAt?$AAd?$AA?3?$AA?3?$AA_?$AAV?$AAe?$AAc?$AAt?$AAo?$AAr?$AA_?$AAc?$AAo?$AAn?$AAs?$AAt?$AA_?$AAi?$AAt?$AAe?$AAr?$AAa?$AAt?$AAo?$AAr?$AA?$DM?$AAc?$AAl?$AAa?$AAs@ ; `string'
PUBLIC	??_C@_1DM@HINDPMBP@?$AAv?$AAe?$AAc?$AAt?$AAo?$AAr?$AA?5?$AAi?$AAt?$AAe?$AAr?$AAa?$AAt?$AAo?$AAr?$AAs?$AA?5?$AAi?$AAn?$AAc?$AAo?$AAm?$AAp?$AAa?$AAt?$AAi?$AAb?$AAl?$AAe?$AA?$AA@ ; `string'
PUBLIC	??_C@_1NE@LOHHGNCD@?$AAs?$AAt?$AAd?$AA?3?$AA?3?$AA_?$AAV?$AAe?$AAc?$AAt?$AAo?$AAr?$AA_?$AAc?$AAo?$AAn?$AAs?$AAt?$AA_?$AAi?$AAt?$AAe?$AAr?$AAa?$AAt?$AAo?$AAr?$AA?$DM?$AAc?$AAl?$AAa?$AAs@ ; `string'
PUBLIC	??_R4exception@std@@6B@				; std::exception::`RTTI Complete Object Locator'
PUBLIC	??_R3exception@std@@8				; std::exception::`RTTI Class Hierarchy Descriptor'
PUBLIC	??_R2exception@std@@8				; std::exception::`RTTI Base Class Array'
PUBLIC	??_R1A@?0A@EA@exception@std@@8			; std::exception::`RTTI Base Class Descriptor at (0,-1,0,64)'
PUBLIC	??_R4runtime_error@std@@6B@			; std::runtime_error::`RTTI Complete Object Locator'
PUBLIC	??_R3runtime_error@std@@8			; std::runtime_error::`RTTI Class Hierarchy Descriptor'
PUBLIC	??_R2runtime_error@std@@8			; std::runtime_error::`RTTI Base Class Array'
PUBLIC	??_R1A@?0A@EA@runtime_error@std@@8		; std::runtime_error::`RTTI Base Class Descriptor at (0,-1,0,64)'
PUBLIC	??_R4BaseGameEntity@@6B@			; BaseGameEntity::`RTTI Complete Object Locator'
PUBLIC	??_R0?AVBaseGameEntity@@@8			; BaseGameEntity `RTTI Type Descriptor'
PUBLIC	??_R3BaseGameEntity@@8				; BaseGameEntity::`RTTI Class Hierarchy Descriptor'
PUBLIC	??_R2BaseGameEntity@@8				; BaseGameEntity::`RTTI Base Class Array'
PUBLIC	??_R1A@?0A@EA@BaseGameEntity@@8			; BaseGameEntity::`RTTI Base Class Descriptor at (0,-1,0,64)'
PUBLIC	??_R4MovingEntity@@6B@				; MovingEntity::`RTTI Complete Object Locator'
PUBLIC	??_R0?AVMovingEntity@@@8			; MovingEntity `RTTI Type Descriptor'
PUBLIC	??_R3MovingEntity@@8				; MovingEntity::`RTTI Class Hierarchy Descriptor'
PUBLIC	??_R2MovingEntity@@8				; MovingEntity::`RTTI Base Class Array'
PUBLIC	??_R1A@?0A@EA@MovingEntity@@8			; MovingEntity::`RTTI Base Class Descriptor at (0,-1,0,64)'
PUBLIC	??_R4Raven_Projectile@@6B@			; Raven_Projectile::`RTTI Complete Object Locator'
PUBLIC	??_R0?AVRaven_Projectile@@@8			; Raven_Projectile `RTTI Type Descriptor'
PUBLIC	??_R3Raven_Projectile@@8			; Raven_Projectile::`RTTI Class Hierarchy Descriptor'
PUBLIC	??_R2Raven_Projectile@@8			; Raven_Projectile::`RTTI Base Class Array'
PUBLIC	??_R1A@?0A@EA@Raven_Projectile@@8		; Raven_Projectile::`RTTI Base Class Descriptor at (0,-1,0,64)'
PUBLIC	??_R4Slug@@6B@					; Slug::`RTTI Complete Object Locator'
PUBLIC	??_R0?AVSlug@@@8				; Slug `RTTI Type Descriptor'
PUBLIC	??_R3Slug@@8					; Slug::`RTTI Class Hierarchy Descriptor'
PUBLIC	??_R2Slug@@8					; Slug::`RTTI Base Class Array'
PUBLIC	??_R1A@?0A@EA@Slug@@8				; Slug::`RTTI Base Class Descriptor at (0,-1,0,64)'
PUBLIC	__real@0000000000000000
PUBLIC	__real@0010000000000000
PUBLIC	__real@00800000
PUBLIC	__real@3cb0000000000000
PUBLIC	__real@3f50624dd2f1a9fc
PUBLIC	__real@3ff0000000000000
PUBLIC	__real@7f7fffff
PUBLIC	__real@7fefffffffffffff
PUBLIC	__xmm@41f00000000000000000000000000000
PUBLIC	__xmm@80000000000000008000000000000000
EXTRN	__purecall:PROC
EXTRN	??2@YAPAXI@Z:PROC				; operator new
EXTRN	??3@YAXPAX@Z:PROC				; operator delete
EXTRN	??3@YAXPAXI@Z:PROC				; operator delete
EXTRN	__invalid_parameter:PROC
EXTRN	??0_Lockit@std@@QAE@H@Z:PROC			; std::_Lockit::_Lockit
EXTRN	??1_Lockit@std@@QAE@XZ:PROC			; std::_Lockit::~_Lockit
EXTRN	_sqrt:PROC
EXTRN	_memcpy:PROC
EXTRN	_memmove:PROC
EXTRN	_strlen:PROC
EXTRN	__imp__LineTo@12:PROC
EXTRN	__imp__SelectObject@8:PROC
EXTRN	__imp__MoveToEx@16:PROC
EXTRN	__imp__timeGetTime@0:PROC
EXTRN	__CrtDbgReportW:PROC
EXTRN	___std_exception_copy:PROC
EXTRN	___std_exception_destroy:PROC
EXTRN	??_Eexception@std@@UAEPAXI@Z:PROC		; std::exception::`vector deleting destructor'
EXTRN	?_Debug_message@std@@YAXPB_W0I@Z:PROC		; std::_Debug_message
EXTRN	?_Xbad_alloc@std@@YAXXZ:PROC			; std::_Xbad_alloc
EXTRN	?_Xlength_error@std@@YAXPBD@Z:PROC		; std::_Xlength_error
EXTRN	?_Xout_of_range@std@@YAXPBD@Z:PROC		; std::_Xout_of_range
EXTRN	??_Eruntime_error@std@@UAEPAXI@Z:PROC		; std::runtime_error::`vector deleting destructor'
EXTRN	??0BaseGameEntity@@IAE@H@Z:PROC			; BaseGameEntity::BaseGameEntity
EXTRN	??_EBaseGameEntity@@UAEPAXI@Z:PROC		; BaseGameEntity::`vector deleting destructor'
EXTRN	??_EMovingEntity@@UAEPAXI@Z:PROC		; MovingEntity::`vector deleting destructor'
EXTRN	?Instance@CrudeTimer@@SAPAV1@XZ:PROC		; CrudeTimer::Instance
EXTRN	?GetListOfIntersectingBots@Raven_Projectile@@IBE?AV?$list@PAVRaven_Bot@@V?$allocator@PAVRaven_Bot@@@std@@@std@@UVector2D@@0@Z:PROC ; Raven_Projectile::GetListOfIntersectingBots
EXTRN	??_ERaven_Projectile@@UAEPAXI@Z:PROC		; Raven_Projectile::`vector deleting destructor'
EXTRN	??_ESlug@@UAEPAXI@Z:PROC			; Slug::`vector deleting destructor'
EXTRN	_lua_settop:PROC
EXTRN	_lua_isnumber:PROC
EXTRN	_lua_tonumber:PROC
EXTRN	_lua_pushstring:PROC
EXTRN	_lua_gettable:PROC
EXTRN	?Instance@Raven_Scriptor@@SAPAV1@XZ:PROC	; Raven_Scriptor::Instance
EXTRN	?Instance@Cgdi@@SAPAV1@XZ:PROC			; Cgdi::Instance
EXTRN	?Instance@MessageDispatcher@@SAPAV1@XZ:PROC	; MessageDispatcher::Instance
EXTRN	?DispatchMsg@MessageDispatcher@@QAEXNHHHPAX@Z:PROC ; MessageDispatcher::DispatchMsg
EXTRN	@_RTC_CheckStackVars@8:PROC
EXTRN	@__security_check_cookie@4:PROC
EXTRN	__CxxThrowException@8:PROC
EXTRN	__RTC_CheckEsp:PROC
EXTRN	__RTC_InitBase:PROC
EXTRN	__RTC_Shutdown:PROC
EXTRN	___CxxFrameHandler3:PROC
EXTRN	__ftol2_sse:PROC
EXTRN	??_7type_info@@6B@:QWORD			; type_info::`vftable'
EXTRN	?m_iNextValidID@BaseGameEntity@@0HA:DWORD	; BaseGameEntity::m_iNextValidID
EXTRN	___security_cookie:DWORD
EXTRN	__fltused:DWORD
_BSS	SEGMENT
?MaxInt@@3HB DD	01H DUP (?)				; MaxInt
	ALIGN	8

?MaxDouble@@3NB DQ 01H DUP (?)				; MaxDouble
?MinDouble@@3NB DQ 01H DUP (?)				; MinDouble
?MaxFloat@@3MB DD 01H DUP (?)				; MaxFloat
?MinFloat@@3MB DD 01H DUP (?)				; MinFloat
_BSS	ENDS
;	COMDAT ?id@?$codecvt@DDU_Mbstatet@@@std@@2V0locale@2@A
_BSS	SEGMENT
?id@?$codecvt@DDU_Mbstatet@@@std@@2V0locale@2@A DD 01H DUP (?) ; std::codecvt<char,char,_Mbstatet>::id
_BSS	ENDS
;	COMDAT ?id@?$num_put@DV?$ostreambuf_iterator@DU?$char_traits@D@std@@@std@@@std@@2V0locale@2@A
_BSS	SEGMENT
?id@?$num_put@DV?$ostreambuf_iterator@DU?$char_traits@D@std@@@std@@@std@@2V0locale@2@A DD 01H DUP (?) ; std::num_put<char,std::ostreambuf_iterator<char,std::char_traits<char> > >::id
_BSS	ENDS
;	COMDAT ?id@?$num_get@DV?$istreambuf_iterator@DU?$char_traits@D@std@@@std@@@std@@2V0locale@2@A
_BSS	SEGMENT
?id@?$num_get@DV?$istreambuf_iterator@DU?$char_traits@D@std@@@std@@@std@@2V0locale@2@A DD 01H DUP (?) ; std::num_get<char,std::istreambuf_iterator<char,std::char_traits<char> > >::id
_BSS	ENDS
;	COMDAT ?id@?$numpunct@D@std@@2V0locale@2@A
_BSS	SEGMENT
?id@?$numpunct@D@std@@2V0locale@2@A DD 01H DUP (?)	; std::numpunct<char>::id
_BSS	ENDS
CRT$XCU	SEGMENT
?MaxInt$initializer$@@3P6AXXZA DD FLAT:??__EMaxInt@@YAXXZ ; MaxInt$initializer$
CRT$XCU	ENDS
;	COMDAT __xmm@80000000000000008000000000000000
CONST	SEGMENT
__xmm@80000000000000008000000000000000 DB 00H, 00H, 00H, 00H, 00H, 00H, 00H
	DB	080H, 00H, 00H, 00H, 00H, 00H, 00H, 00H, 080H
CONST	ENDS
;	COMDAT __xmm@41f00000000000000000000000000000
CONST	SEGMENT
__xmm@41f00000000000000000000000000000 DB 00H, 00H, 00H, 00H, 00H, 00H, 00H
	DB	00H, 00H, 00H, 00H, 00H, 00H, 00H, 0f0H, 'A'
CONST	ENDS
;	COMDAT __real@7fefffffffffffff
CONST	SEGMENT
__real@7fefffffffffffff DQ 07fefffffffffffffr	; 1.79769e+308
CONST	ENDS
;	COMDAT __real@7f7fffff
CONST	SEGMENT
__real@7f7fffff DD 07f7fffffr			; 3.40282e+38
CONST	ENDS
;	COMDAT __real@3ff0000000000000
CONST	SEGMENT
__real@3ff0000000000000 DQ 03ff0000000000000r	; 1
CONST	ENDS
;	COMDAT __real@3f50624dd2f1a9fc
CONST	SEGMENT
__real@3f50624dd2f1a9fc DQ 03f50624dd2f1a9fcr	; 0.001
CONST	ENDS
;	COMDAT __real@3cb0000000000000
CONST	SEGMENT
__real@3cb0000000000000 DQ 03cb0000000000000r	; 2.22045e-16
CONST	ENDS
;	COMDAT __real@00800000
CONST	SEGMENT
__real@00800000 DD 000800000r			; 1.17549e-38
CONST	ENDS
;	COMDAT __real@0010000000000000
CONST	SEGMENT
__real@0010000000000000 DQ 00010000000000000r	; 2.22507e-308
CONST	ENDS
;	COMDAT __real@0000000000000000
CONST	SEGMENT
__real@0000000000000000 DQ 00000000000000000r	; 0
CONST	ENDS
;	COMDAT rtc$TMZ
rtc$TMZ	SEGMENT
__RTC_Shutdown.rtc$TMZ DD FLAT:__RTC_Shutdown
rtc$TMZ	ENDS
;	COMDAT rtc$IMZ
rtc$IMZ	SEGMENT
__RTC_InitBase.rtc$IMZ DD FLAT:__RTC_InitBase
rtc$IMZ	ENDS
;	COMDAT ??_R1A@?0A@EA@Slug@@8
rdata$r	SEGMENT
??_R1A@?0A@EA@Slug@@8 DD FLAT:??_R0?AVSlug@@@8		; Slug::`RTTI Base Class Descriptor at (0,-1,0,64)'
	DD	03H
	DD	00H
	DD	0ffffffffH
	DD	00H
	DD	040H
	DD	FLAT:??_R3Slug@@8
rdata$r	ENDS
;	COMDAT ??_R2Slug@@8
rdata$r	SEGMENT
??_R2Slug@@8 DD	FLAT:??_R1A@?0A@EA@Slug@@8		; Slug::`RTTI Base Class Array'
	DD	FLAT:??_R1A@?0A@EA@Raven_Projectile@@8
	DD	FLAT:??_R1A@?0A@EA@MovingEntity@@8
	DD	FLAT:??_R1A@?0A@EA@BaseGameEntity@@8
rdata$r	ENDS
;	COMDAT ??_R3Slug@@8
rdata$r	SEGMENT
??_R3Slug@@8 DD	00H					; Slug::`RTTI Class Hierarchy Descriptor'
	DD	00H
	DD	04H
	DD	FLAT:??_R2Slug@@8
rdata$r	ENDS
;	COMDAT ??_R0?AVSlug@@@8
data$r	SEGMENT
??_R0?AVSlug@@@8 DD FLAT:??_7type_info@@6B@		; Slug `RTTI Type Descriptor'
	DD	00H
	DB	'.?AVSlug@@', 00H
data$r	ENDS
;	COMDAT ??_R4Slug@@6B@
rdata$r	SEGMENT
??_R4Slug@@6B@ DD 00H					; Slug::`RTTI Complete Object Locator'
	DD	00H
	DD	00H
	DD	FLAT:??_R0?AVSlug@@@8
	DD	FLAT:??_R3Slug@@8
rdata$r	ENDS
;	COMDAT ??_R1A@?0A@EA@Raven_Projectile@@8
rdata$r	SEGMENT
??_R1A@?0A@EA@Raven_Projectile@@8 DD FLAT:??_R0?AVRaven_Projectile@@@8 ; Raven_Projectile::`RTTI Base Class Descriptor at (0,-1,0,64)'
	DD	02H
	DD	00H
	DD	0ffffffffH
	DD	00H
	DD	040H
	DD	FLAT:??_R3Raven_Projectile@@8
rdata$r	ENDS
;	COMDAT ??_R2Raven_Projectile@@8
rdata$r	SEGMENT
??_R2Raven_Projectile@@8 DD FLAT:??_R1A@?0A@EA@Raven_Projectile@@8 ; Raven_Projectile::`RTTI Base Class Array'
	DD	FLAT:??_R1A@?0A@EA@MovingEntity@@8
	DD	FLAT:??_R1A@?0A@EA@BaseGameEntity@@8
rdata$r	ENDS
;	COMDAT ??_R3Raven_Projectile@@8
rdata$r	SEGMENT
??_R3Raven_Projectile@@8 DD 00H				; Raven_Projectile::`RTTI Class Hierarchy Descriptor'
	DD	00H
	DD	03H
	DD	FLAT:??_R2Raven_Projectile@@8
rdata$r	ENDS
;	COMDAT ??_R0?AVRaven_Projectile@@@8
data$r	SEGMENT
??_R0?AVRaven_Projectile@@@8 DD FLAT:??_7type_info@@6B@	; Raven_Projectile `RTTI Type Descriptor'
	DD	00H
	DB	'.?AVRaven_Projectile@@', 00H
data$r	ENDS
;	COMDAT ??_R4Raven_Projectile@@6B@
rdata$r	SEGMENT
??_R4Raven_Projectile@@6B@ DD 00H			; Raven_Projectile::`RTTI Complete Object Locator'
	DD	00H
	DD	00H
	DD	FLAT:??_R0?AVRaven_Projectile@@@8
	DD	FLAT:??_R3Raven_Projectile@@8
rdata$r	ENDS
;	COMDAT ??_R1A@?0A@EA@MovingEntity@@8
rdata$r	SEGMENT
??_R1A@?0A@EA@MovingEntity@@8 DD FLAT:??_R0?AVMovingEntity@@@8 ; MovingEntity::`RTTI Base Class Descriptor at (0,-1,0,64)'
	DD	01H
	DD	00H
	DD	0ffffffffH
	DD	00H
	DD	040H
	DD	FLAT:??_R3MovingEntity@@8
rdata$r	ENDS
;	COMDAT ??_R2MovingEntity@@8
rdata$r	SEGMENT
??_R2MovingEntity@@8 DD FLAT:??_R1A@?0A@EA@MovingEntity@@8 ; MovingEntity::`RTTI Base Class Array'
	DD	FLAT:??_R1A@?0A@EA@BaseGameEntity@@8
rdata$r	ENDS
;	COMDAT ??_R3MovingEntity@@8
rdata$r	SEGMENT
??_R3MovingEntity@@8 DD 00H				; MovingEntity::`RTTI Class Hierarchy Descriptor'
	DD	00H
	DD	02H
	DD	FLAT:??_R2MovingEntity@@8
rdata$r	ENDS
;	COMDAT ??_R0?AVMovingEntity@@@8
data$r	SEGMENT
??_R0?AVMovingEntity@@@8 DD FLAT:??_7type_info@@6B@	; MovingEntity `RTTI Type Descriptor'
	DD	00H
	DB	'.?AVMovingEntity@@', 00H
data$r	ENDS
;	COMDAT ??_R4MovingEntity@@6B@
rdata$r	SEGMENT
??_R4MovingEntity@@6B@ DD 00H				; MovingEntity::`RTTI Complete Object Locator'
	DD	00H
	DD	00H
	DD	FLAT:??_R0?AVMovingEntity@@@8
	DD	FLAT:??_R3MovingEntity@@8
rdata$r	ENDS
;	COMDAT ??_R1A@?0A@EA@BaseGameEntity@@8
rdata$r	SEGMENT
??_R1A@?0A@EA@BaseGameEntity@@8 DD FLAT:??_R0?AVBaseGameEntity@@@8 ; BaseGameEntity::`RTTI Base Class Descriptor at (0,-1,0,64)'
	DD	00H
	DD	00H
	DD	0ffffffffH
	DD	00H
	DD	040H
	DD	FLAT:??_R3BaseGameEntity@@8
rdata$r	ENDS
;	COMDAT ??_R2BaseGameEntity@@8
rdata$r	SEGMENT
??_R2BaseGameEntity@@8 DD FLAT:??_R1A@?0A@EA@BaseGameEntity@@8 ; BaseGameEntity::`RTTI Base Class Array'
rdata$r	ENDS
;	COMDAT ??_R3BaseGameEntity@@8
rdata$r	SEGMENT
??_R3BaseGameEntity@@8 DD 00H				; BaseGameEntity::`RTTI Class Hierarchy Descriptor'
	DD	00H
	DD	01H
	DD	FLAT:??_R2BaseGameEntity@@8
rdata$r	ENDS
;	COMDAT ??_R0?AVBaseGameEntity@@@8
data$r	SEGMENT
??_R0?AVBaseGameEntity@@@8 DD FLAT:??_7type_info@@6B@	; BaseGameEntity `RTTI Type Descriptor'
	DD	00H
	DB	'.?AVBaseGameEntity@@', 00H
data$r	ENDS
;	COMDAT ??_R4BaseGameEntity@@6B@
rdata$r	SEGMENT
??_R4BaseGameEntity@@6B@ DD 00H				; BaseGameEntity::`RTTI Complete Object Locator'
	DD	00H
	DD	00H
	DD	FLAT:??_R0?AVBaseGameEntity@@@8
	DD	FLAT:??_R3BaseGameEntity@@8
rdata$r	ENDS
;	COMDAT ??_R1A@?0A@EA@runtime_error@std@@8
rdata$r	SEGMENT
??_R1A@?0A@EA@runtime_error@std@@8 DD FLAT:??_R0?AVruntime_error@std@@@8 ; std::runtime_error::`RTTI Base Class Descriptor at (0,-1,0,64)'
	DD	01H
	DD	00H
	DD	0ffffffffH
	DD	00H
	DD	040H
	DD	FLAT:??_R3runtime_error@std@@8
rdata$r	ENDS
;	COMDAT ??_R2runtime_error@std@@8
rdata$r	SEGMENT
??_R2runtime_error@std@@8 DD FLAT:??_R1A@?0A@EA@runtime_error@std@@8 ; std::runtime_error::`RTTI Base Class Array'
	DD	FLAT:??_R1A@?0A@EA@exception@std@@8
rdata$r	ENDS
;	COMDAT ??_R3runtime_error@std@@8
rdata$r	SEGMENT
??_R3runtime_error@std@@8 DD 00H			; std::runtime_error::`RTTI Class Hierarchy Descriptor'
	DD	00H
	DD	02H
	DD	FLAT:??_R2runtime_error@std@@8
rdata$r	ENDS
;	COMDAT ??_R4runtime_error@std@@6B@
rdata$r	SEGMENT
??_R4runtime_error@std@@6B@ DD 00H			; std::runtime_error::`RTTI Complete Object Locator'
	DD	00H
	DD	00H
	DD	FLAT:??_R0?AVruntime_error@std@@@8
	DD	FLAT:??_R3runtime_error@std@@8
rdata$r	ENDS
;	COMDAT ??_R1A@?0A@EA@exception@std@@8
rdata$r	SEGMENT
??_R1A@?0A@EA@exception@std@@8 DD FLAT:??_R0?AVexception@std@@@8 ; std::exception::`RTTI Base Class Descriptor at (0,-1,0,64)'
	DD	00H
	DD	00H
	DD	0ffffffffH
	DD	00H
	DD	040H
	DD	FLAT:??_R3exception@std@@8
rdata$r	ENDS
;	COMDAT ??_R2exception@std@@8
rdata$r	SEGMENT
??_R2exception@std@@8 DD FLAT:??_R1A@?0A@EA@exception@std@@8 ; std::exception::`RTTI Base Class Array'
rdata$r	ENDS
;	COMDAT ??_R3exception@std@@8
rdata$r	SEGMENT
??_R3exception@std@@8 DD 00H				; std::exception::`RTTI Class Hierarchy Descriptor'
	DD	00H
	DD	01H
	DD	FLAT:??_R2exception@std@@8
rdata$r	ENDS
;	COMDAT ??_R4exception@std@@6B@
rdata$r	SEGMENT
??_R4exception@std@@6B@ DD 00H				; std::exception::`RTTI Complete Object Locator'
	DD	00H
	DD	00H
	DD	FLAT:??_R0?AVexception@std@@@8
	DD	FLAT:??_R3exception@std@@8
rdata$r	ENDS
;	COMDAT ??_C@_1NE@LOHHGNCD@?$AAs?$AAt?$AAd?$AA?3?$AA?3?$AA_?$AAV?$AAe?$AAc?$AAt?$AAo?$AAr?$AA_?$AAc?$AAo?$AAn?$AAs?$AAt?$AA_?$AAi?$AAt?$AAe?$AAr?$AAa?$AAt?$AAo?$AAr?$AA?$DM?$AAc?$AAl?$AAa?$AAs@
CONST	SEGMENT
??_C@_1NE@LOHHGNCD@?$AAs?$AAt?$AAd?$AA?3?$AA?3?$AA_?$AAV?$AAe?$AAc?$AAt?$AAo?$AAr?$AA_?$AAc?$AAo?$AAn?$AAs?$AAt?$AA_?$AAi?$AAt?$AAe?$AAr?$AAa?$AAt?$AAo?$AAr?$AA?$DM?$AAc?$AAl?$AAa?$AAs@ DB 's'
	DB	00H, 't', 00H, 'd', 00H, ':', 00H, ':', 00H, '_', 00H, 'V', 00H
	DB	'e', 00H, 'c', 00H, 't', 00H, 'o', 00H, 'r', 00H, '_', 00H, 'c'
	DB	00H, 'o', 00H, 'n', 00H, 's', 00H, 't', 00H, '_', 00H, 'i', 00H
	DB	't', 00H, 'e', 00H, 'r', 00H, 'a', 00H, 't', 00H, 'o', 00H, 'r'
	DB	00H, '<', 00H, 'c', 00H, 'l', 00H, 'a', 00H, 's', 00H, 's', 00H
	DB	' ', 00H, 's', 00H, 't', 00H, 'd', 00H, ':', 00H, ':', 00H, '_'
	DB	00H, 'V', 00H, 'e', 00H, 'c', 00H, 't', 00H, 'o', 00H, 'r', 00H
	DB	'_', 00H, 'v', 00H, 'a', 00H, 'l', 00H, '<', 00H, 's', 00H, 't'
	DB	00H, 'r', 00H, 'u', 00H, 'c', 00H, 't', 00H, ' ', 00H, 's', 00H
	DB	't', 00H, 'd', 00H, ':', 00H, ':', 00H, '_', 00H, 'S', 00H, 'i'
	DB	00H, 'm', 00H, 'p', 00H, 'l', 00H, 'e', 00H, '_', 00H, 't', 00H
	DB	'y', 00H, 'p', 00H, 'e', 00H, 's', 00H, '<', 00H, 'c', 00H, 'l'
	DB	00H, 'a', 00H, 's', 00H, 's', 00H, ' ', 00H, 'W', 00H, 'a', 00H
	DB	'l', 00H, 'l', 00H, '2', 00H, 'D', 00H, ' ', 00H, '*', 00H, '>'
	DB	00H, ' ', 00H, '>', 00H, ' ', 00H, '>', 00H, ':', 00H, ':', 00H
	DB	'_', 00H, 'C', 00H, 'o', 00H, 'm', 00H, 'p', 00H, 'a', 00H, 't'
	DB	00H, 00H, 00H				; `string'
CONST	ENDS
;	COMDAT ??_C@_1DM@HINDPMBP@?$AAv?$AAe?$AAc?$AAt?$AAo?$AAr?$AA?5?$AAi?$AAt?$AAe?$AAr?$AAa?$AAt?$AAo?$AAr?$AAs?$AA?5?$AAi?$AAn?$AAc?$AAo?$AAm?$AAp?$AAa?$AAt?$AAi?$AAb?$AAl?$AAe?$AA?$AA@
CONST	SEGMENT
??_C@_1DM@HINDPMBP@?$AAv?$AAe?$AAc?$AAt?$AAo?$AAr?$AA?5?$AAi?$AAt?$AAe?$AAr?$AAa?$AAt?$AAo?$AAr?$AAs?$AA?5?$AAi?$AAn?$AAc?$AAo?$AAm?$AAp?$AAa?$AAt?$AAi?$AAb?$AAl?$AAe?$AA?$AA@ DB 'v'
	DB	00H, 'e', 00H, 'c', 00H, 't', 00H, 'o', 00H, 'r', 00H, ' ', 00H
	DB	'i', 00H, 't', 00H, 'e', 00H, 'r', 00H, 'a', 00H, 't', 00H, 'o'
	DB	00H, 'r', 00H, 's', 00H, ' ', 00H, 'i', 00H, 'n', 00H, 'c', 00H
	DB	'o', 00H, 'm', 00H, 'p', 00H, 'a', 00H, 't', 00H, 'i', 00H, 'b'
	DB	00H, 'l', 00H, 'e', 00H, 00H, 00H		; `string'
CONST	ENDS
;	COMDAT ??_C@_1NK@EBBPJMHO@?$AAs?$AAt?$AAd?$AA?3?$AA?3?$AA_?$AAV?$AAe?$AAc?$AAt?$AAo?$AAr?$AA_?$AAc?$AAo?$AAn?$AAs?$AAt?$AA_?$AAi?$AAt?$AAe?$AAr?$AAa?$AAt?$AAo?$AAr?$AA?$DM?$AAc?$AAl?$AAa?$AAs@
CONST	SEGMENT
??_C@_1NK@EBBPJMHO@?$AAs?$AAt?$AAd?$AA?3?$AA?3?$AA_?$AAV?$AAe?$AAc?$AAt?$AAo?$AAr?$AA_?$AAc?$AAo?$AAn?$AAs?$AAt?$AA_?$AAi?$AAt?$AAe?$AAr?$AAa?$AAt?$AAo?$AAr?$AA?$DM?$AAc?$AAl?$AAa?$AAs@ DB 's'
	DB	00H, 't', 00H, 'd', 00H, ':', 00H, ':', 00H, '_', 00H, 'V', 00H
	DB	'e', 00H, 'c', 00H, 't', 00H, 'o', 00H, 'r', 00H, '_', 00H, 'c'
	DB	00H, 'o', 00H, 'n', 00H, 's', 00H, 't', 00H, '_', 00H, 'i', 00H
	DB	't', 00H, 'e', 00H, 'r', 00H, 'a', 00H, 't', 00H, 'o', 00H, 'r'
	DB	00H, '<', 00H, 'c', 00H, 'l', 00H, 'a', 00H, 's', 00H, 's', 00H
	DB	' ', 00H, 's', 00H, 't', 00H, 'd', 00H, ':', 00H, ':', 00H, '_'
	DB	00H, 'V', 00H, 'e', 00H, 'c', 00H, 't', 00H, 'o', 00H, 'r', 00H
	DB	'_', 00H, 'v', 00H, 'a', 00H, 'l', 00H, '<', 00H, 's', 00H, 't'
	DB	00H, 'r', 00H, 'u', 00H, 'c', 00H, 't', 00H, ' ', 00H, 's', 00H
	DB	't', 00H, 'd', 00H, ':', 00H, ':', 00H, '_', 00H, 'S', 00H, 'i'
	DB	00H, 'm', 00H, 'p', 00H, 'l', 00H, 'e', 00H, '_', 00H, 't', 00H
	DB	'y', 00H, 'p', 00H, 'e', 00H, 's', 00H, '<', 00H, 'c', 00H, 'l'
	DB	00H, 'a', 00H, 's', 00H, 's', 00H, ' ', 00H, 'W', 00H, 'a', 00H
	DB	'l', 00H, 'l', 00H, '2', 00H, 'D', 00H, ' ', 00H, '*', 00H, '>'
	DB	00H, ' ', 00H, '>', 00H, ' ', 00H, '>', 00H, ':', 00H, ':', 00H
	DB	'o', 00H, 'p', 00H, 'e', 00H, 'r', 00H, 'a', 00H, 't', 00H, 'o'
	DB	00H, 'r', 00H, ' ', 00H, '*', 00H, 00H, 00H	; `string'
CONST	ENDS
;	COMDAT ??_C@_1EG@FOHJJHAC@?$AAv?$AAe?$AAc?$AAt?$AAo?$AAr?$AA?5?$AAi?$AAt?$AAe?$AAr?$AAa?$AAt?$AAo?$AAr?$AA?5?$AAn?$AAo?$AAt?$AA?5?$AAd?$AAe?$AAr?$AAe?$AAf?$AAe?$AAr?$AAe?$AAn?$AAc?$AAa?$AAb@
CONST	SEGMENT
??_C@_1EG@FOHJJHAC@?$AAv?$AAe?$AAc?$AAt?$AAo?$AAr?$AA?5?$AAi?$AAt?$AAe?$AAr?$AAa?$AAt?$AAo?$AAr?$AA?5?$AAn?$AAo?$AAt?$AA?5?$AAd?$AAe?$AAr?$AAe?$AAf?$AAe?$AAr?$AAe?$AAn?$AAc?$AAa?$AAb@ DB 'v'
	DB	00H, 'e', 00H, 'c', 00H, 't', 00H, 'o', 00H, 'r', 00H, ' ', 00H
	DB	'i', 00H, 't', 00H, 'e', 00H, 'r', 00H, 'a', 00H, 't', 00H, 'o'
	DB	00H, 'r', 00H, ' ', 00H, 'n', 00H, 'o', 00H, 't', 00H, ' ', 00H
	DB	'd', 00H, 'e', 00H, 'r', 00H, 'e', 00H, 'f', 00H, 'e', 00H, 'r'
	DB	00H, 'e', 00H, 'n', 00H, 'c', 00H, 'a', 00H, 'b', 00H, 'l', 00H
	DB	'e', 00H, 00H, 00H				; `string'
CONST	ENDS
;	COMDAT ??_C@_1NM@PEGKDBJC@?$AAs?$AAt?$AAd?$AA?3?$AA?3?$AA_?$AAV?$AAe?$AAc?$AAt?$AAo?$AAr?$AA_?$AAc?$AAo?$AAn?$AAs?$AAt?$AA_?$AAi?$AAt?$AAe?$AAr?$AAa?$AAt?$AAo?$AAr?$AA?$DM?$AAc?$AAl?$AAa?$AAs@
CONST	SEGMENT
??_C@_1NM@PEGKDBJC@?$AAs?$AAt?$AAd?$AA?3?$AA?3?$AA_?$AAV?$AAe?$AAc?$AAt?$AAo?$AAr?$AA_?$AAc?$AAo?$AAn?$AAs?$AAt?$AA_?$AAi?$AAt?$AAe?$AAr?$AAa?$AAt?$AAo?$AAr?$AA?$DM?$AAc?$AAl?$AAa?$AAs@ DB 's'
	DB	00H, 't', 00H, 'd', 00H, ':', 00H, ':', 00H, '_', 00H, 'V', 00H
	DB	'e', 00H, 'c', 00H, 't', 00H, 'o', 00H, 'r', 00H, '_', 00H, 'c'
	DB	00H, 'o', 00H, 'n', 00H, 's', 00H, 't', 00H, '_', 00H, 'i', 00H
	DB	't', 00H, 'e', 00H, 'r', 00H, 'a', 00H, 't', 00H, 'o', 00H, 'r'
	DB	00H, '<', 00H, 'c', 00H, 'l', 00H, 'a', 00H, 's', 00H, 's', 00H
	DB	' ', 00H, 's', 00H, 't', 00H, 'd', 00H, ':', 00H, ':', 00H, '_'
	DB	00H, 'V', 00H, 'e', 00H, 'c', 00H, 't', 00H, 'o', 00H, 'r', 00H
	DB	'_', 00H, 'v', 00H, 'a', 00H, 'l', 00H, '<', 00H, 's', 00H, 't'
	DB	00H, 'r', 00H, 'u', 00H, 'c', 00H, 't', 00H, ' ', 00H, 's', 00H
	DB	't', 00H, 'd', 00H, ':', 00H, ':', 00H, '_', 00H, 'S', 00H, 'i'
	DB	00H, 'm', 00H, 'p', 00H, 'l', 00H, 'e', 00H, '_', 00H, 't', 00H
	DB	'y', 00H, 'p', 00H, 'e', 00H, 's', 00H, '<', 00H, 'c', 00H, 'l'
	DB	00H, 'a', 00H, 's', 00H, 's', 00H, ' ', 00H, 'W', 00H, 'a', 00H
	DB	'l', 00H, 'l', 00H, '2', 00H, 'D', 00H, ' ', 00H, '*', 00H, '>'
	DB	00H, ' ', 00H, '>', 00H, ' ', 00H, '>', 00H, ':', 00H, ':', 00H
	DB	'o', 00H, 'p', 00H, 'e', 00H, 'r', 00H, 'a', 00H, 't', 00H, 'o'
	DB	00H, 'r', 00H, ' ', 00H, '+', 00H, '+', 00H, 00H, 00H ; `string'
CONST	ENDS
;	COMDAT ??_C@_1EE@EJDKCLKB@?$AAv?$AAe?$AAc?$AAt?$AAo?$AAr?$AA?5?$AAi?$AAt?$AAe?$AAr?$AAa?$AAt?$AAo?$AAr?$AA?5?$AAn?$AAo?$AAt?$AA?5?$AAi?$AAn?$AAc?$AAr?$AAe?$AAm?$AAe?$AAn?$AAt?$AAa?$AAb?$AAl@
CONST	SEGMENT
??_C@_1EE@EJDKCLKB@?$AAv?$AAe?$AAc?$AAt?$AAo?$AAr?$AA?5?$AAi?$AAt?$AAe?$AAr?$AAa?$AAt?$AAo?$AAr?$AA?5?$AAn?$AAo?$AAt?$AA?5?$AAi?$AAn?$AAc?$AAr?$AAe?$AAm?$AAe?$AAn?$AAt?$AAa?$AAb?$AAl@ DB 'v'
	DB	00H, 'e', 00H, 'c', 00H, 't', 00H, 'o', 00H, 'r', 00H, ' ', 00H
	DB	'i', 00H, 't', 00H, 'e', 00H, 'r', 00H, 'a', 00H, 't', 00H, 'o'
	DB	00H, 'r', 00H, ' ', 00H, 'n', 00H, 'o', 00H, 't', 00H, ' ', 00H
	DB	'i', 00H, 'n', 00H, 'c', 00H, 'r', 00H, 'e', 00H, 'm', 00H, 'e'
	DB	00H, 'n', 00H, 't', 00H, 'a', 00H, 'b', 00H, 'l', 00H, 'e', 00H
	DB	00H, 00H					; `string'
CONST	ENDS
;	COMDAT ??_C@_1CK@EOPGIILJ@?$AAi?$AAn?$AAv?$AAa?$AAl?$AAi?$AAd?$AA?5?$AAn?$AAu?$AAl?$AAl?$AA?5?$AAp?$AAo?$AAi?$AAn?$AAt?$AAe?$AAr?$AA?$AA@
CONST	SEGMENT
??_C@_1CK@EOPGIILJ@?$AAi?$AAn?$AAv?$AAa?$AAl?$AAi?$AAd?$AA?5?$AAn?$AAu?$AAl?$AAl?$AA?5?$AAp?$AAo?$AAi?$AAn?$AAt?$AAe?$AAr?$AA?$AA@ DB 'i'
	DB	00H, 'n', 00H, 'v', 00H, 'a', 00H, 'l', 00H, 'i', 00H, 'd', 00H
	DB	' ', 00H, 'n', 00H, 'u', 00H, 'l', 00H, 'l', 00H, ' ', 00H, 'p'
	DB	00H, 'o', 00H, 'i', 00H, 'n', 00H, 't', 00H, 'e', 00H, 'r', 00H
	DB	00H, 00H					; `string'
CONST	ENDS
;	COMDAT ??_C@_0CB@NOKEJIID@?$DMPopLuaNumber?$DO?5Cannot?5retrieve?3?5@
CONST	SEGMENT
??_C@_0CB@NOKEJIID@?$DMPopLuaNumber?$DO?5Cannot?5retrieve?3?5@ DB '<PopLu'
	DB	'aNumber> Cannot retrieve: ', 00H		; `string'
CONST	ENDS
;	COMDAT ??_C@_0BI@CFPLBAOH@invalid?5string?5position?$AA@
CONST	SEGMENT
??_C@_0BI@CFPLBAOH@invalid?5string?5position?$AA@ DB 'invalid string posi'
	DB	'tion', 00H					; `string'
CONST	ENDS
;	COMDAT ??_C@_0BA@JFNIOLAK@string?5too?5long?$AA@
CONST	SEGMENT
??_C@_0BA@JFNIOLAK@string?5too?5long?$AA@ DB 'string too long', 00H ; `string'
CONST	ENDS
;	COMDAT ??_C@_1OC@BFEHCKCD@?$AAs?$AAt?$AAd?$AA?3?$AA?3?$AA_?$AAL?$AAi?$AAs?$AAt?$AA_?$AAc?$AAo?$AAn?$AAs?$AAt?$AA_?$AAi?$AAt?$AAe?$AAr?$AAa?$AAt?$AAo?$AAr?$AA?$DM?$AAc?$AAl?$AAa?$AAs?$AAs?$AA?5@
CONST	SEGMENT
??_C@_1OC@BFEHCKCD@?$AAs?$AAt?$AAd?$AA?3?$AA?3?$AA_?$AAL?$AAi?$AAs?$AAt?$AA_?$AAc?$AAo?$AAn?$AAs?$AAt?$AA_?$AAi?$AAt?$AAe?$AAr?$AAa?$AAt?$AAo?$AAr?$AA?$DM?$AAc?$AAl?$AAa?$AAs?$AAs?$AA?5@ DB 's'
	DB	00H, 't', 00H, 'd', 00H, ':', 00H, ':', 00H, '_', 00H, 'L', 00H
	DB	'i', 00H, 's', 00H, 't', 00H, '_', 00H, 'c', 00H, 'o', 00H, 'n'
	DB	00H, 's', 00H, 't', 00H, '_', 00H, 'i', 00H, 't', 00H, 'e', 00H
	DB	'r', 00H, 'a', 00H, 't', 00H, 'o', 00H, 'r', 00H, '<', 00H, 'c'
	DB	00H, 'l', 00H, 'a', 00H, 's', 00H, 's', 00H, ' ', 00H, 's', 00H
	DB	't', 00H, 'd', 00H, ':', 00H, ':', 00H, '_', 00H, 'L', 00H, 'i'
	DB	00H, 's', 00H, 't', 00H, '_', 00H, 'v', 00H, 'a', 00H, 'l', 00H
	DB	'<', 00H, 's', 00H, 't', 00H, 'r', 00H, 'u', 00H, 'c', 00H, 't'
	DB	00H, ' ', 00H, 's', 00H, 't', 00H, 'd', 00H, ':', 00H, ':', 00H
	DB	'_', 00H, 'L', 00H, 'i', 00H, 's', 00H, 't', 00H, '_', 00H, 's'
	DB	00H, 'i', 00H, 'm', 00H, 'p', 00H, 'l', 00H, 'e', 00H, '_', 00H
	DB	't', 00H, 'y', 00H, 'p', 00H, 'e', 00H, 's', 00H, '<', 00H, 'c'
	DB	00H, 'l', 00H, 'a', 00H, 's', 00H, 's', 00H, ' ', 00H, 'R', 00H
	DB	'a', 00H, 'v', 00H, 'e', 00H, 'n', 00H, '_', 00H, 'B', 00H, 'o'
	DB	00H, 't', 00H, ' ', 00H, '*', 00H, '>', 00H, ' ', 00H, '>', 00H
	DB	' ', 00H, '>', 00H, ':', 00H, ':', 00H, 'o', 00H, 'p', 00H, 'e'
	DB	00H, 'r', 00H, 'a', 00H, 't', 00H, 'o', 00H, 'r', 00H, ' ', 00H
	DB	'*', 00H, 00H, 00H				; `string'
CONST	ENDS
;	COMDAT ??_C@_1EC@HILJLMMC@?$AAl?$AAi?$AAs?$AAt?$AA?5?$AAi?$AAt?$AAe?$AAr?$AAa?$AAt?$AAo?$AAr?$AA?5?$AAn?$AAo?$AAt?$AA?5?$AAd?$AAe?$AAr?$AAe?$AAf?$AAe?$AAr?$AAe?$AAn?$AAc?$AAa?$AAb?$AAl?$AAe@
CONST	SEGMENT
??_C@_1EC@HILJLMMC@?$AAl?$AAi?$AAs?$AAt?$AA?5?$AAi?$AAt?$AAe?$AAr?$AAa?$AAt?$AAo?$AAr?$AA?5?$AAn?$AAo?$AAt?$AA?5?$AAd?$AAe?$AAr?$AAe?$AAf?$AAe?$AAr?$AAe?$AAn?$AAc?$AAa?$AAb?$AAl?$AAe@ DB 'l'
	DB	00H, 'i', 00H, 's', 00H, 't', 00H, ' ', 00H, 'i', 00H, 't', 00H
	DB	'e', 00H, 'r', 00H, 'a', 00H, 't', 00H, 'o', 00H, 'r', 00H, ' '
	DB	00H, 'n', 00H, 'o', 00H, 't', 00H, ' ', 00H, 'd', 00H, 'e', 00H
	DB	'r', 00H, 'e', 00H, 'f', 00H, 'e', 00H, 'r', 00H, 'e', 00H, 'n'
	DB	00H, 'c', 00H, 'a', 00H, 'b', 00H, 'l', 00H, 'e', 00H, 00H, 00H ; `string'
CONST	ENDS
;	COMDAT ??_C@_1OE@NJHNFAGK@?$AAs?$AAt?$AAd?$AA?3?$AA?3?$AA_?$AAL?$AAi?$AAs?$AAt?$AA_?$AAc?$AAo?$AAn?$AAs?$AAt?$AA_?$AAi?$AAt?$AAe?$AAr?$AAa?$AAt?$AAo?$AAr?$AA?$DM?$AAc?$AAl?$AAa?$AAs?$AAs?$AA?5@
CONST	SEGMENT
??_C@_1OE@NJHNFAGK@?$AAs?$AAt?$AAd?$AA?3?$AA?3?$AA_?$AAL?$AAi?$AAs?$AAt?$AA_?$AAc?$AAo?$AAn?$AAs?$AAt?$AA_?$AAi?$AAt?$AAe?$AAr?$AAa?$AAt?$AAo?$AAr?$AA?$DM?$AAc?$AAl?$AAa?$AAs?$AAs?$AA?5@ DB 's'
	DB	00H, 't', 00H, 'd', 00H, ':', 00H, ':', 00H, '_', 00H, 'L', 00H
	DB	'i', 00H, 's', 00H, 't', 00H, '_', 00H, 'c', 00H, 'o', 00H, 'n'
	DB	00H, 's', 00H, 't', 00H, '_', 00H, 'i', 00H, 't', 00H, 'e', 00H
	DB	'r', 00H, 'a', 00H, 't', 00H, 'o', 00H, 'r', 00H, '<', 00H, 'c'
	DB	00H, 'l', 00H, 'a', 00H, 's', 00H, 's', 00H, ' ', 00H, 's', 00H
	DB	't', 00H, 'd', 00H, ':', 00H, ':', 00H, '_', 00H, 'L', 00H, 'i'
	DB	00H, 's', 00H, 't', 00H, '_', 00H, 'v', 00H, 'a', 00H, 'l', 00H
	DB	'<', 00H, 's', 00H, 't', 00H, 'r', 00H, 'u', 00H, 'c', 00H, 't'
	DB	00H, ' ', 00H, 's', 00H, 't', 00H, 'd', 00H, ':', 00H, ':', 00H
	DB	'_', 00H, 'L', 00H, 'i', 00H, 's', 00H, 't', 00H, '_', 00H, 's'
	DB	00H, 'i', 00H, 'm', 00H, 'p', 00H, 'l', 00H, 'e', 00H, '_', 00H
	DB	't', 00H, 'y', 00H, 'p', 00H, 'e', 00H, 's', 00H, '<', 00H, 'c'
	DB	00H, 'l', 00H, 'a', 00H, 's', 00H, 's', 00H, ' ', 00H, 'R', 00H
	DB	'a', 00H, 'v', 00H, 'e', 00H, 'n', 00H, '_', 00H, 'B', 00H, 'o'
	DB	00H, 't', 00H, ' ', 00H, '*', 00H, '>', 00H, ' ', 00H, '>', 00H
	DB	' ', 00H, '>', 00H, ':', 00H, ':', 00H, 'o', 00H, 'p', 00H, 'e'
	DB	00H, 'r', 00H, 'a', 00H, 't', 00H, 'o', 00H, 'r', 00H, ' ', 00H
	DB	'+', 00H, '+', 00H, 00H, 00H			; `string'
CONST	ENDS
;	COMDAT ??_C@_1EA@DOGAGKDH@?$AAl?$AAi?$AAs?$AAt?$AA?5?$AAi?$AAt?$AAe?$AAr?$AAa?$AAt?$AAo?$AAr?$AA?5?$AAn?$AAo?$AAt?$AA?5?$AAi?$AAn?$AAc?$AAr?$AAe?$AAm?$AAe?$AAn?$AAt?$AAa?$AAb?$AAl?$AAe?$AA?$AA@
CONST	SEGMENT
??_C@_1EA@DOGAGKDH@?$AAl?$AAi?$AAs?$AAt?$AA?5?$AAi?$AAt?$AAe?$AAr?$AAa?$AAt?$AAo?$AAr?$AA?5?$AAn?$AAo?$AAt?$AA?5?$AAi?$AAn?$AAc?$AAr?$AAe?$AAm?$AAe?$AAn?$AAt?$AAa?$AAb?$AAl?$AAe?$AA?$AA@ DB 'l'
	DB	00H, 'i', 00H, 's', 00H, 't', 00H, ' ', 00H, 'i', 00H, 't', 00H
	DB	'e', 00H, 'r', 00H, 'a', 00H, 't', 00H, 'o', 00H, 'r', 00H, ' '
	DB	00H, 'n', 00H, 'o', 00H, 't', 00H, ' ', 00H, 'i', 00H, 'n', 00H
	DB	'c', 00H, 'r', 00H, 'e', 00H, 'm', 00H, 'e', 00H, 'n', 00H, 't'
	DB	00H, 'a', 00H, 'b', 00H, 'l', 00H, 'e', 00H, 00H, 00H ; `string'
CONST	ENDS
;	COMDAT ??_C@_1OE@HJIALJKP@?$AAs?$AAt?$AAd?$AA?3?$AA?3?$AA_?$AAL?$AAi?$AAs?$AAt?$AA_?$AAc?$AAo?$AAn?$AAs?$AAt?$AA_?$AAi?$AAt?$AAe?$AAr?$AAa?$AAt?$AAo?$AAr?$AA?$DM?$AAc?$AAl?$AAa?$AAs?$AAs?$AA?5@
CONST	SEGMENT
??_C@_1OE@HJIALJKP@?$AAs?$AAt?$AAd?$AA?3?$AA?3?$AA_?$AAL?$AAi?$AAs?$AAt?$AA_?$AAc?$AAo?$AAn?$AAs?$AAt?$AA_?$AAi?$AAt?$AAe?$AAr?$AAa?$AAt?$AAo?$AAr?$AA?$DM?$AAc?$AAl?$AAa?$AAs?$AAs?$AA?5@ DB 's'
	DB	00H, 't', 00H, 'd', 00H, ':', 00H, ':', 00H, '_', 00H, 'L', 00H
	DB	'i', 00H, 's', 00H, 't', 00H, '_', 00H, 'c', 00H, 'o', 00H, 'n'
	DB	00H, 's', 00H, 't', 00H, '_', 00H, 'i', 00H, 't', 00H, 'e', 00H
	DB	'r', 00H, 'a', 00H, 't', 00H, 'o', 00H, 'r', 00H, '<', 00H, 'c'
	DB	00H, 'l', 00H, 'a', 00H, 's', 00H, 's', 00H, ' ', 00H, 's', 00H
	DB	't', 00H, 'd', 00H, ':', 00H, ':', 00H, '_', 00H, 'L', 00H, 'i'
	DB	00H, 's', 00H, 't', 00H, '_', 00H, 'v', 00H, 'a', 00H, 'l', 00H
	DB	'<', 00H, 's', 00H, 't', 00H, 'r', 00H, 'u', 00H, 'c', 00H, 't'
	DB	00H, ' ', 00H, 's', 00H, 't', 00H, 'd', 00H, ':', 00H, ':', 00H
	DB	'_', 00H, 'L', 00H, 'i', 00H, 's', 00H, 't', 00H, '_', 00H, 's'
	DB	00H, 'i', 00H, 'm', 00H, 'p', 00H, 'l', 00H, 'e', 00H, '_', 00H
	DB	't', 00H, 'y', 00H, 'p', 00H, 'e', 00H, 's', 00H, '<', 00H, 'c'
	DB	00H, 'l', 00H, 'a', 00H, 's', 00H, 's', 00H, ' ', 00H, 'R', 00H
	DB	'a', 00H, 'v', 00H, 'e', 00H, 'n', 00H, '_', 00H, 'B', 00H, 'o'
	DB	00H, 't', 00H, ' ', 00H, '*', 00H, '>', 00H, ' ', 00H, '>', 00H
	DB	' ', 00H, '>', 00H, ':', 00H, ':', 00H, 'o', 00H, 'p', 00H, 'e'
	DB	00H, 'r', 00H, 'a', 00H, 't', 00H, 'o', 00H, 'r', 00H, ' ', 00H
	DB	'=', 00H, '=', 00H, 00H, 00H			; `string'
CONST	ENDS
;	COMDAT ??_C@_1FO@GJIHNDLM@?$AA?$CC?$AAS?$AAt?$AAa?$AAn?$AAd?$AAa?$AAr?$AAd?$AA?5?$AAC?$AA?$CL?$AA?$CL?$AA?5?$AAL?$AAi?$AAb?$AAr?$AAa?$AAr?$AAi?$AAe?$AAs?$AA?5?$AAI?$AAn?$AAv?$AAa?$AAl?$AAi?$AAd?$AA?5@
CONST	SEGMENT
??_C@_1FO@GJIHNDLM@?$AA?$CC?$AAS?$AAt?$AAa?$AAn?$AAd?$AAa?$AAr?$AAd?$AA?5?$AAC?$AA?$CL?$AA?$CL?$AA?5?$AAL?$AAi?$AAb?$AAr?$AAa?$AAr?$AAi?$AAe?$AAs?$AA?5?$AAI?$AAn?$AAv?$AAa?$AAl?$AAi?$AAd?$AA?5@ DB '"'
	DB	00H, 'S', 00H, 't', 00H, 'a', 00H, 'n', 00H, 'd', 00H, 'a', 00H
	DB	'r', 00H, 'd', 00H, ' ', 00H, 'C', 00H, '+', 00H, '+', 00H, ' '
	DB	00H, 'L', 00H, 'i', 00H, 'b', 00H, 'r', 00H, 'a', 00H, 'r', 00H
	DB	'i', 00H, 'e', 00H, 's', 00H, ' ', 00H, 'I', 00H, 'n', 00H, 'v'
	DB	00H, 'a', 00H, 'l', 00H, 'i', 00H, 'd', 00H, ' ', 00H, 'A', 00H
	DB	'r', 00H, 'g', 00H, 'u', 00H, 'm', 00H, 'e', 00H, 'n', 00H, 't'
	DB	00H, '"', 00H, ' ', 00H, '&', 00H, '&', 00H, ' ', 00H, '0', 00H
	DB	00H, 00H					; `string'
CONST	ENDS
;	COMDAT ??_C@_0CI@FNPHFCCM@Standard?5C?$CL?$CL?5Libraries?5Invalid?5A@
CONST	SEGMENT
??_C@_0CI@FNPHFCCM@Standard?5C?$CL?$CL?5Libraries?5Invalid?5A@ DB 'Standa'
	DB	'rd C++ Libraries Invalid Argument', 00H	; `string'
CONST	ENDS
;	COMDAT ??_C@_1DI@MDELDGPI@?$AAl?$AAi?$AAs?$AAt?$AA?5?$AAi?$AAt?$AAe?$AAr?$AAa?$AAt?$AAo?$AAr?$AAs?$AA?5?$AAi?$AAn?$AAc?$AAo?$AAm?$AAp?$AAa?$AAt?$AAi?$AAb?$AAl?$AAe?$AA?$AA@
CONST	SEGMENT
??_C@_1DI@MDELDGPI@?$AAl?$AAi?$AAs?$AAt?$AA?5?$AAi?$AAt?$AAe?$AAr?$AAa?$AAt?$AAo?$AAr?$AAs?$AA?5?$AAi?$AAn?$AAc?$AAo?$AAm?$AAp?$AAa?$AAt?$AAi?$AAb?$AAl?$AAe?$AA?$AA@ DB 'l'
	DB	00H, 'i', 00H, 's', 00H, 't', 00H, ' ', 00H, 'i', 00H, 't', 00H
	DB	'e', 00H, 'r', 00H, 'a', 00H, 't', 00H, 'o', 00H, 'r', 00H, 's'
	DB	00H, ' ', 00H, 'i', 00H, 'n', 00H, 'c', 00H, 'o', 00H, 'm', 00H
	DB	'p', 00H, 'a', 00H, 't', 00H, 'i', 00H, 'b', 00H, 'l', 00H, 'e'
	DB	00H, 00H, 00H				; `string'
CONST	ENDS
;	COMDAT ??_C@_1II@PHKIGFNF@?$AAC?$AA?3?$AA?2?$AAP?$AAr?$AAo?$AAg?$AAr?$AAa?$AAm?$AA?5?$AAF?$AAi?$AAl?$AAe?$AAs?$AA?5?$AA?$CI?$AAx?$AA8?$AA6?$AA?$CJ?$AA?2?$AAM?$AAi?$AAc?$AAr?$AAo?$AAs?$AAo?$AAf?$AAt@
CONST	SEGMENT
??_C@_1II@PHKIGFNF@?$AAC?$AA?3?$AA?2?$AAP?$AAr?$AAo?$AAg?$AAr?$AAa?$AAm?$AA?5?$AAF?$AAi?$AAl?$AAe?$AAs?$AA?5?$AA?$CI?$AAx?$AA8?$AA6?$AA?$CJ?$AA?2?$AAM?$AAi?$AAc?$AAr?$AAo?$AAs?$AAo?$AAf?$AAt@ DB 'C'
	DB	00H, ':', 00H, '\', 00H, 'P', 00H, 'r', 00H, 'o', 00H, 'g', 00H
	DB	'r', 00H, 'a', 00H, 'm', 00H, ' ', 00H, 'F', 00H, 'i', 00H, 'l'
	DB	00H, 'e', 00H, 's', 00H, ' ', 00H, '(', 00H, 'x', 00H, '8', 00H
	DB	'6', 00H, ')', 00H, '\', 00H, 'M', 00H, 'i', 00H, 'c', 00H, 'r'
	DB	00H, 'o', 00H, 's', 00H, 'o', 00H, 'f', 00H, 't', 00H, ' ', 00H
	DB	'V', 00H, 'i', 00H, 's', 00H, 'u', 00H, 'a', 00H, 'l', 00H, ' '
	DB	00H, 'S', 00H, 't', 00H, 'u', 00H, 'd', 00H, 'i', 00H, 'o', 00H
	DB	' ', 00H, '1', 00H, '4', 00H, '.', 00H, '0', 00H, '\', 00H, 'V'
	DB	00H, 'C', 00H, '\', 00H, 'i', 00H, 'n', 00H, 'c', 00H, 'l', 00H
	DB	'u', 00H, 'd', 00H, 'e', 00H, '\', 00H, 'l', 00H, 'i', 00H, 's'
	DB	00H, 't', 00H, 00H, 00H			; `string'
CONST	ENDS
;	COMDAT ??_C@_1IO@IPMLDGDI@?$AAC?$AA?3?$AA?2?$AAP?$AAr?$AAo?$AAg?$AAr?$AAa?$AAm?$AA?5?$AAF?$AAi?$AAl?$AAe?$AAs?$AA?5?$AA?$CI?$AAx?$AA8?$AA6?$AA?$CJ?$AA?2?$AAM?$AAi?$AAc?$AAr?$AAo?$AAs?$AAo?$AAf?$AAt@
CONST	SEGMENT
??_C@_1IO@IPMLDGDI@?$AAC?$AA?3?$AA?2?$AAP?$AAr?$AAo?$AAg?$AAr?$AAa?$AAm?$AA?5?$AAF?$AAi?$AAl?$AAe?$AAs?$AA?5?$AA?$CI?$AAx?$AA8?$AA6?$AA?$CJ?$AA?2?$AAM?$AAi?$AAc?$AAr?$AAo?$AAs?$AAo?$AAf?$AAt@ DB 'C'
	DB	00H, ':', 00H, '\', 00H, 'P', 00H, 'r', 00H, 'o', 00H, 'g', 00H
	DB	'r', 00H, 'a', 00H, 'm', 00H, ' ', 00H, 'F', 00H, 'i', 00H, 'l'
	DB	00H, 'e', 00H, 's', 00H, ' ', 00H, '(', 00H, 'x', 00H, '8', 00H
	DB	'6', 00H, ')', 00H, '\', 00H, 'M', 00H, 'i', 00H, 'c', 00H, 'r'
	DB	00H, 'o', 00H, 's', 00H, 'o', 00H, 'f', 00H, 't', 00H, ' ', 00H
	DB	'V', 00H, 'i', 00H, 's', 00H, 'u', 00H, 'a', 00H, 'l', 00H, ' '
	DB	00H, 'S', 00H, 't', 00H, 'u', 00H, 'd', 00H, 'i', 00H, 'o', 00H
	DB	' ', 00H, '1', 00H, '4', 00H, '.', 00H, '0', 00H, '\', 00H, 'V'
	DB	00H, 'C', 00H, '\', 00H, 'i', 00H, 'n', 00H, 'c', 00H, 'l', 00H
	DB	'u', 00H, 'd', 00H, 'e', 00H, '\', 00H, 'x', 00H, 's', 00H, 't'
	DB	00H, 'r', 00H, 'i', 00H, 'n', 00H, 'g', 00H, 00H, 00H ; `string'
CONST	ENDS
;	COMDAT ??_C@_1BO@MEPPHOO@?$AA?$CC?$AAo?$AAu?$AAt?$AA?5?$AAo?$AAf?$AA?5?$AAr?$AAa?$AAn?$AAg?$AAe?$AA?$CC?$AA?$AA@
CONST	SEGMENT
??_C@_1BO@MEPPHOO@?$AA?$CC?$AAo?$AAu?$AAt?$AA?5?$AAo?$AAf?$AA?5?$AAr?$AAa?$AAn?$AAg?$AAe?$AA?$CC?$AA?$AA@ DB '"'
	DB	00H, 'o', 00H, 'u', 00H, 't', 00H, ' ', 00H, 'o', 00H, 'f', 00H
	DB	' ', 00H, 'r', 00H, 'a', 00H, 'n', 00H, 'g', 00H, 'e', 00H, '"'
	DB	00H, 00H, 00H				; `string'
CONST	ENDS
;	COMDAT ??_C@_1FG@IBPIFFN@?$AA?$CC?$AAS?$AAt?$AAa?$AAn?$AAd?$AAa?$AAr?$AAd?$AA?5?$AAC?$AA?$CL?$AA?$CL?$AA?5?$AAL?$AAi?$AAb?$AAr?$AAa?$AAr?$AAi?$AAe?$AAs?$AA?5?$AAO?$AAu?$AAt?$AA?5?$AAo?$AAf?$AA?5?$AAR@
CONST	SEGMENT
??_C@_1FG@IBPIFFN@?$AA?$CC?$AAS?$AAt?$AAa?$AAn?$AAd?$AAa?$AAr?$AAd?$AA?5?$AAC?$AA?$CL?$AA?$CL?$AA?5?$AAL?$AAi?$AAb?$AAr?$AAa?$AAr?$AAi?$AAe?$AAs?$AA?5?$AAO?$AAu?$AAt?$AA?5?$AAo?$AAf?$AA?5?$AAR@ DB '"'
	DB	00H, 'S', 00H, 't', 00H, 'a', 00H, 'n', 00H, 'd', 00H, 'a', 00H
	DB	'r', 00H, 'd', 00H, ' ', 00H, 'C', 00H, '+', 00H, '+', 00H, ' '
	DB	00H, 'L', 00H, 'i', 00H, 'b', 00H, 'r', 00H, 'a', 00H, 'r', 00H
	DB	'i', 00H, 'e', 00H, 's', 00H, ' ', 00H, 'O', 00H, 'u', 00H, 't'
	DB	00H, ' ', 00H, 'o', 00H, 'f', 00H, ' ', 00H, 'R', 00H, 'a', 00H
	DB	'n', 00H, 'g', 00H, 'e', 00H, '"', 00H, ' ', 00H, '&', 00H, '&'
	DB	00H, ' ', 00H, '0', 00H, 00H, 00H		; `string'
CONST	ENDS
;	COMDAT ??_C@_0CE@OFMIGAMM@Standard?5C?$CL?$CL?5Libraries?5Out?5of?5Ra@
CONST	SEGMENT
??_C@_0CE@OFMIGAMM@Standard?5C?$CL?$CL?5Libraries?5Out?5of?5Ra@ DB 'Stand'
	DB	'ard C++ Libraries Out of Range', 00H	; `string'
CONST	ENDS
;	COMDAT ??_C@_1IM@LECEOODI@?$AAC?$AA?3?$AA?2?$AAP?$AAr?$AAo?$AAg?$AAr?$AAa?$AAm?$AA?5?$AAF?$AAi?$AAl?$AAe?$AAs?$AA?5?$AA?$CI?$AAx?$AA8?$AA6?$AA?$CJ?$AA?2?$AAM?$AAi?$AAc?$AAr?$AAo?$AAs?$AAo?$AAf?$AAt@
CONST	SEGMENT
??_C@_1IM@LECEOODI@?$AAC?$AA?3?$AA?2?$AAP?$AAr?$AAo?$AAg?$AAr?$AAa?$AAm?$AA?5?$AAF?$AAi?$AAl?$AAe?$AAs?$AA?5?$AA?$CI?$AAx?$AA8?$AA6?$AA?$CJ?$AA?2?$AAM?$AAi?$AAc?$AAr?$AAo?$AAs?$AAo?$AAf?$AAt@ DB 'C'
	DB	00H, ':', 00H, '\', 00H, 'P', 00H, 'r', 00H, 'o', 00H, 'g', 00H
	DB	'r', 00H, 'a', 00H, 'm', 00H, ' ', 00H, 'F', 00H, 'i', 00H, 'l'
	DB	00H, 'e', 00H, 's', 00H, ' ', 00H, '(', 00H, 'x', 00H, '8', 00H
	DB	'6', 00H, ')', 00H, '\', 00H, 'M', 00H, 'i', 00H, 'c', 00H, 'r'
	DB	00H, 'o', 00H, 's', 00H, 'o', 00H, 'f', 00H, 't', 00H, ' ', 00H
	DB	'V', 00H, 'i', 00H, 's', 00H, 'u', 00H, 'a', 00H, 'l', 00H, ' '
	DB	00H, 'S', 00H, 't', 00H, 'u', 00H, 'd', 00H, 'i', 00H, 'o', 00H
	DB	' ', 00H, '1', 00H, '4', 00H, '.', 00H, '0', 00H, '\', 00H, 'V'
	DB	00H, 'C', 00H, '\', 00H, 'i', 00H, 'n', 00H, 'c', 00H, 'l', 00H
	DB	'u', 00H, 'd', 00H, 'e', 00H, '\', 00H, 'v', 00H, 'e', 00H, 'c'
	DB	00H, 't', 00H, 'o', 00H, 'r', 00H, 00H, 00H	; `string'
CONST	ENDS
;	COMDAT ??_7Slug@@6B@
CONST	SEGMENT
??_7Slug@@6B@ DD FLAT:??_R4Slug@@6B@			; Slug::`vftable'
	DD	FLAT:??_ESlug@@UAEPAXI@Z
	DD	FLAT:?Update@Slug@@UAEXXZ
	DD	FLAT:?Render@Slug@@UAEXXZ
	DD	FLAT:?HandleMessage@BaseGameEntity@@UAE_NABUTelegram@@@Z
	DD	FLAT:?Write@Raven_Projectile@@UBEXAAV?$basic_ostream@DU?$char_traits@D@std@@@std@@@Z
	DD	FLAT:?Read@Raven_Projectile@@UAEXAAV?$basic_ifstream@DU?$char_traits@D@std@@@std@@@Z
CONST	ENDS
;	COMDAT ??_7Raven_Projectile@@6B@
CONST	SEGMENT
??_7Raven_Projectile@@6B@ DD FLAT:??_R4Raven_Projectile@@6B@ ; Raven_Projectile::`vftable'
	DD	FLAT:??_ERaven_Projectile@@UAEPAXI@Z
	DD	FLAT:__purecall
	DD	FLAT:__purecall
	DD	FLAT:?HandleMessage@BaseGameEntity@@UAE_NABUTelegram@@@Z
	DD	FLAT:?Write@Raven_Projectile@@UBEXAAV?$basic_ostream@DU?$char_traits@D@std@@@std@@@Z
	DD	FLAT:?Read@Raven_Projectile@@UAEXAAV?$basic_ifstream@DU?$char_traits@D@std@@@std@@@Z
CONST	ENDS
;	COMDAT ??_7MovingEntity@@6B@
CONST	SEGMENT
??_7MovingEntity@@6B@ DD FLAT:??_R4MovingEntity@@6B@	; MovingEntity::`vftable'
	DD	FLAT:??_EMovingEntity@@UAEPAXI@Z
	DD	FLAT:?Update@BaseGameEntity@@UAEXXZ
	DD	FLAT:__purecall
	DD	FLAT:?HandleMessage@BaseGameEntity@@UAE_NABUTelegram@@@Z
	DD	FLAT:?Write@BaseGameEntity@@UBEXAAV?$basic_ostream@DU?$char_traits@D@std@@@std@@@Z
	DD	FLAT:?Read@BaseGameEntity@@UAEXAAV?$basic_ifstream@DU?$char_traits@D@std@@@std@@@Z
CONST	ENDS
;	COMDAT ??_7BaseGameEntity@@6B@
CONST	SEGMENT
??_7BaseGameEntity@@6B@ DD FLAT:??_R4BaseGameEntity@@6B@ ; BaseGameEntity::`vftable'
	DD	FLAT:??_EBaseGameEntity@@UAEPAXI@Z
	DD	FLAT:?Update@BaseGameEntity@@UAEXXZ
	DD	FLAT:__purecall
	DD	FLAT:?HandleMessage@BaseGameEntity@@UAE_NABUTelegram@@@Z
	DD	FLAT:?Write@BaseGameEntity@@UBEXAAV?$basic_ostream@DU?$char_traits@D@std@@@std@@@Z
	DD	FLAT:?Read@BaseGameEntity@@UAEXAAV?$basic_ifstream@DU?$char_traits@D@std@@@std@@@Z
CONST	ENDS
;	COMDAT __CT??_R0?AVexception@std@@@8??0exception@std@@QAE@ABV01@@Z12
xdata$x	SEGMENT
__CT??_R0?AVexception@std@@@8??0exception@std@@QAE@ABV01@@Z12 DD 00H
	DD	FLAT:??_R0?AVexception@std@@@8
	DD	00H
	DD	0ffffffffH
	ORG $+4
	DD	0cH
	DD	FLAT:??0exception@std@@QAE@ABV01@@Z
xdata$x	ENDS
;	COMDAT ??_R0?AVexception@std@@@8
data$r	SEGMENT
??_R0?AVexception@std@@@8 DD FLAT:??_7type_info@@6B@	; std::exception `RTTI Type Descriptor'
	DD	00H
	DB	'.?AVexception@std@@', 00H
data$r	ENDS
;	COMDAT __CT??_R0?AVruntime_error@std@@@8??0runtime_error@std@@QAE@ABV01@@Z12
xdata$x	SEGMENT
__CT??_R0?AVruntime_error@std@@@8??0runtime_error@std@@QAE@ABV01@@Z12 DD 00H
	DD	FLAT:??_R0?AVruntime_error@std@@@8
	DD	00H
	DD	0ffffffffH
	ORG $+4
	DD	0cH
	DD	FLAT:??0runtime_error@std@@QAE@ABV01@@Z
xdata$x	ENDS
;	COMDAT ??_R0?AVruntime_error@std@@@8
data$r	SEGMENT
??_R0?AVruntime_error@std@@@8 DD FLAT:??_7type_info@@6B@ ; std::runtime_error `RTTI Type Descriptor'
	DD	00H
	DB	'.?AVruntime_error@std@@', 00H
data$r	ENDS
;	COMDAT __CTA2?AVruntime_error@std@@
xdata$x	SEGMENT
__CTA2?AVruntime_error@std@@ DD 02H
	DD	FLAT:__CT??_R0?AVruntime_error@std@@@8??0runtime_error@std@@QAE@ABV01@@Z12
	DD	FLAT:__CT??_R0?AVexception@std@@@8??0exception@std@@QAE@ABV01@@Z12
xdata$x	ENDS
;	COMDAT __TI2?AVruntime_error@std@@
xdata$x	SEGMENT
__TI2?AVruntime_error@std@@ DD 00H
	DD	FLAT:??1runtime_error@std@@UAE@XZ
	DD	00H
	DD	FLAT:__CTA2?AVruntime_error@std@@
xdata$x	ENDS
;	COMDAT ??_7runtime_error@std@@6B@
CONST	SEGMENT
??_7runtime_error@std@@6B@ DD FLAT:??_R4runtime_error@std@@6B@ ; std::runtime_error::`vftable'
	DD	FLAT:??_Eruntime_error@std@@UAEPAXI@Z
	DD	FLAT:?what@exception@std@@UBEPBDXZ
CONST	ENDS
;	COMDAT ?npos@?$basic_string@DU?$char_traits@D@std@@V?$allocator@D@2@@std@@2IB
CONST	SEGMENT
?npos@?$basic_string@DU?$char_traits@D@std@@V?$allocator@D@2@@std@@2IB DD 0ffffffffH ; std::basic_string<char,std::char_traits<char>,std::allocator<char> >::npos
CONST	ENDS
;	COMDAT ??_C@_1GI@DHJGPFNI@?$AA?$CC?$AA_?$AAP?$AAt?$AAr?$AA_?$AAu?$AAs?$AAe?$AAr?$AA?5?$AA?9?$AA?5?$AA_?$AAP?$AAt?$AAr?$AA_?$AAc?$AAo?$AAn?$AAt?$AAa?$AAi?$AAn?$AAe?$AAr?$AA?5?$AA?$DM?$AA?$DN?$AA?5?$AA_@
CONST	SEGMENT
??_C@_1GI@DHJGPFNI@?$AA?$CC?$AA_?$AAP?$AAt?$AAr?$AA_?$AAu?$AAs?$AAe?$AAr?$AA?5?$AA?9?$AA?5?$AA_?$AAP?$AAt?$AAr?$AA_?$AAc?$AAo?$AAn?$AAt?$AAa?$AAi?$AAn?$AAe?$AAr?$AA?5?$AA?$DM?$AA?$DN?$AA?5?$AA_@ DB '"'
	DB	00H, '_', 00H, 'P', 00H, 't', 00H, 'r', 00H, '_', 00H, 'u', 00H
	DB	's', 00H, 'e', 00H, 'r', 00H, ' ', 00H, '-', 00H, ' ', 00H, '_'
	DB	00H, 'P', 00H, 't', 00H, 'r', 00H, '_', 00H, 'c', 00H, 'o', 00H
	DB	'n', 00H, 't', 00H, 'a', 00H, 'i', 00H, 'n', 00H, 'e', 00H, 'r'
	DB	00H, ' ', 00H, '<', 00H, '=', 00H, ' ', 00H, '_', 00H, 'N', 00H
	DB	'O', 00H, 'N', 00H, '_', 00H, 'U', 00H, 'S', 00H, 'E', 00H, 'R'
	DB	00H, '_', 00H, 'S', 00H, 'I', 00H, 'Z', 00H, 'E', 00H, '"', 00H
	DB	' ', 00H, '&', 00H, '&', 00H, ' ', 00H, '0', 00H, 00H, 00H ; `string'
CONST	ENDS
;	COMDAT ??_C@_0CN@BLHJCAL@_Ptr_user?5?9?5_Ptr_container?5?$DM?$DN?5_N@
CONST	SEGMENT
??_C@_0CN@BLHJCAL@_Ptr_user?5?9?5_Ptr_container?5?$DM?$DN?5_N@ DB '_Ptr_u'
	DB	'ser - _Ptr_container <= _NON_USER_SIZE', 00H ; `string'
CONST	ENDS
;	COMDAT ??_C@_1HA@NAPGMHAO@?$AA?$CC?$AA2?$AA?5?$AA?$CK?$AA?5?$AAs?$AAi?$AAz?$AAe?$AAo?$AAf?$AA?$CI?$AAv?$AAo?$AAi?$AAd?$AA?5?$AA?$CK?$AA?$CJ?$AA?5?$AA?$DM?$AA?$DN?$AA?5?$AA_?$AAP?$AAt?$AAr?$AA_?$AAu?$AAs?$AAe?$AAr@
CONST	SEGMENT
??_C@_1HA@NAPGMHAO@?$AA?$CC?$AA2?$AA?5?$AA?$CK?$AA?5?$AAs?$AAi?$AAz?$AAe?$AAo?$AAf?$AA?$CI?$AAv?$AAo?$AAi?$AAd?$AA?5?$AA?$CK?$AA?$CJ?$AA?5?$AA?$DM?$AA?$DN?$AA?5?$AA_?$AAP?$AAt?$AAr?$AA_?$AAu?$AAs?$AAe?$AAr@ DB '"'
	DB	00H, '2', 00H, ' ', 00H, '*', 00H, ' ', 00H, 's', 00H, 'i', 00H
	DB	'z', 00H, 'e', 00H, 'o', 00H, 'f', 00H, '(', 00H, 'v', 00H, 'o'
	DB	00H, 'i', 00H, 'd', 00H, ' ', 00H, '*', 00H, ')', 00H, ' ', 00H
	DB	'<', 00H, '=', 00H, ' ', 00H, '_', 00H, 'P', 00H, 't', 00H, 'r'
	DB	00H, '_', 00H, 'u', 00H, 's', 00H, 'e', 00H, 'r', 00H, ' ', 00H
	DB	'-', 00H, ' ', 00H, '_', 00H, 'P', 00H, 't', 00H, 'r', 00H, '_'
	DB	00H, 'c', 00H, 'o', 00H, 'n', 00H, 't', 00H, 'a', 00H, 'i', 00H
	DB	'n', 00H, 'e', 00H, 'r', 00H, '"', 00H, ' ', 00H, '&', 00H, '&'
	DB	00H, ' ', 00H, '0', 00H, 00H, 00H		; `string'
CONST	ENDS
;	COMDAT ??_C@_0DB@GLFJLNCE@2?5?$CK?5sizeof?$CIvoid?5?$CK?$CJ?5?$DM?$DN?5_Ptr_user?5@
CONST	SEGMENT
??_C@_0DB@GLFJLNCE@2?5?$CK?5sizeof?$CIvoid?5?$CK?$CJ?5?$DM?$DN?5_Ptr_user?5@ DB '2'
	DB	' * sizeof(void *) <= _Ptr_user - _Ptr_container', 00H ; `string'
CONST	ENDS
;	COMDAT ??_C@_1EE@PDHAHDDC@?$AA?$CC?$AA_?$AAP?$AAt?$AAr?$AA_?$AAc?$AAo?$AAn?$AAt?$AAa?$AAi?$AAn?$AAe?$AAr?$AA?5?$AA?$DM?$AA?5?$AA_?$AAP?$AAt?$AAr?$AA_?$AAu?$AAs?$AAe?$AAr?$AA?$CC?$AA?5?$AA?$CG?$AA?$CG?$AA?5@
CONST	SEGMENT
??_C@_1EE@PDHAHDDC@?$AA?$CC?$AA_?$AAP?$AAt?$AAr?$AA_?$AAc?$AAo?$AAn?$AAt?$AAa?$AAi?$AAn?$AAe?$AAr?$AA?5?$AA?$DM?$AA?5?$AA_?$AAP?$AAt?$AAr?$AA_?$AAu?$AAs?$AAe?$AAr?$AA?$CC?$AA?5?$AA?$CG?$AA?$CG?$AA?5@ DB '"'
	DB	00H, '_', 00H, 'P', 00H, 't', 00H, 'r', 00H, '_', 00H, 'c', 00H
	DB	'o', 00H, 'n', 00H, 't', 00H, 'a', 00H, 'i', 00H, 'n', 00H, 'e'
	DB	00H, 'r', 00H, ' ', 00H, '<', 00H, ' ', 00H, '_', 00H, 'P', 00H
	DB	't', 00H, 'r', 00H, '_', 00H, 'u', 00H, 's', 00H, 'e', 00H, 'r'
	DB	00H, '"', 00H, ' ', 00H, '&', 00H, '&', 00H, ' ', 00H, '0', 00H
	DB	00H, 00H					; `string'
CONST	ENDS
;	COMDAT ??_C@_0BL@OCKMEJON@_Ptr_container?5?$DM?5_Ptr_user?$AA@
CONST	SEGMENT
??_C@_0BL@OCKMEJON@_Ptr_container?5?$DM?5_Ptr_user?$AA@ DB '_Ptr_containe'
	DB	'r < _Ptr_user', 00H				; `string'
CONST	ENDS
;	COMDAT ??_C@_1JO@EKLKIEHP@?$AA?$CC?$AAr?$AAe?$AAi?$AAn?$AAt?$AAe?$AAr?$AAp?$AAr?$AAe?$AAt?$AA_?$AAc?$AAa?$AAs?$AAt?$AA?$DM?$AAu?$AAi?$AAn?$AAt?$AAp?$AAt?$AAr?$AA_?$AAt?$AA?5?$AA?$CK?$AA?$DO?$AA?$CI?$AA_@
CONST	SEGMENT
??_C@_1JO@EKLKIEHP@?$AA?$CC?$AAr?$AAe?$AAi?$AAn?$AAt?$AAe?$AAr?$AAp?$AAr?$AAe?$AAt?$AA_?$AAc?$AAa?$AAs?$AAt?$AA?$DM?$AAu?$AAi?$AAn?$AAt?$AAp?$AAt?$AAr?$AA_?$AAt?$AA?5?$AA?$CK?$AA?$DO?$AA?$CI?$AA_@ DB '"'
	DB	00H, 'r', 00H, 'e', 00H, 'i', 00H, 'n', 00H, 't', 00H, 'e', 00H
	DB	'r', 00H, 'p', 00H, 'r', 00H, 'e', 00H, 't', 00H, '_', 00H, 'c'
	DB	00H, 'a', 00H, 's', 00H, 't', 00H, '<', 00H, 'u', 00H, 'i', 00H
	DB	'n', 00H, 't', 00H, 'p', 00H, 't', 00H, 'r', 00H, '_', 00H, 't'
	DB	00H, ' ', 00H, '*', 00H, '>', 00H, '(', 00H, '_', 00H, 'P', 00H
	DB	't', 00H, 'r', 00H, '_', 00H, 'p', 00H, 't', 00H, 'r', 00H, ')'
	DB	00H, '[', 00H, '-', 00H, '1', 00H, ']', 00H, ' ', 00H, '=', 00H
	DB	'=', 00H, ' ', 00H, '_', 00H, 'B', 00H, 'I', 00H, 'G', 00H, '_'
	DB	00H, 'A', 00H, 'L', 00H, 'L', 00H, 'O', 00H, 'C', 00H, 'A', 00H
	DB	'T', 00H, 'I', 00H, 'O', 00H, 'N', 00H, '_', 00H, 'S', 00H, 'E'
	DB	00H, 'N', 00H, 'T', 00H, 'I', 00H, 'N', 00H, 'E', 00H, 'L', 00H
	DB	'"', 00H, ' ', 00H, '&', 00H, '&', 00H, ' ', 00H, '0', 00H, 00H
	DB	00H						; `string'
CONST	ENDS
;	COMDAT ??_C@_0EI@NOJHEJCJ@reinterpret_cast?$DMuintptr_t?5?$CK?$DO?$CI_P@
CONST	SEGMENT
??_C@_0EI@NOJHEJCJ@reinterpret_cast?$DMuintptr_t?5?$CK?$DO?$CI_P@ DB 'rei'
	DB	'nterpret_cast<uintptr_t *>(_Ptr_ptr)[-1] == _BIG_ALLOCATION_S'
	DB	'ENTINEL', 00H				; `string'
CONST	ENDS
;	COMDAT ??_C@_1HE@CDMBFOKC@?$AA?$CC?$AA?$CI?$AA_?$AAP?$AAt?$AAr?$AA_?$AAu?$AAs?$AAe?$AAr?$AA?5?$AA?$CG?$AA?5?$AA?$CI?$AA_?$AAB?$AAI?$AAG?$AA_?$AAA?$AAL?$AAL?$AAO?$AAC?$AAA?$AAT?$AAI?$AAO?$AAN?$AA_?$AAA@
CONST	SEGMENT
??_C@_1HE@CDMBFOKC@?$AA?$CC?$AA?$CI?$AA_?$AAP?$AAt?$AAr?$AA_?$AAu?$AAs?$AAe?$AAr?$AA?5?$AA?$CG?$AA?5?$AA?$CI?$AA_?$AAB?$AAI?$AAG?$AA_?$AAA?$AAL?$AAL?$AAO?$AAC?$AAA?$AAT?$AAI?$AAO?$AAN?$AA_?$AAA@ DB '"'
	DB	00H, '(', 00H, '_', 00H, 'P', 00H, 't', 00H, 'r', 00H, '_', 00H
	DB	'u', 00H, 's', 00H, 'e', 00H, 'r', 00H, ' ', 00H, '&', 00H, ' '
	DB	00H, '(', 00H, '_', 00H, 'B', 00H, 'I', 00H, 'G', 00H, '_', 00H
	DB	'A', 00H, 'L', 00H, 'L', 00H, 'O', 00H, 'C', 00H, 'A', 00H, 'T'
	DB	00H, 'I', 00H, 'O', 00H, 'N', 00H, '_', 00H, 'A', 00H, 'L', 00H
	DB	'I', 00H, 'G', 00H, 'N', 00H, 'M', 00H, 'E', 00H, 'N', 00H, 'T'
	DB	00H, ' ', 00H, '-', 00H, ' ', 00H, '1', 00H, ')', 00H, ')', 00H
	DB	' ', 00H, '=', 00H, '=', 00H, ' ', 00H, '0', 00H, '"', 00H, ' '
	DB	00H, '&', 00H, '&', 00H, ' ', 00H, '0', 00H, 00H, 00H ; `string'
CONST	ENDS
;	COMDAT ??_C@_0DD@GBGGGKGG@?$CI_Ptr_user?5?$CG?5?$CI_BIG_ALLOCATION_AL@
CONST	SEGMENT
??_C@_0DD@GBGGGKGG@?$CI_Ptr_user?5?$CG?5?$CI_BIG_ALLOCATION_AL@ DB '(_Ptr'
	DB	'_user & (_BIG_ALLOCATION_ALIGNMENT - 1)) == 0', 00H ; `string'
CONST	ENDS
;	COMDAT ??_C@_1CC@LOFJFFDB@?$AAs?$AAt?$AAd?$AA?3?$AA?3?$AA_?$AAD?$AAe?$AAa?$AAl?$AAl?$AAo?$AAc?$AAa?$AAt?$AAe?$AA?$AA@
CONST	SEGMENT
??_C@_1CC@LOFJFFDB@?$AAs?$AAt?$AAd?$AA?3?$AA?3?$AA_?$AAD?$AAe?$AAa?$AAl?$AAl?$AAo?$AAc?$AAa?$AAt?$AAe?$AA?$AA@ DB 's'
	DB	00H, 't', 00H, 'd', 00H, ':', 00H, ':', 00H, '_', 00H, 'D', 00H
	DB	'e', 00H, 'a', 00H, 'l', 00H, 'l', 00H, 'o', 00H, 'c', 00H, 'a'
	DB	00H, 't', 00H, 'e', 00H, 00H, 00H		; `string'
CONST	ENDS
;	COMDAT ??_C@_1EI@MLOBABC@?$AA?$CC?$AA_?$AAC?$AAo?$AAu?$AAn?$AAt?$AA?5?$AA?$DM?$AA?$DN?$AA?5?$AA?$CI?$AAs?$AAi?$AAz?$AAe?$AA_?$AAt?$AA?$CJ?$AA?$CI?$AA?9?$AA1?$AA?$CJ?$AA?5?$AA?1?$AA?5?$AA_?$AAS?$AAz?$AA?$CC?$AA?5?$AA?$CG@
CONST	SEGMENT
??_C@_1EI@MLOBABC@?$AA?$CC?$AA_?$AAC?$AAo?$AAu?$AAn?$AAt?$AA?5?$AA?$DM?$AA?$DN?$AA?5?$AA?$CI?$AAs?$AAi?$AAz?$AAe?$AA_?$AAt?$AA?$CJ?$AA?$CI?$AA?9?$AA1?$AA?$CJ?$AA?5?$AA?1?$AA?5?$AA_?$AAS?$AAz?$AA?$CC?$AA?5?$AA?$CG@ DB '"'
	DB	00H, '_', 00H, 'C', 00H, 'o', 00H, 'u', 00H, 'n', 00H, 't', 00H
	DB	' ', 00H, '<', 00H, '=', 00H, ' ', 00H, '(', 00H, 's', 00H, 'i'
	DB	00H, 'z', 00H, 'e', 00H, '_', 00H, 't', 00H, ')', 00H, '(', 00H
	DB	'-', 00H, '1', 00H, ')', 00H, ' ', 00H, '/', 00H, ' ', 00H, '_'
	DB	00H, 'S', 00H, 'z', 00H, '"', 00H, ' ', 00H, '&', 00H, '&', 00H
	DB	' ', 00H, '0', 00H, 00H, 00H			; `string'
CONST	ENDS
;	COMDAT ??_C@_0BN@HMCJOMKN@_Count?5?$DM?$DN?5?$CIsize_t?$CJ?$CI?91?$CJ?5?1?5_Sz?$AA@
CONST	SEGMENT
??_C@_0BN@HMCJOMKN@_Count?5?$DM?$DN?5?$CIsize_t?$CJ?$CI?91?$CJ?5?1?5_Sz?$AA@ DB '_'
	DB	'Count <= (size_t)(-1) / _Sz', 00H		; `string'
CONST	ENDS
;	COMDAT ??_C@_1CC@GKJLLHIM@?$AA?$CC?$AA_?$AAP?$AAt?$AAr?$AA?5?$AA?$CB?$AA?$DN?$AA?5?$AA0?$AA?$CC?$AA?5?$AA?$CG?$AA?$CG?$AA?5?$AA0?$AA?$AA@
CONST	SEGMENT
??_C@_1CC@GKJLLHIM@?$AA?$CC?$AA_?$AAP?$AAt?$AAr?$AA?5?$AA?$CB?$AA?$DN?$AA?5?$AA0?$AA?$CC?$AA?5?$AA?$CG?$AA?$CG?$AA?5?$AA0?$AA?$AA@ DB '"'
	DB	00H, '_', 00H, 'P', 00H, 't', 00H, 'r', 00H, ' ', 00H, '!', 00H
	DB	'=', 00H, ' ', 00H, '0', 00H, '"', 00H, ' ', 00H, '&', 00H, '&'
	DB	00H, ' ', 00H, '0', 00H, 00H, 00H		; `string'
CONST	ENDS
;	COMDAT ??_C@_09GLJCAGLP@_Ptr?5?$CB?$DN?50?$AA@
CONST	SEGMENT
??_C@_09GLJCAGLP@_Ptr?5?$CB?$DN?50?$AA@ DB '_Ptr != 0', 00H ; `string'
CONST	ENDS
;	COMDAT ??_C@_1CG@JNLFBNGN@?$AA?$CC?$AAi?$AAn?$AAv?$AAa?$AAl?$AAi?$AAd?$AA?5?$AAa?$AAr?$AAg?$AAu?$AAm?$AAe?$AAn?$AAt?$AA?$CC?$AA?$AA@
CONST	SEGMENT
??_C@_1CG@JNLFBNGN@?$AA?$CC?$AAi?$AAn?$AAv?$AAa?$AAl?$AAi?$AAd?$AA?5?$AAa?$AAr?$AAg?$AAu?$AAm?$AAe?$AAn?$AAt?$AA?$CC?$AA?$AA@ DB '"'
	DB	00H, 'i', 00H, 'n', 00H, 'v', 00H, 'a', 00H, 'l', 00H, 'i', 00H
	DB	'd', 00H, ' ', 00H, 'a', 00H, 'r', 00H, 'g', 00H, 'u', 00H, 'm'
	DB	00H, 'e', 00H, 'n', 00H, 't', 00H, '"', 00H, 00H, 00H ; `string'
CONST	ENDS
;	COMDAT ??_C@_1BO@NKFMJPA@?$AAs?$AAt?$AAd?$AA?3?$AA?3?$AA_?$AAA?$AAl?$AAl?$AAo?$AAc?$AAa?$AAt?$AAe?$AA?$AA@
CONST	SEGMENT
??_C@_1BO@NKFMJPA@?$AAs?$AAt?$AAd?$AA?3?$AA?3?$AA_?$AAA?$AAl?$AAl?$AAo?$AAc?$AAa?$AAt?$AAe?$AA?$AA@ DB 's'
	DB	00H, 't', 00H, 'd', 00H, ':', 00H, ':', 00H, '_', 00H, 'A', 00H
	DB	'l', 00H, 'l', 00H, 'o', 00H, 'c', 00H, 'a', 00H, 't', 00H, 'e'
	DB	00H, 00H, 00H				; `string'
CONST	ENDS
;	COMDAT ??_C@_1JA@HEEMAOGC@?$AAC?$AA?3?$AA?2?$AAP?$AAr?$AAo?$AAg?$AAr?$AAa?$AAm?$AA?5?$AAF?$AAi?$AAl?$AAe?$AAs?$AA?5?$AA?$CI?$AAx?$AA8?$AA6?$AA?$CJ?$AA?2?$AAM?$AAi?$AAc?$AAr?$AAo?$AAs?$AAo?$AAf?$AAt@
CONST	SEGMENT
??_C@_1JA@HEEMAOGC@?$AAC?$AA?3?$AA?2?$AAP?$AAr?$AAo?$AAg?$AAr?$AAa?$AAm?$AA?5?$AAF?$AAi?$AAl?$AAe?$AAs?$AA?5?$AA?$CI?$AAx?$AA8?$AA6?$AA?$CJ?$AA?2?$AAM?$AAi?$AAc?$AAr?$AAo?$AAs?$AAo?$AAf?$AAt@ DB 'C'
	DB	00H, ':', 00H, '\', 00H, 'P', 00H, 'r', 00H, 'o', 00H, 'g', 00H
	DB	'r', 00H, 'a', 00H, 'm', 00H, ' ', 00H, 'F', 00H, 'i', 00H, 'l'
	DB	00H, 'e', 00H, 's', 00H, ' ', 00H, '(', 00H, 'x', 00H, '8', 00H
	DB	'6', 00H, ')', 00H, '\', 00H, 'M', 00H, 'i', 00H, 'c', 00H, 'r'
	DB	00H, 'o', 00H, 's', 00H, 'o', 00H, 'f', 00H, 't', 00H, ' ', 00H
	DB	'V', 00H, 'i', 00H, 's', 00H, 'u', 00H, 'a', 00H, 'l', 00H, ' '
	DB	00H, 'S', 00H, 't', 00H, 'u', 00H, 'd', 00H, 'i', 00H, 'o', 00H
	DB	' ', 00H, '1', 00H, '4', 00H, '.', 00H, '0', 00H, '\', 00H, 'V'
	DB	00H, 'C', 00H, '\', 00H, 'i', 00H, 'n', 00H, 'c', 00H, 'l', 00H
	DB	'u', 00H, 'd', 00H, 'e', 00H, '\', 00H, 'x', 00H, 'm', 00H, 'e'
	DB	00H, 'm', 00H, 'o', 00H, 'r', 00H, 'y', 00H, '0', 00H, 00H, 00H ; `string'
CONST	ENDS
;	COMDAT ??_C@_1DG@HGDKEBPG@?$AA?$CC?$AA_?$AAP?$AAt?$AAr?$AA_?$AAc?$AAo?$AAn?$AAt?$AAa?$AAi?$AAn?$AAe?$AAr?$AA?5?$AA?$CB?$AA?$DN?$AA?5?$AA0?$AA?$CC?$AA?5?$AA?$CG?$AA?$CG?$AA?5?$AA0?$AA?$AA@
CONST	SEGMENT
??_C@_1DG@HGDKEBPG@?$AA?$CC?$AA_?$AAP?$AAt?$AAr?$AA_?$AAc?$AAo?$AAn?$AAt?$AAa?$AAi?$AAn?$AAe?$AAr?$AA?5?$AA?$CB?$AA?$DN?$AA?5?$AA0?$AA?$CC?$AA?5?$AA?$CG?$AA?$CG?$AA?5?$AA0?$AA?$AA@ DB '"'
	DB	00H, '_', 00H, 'P', 00H, 't', 00H, 'r', 00H, '_', 00H, 'c', 00H
	DB	'o', 00H, 'n', 00H, 't', 00H, 'a', 00H, 'i', 00H, 'n', 00H, 'e'
	DB	00H, 'r', 00H, ' ', 00H, '!', 00H, '=', 00H, ' ', 00H, '0', 00H
	DB	'"', 00H, ' ', 00H, '&', 00H, '&', 00H, ' ', 00H, '0', 00H, 00H
	DB	00H						; `string'
CONST	ENDS
;	COMDAT ??_C@_0BE@LMNLACIC@_Ptr_container?5?$CB?$DN?50?$AA@
CONST	SEGMENT
??_C@_0BE@LMNLACIC@_Ptr_container?5?$CB?$DN?50?$AA@ DB '_Ptr_container !='
	DB	' 0', 00H					; `string'
CONST	ENDS
;	COMDAT ??_C@_1DC@POOIKBAO@?$AAI?$AAT?$AAE?$AAR?$AAA?$AAT?$AAO?$AAR?$AA?5?$AAL?$AAI?$AAS?$AAT?$AA?5?$AAC?$AAO?$AAR?$AAR?$AAU?$AAP?$AAT?$AAE?$AAD?$AA?$CB?$AA?$AA@
CONST	SEGMENT
??_C@_1DC@POOIKBAO@?$AAI?$AAT?$AAE?$AAR?$AAA?$AAT?$AAO?$AAR?$AA?5?$AAL?$AAI?$AAS?$AAT?$AA?5?$AAC?$AAO?$AAR?$AAR?$AAU?$AAP?$AAT?$AAE?$AAD?$AA?$CB?$AA?$AA@ DB 'I'
	DB	00H, 'T', 00H, 'E', 00H, 'R', 00H, 'A', 00H, 'T', 00H, 'O', 00H
	DB	'R', 00H, ' ', 00H, 'L', 00H, 'I', 00H, 'S', 00H, 'T', 00H, ' '
	DB	00H, 'C', 00H, 'O', 00H, 'R', 00H, 'R', 00H, 'U', 00H, 'P', 00H
	DB	'T', 00H, 'E', 00H, 'D', 00H, '!', 00H, 00H, 00H ; `string'
CONST	ENDS
;	COMDAT ??_C@_1JA@IJKHNLMB@?$AAC?$AA?3?$AA?2?$AAP?$AAr?$AAo?$AAg?$AAr?$AAa?$AAm?$AA?5?$AAF?$AAi?$AAl?$AAe?$AAs?$AA?5?$AA?$CI?$AAx?$AA8?$AA6?$AA?$CJ?$AA?2?$AAM?$AAi?$AAc?$AAr?$AAo?$AAs?$AAo?$AAf?$AAt@
CONST	SEGMENT
??_C@_1JA@IJKHNLMB@?$AAC?$AA?3?$AA?2?$AAP?$AAr?$AAo?$AAg?$AAr?$AAa?$AAm?$AA?5?$AAF?$AAi?$AAl?$AAe?$AAs?$AA?5?$AA?$CI?$AAx?$AA8?$AA6?$AA?$CJ?$AA?2?$AAM?$AAi?$AAc?$AAr?$AAo?$AAs?$AAo?$AAf?$AAt@ DB 'C'
	DB	00H, ':', 00H, '\', 00H, 'P', 00H, 'r', 00H, 'o', 00H, 'g', 00H
	DB	'r', 00H, 'a', 00H, 'm', 00H, ' ', 00H, 'F', 00H, 'i', 00H, 'l'
	DB	00H, 'e', 00H, 's', 00H, ' ', 00H, '(', 00H, 'x', 00H, '8', 00H
	DB	'6', 00H, ')', 00H, '\', 00H, 'M', 00H, 'i', 00H, 'c', 00H, 'r'
	DB	00H, 'o', 00H, 's', 00H, 'o', 00H, 'f', 00H, 't', 00H, ' ', 00H
	DB	'V', 00H, 'i', 00H, 's', 00H, 'u', 00H, 'a', 00H, 'l', 00H, ' '
	DB	00H, 'S', 00H, 't', 00H, 'u', 00H, 'd', 00H, 'i', 00H, 'o', 00H
	DB	' ', 00H, '1', 00H, '4', 00H, '.', 00H, '0', 00H, '\', 00H, 'V'
	DB	00H, 'C', 00H, '\', 00H, 'i', 00H, 'n', 00H, 'c', 00H, 'l', 00H
	DB	'u', 00H, 'd', 00H, 'e', 00H, '\', 00H, 'x', 00H, 'u', 00H, 't'
	DB	00H, 'i', 00H, 'l', 00H, 'i', 00H, 't', 00H, 'y', 00H, 00H, 00H ; `string'
CONST	ENDS
;	COMDAT ??_C@_0BC@EOODALEL@Unknown?5exception?$AA@
CONST	SEGMENT
??_C@_0BC@EOODALEL@Unknown?5exception?$AA@ DB 'Unknown exception', 00H ; `string'
CONST	ENDS
;	COMDAT ??_7exception@std@@6B@
CONST	SEGMENT
??_7exception@std@@6B@ DD FLAT:??_R4exception@std@@6B@	; std::exception::`vftable'
	DD	FLAT:??_Eexception@std@@UAEPAXI@Z
	DD	FLAT:?what@exception@std@@UBEPBDXZ
CONST	ENDS
;	COMDAT ??_C@_17CNPHIMPH@?$AA?$CF?$AAl?$AAs?$AA?$AA@
CONST	SEGMENT
??_C@_17CNPHIMPH@?$AA?$CF?$AAl?$AAs?$AA?$AA@ DB '%', 00H, 'l', 00H, 's', 00H
	DB	00H, 00H					; `string'
CONST	ENDS
;	COMDAT xdata$x
xdata$x	SEGMENT
__unwindtable$??0?$_Vector_const_iterator@V?$_Vector_val@U?$_Simple_types@PAVWall2D@@@std@@@std@@@std@@QAE@PAPAVWall2D@@PBU_Container_base12@1@@Z DD 0ffffffffH
	DD	FLAT:__unwindfunclet$??0?$_Vector_const_iterator@V?$_Vector_val@U?$_Simple_types@PAVWall2D@@@std@@@std@@@std@@QAE@PAPAVWall2D@@PBU_Container_base12@1@@Z$0
__ehfuncinfo$??0?$_Vector_const_iterator@V?$_Vector_val@U?$_Simple_types@PAVWall2D@@@std@@@std@@@std@@QAE@PAPAVWall2D@@PBU_Container_base12@1@@Z DD 019930522H
	DD	01H
	DD	FLAT:__unwindtable$??0?$_Vector_const_iterator@V?$_Vector_val@U?$_Simple_types@PAVWall2D@@@std@@@std@@@std@@QAE@PAPAVWall2D@@PBU_Container_base12@1@@Z
	DD	2 DUP(00H)
	DD	2 DUP(00H)
	DD	00H
	DD	01H
xdata$x	ENDS
;	COMDAT xdata$x
xdata$x	SEGMENT
__unwindtable$??$?0U?$_Wrap_alloc@V?$allocator@D@std@@@std@@X@?$_String_alloc@U?$_String_base_types@DV?$allocator@D@std@@@std@@@std@@QAE@$$QAU?$_Wrap_alloc@V?$allocator@D@std@@@1@@Z DD 0ffffffffH
	DD	FLAT:__unwindfunclet$??$?0U?$_Wrap_alloc@V?$allocator@D@std@@@std@@X@?$_String_alloc@U?$_String_base_types@DV?$allocator@D@std@@@std@@@std@@QAE@$$QAU?$_Wrap_alloc@V?$allocator@D@std@@@1@@Z$0
__ehfuncinfo$??$?0U?$_Wrap_alloc@V?$allocator@D@std@@@std@@X@?$_String_alloc@U?$_String_base_types@DV?$allocator@D@std@@@std@@@std@@QAE@$$QAU?$_Wrap_alloc@V?$allocator@D@std@@@1@@Z DD 019930522H
	DD	01H
	DD	FLAT:__unwindtable$??$?0U?$_Wrap_alloc@V?$allocator@D@std@@@std@@X@?$_String_alloc@U?$_String_base_types@DV?$allocator@D@std@@@std@@@std@@QAE@$$QAU?$_Wrap_alloc@V?$allocator@D@std@@@1@@Z
	DD	2 DUP(00H)
	DD	2 DUP(00H)
	DD	00H
	DD	01H
xdata$x	ENDS
;	COMDAT xdata$x
xdata$x	SEGMENT
__unwindtable$??0?$_List_unchecked_const_iterator@V?$_List_val@U?$_List_simple_types@PAVRaven_Bot@@@std@@@std@@U_Iterator_base12@2@@std@@QAE@PAU?$_List_node@PAVRaven_Bot@@PAX@1@PBV?$_List_val@U?$_List_simple_types@PAVRaven_Bot@@@std@@@1@@Z DD 0ffffffffH
	DD	FLAT:__unwindfunclet$??0?$_List_unchecked_const_iterator@V?$_List_val@U?$_List_simple_types@PAVRaven_Bot@@@std@@@std@@U_Iterator_base12@2@@std@@QAE@PAU?$_List_node@PAVRaven_Bot@@PAX@1@PBV?$_List_val@U?$_List_simple_types@PAVRaven_Bot@@@std@@@1@@Z$0
__ehfuncinfo$??0?$_List_unchecked_const_iterator@V?$_List_val@U?$_List_simple_types@PAVRaven_Bot@@@std@@@std@@U_Iterator_base12@2@@std@@QAE@PAU?$_List_node@PAVRaven_Bot@@PAX@1@PBV?$_List_val@U?$_List_simple_types@PAVRaven_Bot@@@std@@@1@@Z DD 019930522H
	DD	01H
	DD	FLAT:__unwindtable$??0?$_List_unchecked_const_iterator@V?$_List_val@U?$_List_simple_types@PAVRaven_Bot@@@std@@@std@@U_Iterator_base12@2@@std@@QAE@PAU?$_List_node@PAVRaven_Bot@@PAX@1@PBV?$_List_val@U?$_List_simple_types@PAVRaven_Bot@@@std@@@1@@Z
	DD	2 DUP(00H)
	DD	2 DUP(00H)
	DD	00H
	DD	01H
xdata$x	ENDS
;	COMDAT xdata$x
xdata$x	SEGMENT
__unwindtable$??$FindClosestPointOfIntersectionWithWalls@V?$vector@PAVWall2D@@V?$allocator@PAVWall2D@@@std@@@std@@@@YA_NUVector2D@@0AANAAU0@ABV?$vector@PAVWall2D@@V?$allocator@PAVWall2D@@@std@@@std@@@Z DD 0ffffffffH
	DD	FLAT:__unwindfunclet$??$FindClosestPointOfIntersectionWithWalls@V?$vector@PAVWall2D@@V?$allocator@PAVWall2D@@@std@@@std@@@@YA_NUVector2D@@0AANAAU0@ABV?$vector@PAVWall2D@@V?$allocator@PAVWall2D@@@std@@@std@@@Z$0
	DD	00H
	DD	FLAT:__unwindfunclet$??$FindClosestPointOfIntersectionWithWalls@V?$vector@PAVWall2D@@V?$allocator@PAVWall2D@@@std@@@std@@@@YA_NUVector2D@@0AANAAU0@ABV?$vector@PAVWall2D@@V?$allocator@PAVWall2D@@@std@@@std@@@Z$1
__ehfuncinfo$??$FindClosestPointOfIntersectionWithWalls@V?$vector@PAVWall2D@@V?$allocator@PAVWall2D@@@std@@@std@@@@YA_NUVector2D@@0AANAAU0@ABV?$vector@PAVWall2D@@V?$allocator@PAVWall2D@@@std@@@std@@@Z DD 019930522H
	DD	02H
	DD	FLAT:__unwindtable$??$FindClosestPointOfIntersectionWithWalls@V?$vector@PAVWall2D@@V?$allocator@PAVWall2D@@@std@@@std@@@@YA_NUVector2D@@0AANAAU0@ABV?$vector@PAVWall2D@@V?$allocator@PAVWall2D@@@std@@@std@@@Z
	DD	2 DUP(00H)
	DD	2 DUP(00H)
	DD	00H
	DD	01H
xdata$x	ENDS
;	COMDAT xdata$x
xdata$x	SEGMENT
__ehfuncinfo$?end@?$vector@PAVWall2D@@V?$allocator@PAVWall2D@@@std@@@std@@QBE?AV?$_Vector_const_iterator@V?$_Vector_val@U?$_Simple_types@PAVWall2D@@@std@@@std@@@2@XZ DD 019930522H
	DD	00H
	DD	00H
	DD	2 DUP(00H)
	DD	2 DUP(00H)
	DD	00H
	DD	05H
xdata$x	ENDS
;	COMDAT xdata$x
xdata$x	SEGMENT
__ehfuncinfo$?begin@?$vector@PAVWall2D@@V?$allocator@PAVWall2D@@@std@@@std@@QBE?AV?$_Vector_const_iterator@V?$_Vector_val@U?$_Simple_types@PAVWall2D@@@std@@@std@@@2@XZ DD 019930522H
	DD	00H
	DD	00H
	DD	2 DUP(00H)
	DD	2 DUP(00H)
	DD	00H
	DD	05H
xdata$x	ENDS
;	COMDAT xdata$x
xdata$x	SEGMENT
__unwindtable$?_Orphan_ptr@?$list@PAVRaven_Bot@@V?$allocator@PAVRaven_Bot@@@std@@@std@@QAEXPAU?$_List_node@PAVRaven_Bot@@PAX@2@@Z DD 0ffffffffH
	DD	FLAT:__unwindfunclet$?_Orphan_ptr@?$list@PAVRaven_Bot@@V?$allocator@PAVRaven_Bot@@@std@@@std@@QAEXPAU?$_List_node@PAVRaven_Bot@@PAX@2@@Z$0
__ehfuncinfo$?_Orphan_ptr@?$list@PAVRaven_Bot@@V?$allocator@PAVRaven_Bot@@@std@@@std@@QAEXPAU?$_List_node@PAVRaven_Bot@@PAX@2@@Z DD 019930522H
	DD	01H
	DD	FLAT:__unwindtable$?_Orphan_ptr@?$list@PAVRaven_Bot@@V?$allocator@PAVRaven_Bot@@@std@@@std@@QAEXPAU?$_List_node@PAVRaven_Bot@@PAX@2@@Z
	DD	2 DUP(00H)
	DD	2 DUP(00H)
	DD	00H
	DD	01H
xdata$x	ENDS
;	COMDAT xdata$x
xdata$x	SEGMENT
__ehfuncinfo$?clear@?$list@PAVRaven_Bot@@V?$allocator@PAVRaven_Bot@@@std@@@std@@QAEXXZ DD 019930522H
	DD	00H
	DD	00H
	DD	2 DUP(00H)
	DD	2 DUP(00H)
	DD	00H
	DD	05H
xdata$x	ENDS
;	COMDAT xdata$x
xdata$x	SEGMENT
__ehfuncinfo$?end@?$list@PAVRaven_Bot@@V?$allocator@PAVRaven_Bot@@@std@@@std@@QAE?AV?$_List_iterator@V?$_List_val@U?$_List_simple_types@PAVRaven_Bot@@@std@@@std@@@2@XZ DD 019930522H
	DD	00H
	DD	00H
	DD	2 DUP(00H)
	DD	2 DUP(00H)
	DD	00H
	DD	05H
xdata$x	ENDS
;	COMDAT xdata$x
xdata$x	SEGMENT
__ehfuncinfo$?begin@?$list@PAVRaven_Bot@@V?$allocator@PAVRaven_Bot@@@std@@@std@@QAE?AV?$_List_iterator@V?$_List_val@U?$_List_simple_types@PAVRaven_Bot@@@std@@@std@@@2@XZ DD 019930522H
	DD	00H
	DD	00H
	DD	2 DUP(00H)
	DD	2 DUP(00H)
	DD	00H
	DD	05H
xdata$x	ENDS
;	COMDAT xdata$x
xdata$x	SEGMENT
__ehfuncinfo$??1?$list@PAVRaven_Bot@@V?$allocator@PAVRaven_Bot@@@std@@@std@@QAE@XZ DD 019930522H
	DD	00H
	DD	00H
	DD	2 DUP(00H)
	DD	2 DUP(00H)
	DD	00H
	DD	05H
xdata$x	ENDS
;	COMDAT xdata$x
xdata$x	SEGMENT
__ehfuncinfo$??1?$_List_alloc@U?$_List_base_types@PAVRaven_Bot@@V?$allocator@PAVRaven_Bot@@@std@@@std@@@std@@QAE@XZ DD 019930522H
	DD	00H
	DD	00H
	DD	2 DUP(00H)
	DD	2 DUP(00H)
	DD	00H
	DD	05H
xdata$x	ENDS
;	COMDAT xdata$x
xdata$x	SEGMENT
__unwindtable$??$PopLuaNumber@N@@YANPAUlua_State@@PBD@Z DD 0ffffffffH
	DD	FLAT:__unwindfunclet$??$PopLuaNumber@N@@YANPAUlua_State@@PBD@Z$0
	DD	00H
	DD	FLAT:__unwindfunclet$??$PopLuaNumber@N@@YANPAUlua_State@@PBD@Z$1
__ehfuncinfo$??$PopLuaNumber@N@@YANPAUlua_State@@PBD@Z DD 019930522H
	DD	02H
	DD	FLAT:__unwindtable$??$PopLuaNumber@N@@YANPAUlua_State@@PBD@Z
	DD	2 DUP(00H)
	DD	2 DUP(00H)
	DD	00H
	DD	01H
xdata$x	ENDS
;	COMDAT xdata$x
xdata$x	SEGMENT
__unwindtable$??$PopLuaNumber@H@@YAHPAUlua_State@@PBD@Z DD 0ffffffffH
	DD	FLAT:__unwindfunclet$??$PopLuaNumber@H@@YAHPAUlua_State@@PBD@Z$0
	DD	00H
	DD	FLAT:__unwindfunclet$??$PopLuaNumber@H@@YAHPAUlua_State@@PBD@Z$1
__ehfuncinfo$??$PopLuaNumber@H@@YAHPAUlua_State@@PBD@Z DD 019930522H
	DD	02H
	DD	FLAT:__unwindtable$??$PopLuaNumber@H@@YAHPAUlua_State@@PBD@Z
	DD	2 DUP(00H)
	DD	2 DUP(00H)
	DD	00H
	DD	01H
xdata$x	ENDS
;	COMDAT xdata$x
xdata$x	SEGMENT
__unwindtable$??$?HDU?$char_traits@D@std@@V?$allocator@D@1@@std@@YA?AV?$basic_string@DU?$char_traits@D@std@@V?$allocator@D@2@@0@ABV10@PBD@Z DD 0ffffffffH
	DD	FLAT:__unwindfunclet$??$?HDU?$char_traits@D@std@@V?$allocator@D@1@@std@@YA?AV?$basic_string@DU?$char_traits@D@std@@V?$allocator@D@2@@0@ABV10@PBD@Z$0
__ehfuncinfo$??$?HDU?$char_traits@D@std@@V?$allocator@D@1@@std@@YA?AV?$basic_string@DU?$char_traits@D@std@@V?$allocator@D@2@@0@ABV10@PBD@Z DD 019930522H
	DD	01H
	DD	FLAT:__unwindtable$??$?HDU?$char_traits@D@std@@V?$allocator@D@1@@std@@YA?AV?$basic_string@DU?$char_traits@D@std@@V?$allocator@D@2@@0@ABV10@PBD@Z
	DD	2 DUP(00H)
	DD	2 DUP(00H)
	DD	00H
	DD	01H
xdata$x	ENDS
xdata$x	SEGMENT
__unwindtable$??0Slug@@QAE@PAVRaven_Bot@@UVector2D@@@Z DD 0ffffffffH
	DD	FLAT:__unwindfunclet$??0Slug@@QAE@PAVRaven_Bot@@UVector2D@@@Z$0
__unwindtable$?TestForImpact@Slug@@AAEXXZ DD 0ffffffffH
	DD	FLAT:__unwindfunclet$?TestForImpact@Slug@@AAEXXZ$0
	DD	00H
	DD	FLAT:__unwindfunclet$?TestForImpact@Slug@@AAEXXZ$1
	DD	01H
	DD	FLAT:__unwindfunclet$?TestForImpact@Slug@@AAEXXZ$2
	DD	01H
	DD	FLAT:__unwindfunclet$?TestForImpact@Slug@@AAEXXZ$3
__ehfuncinfo$??0Slug@@QAE@PAVRaven_Bot@@UVector2D@@@Z DD 019930522H
	DD	01H
	DD	FLAT:__unwindtable$??0Slug@@QAE@PAVRaven_Bot@@UVector2D@@@Z
	DD	2 DUP(00H)
	DD	2 DUP(00H)
	DD	00H
	DD	01H
__ehfuncinfo$?TestForImpact@Slug@@AAEXXZ DD 019930522H
	DD	04H
	DD	FLAT:__unwindtable$?TestForImpact@Slug@@AAEXXZ
	DD	2 DUP(00H)
	DD	2 DUP(00H)
	DD	00H
	DD	01H
xdata$x	ENDS
;	COMDAT xdata$x
xdata$x	SEGMENT
__unwindtable$??0Raven_Projectile@@QAE@UVector2D@@PAVRaven_Game@@H00HNNNN@Z DD 0ffffffffH
	DD	FLAT:__unwindfunclet$??0Raven_Projectile@@QAE@UVector2D@@PAVRaven_Game@@H00HNNNN@Z$0
__ehfuncinfo$??0Raven_Projectile@@QAE@UVector2D@@PAVRaven_Game@@H00HNNNN@Z DD 019930522H
	DD	01H
	DD	FLAT:__unwindtable$??0Raven_Projectile@@QAE@UVector2D@@PAVRaven_Game@@H00HNNNN@Z
	DD	2 DUP(00H)
	DD	2 DUP(00H)
	DD	00H
	DD	01H
xdata$x	ENDS
;	COMDAT xdata$x
xdata$x	SEGMENT
__unwindtable$??0MovingEntity@@QAE@UVector2D@@N0N0N0NN@Z DD 0ffffffffH
	DD	FLAT:__unwindfunclet$??0MovingEntity@@QAE@UVector2D@@N0N0N0NN@Z$0
__ehfuncinfo$??0MovingEntity@@QAE@UVector2D@@N0N0N0NN@Z DD 019930522H
	DD	01H
	DD	FLAT:__unwindtable$??0MovingEntity@@QAE@UVector2D@@N0N0N0NN@Z
	DD	2 DUP(00H)
	DD	2 DUP(00H)
	DD	00H
	DD	01H
xdata$x	ENDS
;	COMDAT xdata$x
xdata$x	SEGMENT
__catchsym$?_Copy@?$basic_string@DU?$char_traits@D@std@@V?$allocator@D@2@@std@@QAEXII@Z$5 DD 040H
	DD	00H
	DD	00H
	DD	FLAT:__catch$?_Copy@?$basic_string@DU?$char_traits@D@std@@V?$allocator@D@2@@std@@QAEXII@Z$0
__catchsym$?_Copy@?$basic_string@DU?$char_traits@D@std@@V?$allocator@D@2@@std@@QAEXII@Z$4 DD 040H
	DD	00H
	DD	00H
	DD	FLAT:__catch$?_Copy@?$basic_string@DU?$char_traits@D@std@@V?$allocator@D@2@@std@@QAEXII@Z$1
__unwindtable$?_Copy@?$basic_string@DU?$char_traits@D@std@@V?$allocator@D@2@@std@@QAEXII@Z DD 0ffffffffH
	DD	00H
	DD	0ffffffffH
	DD	00H
	DD	01H
	DD	00H
	DD	01H
	DD	00H
__ehfuncinfo$?_Copy@?$basic_string@DU?$char_traits@D@std@@V?$allocator@D@2@@std@@QAEXII@Z DD 019930522H
	DD	04H
	DD	FLAT:__unwindtable$?_Copy@?$basic_string@DU?$char_traits@D@std@@V?$allocator@D@2@@std@@QAEXII@Z
	DD	02H
	DD	FLAT:__tryblocktable$?_Copy@?$basic_string@DU?$char_traits@D@std@@V?$allocator@D@2@@std@@QAEXII@Z
	DD	2 DUP(00H)
	DD	00H
	DD	01H
__tryblocktable$?_Copy@?$basic_string@DU?$char_traits@D@std@@V?$allocator@D@2@@std@@QAEXII@Z DD 02H
	DD	02H
	DD	03H
	DD	01H
	DD	FLAT:__catchsym$?_Copy@?$basic_string@DU?$char_traits@D@std@@V?$allocator@D@2@@std@@QAEXII@Z$4
	DD	00H
	DD	00H
	DD	03H
	DD	01H
	DD	FLAT:__catchsym$?_Copy@?$basic_string@DU?$char_traits@D@std@@V?$allocator@D@2@@std@@QAEXII@Z$5
xdata$x	ENDS
;	COMDAT xdata$x
xdata$x	SEGMENT
__ehfuncinfo$?c_str@?$basic_string@DU?$char_traits@D@std@@V?$allocator@D@2@@std@@QBEPBDXZ DD 019930522H
	DD	00H
	DD	00H
	DD	2 DUP(00H)
	DD	2 DUP(00H)
	DD	00H
	DD	05H
xdata$x	ENDS
;	COMDAT xdata$x
xdata$x	SEGMENT
__ehfuncinfo$??1?$basic_string@DU?$char_traits@D@std@@V?$allocator@D@2@@std@@QAE@XZ DD 019930522H
	DD	00H
	DD	00H
	DD	2 DUP(00H)
	DD	2 DUP(00H)
	DD	00H
	DD	05H
xdata$x	ENDS
;	COMDAT xdata$x
xdata$x	SEGMENT
__ehfuncinfo$??0?$basic_string@DU?$char_traits@D@std@@V?$allocator@D@2@@std@@QAE@$$QAV01@@Z DD 019930522H
	DD	00H
	DD	00H
	DD	2 DUP(00H)
	DD	2 DUP(00H)
	DD	00H
	DD	05H
xdata$x	ENDS
;	COMDAT xdata$x
xdata$x	SEGMENT
__unwindtable$??0?$basic_string@DU?$char_traits@D@std@@V?$allocator@D@2@@std@@QAE@PBD@Z DD 0ffffffffH
	DD	FLAT:__unwindfunclet$??0?$basic_string@DU?$char_traits@D@std@@V?$allocator@D@2@@std@@QAE@PBD@Z$0
__ehfuncinfo$??0?$basic_string@DU?$char_traits@D@std@@V?$allocator@D@2@@std@@QAE@PBD@Z DD 019930522H
	DD	01H
	DD	FLAT:__unwindtable$??0?$basic_string@DU?$char_traits@D@std@@V?$allocator@D@2@@std@@QAE@PBD@Z
	DD	2 DUP(00H)
	DD	2 DUP(00H)
	DD	00H
	DD	01H
xdata$x	ENDS
;	COMDAT xdata$x
xdata$x	SEGMENT
__ehfuncinfo$??0?$basic_string@DU?$char_traits@D@std@@V?$allocator@D@2@@std@@QAE@XZ DD 019930522H
	DD	00H
	DD	00H
	DD	2 DUP(00H)
	DD	2 DUP(00H)
	DD	00H
	DD	05H
xdata$x	ENDS
;	COMDAT xdata$x
xdata$x	SEGMENT
__ehfuncinfo$??1?$_String_alloc@U?$_String_base_types@DV?$allocator@D@std@@@std@@@std@@QAE@XZ DD 019930522H
	DD	00H
	DD	00H
	DD	2 DUP(00H)
	DD	2 DUP(00H)
	DD	00H
	DD	05H
xdata$x	ENDS
;	COMDAT xdata$x
xdata$x	SEGMENT
__unwindtable$??0?$_String_alloc@U?$_String_base_types@DV?$allocator@D@std@@@std@@@std@@QAE@XZ DD 0ffffffffH
	DD	FLAT:__unwindfunclet$??0?$_String_alloc@U?$_String_base_types@DV?$allocator@D@std@@@std@@@std@@QAE@XZ$0
__ehfuncinfo$??0?$_String_alloc@U?$_String_base_types@DV?$allocator@D@std@@@std@@@std@@QAE@XZ DD 019930522H
	DD	01H
	DD	FLAT:__unwindtable$??0?$_String_alloc@U?$_String_base_types@DV?$allocator@D@std@@@std@@@std@@QAE@XZ
	DD	2 DUP(00H)
	DD	2 DUP(00H)
	DD	00H
	DD	01H
xdata$x	ENDS
;	COMDAT xdata$x
xdata$x	SEGMENT
__unwindtable$??0?$_String_val@U?$_Simple_types@D@std@@@std@@QAE@XZ DD 0ffffffffH
	DD	FLAT:__unwindfunclet$??0?$_String_val@U?$_Simple_types@D@std@@@std@@QAE@XZ$0
__ehfuncinfo$??0?$_String_val@U?$_Simple_types@D@std@@@std@@QAE@XZ DD 019930522H
	DD	01H
	DD	FLAT:__unwindtable$??0?$_String_val@U?$_Simple_types@D@std@@@std@@QAE@XZ
	DD	2 DUP(00H)
	DD	2 DUP(00H)
	DD	00H
	DD	01H
xdata$x	ENDS
;	COMDAT xdata$x
xdata$x	SEGMENT
__unwindtable$?_Adopt@_Iterator_base12@std@@QAEXPBU_Container_base12@2@@Z DD 0ffffffffH
	DD	FLAT:__unwindfunclet$?_Adopt@_Iterator_base12@std@@QAEXPBU_Container_base12@2@@Z$0
	DD	0ffffffffH
	DD	FLAT:__unwindfunclet$?_Adopt@_Iterator_base12@std@@QAEXPBU_Container_base12@2@@Z$1
__ehfuncinfo$?_Adopt@_Iterator_base12@std@@QAEXPBU_Container_base12@2@@Z DD 019930522H
	DD	02H
	DD	FLAT:__unwindtable$?_Adopt@_Iterator_base12@std@@QAEXPBU_Container_base12@2@@Z
	DD	2 DUP(00H)
	DD	2 DUP(00H)
	DD	00H
	DD	01H
xdata$x	ENDS
;	COMDAT xdata$x
xdata$x	SEGMENT
__ehfuncinfo$??1_Iterator_base12@std@@QAE@XZ DD 019930522H
	DD	00H
	DD	00H
	DD	2 DUP(00H)
	DD	2 DUP(00H)
	DD	00H
	DD	05H
xdata$x	ENDS
;	COMDAT xdata$x
xdata$x	SEGMENT
__unwindtable$??4_Iterator_base12@std@@QAEAAU01@ABU01@@Z DD 0ffffffffH
	DD	FLAT:__unwindfunclet$??4_Iterator_base12@std@@QAEAAU01@ABU01@@Z$0
__ehfuncinfo$??4_Iterator_base12@std@@QAEAAU01@ABU01@@Z DD 019930522H
	DD	01H
	DD	FLAT:__unwindtable$??4_Iterator_base12@std@@QAEAAU01@ABU01@@Z
	DD	2 DUP(00H)
	DD	2 DUP(00H)
	DD	00H
	DD	01H
xdata$x	ENDS
;	COMDAT xdata$x
xdata$x	SEGMENT
__ehfuncinfo$??1_Container_base12@std@@QAE@XZ DD 019930522H
	DD	00H
	DD	00H
	DD	2 DUP(00H)
	DD	2 DUP(00H)
	DD	00H
	DD	05H
xdata$x	ENDS
CRT$XCU	SEGMENT
?MaxDouble$initializer$@@3P6AXXZA DD FLAT:??__EMaxDouble@@YAXXZ ; MaxDouble$initializer$
CRT$XCU	ENDS
CRT$XCU	SEGMENT
?MinDouble$initializer$@@3P6AXXZA DD FLAT:??__EMinDouble@@YAXXZ ; MinDouble$initializer$
CRT$XCU	ENDS
CRT$XCU	SEGMENT
?MaxFloat$initializer$@@3P6AXXZA DD FLAT:??__EMaxFloat@@YAXXZ ; MaxFloat$initializer$
CRT$XCU	ENDS
CRT$XCU	SEGMENT
?MinFloat$initializer$@@3P6AXXZA DD FLAT:??__EMinFloat@@YAXXZ ; MinFloat$initializer$
CRT$XCU	ENDS
;	COMDAT CRT$XCU
CRT$XCU	SEGMENT
??id$initializer$@?$num_put@DV?$ostreambuf_iterator@DU?$char_traits@D@std@@@std@@@std@@2P6AXXZA@@3P6AXXZA DD FLAT:??__E?id@?$num_put@DV?$ostreambuf_iterator@DU?$char_traits@D@std@@@std@@@std@@2V0locale@2@A@@YAXXZ ; ??id$initializer$@?$num_put@DV?$ostreambuf_iterator@DU?$char_traits@D@std@@@std@@@std@@2P6AXXZA@@3P6AXXZA
CRT$XCU	ENDS
;	COMDAT CRT$XCU
CRT$XCU	SEGMENT
??id$initializer$@?$num_get@DV?$istreambuf_iterator@DU?$char_traits@D@std@@@std@@@std@@2P6AXXZA@@3P6AXXZA DD FLAT:??__E?id@?$num_get@DV?$istreambuf_iterator@DU?$char_traits@D@std@@@std@@@std@@2V0locale@2@A@@YAXXZ ; ??id$initializer$@?$num_get@DV?$istreambuf_iterator@DU?$char_traits@D@std@@@std@@@std@@2P6AXXZA@@3P6AXXZA
CRT$XCU	ENDS
;	COMDAT CRT$XCU
CRT$XCU	SEGMENT
??id$initializer$@?$codecvt@DDU_Mbstatet@@@std@@2P6AXXZA@@3P6AXXZA DD FLAT:??__E?id@?$codecvt@DDU_Mbstatet@@@std@@2V0locale@2@A@@YAXXZ ; ??id$initializer$@?$codecvt@DDU_Mbstatet@@@std@@2P6AXXZA@@3P6AXXZA
CRT$XCU	ENDS
;	COMDAT CRT$XCU
CRT$XCU	SEGMENT
??id$initializer$@?$numpunct@D@std@@2P6AXXZA@@3P6AXXZA DD FLAT:??__E?id@?$numpunct@D@std@@2V0locale@2@A@@YAXXZ ; ??id$initializer$@?$numpunct@D@std@@2P6AXXZA@@3P6AXXZA
CRT$XCU	ENDS
; Function compile flags: /Odtp /RTCsu
; File c:\program files (x86)\microsoft visual studio 14.0\vc\include\xmemory0
;	COMDAT ??$destroy@PAVRaven_Bot@@@?$allocator@U?$_List_node@PAVRaven_Bot@@PAX@std@@@std@@QAEXPAPAVRaven_Bot@@@Z
_TEXT	SEGMENT
_this$ = -4						; size = 4
__Ptr$ = 8						; size = 4
??$destroy@PAVRaven_Bot@@@?$allocator@U?$_List_node@PAVRaven_Bot@@PAX@std@@@std@@QAEXPAPAVRaven_Bot@@@Z PROC ; std::allocator<std::_List_node<Raven_Bot *,void *> >::destroy<Raven_Bot *>, COMDAT
; _this$ = ecx

; 743  : 		{	// destroy object at _Ptr

	push	ebp
	mov	ebp, esp
	push	ecx
	mov	DWORD PTR [ebp-4], -858993460		; ccccccccH
	mov	DWORD PTR _this$[ebp], ecx

; 744  : 		_Ptr->~_Uty();
; 745  : 		}

	mov	esp, ebp
	pop	ebp
	ret	4
??$destroy@PAVRaven_Bot@@@?$allocator@U?$_List_node@PAVRaven_Bot@@PAX@std@@@std@@QAEXPAPAVRaven_Bot@@@Z ENDP ; std::allocator<std::_List_node<Raven_Bot *,void *> >::destroy<Raven_Bot *>
_TEXT	ENDS
; Function compile flags: /Odtp /RTCsu
; File c:\program files (x86)\microsoft visual studio 14.0\vc\include\xmemory0
;	COMDAT ??$construct@U_Container_proxy@std@@U12@@?$allocator@U_Container_proxy@std@@@std@@QAEXPAU_Container_proxy@1@$$QAU21@@Z
_TEXT	SEGMENT
tv74 = -12						; size = 4
$T1 = -8						; size = 4
_this$ = -4						; size = 4
__Ptr$ = 8						; size = 4
_<_Args_0>$ = 12					; size = 4
??$construct@U_Container_proxy@std@@U12@@?$allocator@U_Container_proxy@std@@@std@@QAEXPAU_Container_proxy@1@$$QAU21@@Z PROC ; std::allocator<std::_Container_proxy>::construct<std::_Container_proxy,std::_Container_proxy>, COMDAT
; _this$ = ecx

; 736  : 		{	// construct _Objty(_Types...) at _Ptr

	push	ebp
	mov	ebp, esp
	sub	esp, 12					; 0000000cH
	mov	DWORD PTR [ebp-12], -858993460		; ccccccccH
	mov	DWORD PTR [ebp-8], -858993460		; ccccccccH
	mov	DWORD PTR [ebp-4], -858993460		; ccccccccH
	mov	DWORD PTR _this$[ebp], ecx

; 737  : 		::new ((void *)_Ptr) _Objty(_STD forward<_Types>(_Args)...);

	mov	eax, DWORD PTR __Ptr$[ebp]
	push	eax
	push	8
	call	??2@YAPAXIPAX@Z				; operator new
	add	esp, 8
	mov	DWORD PTR $T1[ebp], eax
	cmp	DWORD PTR $T1[ebp], 0
	je	SHORT $LN3@construct
	mov	ecx, DWORD PTR _<_Args_0>$[ebp]
	push	ecx
	call	??$forward@U_Container_proxy@std@@@std@@YA$$QAU_Container_proxy@0@AAU10@@Z ; std::forward<std::_Container_proxy>
	add	esp, 4
	mov	edx, DWORD PTR [eax]
	mov	eax, DWORD PTR [eax+4]
	mov	ecx, DWORD PTR $T1[ebp]
	mov	DWORD PTR [ecx], edx
	mov	DWORD PTR [ecx+4], eax
	mov	edx, DWORD PTR $T1[ebp]
	mov	DWORD PTR tv74[ebp], edx
	jmp	SHORT $LN1@construct
$LN3@construct:
	mov	DWORD PTR tv74[ebp], 0
$LN1@construct:

; 738  : 		}

	add	esp, 12					; 0000000cH
	cmp	ebp, esp
	call	__RTC_CheckEsp
	mov	esp, ebp
	pop	ebp
	ret	8
??$construct@U_Container_proxy@std@@U12@@?$allocator@U_Container_proxy@std@@@std@@QAEXPAU_Container_proxy@1@$$QAU21@@Z ENDP ; std::allocator<std::_Container_proxy>::construct<std::_Container_proxy,std::_Container_proxy>
_TEXT	ENDS
; Function compile flags: /Odtp /RTCsu
; File c:\program files (x86)\microsoft visual studio 14.0\vc\include\xmemory0
;	COMDAT ??$destroy@PAU?$_List_node@PAVRaven_Bot@@PAX@std@@@?$allocator@U?$_List_node@PAVRaven_Bot@@PAX@std@@@std@@QAEXPAPAU?$_List_node@PAVRaven_Bot@@PAX@1@@Z
_TEXT	SEGMENT
_this$ = -4						; size = 4
__Ptr$ = 8						; size = 4
??$destroy@PAU?$_List_node@PAVRaven_Bot@@PAX@std@@@?$allocator@U?$_List_node@PAVRaven_Bot@@PAX@std@@@std@@QAEXPAPAU?$_List_node@PAVRaven_Bot@@PAX@1@@Z PROC ; std::allocator<std::_List_node<Raven_Bot *,void *> >::destroy<std::_List_node<Raven_Bot *,void *> *>, COMDAT
; _this$ = ecx

; 743  : 		{	// destroy object at _Ptr

	push	ebp
	mov	ebp, esp
	push	ecx
	mov	DWORD PTR [ebp-4], -858993460		; ccccccccH
	mov	DWORD PTR _this$[ebp], ecx

; 744  : 		_Ptr->~_Uty();
; 745  : 		}

	mov	esp, ebp
	pop	ebp
	ret	4
??$destroy@PAU?$_List_node@PAVRaven_Bot@@PAX@std@@@?$allocator@U?$_List_node@PAVRaven_Bot@@PAX@std@@@std@@QAEXPAPAU?$_List_node@PAVRaven_Bot@@PAX@1@@Z ENDP ; std::allocator<std::_List_node<Raven_Bot *,void *> >::destroy<std::_List_node<Raven_Bot *,void *> *>
_TEXT	ENDS
; Function compile flags: /Odtp /RTCsu
; File c:\program files (x86)\microsoft visual studio 14.0\vc\include\xmemory0
;	COMDAT ??$destroy@U_Container_proxy@std@@@?$allocator@U_Container_proxy@std@@@std@@QAEXPAU_Container_proxy@1@@Z
_TEXT	SEGMENT
_this$ = -4						; size = 4
__Ptr$ = 8						; size = 4
??$destroy@U_Container_proxy@std@@@?$allocator@U_Container_proxy@std@@@std@@QAEXPAU_Container_proxy@1@@Z PROC ; std::allocator<std::_Container_proxy>::destroy<std::_Container_proxy>, COMDAT
; _this$ = ecx

; 743  : 		{	// destroy object at _Ptr

	push	ebp
	mov	ebp, esp
	push	ecx
	mov	DWORD PTR [ebp-4], -858993460		; ccccccccH
	mov	DWORD PTR _this$[ebp], ecx

; 744  : 		_Ptr->~_Uty();
; 745  : 		}

	mov	esp, ebp
	pop	ebp
	ret	4
??$destroy@U_Container_proxy@std@@@?$allocator@U_Container_proxy@std@@@std@@QAEXPAU_Container_proxy@1@@Z ENDP ; std::allocator<std::_Container_proxy>::destroy<std::_Container_proxy>
_TEXT	ENDS
; Function compile flags: /Odtp /RTCsu
; File c:\program files (x86)\microsoft visual studio 14.0\vc\include\xmemory0
;	COMDAT ??$construct@PADAAPAD@?$allocator@D@std@@QAEXPAPADAAPAD@Z
_TEXT	SEGMENT
tv73 = -12						; size = 4
$T1 = -8						; size = 4
_this$ = -4						; size = 4
__Ptr$ = 8						; size = 4
_<_Args_0>$ = 12					; size = 4
??$construct@PADAAPAD@?$allocator@D@std@@QAEXPAPADAAPAD@Z PROC ; std::allocator<char>::construct<char *,char * &>, COMDAT
; _this$ = ecx

; 736  : 		{	// construct _Objty(_Types...) at _Ptr

	push	ebp
	mov	ebp, esp
	sub	esp, 12					; 0000000cH
	mov	DWORD PTR [ebp-12], -858993460		; ccccccccH
	mov	DWORD PTR [ebp-8], -858993460		; ccccccccH
	mov	DWORD PTR [ebp-4], -858993460		; ccccccccH
	mov	DWORD PTR _this$[ebp], ecx

; 737  : 		::new ((void *)_Ptr) _Objty(_STD forward<_Types>(_Args)...);

	mov	eax, DWORD PTR __Ptr$[ebp]
	push	eax
	push	4
	call	??2@YAPAXIPAX@Z				; operator new
	add	esp, 8
	mov	DWORD PTR $T1[ebp], eax
	cmp	DWORD PTR $T1[ebp], 0
	je	SHORT $LN3@construct
	mov	ecx, DWORD PTR _<_Args_0>$[ebp]
	push	ecx
	call	??$forward@AAPAD@std@@YAAAPADAAPAD@Z	; std::forward<char * &>
	add	esp, 4
	mov	edx, DWORD PTR $T1[ebp]
	mov	eax, DWORD PTR [eax]
	mov	DWORD PTR [edx], eax
	mov	ecx, DWORD PTR $T1[ebp]
	mov	DWORD PTR tv73[ebp], ecx
	jmp	SHORT $LN1@construct
$LN3@construct:
	mov	DWORD PTR tv73[ebp], 0
$LN1@construct:

; 738  : 		}

	add	esp, 12					; 0000000cH
	cmp	ebp, esp
	call	__RTC_CheckEsp
	mov	esp, ebp
	pop	ebp
	ret	8
??$construct@PADAAPAD@?$allocator@D@std@@QAEXPAPADAAPAD@Z ENDP ; std::allocator<char>::construct<char *,char * &>
_TEXT	ENDS
; Function compile flags: /Odtp /RTCsu
; File c:\program files (x86)\microsoft visual studio 14.0\vc\include\xmemory0
;	COMDAT ??$destroy@PAD@?$allocator@D@std@@QAEXPAPAD@Z
_TEXT	SEGMENT
_this$ = -4						; size = 4
__Ptr$ = 8						; size = 4
??$destroy@PAD@?$allocator@D@std@@QAEXPAPAD@Z PROC	; std::allocator<char>::destroy<char *>, COMDAT
; _this$ = ecx

; 743  : 		{	// destroy object at _Ptr

	push	ebp
	mov	ebp, esp
	push	ecx
	mov	DWORD PTR [ebp-4], -858993460		; ccccccccH
	mov	DWORD PTR _this$[ebp], ecx

; 744  : 		_Ptr->~_Uty();
; 745  : 		}

	mov	esp, ebp
	pop	ebp
	ret	4
??$destroy@PAD@?$allocator@D@std@@QAEXPAPAD@Z ENDP	; std::allocator<char>::destroy<char *>
_TEXT	ENDS
; Function compile flags: /Odtp /RTCsu
; File c:\program files (x86)\microsoft visual studio 14.0\vc\include\xlocnum
;	COMDAT ??__E?id@?$numpunct@D@std@@2V0locale@2@A@@YAXXZ
text$di	SEGMENT
??__E?id@?$numpunct@D@std@@2V0locale@2@A@@YAXXZ PROC	; `dynamic initializer for 'std::numpunct<char>::id'', COMDAT

; 294  : 	__PURE_APPDOMAIN_GLOBAL locale::id numpunct<_Elem>::id;

	push	ebp
	mov	ebp, esp
	push	0
	mov	ecx, OFFSET ?id@?$numpunct@D@std@@2V0locale@2@A ; std::numpunct<char>::id
	call	??0id@locale@std@@QAE@I@Z		; std::locale::id::id
	cmp	ebp, esp
	call	__RTC_CheckEsp
	pop	ebp
	ret	0
??__E?id@?$numpunct@D@std@@2V0locale@2@A@@YAXXZ ENDP	; `dynamic initializer for 'std::numpunct<char>::id''
text$di	ENDS
; Function compile flags: /Odtp /RTCsu
; File c:\program files (x86)\microsoft visual studio 14.0\vc\include\xlocale
;	COMDAT ??__E?id@?$codecvt@DDU_Mbstatet@@@std@@2V0locale@2@A@@YAXXZ
text$di	SEGMENT
??__E?id@?$codecvt@DDU_Mbstatet@@@std@@2V0locale@2@A@@YAXXZ PROC ; `dynamic initializer for 'std::codecvt<char,char,_Mbstatet>::id'', COMDAT

; 994  : 	__PURE_APPDOMAIN_GLOBAL locale::id codecvt<_Elem, _Byte, _Statype>::id;

	push	ebp
	mov	ebp, esp
	push	0
	mov	ecx, OFFSET ?id@?$codecvt@DDU_Mbstatet@@@std@@2V0locale@2@A ; std::codecvt<char,char,_Mbstatet>::id
	call	??0id@locale@std@@QAE@I@Z		; std::locale::id::id
	cmp	ebp, esp
	call	__RTC_CheckEsp
	pop	ebp
	ret	0
??__E?id@?$codecvt@DDU_Mbstatet@@@std@@2V0locale@2@A@@YAXXZ ENDP ; `dynamic initializer for 'std::codecvt<char,char,_Mbstatet>::id''
text$di	ENDS
; Function compile flags: /Odtp /RTCsu
; File c:\program files (x86)\microsoft visual studio 14.0\vc\include\xlocnum
;	COMDAT ??__E?id@?$num_get@DV?$istreambuf_iterator@DU?$char_traits@D@std@@@std@@@std@@2V0locale@2@A@@YAXXZ
text$di	SEGMENT
??__E?id@?$num_get@DV?$istreambuf_iterator@DU?$char_traits@D@std@@@std@@@std@@2V0locale@2@A@@YAXXZ PROC ; `dynamic initializer for 'std::num_get<char,std::istreambuf_iterator<char,std::char_traits<char> > >::id'', COMDAT

; 1153 : 	__PURE_APPDOMAIN_GLOBAL locale::id num_get<_Elem, _InIt>::id;

	push	ebp
	mov	ebp, esp
	push	0
	mov	ecx, OFFSET ?id@?$num_get@DV?$istreambuf_iterator@DU?$char_traits@D@std@@@std@@@std@@2V0locale@2@A ; std::num_get<char,std::istreambuf_iterator<char,std::char_traits<char> > >::id
	call	??0id@locale@std@@QAE@I@Z		; std::locale::id::id
	cmp	ebp, esp
	call	__RTC_CheckEsp
	pop	ebp
	ret	0
??__E?id@?$num_get@DV?$istreambuf_iterator@DU?$char_traits@D@std@@@std@@@std@@2V0locale@2@A@@YAXXZ ENDP ; `dynamic initializer for 'std::num_get<char,std::istreambuf_iterator<char,std::char_traits<char> > >::id''
text$di	ENDS
; Function compile flags: /Odtp /RTCsu
; File c:\program files (x86)\microsoft visual studio 14.0\vc\include\xlocnum
;	COMDAT ??__E?id@?$num_put@DV?$ostreambuf_iterator@DU?$char_traits@D@std@@@std@@@std@@2V0locale@2@A@@YAXXZ
text$di	SEGMENT
??__E?id@?$num_put@DV?$ostreambuf_iterator@DU?$char_traits@D@std@@@std@@@std@@2V0locale@2@A@@YAXXZ PROC ; `dynamic initializer for 'std::num_put<char,std::ostreambuf_iterator<char,std::char_traits<char> > >::id'', COMDAT

; 1593 : 	__PURE_APPDOMAIN_GLOBAL locale::id num_put<_Elem, _OutIt>::id;

	push	ebp
	mov	ebp, esp
	push	0
	mov	ecx, OFFSET ?id@?$num_put@DV?$ostreambuf_iterator@DU?$char_traits@D@std@@@std@@@std@@2V0locale@2@A ; std::num_put<char,std::ostreambuf_iterator<char,std::char_traits<char> > >::id
	call	??0id@locale@std@@QAE@I@Z		; std::locale::id::id
	cmp	ebp, esp
	call	__RTC_CheckEsp
	pop	ebp
	ret	0
??__E?id@?$num_put@DV?$ostreambuf_iterator@DU?$char_traits@D@std@@@std@@@std@@2V0locale@2@A@@YAXXZ ENDP ; `dynamic initializer for 'std::num_put<char,std::ostreambuf_iterator<char,std::char_traits<char> > >::id''
text$di	ENDS
; Function compile flags: /Odtp /RTCsu
; File c:\program files (x86)\microsoft visual studio 14.0\vc\include\xmemory0
;	COMDAT ??$destroy@PAVRaven_Bot@@@?$allocator_traits@V?$allocator@U?$_List_node@PAVRaven_Bot@@PAX@std@@@std@@@std@@SAXAAV?$allocator@U?$_List_node@PAVRaven_Bot@@PAX@std@@@1@PAPAVRaven_Bot@@@Z
_TEXT	SEGMENT
__Al$ = 8						; size = 4
__Ptr$ = 12						; size = 4
??$destroy@PAVRaven_Bot@@@?$allocator_traits@V?$allocator@U?$_List_node@PAVRaven_Bot@@PAX@std@@@std@@@std@@SAXAAV?$allocator@U?$_List_node@PAVRaven_Bot@@PAX@std@@@1@PAPAVRaven_Bot@@@Z PROC ; std::allocator_traits<std::allocator<std::_List_node<Raven_Bot *,void *> > >::destroy<Raven_Bot *>, COMDAT

; 863  : 		{	// destroy object at _Ptr

	push	ebp
	mov	ebp, esp

; 864  : 		_Al.destroy(_Ptr);

	mov	eax, DWORD PTR __Ptr$[ebp]
	push	eax
	mov	ecx, DWORD PTR __Al$[ebp]
	call	??$destroy@PAVRaven_Bot@@@?$allocator@U?$_List_node@PAVRaven_Bot@@PAX@std@@@std@@QAEXPAPAVRaven_Bot@@@Z ; std::allocator<std::_List_node<Raven_Bot *,void *> >::destroy<Raven_Bot *>

; 865  : 		}

	cmp	ebp, esp
	call	__RTC_CheckEsp
	pop	ebp
	ret	0
??$destroy@PAVRaven_Bot@@@?$allocator_traits@V?$allocator@U?$_List_node@PAVRaven_Bot@@PAX@std@@@std@@@std@@SAXAAV?$allocator@U?$_List_node@PAVRaven_Bot@@PAX@std@@@1@PAPAVRaven_Bot@@@Z ENDP ; std::allocator_traits<std::allocator<std::_List_node<Raven_Bot *,void *> > >::destroy<Raven_Bot *>
_TEXT	ENDS
; Function compile flags: /Odtp /RTCsu
; File c:\program files (x86)\microsoft visual studio 14.0\vc\include\xmemory0
;	COMDAT ??$?0D@?$allocator@U_Container_proxy@std@@@std@@QAE@ABV?$allocator@D@1@@Z
_TEXT	SEGMENT
_this$ = -4						; size = 4
___formal$ = 8						; size = 4
??$?0D@?$allocator@U_Container_proxy@std@@@std@@QAE@ABV?$allocator@D@1@@Z PROC ; std::allocator<std::_Container_proxy>::allocator<std::_Container_proxy><char>, COMDAT
; _this$ = ecx

; 709  : 		{	// construct from a related allocator (do nothing)

	push	ebp
	mov	ebp, esp
	push	ecx
	mov	DWORD PTR [ebp-4], -858993460		; ccccccccH
	mov	DWORD PTR _this$[ebp], ecx

; 710  : 		}

	mov	eax, DWORD PTR _this$[ebp]
	mov	esp, ebp
	pop	ebp
	ret	4
??$?0D@?$allocator@U_Container_proxy@std@@@std@@QAE@ABV?$allocator@D@1@@Z ENDP ; std::allocator<std::_Container_proxy>::allocator<std::_Container_proxy><char>
_TEXT	ENDS
; Function compile flags: /Odtp /RTCsu
; File c:\program files (x86)\microsoft visual studio 14.0\vc\include\type_traits
;	COMDAT ??$forward@AAU?$_Wrap_alloc@V?$allocator@D@std@@@std@@@std@@YAAAU?$_Wrap_alloc@V?$allocator@D@std@@@0@AAU10@@Z
_TEXT	SEGMENT
__Arg$ = 8						; size = 4
??$forward@AAU?$_Wrap_alloc@V?$allocator@D@std@@@std@@@std@@YAAAU?$_Wrap_alloc@V?$allocator@D@std@@@0@AAU10@@Z PROC ; std::forward<std::_Wrap_alloc<std::allocator<char> > &>, COMDAT

; 1275 : 	{	// forward an lvalue as either an lvalue or an rvalue

	push	ebp
	mov	ebp, esp

; 1276 : 	return (static_cast<_Ty&&>(_Arg));

	mov	eax, DWORD PTR __Arg$[ebp]

; 1277 : 	}

	pop	ebp
	ret	0
??$forward@AAU?$_Wrap_alloc@V?$allocator@D@std@@@std@@@std@@YAAAU?$_Wrap_alloc@V?$allocator@D@std@@@0@AAU10@@Z ENDP ; std::forward<std::_Wrap_alloc<std::allocator<char> > &>
_TEXT	ENDS
; Function compile flags: /Odtp /RTCsu
; File c:\program files (x86)\microsoft visual studio 14.0\vc\include\xmemory0
;	COMDAT ??$construct@U_Container_proxy@std@@U12@@?$allocator_traits@V?$allocator@U_Container_proxy@std@@@std@@@std@@SAXAAV?$allocator@U_Container_proxy@std@@@1@PAU_Container_proxy@1@$$QAU31@@Z
_TEXT	SEGMENT
__Al$ = 8						; size = 4
__Ptr$ = 12						; size = 4
_<_Args_0>$ = 16					; size = 4
??$construct@U_Container_proxy@std@@U12@@?$allocator_traits@V?$allocator@U_Container_proxy@std@@@std@@@std@@SAXAAV?$allocator@U_Container_proxy@std@@@1@PAU_Container_proxy@1@$$QAU31@@Z PROC ; std::allocator_traits<std::allocator<std::_Container_proxy> >::construct<std::_Container_proxy,std::_Container_proxy>, COMDAT

; 856  : 		{	// construct _Objty(_Types...) at _Ptr

	push	ebp
	mov	ebp, esp

; 857  : 		_Al.construct(_Ptr, _STD forward<_Types>(_Args)...);

	mov	eax, DWORD PTR _<_Args_0>$[ebp]
	push	eax
	call	??$forward@U_Container_proxy@std@@@std@@YA$$QAU_Container_proxy@0@AAU10@@Z ; std::forward<std::_Container_proxy>
	add	esp, 4
	push	eax
	mov	ecx, DWORD PTR __Ptr$[ebp]
	push	ecx
	mov	ecx, DWORD PTR __Al$[ebp]
	call	??$construct@U_Container_proxy@std@@U12@@?$allocator@U_Container_proxy@std@@@std@@QAEXPAU_Container_proxy@1@$$QAU21@@Z ; std::allocator<std::_Container_proxy>::construct<std::_Container_proxy,std::_Container_proxy>

; 858  : 		}

	cmp	ebp, esp
	call	__RTC_CheckEsp
	pop	ebp
	ret	0
??$construct@U_Container_proxy@std@@U12@@?$allocator_traits@V?$allocator@U_Container_proxy@std@@@std@@@std@@SAXAAV?$allocator@U_Container_proxy@std@@@1@PAU_Container_proxy@1@$$QAU31@@Z ENDP ; std::allocator_traits<std::allocator<std::_Container_proxy> >::construct<std::_Container_proxy,std::_Container_proxy>
_TEXT	ENDS
; Function compile flags: /Odtp /RTCsu
; File c:\program files (x86)\microsoft visual studio 14.0\vc\include\type_traits
;	COMDAT ??$forward@U_Container_proxy@std@@@std@@YA$$QAU_Container_proxy@0@AAU10@@Z
_TEXT	SEGMENT
__Arg$ = 8						; size = 4
??$forward@U_Container_proxy@std@@@std@@YA$$QAU_Container_proxy@0@AAU10@@Z PROC ; std::forward<std::_Container_proxy>, COMDAT

; 1275 : 	{	// forward an lvalue as either an lvalue or an rvalue

	push	ebp
	mov	ebp, esp

; 1276 : 	return (static_cast<_Ty&&>(_Arg));

	mov	eax, DWORD PTR __Arg$[ebp]

; 1277 : 	}

	pop	ebp
	ret	0
??$forward@U_Container_proxy@std@@@std@@YA$$QAU_Container_proxy@0@AAU10@@Z ENDP ; std::forward<std::_Container_proxy>
_TEXT	ENDS
; Function compile flags: /Odtp /RTCsu
; File c:\program files (x86)\microsoft visual studio 14.0\vc\include\xmemory0
;	COMDAT ??$?0U?$_List_node@PAVRaven_Bot@@PAX@std@@@?$allocator@U_Container_proxy@std@@@std@@QAE@ABV?$allocator@U?$_List_node@PAVRaven_Bot@@PAX@std@@@1@@Z
_TEXT	SEGMENT
_this$ = -4						; size = 4
___formal$ = 8						; size = 4
??$?0U?$_List_node@PAVRaven_Bot@@PAX@std@@@?$allocator@U_Container_proxy@std@@@std@@QAE@ABV?$allocator@U?$_List_node@PAVRaven_Bot@@PAX@std@@@1@@Z PROC ; std::allocator<std::_Container_proxy>::allocator<std::_Container_proxy><std::_List_node<Raven_Bot *,void *> >, COMDAT
; _this$ = ecx

; 709  : 		{	// construct from a related allocator (do nothing)

	push	ebp
	mov	ebp, esp
	push	ecx
	mov	DWORD PTR [ebp-4], -858993460		; ccccccccH
	mov	DWORD PTR _this$[ebp], ecx

; 710  : 		}

	mov	eax, DWORD PTR _this$[ebp]
	mov	esp, ebp
	pop	ebp
	ret	4
??$?0U?$_List_node@PAVRaven_Bot@@PAX@std@@@?$allocator@U_Container_proxy@std@@@std@@QAE@ABV?$allocator@U?$_List_node@PAVRaven_Bot@@PAX@std@@@1@@Z ENDP ; std::allocator<std::_Container_proxy>::allocator<std::_Container_proxy><std::_List_node<Raven_Bot *,void *> >
_TEXT	ENDS
; Function compile flags: /Odtp /RTCsu
; File c:\program files (x86)\microsoft visual studio 14.0\vc\include\type_traits
;	COMDAT ??$forward@AAU?$_Wrap_alloc@V?$allocator@U?$_List_node@PAVRaven_Bot@@PAX@std@@@std@@@std@@@std@@YAAAU?$_Wrap_alloc@V?$allocator@U?$_List_node@PAVRaven_Bot@@PAX@std@@@std@@@0@AAU10@@Z
_TEXT	SEGMENT
__Arg$ = 8						; size = 4
??$forward@AAU?$_Wrap_alloc@V?$allocator@U?$_List_node@PAVRaven_Bot@@PAX@std@@@std@@@std@@@std@@YAAAU?$_Wrap_alloc@V?$allocator@U?$_List_node@PAVRaven_Bot@@PAX@std@@@std@@@0@AAU10@@Z PROC ; std::forward<std::_Wrap_alloc<std::allocator<std::_List_node<Raven_Bot *,void *> > > &>, COMDAT

; 1275 : 	{	// forward an lvalue as either an lvalue or an rvalue

	push	ebp
	mov	ebp, esp

; 1276 : 	return (static_cast<_Ty&&>(_Arg));

	mov	eax, DWORD PTR __Arg$[ebp]

; 1277 : 	}

	pop	ebp
	ret	0
??$forward@AAU?$_Wrap_alloc@V?$allocator@U?$_List_node@PAVRaven_Bot@@PAX@std@@@std@@@std@@@std@@YAAAU?$_Wrap_alloc@V?$allocator@U?$_List_node@PAVRaven_Bot@@PAX@std@@@std@@@0@AAU10@@Z ENDP ; std::forward<std::_Wrap_alloc<std::allocator<std::_List_node<Raven_Bot *,void *> > > &>
_TEXT	ENDS
; Function compile flags: /Odtp /RTCsu
; File c:\program files (x86)\microsoft visual studio 14.0\vc\include\xmemory0
;	COMDAT ??$destroy@PAU?$_List_node@PAVRaven_Bot@@PAX@std@@@?$allocator_traits@V?$allocator@U?$_List_node@PAVRaven_Bot@@PAX@std@@@std@@@std@@SAXAAV?$allocator@U?$_List_node@PAVRaven_Bot@@PAX@std@@@1@PAPAU?$_List_node@PAVRaven_Bot@@PAX@1@@Z
_TEXT	SEGMENT
__Al$ = 8						; size = 4
__Ptr$ = 12						; size = 4
??$destroy@PAU?$_List_node@PAVRaven_Bot@@PAX@std@@@?$allocator_traits@V?$allocator@U?$_List_node@PAVRaven_Bot@@PAX@std@@@std@@@std@@SAXAAV?$allocator@U?$_List_node@PAVRaven_Bot@@PAX@std@@@1@PAPAU?$_List_node@PAVRaven_Bot@@PAX@1@@Z PROC ; std::allocator_traits<std::allocator<std::_List_node<Raven_Bot *,void *> > >::destroy<std::_List_node<Raven_Bot *,void *> *>, COMDAT

; 863  : 		{	// destroy object at _Ptr

	push	ebp
	mov	ebp, esp

; 864  : 		_Al.destroy(_Ptr);

	mov	eax, DWORD PTR __Ptr$[ebp]
	push	eax
	mov	ecx, DWORD PTR __Al$[ebp]
	call	??$destroy@PAU?$_List_node@PAVRaven_Bot@@PAX@std@@@?$allocator@U?$_List_node@PAVRaven_Bot@@PAX@std@@@std@@QAEXPAPAU?$_List_node@PAVRaven_Bot@@PAX@1@@Z ; std::allocator<std::_List_node<Raven_Bot *,void *> >::destroy<std::_List_node<Raven_Bot *,void *> *>

; 865  : 		}

	cmp	ebp, esp
	call	__RTC_CheckEsp
	pop	ebp
	ret	0
??$destroy@PAU?$_List_node@PAVRaven_Bot@@PAX@std@@@?$allocator_traits@V?$allocator@U?$_List_node@PAVRaven_Bot@@PAX@std@@@std@@@std@@SAXAAV?$allocator@U?$_List_node@PAVRaven_Bot@@PAX@std@@@1@PAPAU?$_List_node@PAVRaven_Bot@@PAX@1@@Z ENDP ; std::allocator_traits<std::allocator<std::_List_node<Raven_Bot *,void *> > >::destroy<std::_List_node<Raven_Bot *,void *> *>
_TEXT	ENDS
; Function compile flags: /Odtp /RTCsu
; File c:\program files (x86)\microsoft visual studio 14.0\vc\include\xmemory0
;	COMDAT ??$destroy@U_Container_proxy@std@@@?$allocator_traits@V?$allocator@U_Container_proxy@std@@@std@@@std@@SAXAAV?$allocator@U_Container_proxy@std@@@1@PAU_Container_proxy@1@@Z
_TEXT	SEGMENT
__Al$ = 8						; size = 4
__Ptr$ = 12						; size = 4
??$destroy@U_Container_proxy@std@@@?$allocator_traits@V?$allocator@U_Container_proxy@std@@@std@@@std@@SAXAAV?$allocator@U_Container_proxy@std@@@1@PAU_Container_proxy@1@@Z PROC ; std::allocator_traits<std::allocator<std::_Container_proxy> >::destroy<std::_Container_proxy>, COMDAT

; 863  : 		{	// destroy object at _Ptr

	push	ebp
	mov	ebp, esp

; 864  : 		_Al.destroy(_Ptr);

	mov	eax, DWORD PTR __Ptr$[ebp]
	push	eax
	mov	ecx, DWORD PTR __Al$[ebp]
	call	??$destroy@U_Container_proxy@std@@@?$allocator@U_Container_proxy@std@@@std@@QAEXPAU_Container_proxy@1@@Z ; std::allocator<std::_Container_proxy>::destroy<std::_Container_proxy>

; 865  : 		}

	cmp	ebp, esp
	call	__RTC_CheckEsp
	pop	ebp
	ret	0
??$destroy@U_Container_proxy@std@@@?$allocator_traits@V?$allocator@U_Container_proxy@std@@@std@@@std@@SAXAAV?$allocator@U_Container_proxy@std@@@1@PAU_Container_proxy@1@@Z ENDP ; std::allocator_traits<std::allocator<std::_Container_proxy> >::destroy<std::_Container_proxy>
_TEXT	ENDS
; Function compile flags: /Odtp /RTCsu
; File c:\program files (x86)\microsoft visual studio 14.0\vc\include\xmemory0
;	COMDAT ??$construct@PADAAPAD@?$allocator_traits@V?$allocator@D@std@@@std@@SAXAAV?$allocator@D@1@PAPADAAPAD@Z
_TEXT	SEGMENT
__Al$ = 8						; size = 4
__Ptr$ = 12						; size = 4
_<_Args_0>$ = 16					; size = 4
??$construct@PADAAPAD@?$allocator_traits@V?$allocator@D@std@@@std@@SAXAAV?$allocator@D@1@PAPADAAPAD@Z PROC ; std::allocator_traits<std::allocator<char> >::construct<char *,char * &>, COMDAT

; 856  : 		{	// construct _Objty(_Types...) at _Ptr

	push	ebp
	mov	ebp, esp

; 857  : 		_Al.construct(_Ptr, _STD forward<_Types>(_Args)...);

	mov	eax, DWORD PTR _<_Args_0>$[ebp]
	push	eax
	call	??$forward@AAPAD@std@@YAAAPADAAPAD@Z	; std::forward<char * &>
	add	esp, 4
	push	eax
	mov	ecx, DWORD PTR __Ptr$[ebp]
	push	ecx
	mov	ecx, DWORD PTR __Al$[ebp]
	call	??$construct@PADAAPAD@?$allocator@D@std@@QAEXPAPADAAPAD@Z ; std::allocator<char>::construct<char *,char * &>

; 858  : 		}

	cmp	ebp, esp
	call	__RTC_CheckEsp
	pop	ebp
	ret	0
??$construct@PADAAPAD@?$allocator_traits@V?$allocator@D@std@@@std@@SAXAAV?$allocator@D@1@PAPADAAPAD@Z ENDP ; std::allocator_traits<std::allocator<char> >::construct<char *,char * &>
_TEXT	ENDS
; Function compile flags: /Odtp /RTCsu
; File c:\program files (x86)\microsoft visual studio 14.0\vc\include\type_traits
;	COMDAT ??$forward@AAPAD@std@@YAAAPADAAPAD@Z
_TEXT	SEGMENT
__Arg$ = 8						; size = 4
??$forward@AAPAD@std@@YAAAPADAAPAD@Z PROC		; std::forward<char * &>, COMDAT

; 1275 : 	{	// forward an lvalue as either an lvalue or an rvalue

	push	ebp
	mov	ebp, esp

; 1276 : 	return (static_cast<_Ty&&>(_Arg));

	mov	eax, DWORD PTR __Arg$[ebp]

; 1277 : 	}

	pop	ebp
	ret	0
??$forward@AAPAD@std@@YAAAPADAAPAD@Z ENDP		; std::forward<char * &>
_TEXT	ENDS
; Function compile flags: /Odtp /RTCsu
; File c:\program files (x86)\microsoft visual studio 14.0\vc\include\xmemory0
;	COMDAT ??$destroy@PAD@?$allocator_traits@V?$allocator@D@std@@@std@@SAXAAV?$allocator@D@1@PAPAD@Z
_TEXT	SEGMENT
__Al$ = 8						; size = 4
__Ptr$ = 12						; size = 4
??$destroy@PAD@?$allocator_traits@V?$allocator@D@std@@@std@@SAXAAV?$allocator@D@1@PAPAD@Z PROC ; std::allocator_traits<std::allocator<char> >::destroy<char *>, COMDAT

; 863  : 		{	// destroy object at _Ptr

	push	ebp
	mov	ebp, esp

; 864  : 		_Al.destroy(_Ptr);

	mov	eax, DWORD PTR __Ptr$[ebp]
	push	eax
	mov	ecx, DWORD PTR __Al$[ebp]
	call	??$destroy@PAD@?$allocator@D@std@@QAEXPAPAD@Z ; std::allocator<char>::destroy<char *>

; 865  : 		}

	cmp	ebp, esp
	call	__RTC_CheckEsp
	pop	ebp
	ret	0
??$destroy@PAD@?$allocator_traits@V?$allocator@D@std@@@std@@SAXAAV?$allocator@D@1@PAPAD@Z ENDP ; std::allocator_traits<std::allocator<char> >::destroy<char *>
_TEXT	ENDS
; Function compile flags: /Odtp /RTCsu
; File c:\program files (x86)\microsoft visual studio 14.0\vc\include\xutility
;	COMDAT ??$?0U?$_Wrap_alloc@V?$allocator@D@std@@@std@@$$V@?$_Compressed_pair@U?$_Wrap_alloc@V?$allocator@D@std@@@std@@V?$_String_val@U?$_Simple_types@D@std@@@2@$00@std@@QAE@U_One_then_variadic_args_t@1@$$QAU?$_Wrap_alloc@V?$allocator@D@std@@@1@@Z
_TEXT	SEGMENT
_this$ = -4						; size = 4
___formal$ = 8						; size = 1
__Val1$ = 12						; size = 4
??$?0U?$_Wrap_alloc@V?$allocator@D@std@@@std@@$$V@?$_Compressed_pair@U?$_Wrap_alloc@V?$allocator@D@std@@@std@@V?$_String_val@U?$_Simple_types@D@std@@@2@$00@std@@QAE@U_One_then_variadic_args_t@1@$$QAU?$_Wrap_alloc@V?$allocator@D@std@@@1@@Z PROC ; std::_Compressed_pair<std::_Wrap_alloc<std::allocator<char> >,std::_String_val<std::_Simple_types<char> >,1>::_Compressed_pair<std::_Wrap_alloc<std::allocator<char> >,std::_String_val<std::_Simple_types<char> >,1><std::_Wrap_alloc<std::allocator<char> > >, COMDAT
; _this$ = ecx

; 289  : 		{	// construct from forwarded values

	push	ebp
	mov	ebp, esp
	push	ecx
	mov	DWORD PTR [ebp-4], -858993460		; ccccccccH
	mov	DWORD PTR _this$[ebp], ecx

; 287  : 		: _Ty1(_STD forward<_Other1>(_Val1)),

	mov	eax, DWORD PTR __Val1$[ebp]
	push	eax
	call	??$forward@U?$_Wrap_alloc@V?$allocator@D@std@@@std@@@std@@YA$$QAU?$_Wrap_alloc@V?$allocator@D@std@@@0@AAU10@@Z ; std::forward<std::_Wrap_alloc<std::allocator<char> > >
	add	esp, 4
	push	eax
	mov	ecx, DWORD PTR _this$[ebp]
	call	??0?$_Wrap_alloc@V?$allocator@D@std@@@std@@QAE@$$QAU01@@Z ; std::_Wrap_alloc<std::allocator<char> >::_Wrap_alloc<std::allocator<char> >

; 288  : 			_Myval2(_STD forward<_Other2>(_Val2)...)

	mov	ecx, DWORD PTR _this$[ebp]
	call	??0?$_String_val@U?$_Simple_types@D@std@@@std@@QAE@XZ ; std::_String_val<std::_Simple_types<char> >::_String_val<std::_Simple_types<char> >

; 290  : 		}

	mov	eax, DWORD PTR _this$[ebp]
	add	esp, 4
	cmp	ebp, esp
	call	__RTC_CheckEsp
	mov	esp, ebp
	pop	ebp
	ret	8
??$?0U?$_Wrap_alloc@V?$allocator@D@std@@@std@@$$V@?$_Compressed_pair@U?$_Wrap_alloc@V?$allocator@D@std@@@std@@V?$_String_val@U?$_Simple_types@D@std@@@2@$00@std@@QAE@U_One_then_variadic_args_t@1@$$QAU?$_Wrap_alloc@V?$allocator@D@std@@@1@@Z ENDP ; std::_Compressed_pair<std::_Wrap_alloc<std::allocator<char> >,std::_String_val<std::_Simple_types<char> >,1>::_Compressed_pair<std::_Wrap_alloc<std::allocator<char> >,std::_String_val<std::_Simple_types<char> >,1><std::_Wrap_alloc<std::allocator<char> > >
_TEXT	ENDS
; Function compile flags: /Odtp /RTCsu
; File c:\program files (x86)\microsoft visual studio 14.0\vc\include\type_traits
;	COMDAT ??$forward@U?$_Wrap_alloc@V?$allocator@D@std@@@std@@@std@@YA$$QAU?$_Wrap_alloc@V?$allocator@D@std@@@0@AAU10@@Z
_TEXT	SEGMENT
__Arg$ = 8						; size = 4
??$forward@U?$_Wrap_alloc@V?$allocator@D@std@@@std@@@std@@YA$$QAU?$_Wrap_alloc@V?$allocator@D@std@@@0@AAU10@@Z PROC ; std::forward<std::_Wrap_alloc<std::allocator<char> > >, COMDAT

; 1275 : 	{	// forward an lvalue as either an lvalue or an rvalue

	push	ebp
	mov	ebp, esp

; 1276 : 	return (static_cast<_Ty&&>(_Arg));

	mov	eax, DWORD PTR __Arg$[ebp]

; 1277 : 	}

	pop	ebp
	ret	0
??$forward@U?$_Wrap_alloc@V?$allocator@D@std@@@std@@@std@@YA$$QAU?$_Wrap_alloc@V?$allocator@D@std@@@0@AAU10@@Z ENDP ; std::forward<std::_Wrap_alloc<std::allocator<char> > >
_TEXT	ENDS
; Function compile flags: /Odtp /RTCsu
;	COMDAT ??1?$_Vector_const_iterator@V?$_Vector_val@U?$_Simple_types@PAVWall2D@@@std@@@std@@@std@@QAE@XZ
_TEXT	SEGMENT
_this$ = -4						; size = 4
??1?$_Vector_const_iterator@V?$_Vector_val@U?$_Simple_types@PAVWall2D@@@std@@@std@@@std@@QAE@XZ PROC ; std::_Vector_const_iterator<std::_Vector_val<std::_Simple_types<Wall2D *> > >::~_Vector_const_iterator<std::_Vector_val<std::_Simple_types<Wall2D *> > >, COMDAT
; _this$ = ecx
	push	ebp
	mov	ebp, esp
	push	ecx
	mov	DWORD PTR [ebp-4], -858993460		; ccccccccH
	mov	DWORD PTR _this$[ebp], ecx
	mov	ecx, DWORD PTR _this$[ebp]
	call	??1?$_Iterator012@Urandom_access_iterator_tag@std@@PAVWall2D@@HPBQAV3@ABQAV3@U_Iterator_base12@2@@std@@QAE@XZ
	add	esp, 4
	cmp	ebp, esp
	call	__RTC_CheckEsp
	mov	esp, ebp
	pop	ebp
	ret	0
??1?$_Vector_const_iterator@V?$_Vector_val@U?$_Simple_types@PAVWall2D@@@std@@@std@@@std@@QAE@XZ ENDP ; std::_Vector_const_iterator<std::_Vector_val<std::_Simple_types<Wall2D *> > >::~_Vector_const_iterator<std::_Vector_val<std::_Simple_types<Wall2D *> > >
_TEXT	ENDS
; Function compile flags: /Odtp /RTCsu
; File c:\program files (x86)\microsoft visual studio 14.0\vc\include\vector
;	COMDAT ?_Compat@?$_Vector_const_iterator@V?$_Vector_val@U?$_Simple_types@PAVWall2D@@@std@@@std@@@std@@QBEXABV12@@Z
_TEXT	SEGMENT
_this$ = -4						; size = 4
__Right$ = 8						; size = 4
?_Compat@?$_Vector_const_iterator@V?$_Vector_val@U?$_Simple_types@PAVWall2D@@@std@@@std@@@std@@QBEXABV12@@Z PROC ; std::_Vector_const_iterator<std::_Vector_val<std::_Simple_types<Wall2D *> > >::_Compat, COMDAT
; _this$ = ecx

; 245  : 		{	// test for compatible iterator pair

	push	ebp
	mov	ebp, esp
	push	ecx
	push	esi
	mov	DWORD PTR [ebp-4], -858993460		; ccccccccH
	mov	DWORD PTR _this$[ebp], ecx

; 246  : 		if (this->_Getcont() != _Right._Getcont())

	mov	ecx, DWORD PTR _this$[ebp]
	call	?_Getcont@_Iterator_base12@std@@QBEPBU_Container_base12@2@XZ ; std::_Iterator_base12::_Getcont
	mov	esi, eax
	mov	ecx, DWORD PTR __Right$[ebp]
	call	?_Getcont@_Iterator_base12@std@@QBEPBU_Container_base12@2@XZ ; std::_Iterator_base12::_Getcont
	cmp	esi, eax
	je	SHORT $LN1@Compat

; 247  : 			{
; 248  : 			_DEBUG_ERROR("vector iterators incompatible");

	push	248					; 000000f8H
	push	OFFSET ??_C@_1IM@LECEOODI@?$AAC?$AA?3?$AA?2?$AAP?$AAr?$AAo?$AAg?$AAr?$AAa?$AAm?$AA?5?$AAF?$AAi?$AAl?$AAe?$AAs?$AA?5?$AA?$CI?$AAx?$AA8?$AA6?$AA?$CJ?$AA?2?$AAM?$AAi?$AAc?$AAr?$AAo?$AAs?$AAo?$AAf?$AAt@
	push	OFFSET ??_C@_1DM@HINDPMBP@?$AAv?$AAe?$AAc?$AAt?$AAo?$AAr?$AA?5?$AAi?$AAt?$AAe?$AAr?$AAa?$AAt?$AAo?$AAr?$AAs?$AA?5?$AAi?$AAn?$AAc?$AAo?$AAm?$AAp?$AAa?$AAt?$AAi?$AAb?$AAl?$AAe?$AA?$AA@
	call	?_Debug_message@std@@YAXPB_W0I@Z	; std::_Debug_message
	add	esp, 12					; 0000000cH

; 249  : 			_SCL_SECURE_INVALID_ARGUMENT;

	mov	eax, OFFSET ??_C@_0CI@FNPHFCCM@Standard?5C?$CL?$CL?5Libraries?5Invalid?5A@
	test	eax, eax
	je	SHORT $LN4@Compat
	xor	ecx, ecx
	jne	SHORT $LN5@Compat
$LN4@Compat:
	push	OFFSET ??_C@_1FO@GJIHNDLM@?$AA?$CC?$AAS?$AAt?$AAa?$AAn?$AAd?$AAa?$AAr?$AAd?$AA?5?$AAC?$AA?$CL?$AA?$CL?$AA?5?$AAL?$AAi?$AAb?$AAr?$AAa?$AAr?$AAi?$AAe?$AAs?$AA?5?$AAI?$AAn?$AAv?$AAa?$AAl?$AAi?$AAd?$AA?5@
	push	OFFSET ??_C@_17CNPHIMPH@?$AA?$CF?$AAl?$AAs?$AA?$AA@
	push	0
	push	249					; 000000f9H
	push	OFFSET ??_C@_1IM@LECEOODI@?$AAC?$AA?3?$AA?2?$AAP?$AAr?$AAo?$AAg?$AAr?$AAa?$AAm?$AA?5?$AAF?$AAi?$AAl?$AAe?$AAs?$AA?5?$AA?$CI?$AAx?$AA8?$AA6?$AA?$CJ?$AA?2?$AAM?$AAi?$AAc?$AAr?$AAo?$AAs?$AAo?$AAf?$AAt@
	push	2
	call	__CrtDbgReportW
	add	esp, 24					; 00000018H
	cmp	eax, 1
	jne	SHORT $LN5@Compat
	int	3
$LN5@Compat:
	push	0
	push	249					; 000000f9H
	push	OFFSET ??_C@_1IM@LECEOODI@?$AAC?$AA?3?$AA?2?$AAP?$AAr?$AAo?$AAg?$AAr?$AAa?$AAm?$AA?5?$AAF?$AAi?$AAl?$AAe?$AAs?$AA?5?$AA?$CI?$AAx?$AA8?$AA6?$AA?$CJ?$AA?2?$AAM?$AAi?$AAc?$AAr?$AAo?$AAs?$AAo?$AAf?$AAt@
	push	OFFSET ??_C@_1NE@LOHHGNCD@?$AAs?$AAt?$AAd?$AA?3?$AA?3?$AA_?$AAV?$AAe?$AAc?$AAt?$AAo?$AAr?$AA_?$AAc?$AAo?$AAn?$AAs?$AAt?$AA_?$AAi?$AAt?$AAe?$AAr?$AAa?$AAt?$AAo?$AAr?$AA?$DM?$AAc?$AAl?$AAa?$AAs@
	push	OFFSET ??_C@_1CG@JNLFBNGN@?$AA?$CC?$AAi?$AAn?$AAv?$AAa?$AAl?$AAi?$AAd?$AA?5?$AAa?$AAr?$AAg?$AAu?$AAm?$AAe?$AAn?$AAt?$AA?$CC?$AA?$AA@
	call	__invalid_parameter
	add	esp, 20					; 00000014H
$LN1@Compat:

; 250  : 			}
; 251  : 		}

	pop	esi
	add	esp, 4
	cmp	ebp, esp
	call	__RTC_CheckEsp
	mov	esp, ebp
	pop	ebp
	ret	4
?_Compat@?$_Vector_const_iterator@V?$_Vector_val@U?$_Simple_types@PAVWall2D@@@std@@@std@@@std@@QBEXABV12@@Z ENDP ; std::_Vector_const_iterator<std::_Vector_val<std::_Simple_types<Wall2D *> > >::_Compat
_TEXT	ENDS
; Function compile flags: /Odtp /RTCsu
; File c:\program files (x86)\microsoft visual studio 14.0\vc\include\vector
;	COMDAT ??9?$_Vector_const_iterator@V?$_Vector_val@U?$_Simple_types@PAVWall2D@@@std@@@std@@@std@@QBE_NABV01@@Z
_TEXT	SEGMENT
tv69 = -8						; size = 4
_this$ = -4						; size = 4
__Right$ = 8						; size = 4
??9?$_Vector_const_iterator@V?$_Vector_val@U?$_Simple_types@PAVWall2D@@@std@@@std@@@std@@QBE_NABV01@@Z PROC ; std::_Vector_const_iterator<std::_Vector_val<std::_Simple_types<Wall2D *> > >::operator!=, COMDAT
; _this$ = ecx

; 218  : 		{	// test for iterator inequality

	push	ebp
	mov	ebp, esp
	sub	esp, 8
	mov	DWORD PTR [ebp-8], -858993460		; ccccccccH
	mov	DWORD PTR [ebp-4], -858993460		; ccccccccH
	mov	DWORD PTR _this$[ebp], ecx

; 219  : 		return (!(*this == _Right));

	mov	eax, DWORD PTR __Right$[ebp]
	push	eax
	mov	ecx, DWORD PTR _this$[ebp]
	call	??8?$_Vector_const_iterator@V?$_Vector_val@U?$_Simple_types@PAVWall2D@@@std@@@std@@@std@@QBE_NABV01@@Z ; std::_Vector_const_iterator<std::_Vector_val<std::_Simple_types<Wall2D *> > >::operator==
	movzx	ecx, al
	test	ecx, ecx
	jne	SHORT $LN3@operator
	mov	DWORD PTR tv69[ebp], 1
	jmp	SHORT $LN4@operator
$LN3@operator:
	mov	DWORD PTR tv69[ebp], 0
$LN4@operator:
	mov	al, BYTE PTR tv69[ebp]

; 220  : 		}

	add	esp, 8
	cmp	ebp, esp
	call	__RTC_CheckEsp
	mov	esp, ebp
	pop	ebp
	ret	4
??9?$_Vector_const_iterator@V?$_Vector_val@U?$_Simple_types@PAVWall2D@@@std@@@std@@@std@@QBE_NABV01@@Z ENDP ; std::_Vector_const_iterator<std::_Vector_val<std::_Simple_types<Wall2D *> > >::operator!=
_TEXT	ENDS
; Function compile flags: /Odtp /RTCsu
; File c:\program files (x86)\microsoft visual studio 14.0\vc\include\vector
;	COMDAT ??8?$_Vector_const_iterator@V?$_Vector_val@U?$_Simple_types@PAVWall2D@@@std@@@std@@@std@@QBE_NABV01@@Z
_TEXT	SEGMENT
tv69 = -8						; size = 4
_this$ = -4						; size = 4
__Right$ = 8						; size = 4
??8?$_Vector_const_iterator@V?$_Vector_val@U?$_Simple_types@PAVWall2D@@@std@@@std@@@std@@QBE_NABV01@@Z PROC ; std::_Vector_const_iterator<std::_Vector_val<std::_Simple_types<Wall2D *> > >::operator==, COMDAT
; _this$ = ecx

; 212  : 		{	// test for iterator equality

	push	ebp
	mov	ebp, esp
	sub	esp, 8
	mov	DWORD PTR [ebp-8], -858993460		; ccccccccH
	mov	DWORD PTR [ebp-4], -858993460		; ccccccccH
	mov	DWORD PTR _this$[ebp], ecx

; 213  : 		_Compat(_Right);

	mov	eax, DWORD PTR __Right$[ebp]
	push	eax
	mov	ecx, DWORD PTR _this$[ebp]
	call	?_Compat@?$_Vector_const_iterator@V?$_Vector_val@U?$_Simple_types@PAVWall2D@@@std@@@std@@@std@@QBEXABV12@@Z ; std::_Vector_const_iterator<std::_Vector_val<std::_Simple_types<Wall2D *> > >::_Compat

; 214  : 		return (_Ptr == _Right._Ptr);

	mov	ecx, DWORD PTR _this$[ebp]
	mov	edx, DWORD PTR __Right$[ebp]
	mov	eax, DWORD PTR [ecx+8]
	cmp	eax, DWORD PTR [edx+8]
	jne	SHORT $LN3@operator
	mov	DWORD PTR tv69[ebp], 1
	jmp	SHORT $LN4@operator
$LN3@operator:
	mov	DWORD PTR tv69[ebp], 0
$LN4@operator:
	mov	al, BYTE PTR tv69[ebp]

; 215  : 		}

	add	esp, 8
	cmp	ebp, esp
	call	__RTC_CheckEsp
	mov	esp, ebp
	pop	ebp
	ret	4
??8?$_Vector_const_iterator@V?$_Vector_val@U?$_Simple_types@PAVWall2D@@@std@@@std@@@std@@QBE_NABV01@@Z ENDP ; std::_Vector_const_iterator<std::_Vector_val<std::_Simple_types<Wall2D *> > >::operator==
_TEXT	ENDS
; Function compile flags: /Odtp /RTCsu
; File c:\program files (x86)\microsoft visual studio 14.0\vc\include\vector
;	COMDAT ??E?$_Vector_const_iterator@V?$_Vector_val@U?$_Simple_types@PAVWall2D@@@std@@@std@@@std@@QAEAAV01@XZ
_TEXT	SEGMENT
__Mycont$ = -8						; size = 4
_this$ = -4						; size = 4
??E?$_Vector_const_iterator@V?$_Vector_val@U?$_Simple_types@PAVWall2D@@@std@@@std@@@std@@QAEAAV01@XZ PROC ; std::_Vector_const_iterator<std::_Vector_val<std::_Simple_types<Wall2D *> > >::operator++, COMDAT
; _this$ = ecx

; 95   : 		{	// preincrement

	push	ebp
	mov	ebp, esp
	sub	esp, 8
	mov	DWORD PTR [ebp-8], -858993460		; ccccccccH
	mov	DWORD PTR [ebp-4], -858993460		; ccccccccH
	mov	DWORD PTR _this$[ebp], ecx

; 96   :  #if _ITERATOR_DEBUG_LEVEL == 2
; 97   : 		const auto _Mycont = static_cast<const _Myvec *>(this->_Getcont());

	mov	ecx, DWORD PTR _this$[ebp]
	call	?_Getcont@_Iterator_base12@std@@QBEPBU_Container_base12@2@XZ ; std::_Iterator_base12::_Getcont
	mov	DWORD PTR __Mycont$[ebp], eax

; 98   : 		if (_Mycont == 0
; 99   : 			|| _Ptr == nullptr_t{}
; 100  : 			|| _Mycont->_Mylast <= _Ptr)

	cmp	DWORD PTR __Mycont$[ebp], 0
	je	SHORT $LN3@operator
	mov	eax, DWORD PTR _this$[ebp]
	cmp	DWORD PTR [eax+8], 0
	je	SHORT $LN3@operator
	mov	ecx, DWORD PTR __Mycont$[ebp]
	mov	edx, DWORD PTR _this$[ebp]
	mov	eax, DWORD PTR [ecx+8]
	cmp	eax, DWORD PTR [edx+8]
	ja	SHORT $LN2@operator
$LN3@operator:

; 101  : 			{	// report error
; 102  : 			_DEBUG_ERROR("vector iterator not incrementable");

	push	102					; 00000066H
	push	OFFSET ??_C@_1IM@LECEOODI@?$AAC?$AA?3?$AA?2?$AAP?$AAr?$AAo?$AAg?$AAr?$AAa?$AAm?$AA?5?$AAF?$AAi?$AAl?$AAe?$AAs?$AA?5?$AA?$CI?$AAx?$AA8?$AA6?$AA?$CJ?$AA?2?$AAM?$AAi?$AAc?$AAr?$AAo?$AAs?$AAo?$AAf?$AAt@
	push	OFFSET ??_C@_1EE@EJDKCLKB@?$AAv?$AAe?$AAc?$AAt?$AAo?$AAr?$AA?5?$AAi?$AAt?$AAe?$AAr?$AAa?$AAt?$AAo?$AAr?$AA?5?$AAn?$AAo?$AAt?$AA?5?$AAi?$AAn?$AAc?$AAr?$AAe?$AAm?$AAe?$AAn?$AAt?$AAa?$AAb?$AAl@
	call	?_Debug_message@std@@YAXPB_W0I@Z	; std::_Debug_message
	add	esp, 12					; 0000000cH

; 103  : 			_SCL_SECURE_OUT_OF_RANGE;

	mov	ecx, OFFSET ??_C@_0CE@OFMIGAMM@Standard?5C?$CL?$CL?5Libraries?5Out?5of?5Ra@
	test	ecx, ecx
	je	SHORT $LN5@operator
	xor	edx, edx
	jne	SHORT $LN6@operator
$LN5@operator:
	push	OFFSET ??_C@_1FG@IBPIFFN@?$AA?$CC?$AAS?$AAt?$AAa?$AAn?$AAd?$AAa?$AAr?$AAd?$AA?5?$AAC?$AA?$CL?$AA?$CL?$AA?5?$AAL?$AAi?$AAb?$AAr?$AAa?$AAr?$AAi?$AAe?$AAs?$AA?5?$AAO?$AAu?$AAt?$AA?5?$AAo?$AAf?$AA?5?$AAR@
	push	OFFSET ??_C@_17CNPHIMPH@?$AA?$CF?$AAl?$AAs?$AA?$AA@
	push	0
	push	103					; 00000067H
	push	OFFSET ??_C@_1IM@LECEOODI@?$AAC?$AA?3?$AA?2?$AAP?$AAr?$AAo?$AAg?$AAr?$AAa?$AAm?$AA?5?$AAF?$AAi?$AAl?$AAe?$AAs?$AA?5?$AA?$CI?$AAx?$AA8?$AA6?$AA?$CJ?$AA?2?$AAM?$AAi?$AAc?$AAr?$AAo?$AAs?$AAo?$AAf?$AAt@
	push	2
	call	__CrtDbgReportW
	add	esp, 24					; 00000018H
	cmp	eax, 1
	jne	SHORT $LN6@operator
	int	3
$LN6@operator:
	push	0
	push	103					; 00000067H
	push	OFFSET ??_C@_1IM@LECEOODI@?$AAC?$AA?3?$AA?2?$AAP?$AAr?$AAo?$AAg?$AAr?$AAa?$AAm?$AA?5?$AAF?$AAi?$AAl?$AAe?$AAs?$AA?5?$AA?$CI?$AAx?$AA8?$AA6?$AA?$CJ?$AA?2?$AAM?$AAi?$AAc?$AAr?$AAo?$AAs?$AAo?$AAf?$AAt@
	push	OFFSET ??_C@_1NM@PEGKDBJC@?$AAs?$AAt?$AAd?$AA?3?$AA?3?$AA_?$AAV?$AAe?$AAc?$AAt?$AAo?$AAr?$AA_?$AAc?$AAo?$AAn?$AAs?$AAt?$AA_?$AAi?$AAt?$AAe?$AAr?$AAa?$AAt?$AAo?$AAr?$AA?$DM?$AAc?$AAl?$AAa?$AAs@
	push	OFFSET ??_C@_1BO@MEPPHOO@?$AA?$CC?$AAo?$AAu?$AAt?$AA?5?$AAo?$AAf?$AA?5?$AAr?$AAa?$AAn?$AAg?$AAe?$AA?$CC?$AA?$AA@
	call	__invalid_parameter
	add	esp, 20					; 00000014H
$LN2@operator:

; 104  : 			}
; 105  : 
; 106  :  #elif _ITERATOR_DEBUG_LEVEL == 1
; 107  : 		_SCL_SECURE_VALIDATE(_Ptr != _Tptr());
; 108  : 		const auto _Mycont = static_cast<const _Myvec *>(this->_Getcont());
; 109  : 		_SCL_SECURE_VALIDATE(_Mycont != 0);
; 110  : 		_SCL_SECURE_VALIDATE_RANGE(_Ptr < _Mycont->_Mylast);
; 111  :  #endif /* _ITERATOR_DEBUG_LEVEL */
; 112  : 
; 113  : 		++_Ptr;

	mov	ecx, DWORD PTR _this$[ebp]
	mov	edx, DWORD PTR [ecx+8]
	add	edx, 4
	mov	eax, DWORD PTR _this$[ebp]
	mov	DWORD PTR [eax+8], edx

; 114  : 		return (*this);

	mov	eax, DWORD PTR _this$[ebp]

; 115  : 		}

	add	esp, 8
	cmp	ebp, esp
	call	__RTC_CheckEsp
	mov	esp, ebp
	pop	ebp
	ret	0
??E?$_Vector_const_iterator@V?$_Vector_val@U?$_Simple_types@PAVWall2D@@@std@@@std@@@std@@QAEAAV01@XZ ENDP ; std::_Vector_const_iterator<std::_Vector_val<std::_Simple_types<Wall2D *> > >::operator++
_TEXT	ENDS
; Function compile flags: /Odtp /RTCsu
; File c:\program files (x86)\microsoft visual studio 14.0\vc\include\vector
;	COMDAT ??D?$_Vector_const_iterator@V?$_Vector_val@U?$_Simple_types@PAVWall2D@@@std@@@std@@@std@@QBEABQAVWall2D@@XZ
_TEXT	SEGMENT
__Mycont$ = -8						; size = 4
_this$ = -4						; size = 4
??D?$_Vector_const_iterator@V?$_Vector_val@U?$_Simple_types@PAVWall2D@@@std@@@std@@@std@@QBEABQAVWall2D@@XZ PROC ; std::_Vector_const_iterator<std::_Vector_val<std::_Simple_types<Wall2D *> > >::operator*, COMDAT
; _this$ = ecx

; 65   : 		{	// return designated object

	push	ebp
	mov	ebp, esp
	sub	esp, 8
	mov	DWORD PTR [ebp-8], -858993460		; ccccccccH
	mov	DWORD PTR [ebp-4], -858993460		; ccccccccH
	mov	DWORD PTR _this$[ebp], ecx

; 66   :  #if _ITERATOR_DEBUG_LEVEL == 2
; 67   : 		const auto _Mycont = static_cast<const _Myvec *>(this->_Getcont());

	mov	ecx, DWORD PTR _this$[ebp]
	call	?_Getcont@_Iterator_base12@std@@QBEPBU_Container_base12@2@XZ ; std::_Iterator_base12::_Getcont
	mov	DWORD PTR __Mycont$[ebp], eax

; 68   : 		if (_Mycont == 0
; 69   : 			|| _Ptr == _Tptr()
; 70   : 			|| _Ptr < _Mycont->_Myfirst
; 71   : 			|| _Mycont->_Mylast <= _Ptr)

	cmp	DWORD PTR __Mycont$[ebp], 0
	je	SHORT $LN3@operator
	mov	eax, DWORD PTR _this$[ebp]
	cmp	DWORD PTR [eax+8], 0
	je	SHORT $LN3@operator
	mov	ecx, DWORD PTR _this$[ebp]
	mov	edx, DWORD PTR __Mycont$[ebp]
	mov	eax, DWORD PTR [ecx+8]
	cmp	eax, DWORD PTR [edx+4]
	jb	SHORT $LN3@operator
	mov	ecx, DWORD PTR __Mycont$[ebp]
	mov	edx, DWORD PTR _this$[ebp]
	mov	eax, DWORD PTR [ecx+8]
	cmp	eax, DWORD PTR [edx+8]
	ja	SHORT $LN2@operator
$LN3@operator:

; 72   : 			{	// report error
; 73   : 			_DEBUG_ERROR("vector iterator not dereferencable");

	push	73					; 00000049H
	push	OFFSET ??_C@_1IM@LECEOODI@?$AAC?$AA?3?$AA?2?$AAP?$AAr?$AAo?$AAg?$AAr?$AAa?$AAm?$AA?5?$AAF?$AAi?$AAl?$AAe?$AAs?$AA?5?$AA?$CI?$AAx?$AA8?$AA6?$AA?$CJ?$AA?2?$AAM?$AAi?$AAc?$AAr?$AAo?$AAs?$AAo?$AAf?$AAt@
	push	OFFSET ??_C@_1EG@FOHJJHAC@?$AAv?$AAe?$AAc?$AAt?$AAo?$AAr?$AA?5?$AAi?$AAt?$AAe?$AAr?$AAa?$AAt?$AAo?$AAr?$AA?5?$AAn?$AAo?$AAt?$AA?5?$AAd?$AAe?$AAr?$AAe?$AAf?$AAe?$AAr?$AAe?$AAn?$AAc?$AAa?$AAb@
	call	?_Debug_message@std@@YAXPB_W0I@Z	; std::_Debug_message
	add	esp, 12					; 0000000cH

; 74   : 			_SCL_SECURE_OUT_OF_RANGE;

	mov	ecx, OFFSET ??_C@_0CE@OFMIGAMM@Standard?5C?$CL?$CL?5Libraries?5Out?5of?5Ra@
	test	ecx, ecx
	je	SHORT $LN5@operator
	xor	edx, edx
	jne	SHORT $LN6@operator
$LN5@operator:
	push	OFFSET ??_C@_1FG@IBPIFFN@?$AA?$CC?$AAS?$AAt?$AAa?$AAn?$AAd?$AAa?$AAr?$AAd?$AA?5?$AAC?$AA?$CL?$AA?$CL?$AA?5?$AAL?$AAi?$AAb?$AAr?$AAa?$AAr?$AAi?$AAe?$AAs?$AA?5?$AAO?$AAu?$AAt?$AA?5?$AAo?$AAf?$AA?5?$AAR@
	push	OFFSET ??_C@_17CNPHIMPH@?$AA?$CF?$AAl?$AAs?$AA?$AA@
	push	0
	push	74					; 0000004aH
	push	OFFSET ??_C@_1IM@LECEOODI@?$AAC?$AA?3?$AA?2?$AAP?$AAr?$AAo?$AAg?$AAr?$AAa?$AAm?$AA?5?$AAF?$AAi?$AAl?$AAe?$AAs?$AA?5?$AA?$CI?$AAx?$AA8?$AA6?$AA?$CJ?$AA?2?$AAM?$AAi?$AAc?$AAr?$AAo?$AAs?$AAo?$AAf?$AAt@
	push	2
	call	__CrtDbgReportW
	add	esp, 24					; 00000018H
	cmp	eax, 1
	jne	SHORT $LN6@operator
	int	3
$LN6@operator:
	push	0
	push	74					; 0000004aH
	push	OFFSET ??_C@_1IM@LECEOODI@?$AAC?$AA?3?$AA?2?$AAP?$AAr?$AAo?$AAg?$AAr?$AAa?$AAm?$AA?5?$AAF?$AAi?$AAl?$AAe?$AAs?$AA?5?$AA?$CI?$AAx?$AA8?$AA6?$AA?$CJ?$AA?2?$AAM?$AAi?$AAc?$AAr?$AAo?$AAs?$AAo?$AAf?$AAt@
	push	OFFSET ??_C@_1NK@EBBPJMHO@?$AAs?$AAt?$AAd?$AA?3?$AA?3?$AA_?$AAV?$AAe?$AAc?$AAt?$AAo?$AAr?$AA_?$AAc?$AAo?$AAn?$AAs?$AAt?$AA_?$AAi?$AAt?$AAe?$AAr?$AAa?$AAt?$AAo?$AAr?$AA?$DM?$AAc?$AAl?$AAa?$AAs@
	push	OFFSET ??_C@_1BO@MEPPHOO@?$AA?$CC?$AAo?$AAu?$AAt?$AA?5?$AAo?$AAf?$AA?5?$AAr?$AAa?$AAn?$AAg?$AAe?$AA?$CC?$AA?$AA@
	call	__invalid_parameter
	add	esp, 20					; 00000014H
$LN2@operator:

; 75   : 			}
; 76   : 
; 77   :  #elif _ITERATOR_DEBUG_LEVEL == 1
; 78   : 		_SCL_SECURE_VALIDATE(_Ptr != _Tptr());
; 79   : 		const auto _Mycont = static_cast<const _Myvec *>(this->_Getcont());
; 80   : 		_SCL_SECURE_VALIDATE(_Mycont != 0);
; 81   : 		_SCL_SECURE_VALIDATE_RANGE(_Mycont->_Myfirst <= _Ptr && _Ptr < _Mycont->_Mylast);
; 82   :  #endif /* _ITERATOR_DEBUG_LEVEL */
; 83   : 
; 84   : 		_Analysis_assume_(_Ptr != _Tptr());
; 85   : 
; 86   : 		return (*_Ptr);

	mov	ecx, DWORD PTR _this$[ebp]
	mov	eax, DWORD PTR [ecx+8]

; 87   : 		}

	add	esp, 8
	cmp	ebp, esp
	call	__RTC_CheckEsp
	mov	esp, ebp
	pop	ebp
	ret	0
??D?$_Vector_const_iterator@V?$_Vector_val@U?$_Simple_types@PAVWall2D@@@std@@@std@@@std@@QBEABQAVWall2D@@XZ ENDP ; std::_Vector_const_iterator<std::_Vector_val<std::_Simple_types<Wall2D *> > >::operator*
_TEXT	ENDS
; Function compile flags: /Odtp /RTCsu
; File c:\program files (x86)\microsoft visual studio 14.0\vc\include\vector
;	COMDAT ??0?$_Vector_const_iterator@V?$_Vector_val@U?$_Simple_types@PAVWall2D@@@std@@@std@@@std@@QAE@PAPAVWall2D@@PBU_Container_base12@1@@Z
_TEXT	SEGMENT
_this$ = -16						; size = 4
__$EHRec$ = -12						; size = 12
__Parg$ = 8						; size = 4
__Pvector$ = 12						; size = 4
??0?$_Vector_const_iterator@V?$_Vector_val@U?$_Simple_types@PAVWall2D@@@std@@@std@@@std@@QAE@PAPAVWall2D@@PBU_Container_base12@1@@Z PROC ; std::_Vector_const_iterator<std::_Vector_val<std::_Simple_types<Wall2D *> > >::_Vector_const_iterator<std::_Vector_val<std::_Simple_types<Wall2D *> > >, COMDAT
; _this$ = ecx

; 47   : 		{	// construct with pointer _Parg

	push	ebp
	mov	ebp, esp
	push	-1
	push	__ehhandler$??0?$_Vector_const_iterator@V?$_Vector_val@U?$_Simple_types@PAVWall2D@@@std@@@std@@@std@@QAE@PAPAVWall2D@@PBU_Container_base12@1@@Z
	mov	eax, DWORD PTR fs:0
	push	eax
	push	ecx
	mov	DWORD PTR [ebp-16], -858993460		; ccccccccH
	mov	eax, DWORD PTR ___security_cookie
	xor	eax, ebp
	push	eax
	lea	eax, DWORD PTR __$EHRec$[ebp]
	mov	DWORD PTR fs:0, eax
	mov	DWORD PTR _this$[ebp], ecx
	mov	ecx, DWORD PTR _this$[ebp]
	call	??0?$_Iterator012@Urandom_access_iterator_tag@std@@PAVWall2D@@HPBQAV3@ABQAV3@U_Iterator_base12@2@@std@@QAE@XZ
	mov	DWORD PTR __$EHRec$[ebp+8], 0

; 46   : 		: _Ptr(_Parg)

	mov	eax, DWORD PTR _this$[ebp]
	mov	ecx, DWORD PTR __Parg$[ebp]
	mov	DWORD PTR [eax+8], ecx

; 48   : 		this->_Adopt(_Pvector);

	mov	edx, DWORD PTR __Pvector$[ebp]
	push	edx
	mov	ecx, DWORD PTR _this$[ebp]
	call	?_Adopt@_Iterator_base12@std@@QAEXPBU_Container_base12@2@@Z ; std::_Iterator_base12::_Adopt

; 49   : 		}

	mov	DWORD PTR __$EHRec$[ebp+8], -1
	mov	eax, DWORD PTR _this$[ebp]
	mov	ecx, DWORD PTR __$EHRec$[ebp]
	mov	DWORD PTR fs:0, ecx
	pop	ecx
	add	esp, 16					; 00000010H
	cmp	ebp, esp
	call	__RTC_CheckEsp
	mov	esp, ebp
	pop	ebp
	ret	8
_TEXT	ENDS
;	COMDAT text$x
text$x	SEGMENT
__unwindfunclet$??0?$_Vector_const_iterator@V?$_Vector_val@U?$_Simple_types@PAVWall2D@@@std@@@std@@@std@@QAE@PAPAVWall2D@@PBU_Container_base12@1@@Z$0:
	mov	ecx, DWORD PTR _this$[ebp]
	jmp	??1?$_Iterator012@Urandom_access_iterator_tag@std@@PAVWall2D@@HPBQAV3@ABQAV3@U_Iterator_base12@2@@std@@QAE@XZ
__ehhandler$??0?$_Vector_const_iterator@V?$_Vector_val@U?$_Simple_types@PAVWall2D@@@std@@@std@@@std@@QAE@PAPAVWall2D@@PBU_Container_base12@1@@Z:
	mov	edx, DWORD PTR [esp+8]
	lea	eax, DWORD PTR [edx+12]
	mov	ecx, DWORD PTR [edx-8]
	xor	ecx, eax
	call	@__security_check_cookie@4
	mov	eax, OFFSET __ehfuncinfo$??0?$_Vector_const_iterator@V?$_Vector_val@U?$_Simple_types@PAVWall2D@@@std@@@std@@@std@@QAE@PAPAVWall2D@@PBU_Container_base12@1@@Z
	jmp	___CxxFrameHandler3
text$x	ENDS
??0?$_Vector_const_iterator@V?$_Vector_val@U?$_Simple_types@PAVWall2D@@@std@@@std@@@std@@QAE@PAPAVWall2D@@PBU_Container_base12@1@@Z ENDP ; std::_Vector_const_iterator<std::_Vector_val<std::_Simple_types<Wall2D *> > >::_Vector_const_iterator<std::_Vector_val<std::_Simple_types<Wall2D *> > >
; Function compile flags: /Odtp /RTCsu
;	COMDAT ??1?$_Iterator012@Urandom_access_iterator_tag@std@@PAVWall2D@@HPBQAV3@ABQAV3@U_Iterator_base12@2@@std@@QAE@XZ
_TEXT	SEGMENT
_this$ = -4						; size = 4
??1?$_Iterator012@Urandom_access_iterator_tag@std@@PAVWall2D@@HPBQAV3@ABQAV3@U_Iterator_base12@2@@std@@QAE@XZ PROC ; std::_Iterator012<std::random_access_iterator_tag,Wall2D *,int,Wall2D * const *,Wall2D * const &,std::_Iterator_base12>::~_Iterator012<std::random_access_iterator_tag,Wall2D *,int,Wall2D * const *,Wall2D * const &,std::_Iterator_base12>, COMDAT
; _this$ = ecx
	push	ebp
	mov	ebp, esp
	push	ecx
	mov	DWORD PTR [ebp-4], -858993460		; ccccccccH
	mov	DWORD PTR _this$[ebp], ecx
	mov	ecx, DWORD PTR _this$[ebp]
	call	??1_Iterator_base12@std@@QAE@XZ		; std::_Iterator_base12::~_Iterator_base12
	add	esp, 4
	cmp	ebp, esp
	call	__RTC_CheckEsp
	mov	esp, ebp
	pop	ebp
	ret	0
??1?$_Iterator012@Urandom_access_iterator_tag@std@@PAVWall2D@@HPBQAV3@ABQAV3@U_Iterator_base12@2@@std@@QAE@XZ ENDP ; std::_Iterator012<std::random_access_iterator_tag,Wall2D *,int,Wall2D * const *,Wall2D * const &,std::_Iterator_base12>::~_Iterator012<std::random_access_iterator_tag,Wall2D *,int,Wall2D * const *,Wall2D * const &,std::_Iterator_base12>
_TEXT	ENDS
; Function compile flags: /Odtp /RTCsu
;	COMDAT ??0?$_Iterator012@Urandom_access_iterator_tag@std@@PAVWall2D@@HPBQAV3@ABQAV3@U_Iterator_base12@2@@std@@QAE@XZ
_TEXT	SEGMENT
_this$ = -4						; size = 4
??0?$_Iterator012@Urandom_access_iterator_tag@std@@PAVWall2D@@HPBQAV3@ABQAV3@U_Iterator_base12@2@@std@@QAE@XZ PROC ; std::_Iterator012<std::random_access_iterator_tag,Wall2D *,int,Wall2D * const *,Wall2D * const &,std::_Iterator_base12>::_Iterator012<std::random_access_iterator_tag,Wall2D *,int,Wall2D * const *,Wall2D * const &,std::_Iterator_base12>, COMDAT
; _this$ = ecx
	push	ebp
	mov	ebp, esp
	push	ecx
	mov	DWORD PTR [ebp-4], -858993460		; ccccccccH
	mov	DWORD PTR _this$[ebp], ecx
	mov	ecx, DWORD PTR _this$[ebp]
	call	??0_Iterator_base12@std@@QAE@XZ		; std::_Iterator_base12::_Iterator_base12
	mov	eax, DWORD PTR _this$[ebp]
	add	esp, 4
	cmp	ebp, esp
	call	__RTC_CheckEsp
	mov	esp, ebp
	pop	ebp
	ret	0
??0?$_Iterator012@Urandom_access_iterator_tag@std@@PAVWall2D@@HPBQAV3@ABQAV3@U_Iterator_base12@2@@std@@QAE@XZ ENDP ; std::_Iterator012<std::random_access_iterator_tag,Wall2D *,int,Wall2D * const *,Wall2D * const &,std::_Iterator_base12>::_Iterator012<std::random_access_iterator_tag,Wall2D *,int,Wall2D * const *,Wall2D * const &,std::_Iterator_base12>
_TEXT	ENDS
; Function compile flags: /Odtp /RTCsu
; File c:\program files (x86)\microsoft visual studio 14.0\vc\include\xstddef
;	COMDAT ??$addressof@U_Container_proxy@std@@@std@@YAPAU_Container_proxy@0@AAU10@@Z
_TEXT	SEGMENT
__Val$ = 8						; size = 4
??$addressof@U_Container_proxy@std@@@std@@YAPAU_Container_proxy@0@AAU10@@Z PROC ; std::addressof<std::_Container_proxy>, COMDAT

; 724  : 	{	// return address of _Val

	push	ebp
	mov	ebp, esp

; 725  : 	return (__builtin_addressof(_Val));

	mov	eax, DWORD PTR __Val$[ebp]

; 726  : 	}

	pop	ebp
	ret	0
??$addressof@U_Container_proxy@std@@@std@@YAPAU_Container_proxy@0@AAU10@@Z ENDP ; std::addressof<std::_Container_proxy>
_TEXT	ENDS
; Function compile flags: /Odtp /RTCsu
; File c:\program files (x86)\microsoft visual studio 14.0\vc\include\xmemory0
;	COMDAT ??$destroy@PAVRaven_Bot@@@?$_Wrap_alloc@V?$allocator@U?$_List_node@PAVRaven_Bot@@PAX@std@@@std@@@std@@QAEXPAPAVRaven_Bot@@@Z
_TEXT	SEGMENT
_this$ = -4						; size = 4
__Ptr$ = 8						; size = 4
??$destroy@PAVRaven_Bot@@@?$_Wrap_alloc@V?$allocator@U?$_List_node@PAVRaven_Bot@@PAX@std@@@std@@@std@@QAEXPAPAVRaven_Bot@@@Z PROC ; std::_Wrap_alloc<std::allocator<std::_List_node<Raven_Bot *,void *> > >::destroy<Raven_Bot *>, COMDAT
; _this$ = ecx

; 1002 : 		{	// destroy object at _Ptr

	push	ebp
	mov	ebp, esp
	push	ecx
	mov	DWORD PTR [ebp-4], -858993460		; ccccccccH
	mov	DWORD PTR _this$[ebp], ecx

; 1003 : 		_Mytraits::destroy(*this, _Ptr);

	mov	eax, DWORD PTR __Ptr$[ebp]
	push	eax
	mov	ecx, DWORD PTR _this$[ebp]
	push	ecx
	call	??$destroy@PAVRaven_Bot@@@?$allocator_traits@V?$allocator@U?$_List_node@PAVRaven_Bot@@PAX@std@@@std@@@std@@SAXAAV?$allocator@U?$_List_node@PAVRaven_Bot@@PAX@std@@@1@PAPAVRaven_Bot@@@Z ; std::allocator_traits<std::allocator<std::_List_node<Raven_Bot *,void *> > >::destroy<Raven_Bot *>
	add	esp, 8

; 1004 : 		}

	add	esp, 4
	cmp	ebp, esp
	call	__RTC_CheckEsp
	mov	esp, ebp
	pop	ebp
	ret	4
??$destroy@PAVRaven_Bot@@@?$_Wrap_alloc@V?$allocator@U?$_List_node@PAVRaven_Bot@@PAX@std@@@std@@@std@@QAEXPAPAVRaven_Bot@@@Z ENDP ; std::_Wrap_alloc<std::allocator<std::_List_node<Raven_Bot *,void *> > >::destroy<Raven_Bot *>
_TEXT	ENDS
; Function compile flags: /Odtp /RTCsu
; File c:\program files (x86)\microsoft visual studio 14.0\vc\include\xstddef
;	COMDAT ??$addressof@PAVRaven_Bot@@@std@@YAPAPAVRaven_Bot@@AAPAV1@@Z
_TEXT	SEGMENT
__Val$ = 8						; size = 4
??$addressof@PAVRaven_Bot@@@std@@YAPAPAVRaven_Bot@@AAPAV1@@Z PROC ; std::addressof<Raven_Bot *>, COMDAT

; 724  : 	{	// return address of _Val

	push	ebp
	mov	ebp, esp

; 725  : 	return (__builtin_addressof(_Val));

	mov	eax, DWORD PTR __Val$[ebp]

; 726  : 	}

	pop	ebp
	ret	0
??$addressof@PAVRaven_Bot@@@std@@YAPAPAVRaven_Bot@@AAPAV1@@Z ENDP ; std::addressof<Raven_Bot *>
_TEXT	ENDS
; Function compile flags: /Odtp /RTCsu
; File c:\program files (x86)\microsoft visual studio 14.0\vc\include\xmemory0
;	COMDAT ?pointer_to@?$pointer_traits@PAU_Container_proxy@std@@@std@@SAPAU_Container_proxy@2@AAU32@@Z
_TEXT	SEGMENT
__Val$ = 8						; size = 4
?pointer_to@?$pointer_traits@PAU_Container_proxy@std@@@std@@SAPAU_Container_proxy@2@AAU32@@Z PROC ; std::pointer_traits<std::_Container_proxy *>::pointer_to, COMDAT

; 279  : 		{	// convert raw reference to pointer

	push	ebp
	mov	ebp, esp

; 280  : 		return (_STD addressof(_Val));

	mov	eax, DWORD PTR __Val$[ebp]
	push	eax
	call	??$addressof@U_Container_proxy@std@@@std@@YAPAU_Container_proxy@0@AAU10@@Z ; std::addressof<std::_Container_proxy>
	add	esp, 4

; 281  : 		}

	cmp	ebp, esp
	call	__RTC_CheckEsp
	pop	ebp
	ret	0
?pointer_to@?$pointer_traits@PAU_Container_proxy@std@@@std@@SAPAU_Container_proxy@2@AAU32@@Z ENDP ; std::pointer_traits<std::_Container_proxy *>::pointer_to
_TEXT	ENDS
; Function compile flags: /Odtp /RTCsu
; File c:\program files (x86)\microsoft visual studio 14.0\vc\include\xmemory0
;	COMDAT ??$?0AAU?$_Wrap_alloc@V?$allocator@D@std@@@std@@@?$_Wrap_alloc@V?$allocator@U_Container_proxy@std@@@std@@@std@@QAE@AAU?$_Wrap_alloc@V?$allocator@D@std@@@1@@Z
_TEXT	SEGMENT
_this$ = -4						; size = 4
__Right$ = 8						; size = 4
??$?0AAU?$_Wrap_alloc@V?$allocator@D@std@@@std@@@?$_Wrap_alloc@V?$allocator@U_Container_proxy@std@@@std@@@std@@QAE@AAU?$_Wrap_alloc@V?$allocator@D@std@@@1@@Z PROC ; std::_Wrap_alloc<std::allocator<std::_Container_proxy> >::_Wrap_alloc<std::allocator<std::_Container_proxy> ><std::_Wrap_alloc<std::allocator<char> > &>, COMDAT
; _this$ = ecx

; 952  : 		{	// construct from a related allocator

	push	ebp
	mov	ebp, esp
	push	ecx
	mov	DWORD PTR [ebp-4], -858993460		; ccccccccH
	mov	DWORD PTR _this$[ebp], ecx

; 951  : 		: _Mybase(_STD forward<_Other>(_Right))

	mov	eax, DWORD PTR __Right$[ebp]
	push	eax
	call	??$forward@AAU?$_Wrap_alloc@V?$allocator@D@std@@@std@@@std@@YAAAU?$_Wrap_alloc@V?$allocator@D@std@@@0@AAU10@@Z ; std::forward<std::_Wrap_alloc<std::allocator<char> > &>
	add	esp, 4
	push	eax
	mov	ecx, DWORD PTR _this$[ebp]
	call	??$?0D@?$allocator@U_Container_proxy@std@@@std@@QAE@ABV?$allocator@D@1@@Z ; std::allocator<std::_Container_proxy>::allocator<std::_Container_proxy><char>

; 953  : 		}

	mov	eax, DWORD PTR _this$[ebp]
	add	esp, 4
	cmp	ebp, esp
	call	__RTC_CheckEsp
	mov	esp, ebp
	pop	ebp
	ret	4
??$?0AAU?$_Wrap_alloc@V?$allocator@D@std@@@std@@@?$_Wrap_alloc@V?$allocator@U_Container_proxy@std@@@std@@@std@@QAE@AAU?$_Wrap_alloc@V?$allocator@D@std@@@1@@Z ENDP ; std::_Wrap_alloc<std::allocator<std::_Container_proxy> >::_Wrap_alloc<std::allocator<std::_Container_proxy> ><std::_Wrap_alloc<std::allocator<char> > &>
_TEXT	ENDS
; Function compile flags: /Odtp /RTCsu
; File c:\program files (x86)\microsoft visual studio 14.0\vc\include\xmemory0
;	COMDAT ??$construct@U_Container_proxy@std@@U12@@?$_Wrap_alloc@V?$allocator@U_Container_proxy@std@@@std@@@std@@QAEXPAU_Container_proxy@1@$$QAU21@@Z
_TEXT	SEGMENT
_this$ = -4						; size = 4
__Ptr$ = 8						; size = 4
_<_Args_0>$ = 12					; size = 4
??$construct@U_Container_proxy@std@@U12@@?$_Wrap_alloc@V?$allocator@U_Container_proxy@std@@@std@@@std@@QAEXPAU_Container_proxy@1@$$QAU21@@Z PROC ; std::_Wrap_alloc<std::allocator<std::_Container_proxy> >::construct<std::_Container_proxy,std::_Container_proxy>, COMDAT
; _this$ = ecx

; 994  : 		{	// construct _Ty(_Types...) at _Ptr

	push	ebp
	mov	ebp, esp
	push	ecx
	mov	DWORD PTR [ebp-4], -858993460		; ccccccccH
	mov	DWORD PTR _this$[ebp], ecx

; 995  : 		_Mytraits::construct(*this, _Ptr,

	mov	eax, DWORD PTR _<_Args_0>$[ebp]
	push	eax
	call	??$forward@U_Container_proxy@std@@@std@@YA$$QAU_Container_proxy@0@AAU10@@Z ; std::forward<std::_Container_proxy>
	add	esp, 4
	push	eax
	mov	ecx, DWORD PTR __Ptr$[ebp]
	push	ecx
	mov	edx, DWORD PTR _this$[ebp]
	push	edx
	call	??$construct@U_Container_proxy@std@@U12@@?$allocator_traits@V?$allocator@U_Container_proxy@std@@@std@@@std@@SAXAAV?$allocator@U_Container_proxy@std@@@1@PAU_Container_proxy@1@$$QAU31@@Z ; std::allocator_traits<std::allocator<std::_Container_proxy> >::construct<std::_Container_proxy,std::_Container_proxy>
	add	esp, 12					; 0000000cH

; 996  : 			_STD forward<_Types>(_Args)...);
; 997  : 		}

	add	esp, 4
	cmp	ebp, esp
	call	__RTC_CheckEsp
	mov	esp, ebp
	pop	ebp
	ret	8
??$construct@U_Container_proxy@std@@U12@@?$_Wrap_alloc@V?$allocator@U_Container_proxy@std@@@std@@@std@@QAEXPAU_Container_proxy@1@$$QAU21@@Z ENDP ; std::_Wrap_alloc<std::allocator<std::_Container_proxy> >::construct<std::_Container_proxy,std::_Container_proxy>
_TEXT	ENDS
; Function compile flags: /Odtp /RTCsu
; File c:\program files (x86)\microsoft visual studio 14.0\vc\include\xstddef
;	COMDAT ??$_Unfancy@U_Container_proxy@std@@@std@@YAPAU_Container_proxy@0@PAU10@@Z
_TEXT	SEGMENT
__Ptr$ = 8						; size = 4
??$_Unfancy@U_Container_proxy@std@@@std@@YAPAU_Container_proxy@0@PAU10@@Z PROC ; std::_Unfancy<std::_Container_proxy>, COMDAT

; 739  : 	{	// do nothing for plain pointers

	push	ebp
	mov	ebp, esp

; 740  : 	return (_Ptr);

	mov	eax, DWORD PTR __Ptr$[ebp]

; 741  : 	}

	pop	ebp
	ret	0
??$_Unfancy@U_Container_proxy@std@@@std@@YAPAU_Container_proxy@0@PAU10@@Z ENDP ; std::_Unfancy<std::_Container_proxy>
_TEXT	ENDS
; Function compile flags: /Odtp /RTCsu
; File c:\program files (x86)\microsoft visual studio 14.0\vc\include\xmemory0
;	COMDAT ??$?0AAU?$_Wrap_alloc@V?$allocator@U?$_List_node@PAVRaven_Bot@@PAX@std@@@std@@@std@@@?$_Wrap_alloc@V?$allocator@U_Container_proxy@std@@@std@@@std@@QAE@AAU?$_Wrap_alloc@V?$allocator@U?$_List_node@PAVRaven_Bot@@PAX@std@@@std@@@1@@Z
_TEXT	SEGMENT
_this$ = -4						; size = 4
__Right$ = 8						; size = 4
??$?0AAU?$_Wrap_alloc@V?$allocator@U?$_List_node@PAVRaven_Bot@@PAX@std@@@std@@@std@@@?$_Wrap_alloc@V?$allocator@U_Container_proxy@std@@@std@@@std@@QAE@AAU?$_Wrap_alloc@V?$allocator@U?$_List_node@PAVRaven_Bot@@PAX@std@@@std@@@1@@Z PROC ; std::_Wrap_alloc<std::allocator<std::_Container_proxy> >::_Wrap_alloc<std::allocator<std::_Container_proxy> ><std::_Wrap_alloc<std::allocator<std::_List_node<Raven_Bot *,void *> > > &>, COMDAT
; _this$ = ecx

; 952  : 		{	// construct from a related allocator

	push	ebp
	mov	ebp, esp
	push	ecx
	mov	DWORD PTR [ebp-4], -858993460		; ccccccccH
	mov	DWORD PTR _this$[ebp], ecx

; 951  : 		: _Mybase(_STD forward<_Other>(_Right))

	mov	eax, DWORD PTR __Right$[ebp]
	push	eax
	call	??$forward@AAU?$_Wrap_alloc@V?$allocator@U?$_List_node@PAVRaven_Bot@@PAX@std@@@std@@@std@@@std@@YAAAU?$_Wrap_alloc@V?$allocator@U?$_List_node@PAVRaven_Bot@@PAX@std@@@std@@@0@AAU10@@Z ; std::forward<std::_Wrap_alloc<std::allocator<std::_List_node<Raven_Bot *,void *> > > &>
	add	esp, 4
	push	eax
	mov	ecx, DWORD PTR _this$[ebp]
	call	??$?0U?$_List_node@PAVRaven_Bot@@PAX@std@@@?$allocator@U_Container_proxy@std@@@std@@QAE@ABV?$allocator@U?$_List_node@PAVRaven_Bot@@PAX@std@@@1@@Z ; std::allocator<std::_Container_proxy>::allocator<std::_Container_proxy><std::_List_node<Raven_Bot *,void *> >

; 953  : 		}

	mov	eax, DWORD PTR _this$[ebp]
	add	esp, 4
	cmp	ebp, esp
	call	__RTC_CheckEsp
	mov	esp, ebp
	pop	ebp
	ret	4
??$?0AAU?$_Wrap_alloc@V?$allocator@U?$_List_node@PAVRaven_Bot@@PAX@std@@@std@@@std@@@?$_Wrap_alloc@V?$allocator@U_Container_proxy@std@@@std@@@std@@QAE@AAU?$_Wrap_alloc@V?$allocator@U?$_List_node@PAVRaven_Bot@@PAX@std@@@std@@@1@@Z ENDP ; std::_Wrap_alloc<std::allocator<std::_Container_proxy> >::_Wrap_alloc<std::allocator<std::_Container_proxy> ><std::_Wrap_alloc<std::allocator<std::_List_node<Raven_Bot *,void *> > > &>
_TEXT	ENDS
; Function compile flags: /Odtp /RTCsu
; File c:\program files (x86)\microsoft visual studio 14.0\vc\include\xmemory0
;	COMDAT ??$destroy@PAU?$_List_node@PAVRaven_Bot@@PAX@std@@@?$_Wrap_alloc@V?$allocator@U?$_List_node@PAVRaven_Bot@@PAX@std@@@std@@@std@@QAEXPAPAU?$_List_node@PAVRaven_Bot@@PAX@1@@Z
_TEXT	SEGMENT
_this$ = -4						; size = 4
__Ptr$ = 8						; size = 4
??$destroy@PAU?$_List_node@PAVRaven_Bot@@PAX@std@@@?$_Wrap_alloc@V?$allocator@U?$_List_node@PAVRaven_Bot@@PAX@std@@@std@@@std@@QAEXPAPAU?$_List_node@PAVRaven_Bot@@PAX@1@@Z PROC ; std::_Wrap_alloc<std::allocator<std::_List_node<Raven_Bot *,void *> > >::destroy<std::_List_node<Raven_Bot *,void *> *>, COMDAT
; _this$ = ecx

; 1002 : 		{	// destroy object at _Ptr

	push	ebp
	mov	ebp, esp
	push	ecx
	mov	DWORD PTR [ebp-4], -858993460		; ccccccccH
	mov	DWORD PTR _this$[ebp], ecx

; 1003 : 		_Mytraits::destroy(*this, _Ptr);

	mov	eax, DWORD PTR __Ptr$[ebp]
	push	eax
	mov	ecx, DWORD PTR _this$[ebp]
	push	ecx
	call	??$destroy@PAU?$_List_node@PAVRaven_Bot@@PAX@std@@@?$allocator_traits@V?$allocator@U?$_List_node@PAVRaven_Bot@@PAX@std@@@std@@@std@@SAXAAV?$allocator@U?$_List_node@PAVRaven_Bot@@PAX@std@@@1@PAPAU?$_List_node@PAVRaven_Bot@@PAX@1@@Z ; std::allocator_traits<std::allocator<std::_List_node<Raven_Bot *,void *> > >::destroy<std::_List_node<Raven_Bot *,void *> *>
	add	esp, 8

; 1004 : 		}

	add	esp, 4
	cmp	ebp, esp
	call	__RTC_CheckEsp
	mov	esp, ebp
	pop	ebp
	ret	4
??$destroy@PAU?$_List_node@PAVRaven_Bot@@PAX@std@@@?$_Wrap_alloc@V?$allocator@U?$_List_node@PAVRaven_Bot@@PAX@std@@@std@@@std@@QAEXPAPAU?$_List_node@PAVRaven_Bot@@PAX@1@@Z ENDP ; std::_Wrap_alloc<std::allocator<std::_List_node<Raven_Bot *,void *> > >::destroy<std::_List_node<Raven_Bot *,void *> *>
_TEXT	ENDS
; Function compile flags: /Odtp /RTCsu
; File c:\program files (x86)\microsoft visual studio 14.0\vc\include\xstddef
;	COMDAT ??$addressof@PAU?$_List_node@PAVRaven_Bot@@PAX@std@@@std@@YAPAPAU?$_List_node@PAVRaven_Bot@@PAX@0@AAPAU10@@Z
_TEXT	SEGMENT
__Val$ = 8						; size = 4
??$addressof@PAU?$_List_node@PAVRaven_Bot@@PAX@std@@@std@@YAPAPAU?$_List_node@PAVRaven_Bot@@PAX@0@AAPAU10@@Z PROC ; std::addressof<std::_List_node<Raven_Bot *,void *> *>, COMDAT

; 724  : 	{	// return address of _Val

	push	ebp
	mov	ebp, esp

; 725  : 	return (__builtin_addressof(_Val));

	mov	eax, DWORD PTR __Val$[ebp]

; 726  : 	}

	pop	ebp
	ret	0
??$addressof@PAU?$_List_node@PAVRaven_Bot@@PAX@std@@@std@@YAPAPAU?$_List_node@PAVRaven_Bot@@PAX@0@AAPAU10@@Z ENDP ; std::addressof<std::_List_node<Raven_Bot *,void *> *>
_TEXT	ENDS
; Function compile flags: /Odtp /RTCsu
; File c:\program files (x86)\microsoft visual studio 14.0\vc\include\xmemory0
;	COMDAT ??$destroy@U_Container_proxy@std@@@?$_Wrap_alloc@V?$allocator@U_Container_proxy@std@@@std@@@std@@QAEXPAU_Container_proxy@1@@Z
_TEXT	SEGMENT
_this$ = -4						; size = 4
__Ptr$ = 8						; size = 4
??$destroy@U_Container_proxy@std@@@?$_Wrap_alloc@V?$allocator@U_Container_proxy@std@@@std@@@std@@QAEXPAU_Container_proxy@1@@Z PROC ; std::_Wrap_alloc<std::allocator<std::_Container_proxy> >::destroy<std::_Container_proxy>, COMDAT
; _this$ = ecx

; 1002 : 		{	// destroy object at _Ptr

	push	ebp
	mov	ebp, esp
	push	ecx
	mov	DWORD PTR [ebp-4], -858993460		; ccccccccH
	mov	DWORD PTR _this$[ebp], ecx

; 1003 : 		_Mytraits::destroy(*this, _Ptr);

	mov	eax, DWORD PTR __Ptr$[ebp]
	push	eax
	mov	ecx, DWORD PTR _this$[ebp]
	push	ecx
	call	??$destroy@U_Container_proxy@std@@@?$allocator_traits@V?$allocator@U_Container_proxy@std@@@std@@@std@@SAXAAV?$allocator@U_Container_proxy@std@@@1@PAU_Container_proxy@1@@Z ; std::allocator_traits<std::allocator<std::_Container_proxy> >::destroy<std::_Container_proxy>
	add	esp, 8

; 1004 : 		}

	add	esp, 4
	cmp	ebp, esp
	call	__RTC_CheckEsp
	mov	esp, ebp
	pop	ebp
	ret	4
??$destroy@U_Container_proxy@std@@@?$_Wrap_alloc@V?$allocator@U_Container_proxy@std@@@std@@@std@@QAEXPAU_Container_proxy@1@@Z ENDP ; std::_Wrap_alloc<std::allocator<std::_Container_proxy> >::destroy<std::_Container_proxy>
_TEXT	ENDS
; Function compile flags: /Odtp /RTCsu
; File c:\program files (x86)\microsoft visual studio 14.0\vc\include\xmemory0
;	COMDAT ?deallocate@?$_Wrap_alloc@V?$allocator@U_Container_proxy@std@@@std@@@std@@QAEXPAU_Container_proxy@2@I@Z
_TEXT	SEGMENT
_this$ = -4						; size = 4
__Ptr$ = 8						; size = 4
__Count$ = 12						; size = 4
?deallocate@?$_Wrap_alloc@V?$allocator@U_Container_proxy@std@@@std@@@std@@QAEXPAU_Container_proxy@2@I@Z PROC ; std::_Wrap_alloc<std::allocator<std::_Container_proxy> >::deallocate, COMDAT
; _this$ = ecx

; 986  : 		{	// deallocate object at _Ptr, ignore size

	push	ebp
	mov	ebp, esp
	push	ecx
	mov	DWORD PTR [ebp-4], -858993460		; ccccccccH
	mov	DWORD PTR _this$[ebp], ecx

; 987  : 		_Mybase::deallocate(_Ptr, _Count);

	mov	eax, DWORD PTR __Count$[ebp]
	push	eax
	mov	ecx, DWORD PTR __Ptr$[ebp]
	push	ecx
	mov	ecx, DWORD PTR _this$[ebp]
	call	?deallocate@?$allocator@U_Container_proxy@std@@@std@@QAEXPAU_Container_proxy@2@I@Z ; std::allocator<std::_Container_proxy>::deallocate

; 988  : 		}

	add	esp, 4
	cmp	ebp, esp
	call	__RTC_CheckEsp
	mov	esp, ebp
	pop	ebp
	ret	8
?deallocate@?$_Wrap_alloc@V?$allocator@U_Container_proxy@std@@@std@@@std@@QAEXPAU_Container_proxy@2@I@Z ENDP ; std::_Wrap_alloc<std::allocator<std::_Container_proxy> >::deallocate
_TEXT	ENDS
; Function compile flags: /Odtp /RTCsu
; File c:\program files (x86)\microsoft visual studio 14.0\vc\include\xmemory0
;	COMDAT ?allocate@?$_Wrap_alloc@V?$allocator@U_Container_proxy@std@@@std@@@std@@QAEPAU_Container_proxy@2@I@Z
_TEXT	SEGMENT
_this$ = -4						; size = 4
__Count$ = 8						; size = 4
?allocate@?$_Wrap_alloc@V?$allocator@U_Container_proxy@std@@@std@@@std@@QAEPAU_Container_proxy@2@I@Z PROC ; std::_Wrap_alloc<std::allocator<std::_Container_proxy> >::allocate, COMDAT
; _this$ = ecx

; 975  : 		{	// allocate array of _Count elements

	push	ebp
	mov	ebp, esp
	push	ecx
	mov	DWORD PTR [ebp-4], -858993460		; ccccccccH
	mov	DWORD PTR _this$[ebp], ecx

; 976  : 		return (_Mybase::allocate(_Count));

	mov	eax, DWORD PTR __Count$[ebp]
	push	eax
	mov	ecx, DWORD PTR _this$[ebp]
	call	?allocate@?$allocator@U_Container_proxy@std@@@std@@QAEPAU_Container_proxy@2@I@Z ; std::allocator<std::_Container_proxy>::allocate

; 977  : 		}

	add	esp, 4
	cmp	ebp, esp
	call	__RTC_CheckEsp
	mov	esp, ebp
	pop	ebp
	ret	4
?allocate@?$_Wrap_alloc@V?$allocator@U_Container_proxy@std@@@std@@@std@@QAEPAU_Container_proxy@2@I@Z ENDP ; std::_Wrap_alloc<std::allocator<std::_Container_proxy> >::allocate
_TEXT	ENDS
; Function compile flags: /Odtp /RTCsu
; File c:\program files (x86)\microsoft visual studio 14.0\vc\include\xmemory0
;	COMDAT ?address@?$_Wrap_alloc@V?$allocator@U_Container_proxy@std@@@std@@@std@@QBEPAU_Container_proxy@2@AAU32@@Z
_TEXT	SEGMENT
_this$ = -4						; size = 4
__Val$ = 8						; size = 4
?address@?$_Wrap_alloc@V?$allocator@U_Container_proxy@std@@@std@@@std@@QBEPAU_Container_proxy@2@AAU32@@Z PROC ; std::_Wrap_alloc<std::allocator<std::_Container_proxy> >::address, COMDAT
; _this$ = ecx

; 925  : 		{	// return address of mutable _Val

	push	ebp
	mov	ebp, esp
	push	ecx
	mov	DWORD PTR [ebp-4], -858993460		; ccccccccH
	mov	DWORD PTR _this$[ebp], ecx

; 926  : 		return (pointer_traits<pointer>::pointer_to(_Val));

	mov	eax, DWORD PTR __Val$[ebp]
	push	eax
	call	?pointer_to@?$pointer_traits@PAU_Container_proxy@std@@@std@@SAPAU_Container_proxy@2@AAU32@@Z ; std::pointer_traits<std::_Container_proxy *>::pointer_to
	add	esp, 4

; 927  : 		}

	add	esp, 4
	cmp	ebp, esp
	call	__RTC_CheckEsp
	mov	esp, ebp
	pop	ebp
	ret	4
?address@?$_Wrap_alloc@V?$allocator@U_Container_proxy@std@@@std@@@std@@QBEPAU_Container_proxy@2@AAU32@@Z ENDP ; std::_Wrap_alloc<std::allocator<std::_Container_proxy> >::address
_TEXT	ENDS
; Function compile flags: /Odtp /RTCsu
; File c:\program files (x86)\microsoft visual studio 14.0\vc\include\xmemory0
;	COMDAT ?allocate@?$allocator@U_Container_proxy@std@@@std@@QAEPAU_Container_proxy@2@I@Z
_TEXT	SEGMENT
_this$ = -4						; size = 4
__Count$ = 8						; size = 4
?allocate@?$allocator@U_Container_proxy@std@@@std@@QAEPAU_Container_proxy@2@I@Z PROC ; std::allocator<std::_Container_proxy>::allocate, COMDAT
; _this$ = ecx

; 724  : 		{	// allocate array of _Count elements

	push	ebp
	mov	ebp, esp
	push	ecx
	mov	DWORD PTR [ebp-4], -858993460		; ccccccccH
	mov	DWORD PTR _this$[ebp], ecx

; 725  : 		return (static_cast<pointer>(_Allocate(_Count, sizeof (_Ty))));

	push	1
	push	8
	mov	eax, DWORD PTR __Count$[ebp]
	push	eax
	call	?_Allocate@std@@YAPAXII_N@Z		; std::_Allocate
	add	esp, 12					; 0000000cH

; 726  : 		}

	add	esp, 4
	cmp	ebp, esp
	call	__RTC_CheckEsp
	mov	esp, ebp
	pop	ebp
	ret	4
?allocate@?$allocator@U_Container_proxy@std@@@std@@QAEPAU_Container_proxy@2@I@Z ENDP ; std::allocator<std::_Container_proxy>::allocate
_TEXT	ENDS
; Function compile flags: /Odtp /RTCsu
; File c:\program files (x86)\microsoft visual studio 14.0\vc\include\xmemory0
;	COMDAT ?deallocate@?$allocator@U_Container_proxy@std@@@std@@QAEXPAU_Container_proxy@2@I@Z
_TEXT	SEGMENT
_this$ = -4						; size = 4
__Ptr$ = 8						; size = 4
__Count$ = 12						; size = 4
?deallocate@?$allocator@U_Container_proxy@std@@@std@@QAEXPAU_Container_proxy@2@I@Z PROC ; std::allocator<std::_Container_proxy>::deallocate, COMDAT
; _this$ = ecx

; 719  : 		{	// deallocate object at _Ptr

	push	ebp
	mov	ebp, esp
	push	ecx
	mov	DWORD PTR [ebp-4], -858993460		; ccccccccH
	mov	DWORD PTR _this$[ebp], ecx

; 720  : 		_Deallocate(_Ptr, _Count, sizeof (_Ty));

	push	8
	mov	eax, DWORD PTR __Count$[ebp]
	push	eax
	mov	ecx, DWORD PTR __Ptr$[ebp]
	push	ecx
	call	?_Deallocate@std@@YAXPAXII@Z		; std::_Deallocate
	add	esp, 12					; 0000000cH

; 721  : 		}

	add	esp, 4
	cmp	ebp, esp
	call	__RTC_CheckEsp
	mov	esp, ebp
	pop	ebp
	ret	8
?deallocate@?$allocator@U_Container_proxy@std@@@std@@QAEXPAU_Container_proxy@2@I@Z ENDP ; std::allocator<std::_Container_proxy>::deallocate
_TEXT	ENDS
; Function compile flags: /Odtp /RTCsu
; File c:\program files (x86)\microsoft visual studio 14.0\vc\include\xmemory0
;	COMDAT ??$construct@PADAAPAD@?$_Wrap_alloc@V?$allocator@D@std@@@std@@QAEXPAPADAAPAD@Z
_TEXT	SEGMENT
_this$ = -4						; size = 4
__Ptr$ = 8						; size = 4
_<_Args_0>$ = 12					; size = 4
??$construct@PADAAPAD@?$_Wrap_alloc@V?$allocator@D@std@@@std@@QAEXPAPADAAPAD@Z PROC ; std::_Wrap_alloc<std::allocator<char> >::construct<char *,char * &>, COMDAT
; _this$ = ecx

; 994  : 		{	// construct _Ty(_Types...) at _Ptr

	push	ebp
	mov	ebp, esp
	push	ecx
	mov	DWORD PTR [ebp-4], -858993460		; ccccccccH
	mov	DWORD PTR _this$[ebp], ecx

; 995  : 		_Mytraits::construct(*this, _Ptr,

	mov	eax, DWORD PTR _<_Args_0>$[ebp]
	push	eax
	call	??$forward@AAPAD@std@@YAAAPADAAPAD@Z	; std::forward<char * &>
	add	esp, 4
	push	eax
	mov	ecx, DWORD PTR __Ptr$[ebp]
	push	ecx
	mov	edx, DWORD PTR _this$[ebp]
	push	edx
	call	??$construct@PADAAPAD@?$allocator_traits@V?$allocator@D@std@@@std@@SAXAAV?$allocator@D@1@PAPADAAPAD@Z ; std::allocator_traits<std::allocator<char> >::construct<char *,char * &>
	add	esp, 12					; 0000000cH

; 996  : 			_STD forward<_Types>(_Args)...);
; 997  : 		}

	add	esp, 4
	cmp	ebp, esp
	call	__RTC_CheckEsp
	mov	esp, ebp
	pop	ebp
	ret	8
??$construct@PADAAPAD@?$_Wrap_alloc@V?$allocator@D@std@@@std@@QAEXPAPADAAPAD@Z ENDP ; std::_Wrap_alloc<std::allocator<char> >::construct<char *,char * &>
_TEXT	ENDS
; Function compile flags: /Odtp /RTCsu
; File c:\program files (x86)\microsoft visual studio 14.0\vc\include\xutility
;	COMDAT ??$_Debug_pointer_if@$$CBD@std@@YAX_NPBDPB_WI@Z
_TEXT	SEGMENT
__Test$ = 8						; size = 1
__Ptr$ = 12						; size = 4
__File$ = 16						; size = 4
__Line$ = 20						; size = 4
??$_Debug_pointer_if@$$CBD@std@@YAX_NPBDPB_WI@Z PROC	; std::_Debug_pointer_if<char const >, COMDAT

; 937  : 	{	// conditionally test pointer for non-singularity, pointers

	push	ebp
	mov	ebp, esp

; 938  : 	if (_Test && _Ptr == 0)

	movzx	eax, BYTE PTR __Test$[ebp]
	test	eax, eax
	je	SHORT $LN1@Debug_poin
	cmp	DWORD PTR __Ptr$[ebp], 0
	jne	SHORT $LN1@Debug_poin

; 939  : 		_DEBUG_ERROR2("invalid null pointer", _File, _Line);

	mov	ecx, DWORD PTR __Line$[ebp]
	push	ecx
	mov	edx, DWORD PTR __File$[ebp]
	push	edx
	push	OFFSET ??_C@_1CK@EOPGIILJ@?$AAi?$AAn?$AAv?$AAa?$AAl?$AAi?$AAd?$AA?5?$AAn?$AAu?$AAl?$AAl?$AA?5?$AAp?$AAo?$AAi?$AAn?$AAt?$AAe?$AAr?$AA?$AA@
	call	?_Debug_message@std@@YAXPB_W0I@Z	; std::_Debug_message
	add	esp, 12					; 0000000cH
$LN1@Debug_poin:

; 940  : 	}

	cmp	ebp, esp
	call	__RTC_CheckEsp
	pop	ebp
	ret	0
??$_Debug_pointer_if@$$CBD@std@@YAX_NPBDPB_WI@Z ENDP	; std::_Debug_pointer_if<char const >
_TEXT	ENDS
; Function compile flags: /Odtp /RTCsu
; File c:\program files (x86)\microsoft visual studio 14.0\vc\include\xstddef
;	COMDAT ??$_Unfancy@D@std@@YAPADPAD@Z
_TEXT	SEGMENT
__Ptr$ = 8						; size = 4
??$_Unfancy@D@std@@YAPADPAD@Z PROC			; std::_Unfancy<char>, COMDAT

; 739  : 	{	// do nothing for plain pointers

	push	ebp
	mov	ebp, esp

; 740  : 	return (_Ptr);

	mov	eax, DWORD PTR __Ptr$[ebp]

; 741  : 	}

	pop	ebp
	ret	0
??$_Unfancy@D@std@@YAPADPAD@Z ENDP			; std::_Unfancy<char>
_TEXT	ENDS
; Function compile flags: /Odtp /RTCsu
; File c:\program files (x86)\microsoft visual studio 14.0\vc\include\xmemory0
;	COMDAT ??$destroy@PAD@?$_Wrap_alloc@V?$allocator@D@std@@@std@@QAEXPAPAD@Z
_TEXT	SEGMENT
_this$ = -4						; size = 4
__Ptr$ = 8						; size = 4
??$destroy@PAD@?$_Wrap_alloc@V?$allocator@D@std@@@std@@QAEXPAPAD@Z PROC ; std::_Wrap_alloc<std::allocator<char> >::destroy<char *>, COMDAT
; _this$ = ecx

; 1002 : 		{	// destroy object at _Ptr

	push	ebp
	mov	ebp, esp
	push	ecx
	mov	DWORD PTR [ebp-4], -858993460		; ccccccccH
	mov	DWORD PTR _this$[ebp], ecx

; 1003 : 		_Mytraits::destroy(*this, _Ptr);

	mov	eax, DWORD PTR __Ptr$[ebp]
	push	eax
	mov	ecx, DWORD PTR _this$[ebp]
	push	ecx
	call	??$destroy@PAD@?$allocator_traits@V?$allocator@D@std@@@std@@SAXAAV?$allocator@D@1@PAPAD@Z ; std::allocator_traits<std::allocator<char> >::destroy<char *>
	add	esp, 8

; 1004 : 		}

	add	esp, 4
	cmp	ebp, esp
	call	__RTC_CheckEsp
	mov	esp, ebp
	pop	ebp
	ret	4
??$destroy@PAD@?$_Wrap_alloc@V?$allocator@D@std@@@std@@QAEXPAPAD@Z ENDP ; std::_Wrap_alloc<std::allocator<char> >::destroy<char *>
_TEXT	ENDS
; Function compile flags: /Odtp /RTCsu
; File c:\program files (x86)\microsoft visual studio 14.0\vc\include\xstddef
;	COMDAT ??$addressof@PAD@std@@YAPAPADAAPAD@Z
_TEXT	SEGMENT
__Val$ = 8						; size = 4
??$addressof@PAD@std@@YAPAPADAAPAD@Z PROC		; std::addressof<char *>, COMDAT

; 724  : 	{	// return address of _Val

	push	ebp
	mov	ebp, esp

; 725  : 	return (__builtin_addressof(_Val));

	mov	eax, DWORD PTR __Val$[ebp]

; 726  : 	}

	pop	ebp
	ret	0
??$addressof@PAD@std@@YAPAPADAAPAD@Z ENDP		; std::addressof<char *>
_TEXT	ENDS
; Function compile flags: /Odtp /RTCsu
; File c:\program files (x86)\microsoft visual studio 14.0\vc\include\xutility
;	COMDAT ??$?0$$V@?$_Compressed_pair@U?$_Wrap_alloc@V?$allocator@D@std@@@std@@V?$_String_val@U?$_Simple_types@D@std@@@2@$00@std@@QAE@U_Zero_then_variadic_args_t@1@@Z
_TEXT	SEGMENT
_this$ = -4						; size = 4
___formal$ = 8						; size = 1
??$?0$$V@?$_Compressed_pair@U?$_Wrap_alloc@V?$allocator@D@std@@@std@@V?$_String_val@U?$_Simple_types@D@std@@@2@$00@std@@QAE@U_Zero_then_variadic_args_t@1@@Z PROC ; std::_Compressed_pair<std::_Wrap_alloc<std::allocator<char> >,std::_String_val<std::_Simple_types<char> >,1>::_Compressed_pair<std::_Wrap_alloc<std::allocator<char> >,std::_String_val<std::_Simple_types<char> >,1><>, COMDAT
; _this$ = ecx

; 280  : 		{	// construct from forwarded values

	push	ebp
	mov	ebp, esp
	push	ecx
	mov	DWORD PTR [ebp-4], -858993460		; ccccccccH
	mov	DWORD PTR _this$[ebp], ecx

; 279  : 		: _Ty1(), _Myval2(_STD forward<_Other2>(_Val2)...)

	mov	ecx, DWORD PTR _this$[ebp]
	call	??0?$_Wrap_alloc@V?$allocator@D@std@@@std@@QAE@XZ ; std::_Wrap_alloc<std::allocator<char> >::_Wrap_alloc<std::allocator<char> >
	mov	ecx, DWORD PTR _this$[ebp]
	call	??0?$_String_val@U?$_Simple_types@D@std@@@std@@QAE@XZ ; std::_String_val<std::_Simple_types<char> >::_String_val<std::_Simple_types<char> >

; 281  : 		}

	mov	eax, DWORD PTR _this$[ebp]
	add	esp, 4
	cmp	ebp, esp
	call	__RTC_CheckEsp
	mov	esp, ebp
	pop	ebp
	ret	4
??$?0$$V@?$_Compressed_pair@U?$_Wrap_alloc@V?$allocator@D@std@@@std@@V?$_String_val@U?$_Simple_types@D@std@@@2@$00@std@@QAE@U_Zero_then_variadic_args_t@1@@Z ENDP ; std::_Compressed_pair<std::_Wrap_alloc<std::allocator<char> >,std::_String_val<std::_Simple_types<char> >,1>::_Compressed_pair<std::_Wrap_alloc<std::allocator<char> >,std::_String_val<std::_Simple_types<char> >,1><>
_TEXT	ENDS
; Function compile flags: /Odtp /RTCsu
; File c:\program files (x86)\microsoft visual studio 14.0\vc\include\type_traits
;	COMDAT ??$forward@V?$basic_string@DU?$char_traits@D@std@@V?$allocator@D@2@@std@@@std@@YA$$QAV?$basic_string@DU?$char_traits@D@std@@V?$allocator@D@2@@0@AAV10@@Z
_TEXT	SEGMENT
__Arg$ = 8						; size = 4
??$forward@V?$basic_string@DU?$char_traits@D@std@@V?$allocator@D@2@@std@@@std@@YA$$QAV?$basic_string@DU?$char_traits@D@std@@V?$allocator@D@2@@0@AAV10@@Z PROC ; std::forward<std::basic_string<char,std::char_traits<char>,std::allocator<char> > >, COMDAT

; 1275 : 	{	// forward an lvalue as either an lvalue or an rvalue

	push	ebp
	mov	ebp, esp

; 1276 : 	return (static_cast<_Ty&&>(_Arg));

	mov	eax, DWORD PTR __Arg$[ebp]

; 1277 : 	}

	pop	ebp
	ret	0
??$forward@V?$basic_string@DU?$char_traits@D@std@@V?$allocator@D@2@@std@@@std@@YA$$QAV?$basic_string@DU?$char_traits@D@std@@V?$allocator@D@2@@0@AAV10@@Z ENDP ; std::forward<std::basic_string<char,std::char_traits<char>,std::allocator<char> > >
_TEXT	ENDS
; Function compile flags: /Odtp /RTCsu
; File c:\program files (x86)\microsoft visual studio 14.0\vc\include\xstring
;	COMDAT ??$?0U?$_Wrap_alloc@V?$allocator@D@std@@@std@@X@?$_String_alloc@U?$_String_base_types@DV?$allocator@D@std@@@std@@@std@@QAE@$$QAU?$_Wrap_alloc@V?$allocator@D@std@@@1@@Z
_TEXT	SEGMENT
$T2 = -17						; size = 1
_this$ = -16						; size = 4
__$EHRec$ = -12						; size = 12
__Al$ = 8						; size = 4
??$?0U?$_Wrap_alloc@V?$allocator@D@std@@@std@@X@?$_String_alloc@U?$_String_base_types@DV?$allocator@D@std@@@std@@@std@@QAE@$$QAU?$_Wrap_alloc@V?$allocator@D@std@@@1@@Z PROC ; std::_String_alloc<std::_String_base_types<char,std::allocator<char> > >::_String_alloc<std::_String_base_types<char,std::allocator<char> > ><std::_Wrap_alloc<std::allocator<char> >,void>, COMDAT
; _this$ = ecx

; 622  : 		{	// construct allocator from _Al

	push	ebp
	mov	ebp, esp
	push	-1
	push	__ehhandler$??$?0U?$_Wrap_alloc@V?$allocator@D@std@@@std@@X@?$_String_alloc@U?$_String_base_types@DV?$allocator@D@std@@@std@@@std@@QAE@$$QAU?$_Wrap_alloc@V?$allocator@D@std@@@1@@Z
	mov	eax, DWORD PTR fs:0
	push	eax
	sub	esp, 8
	mov	DWORD PTR [ebp-20], -858993460		; ccccccccH
	mov	DWORD PTR [ebp-16], -858993460		; ccccccccH
	mov	eax, DWORD PTR ___security_cookie
	xor	eax, ebp
	push	eax
	lea	eax, DWORD PTR __$EHRec$[ebp]
	mov	DWORD PTR fs:0, eax
	mov	DWORD PTR _this$[ebp], ecx

; 620  : 		: _Mypair(_One_then_variadic_args_t(),

	mov	eax, DWORD PTR __Al$[ebp]
	push	eax
	call	??$forward@U?$_Wrap_alloc@V?$allocator@D@std@@@std@@@std@@YA$$QAU?$_Wrap_alloc@V?$allocator@D@std@@@0@AAU10@@Z ; std::forward<std::_Wrap_alloc<std::allocator<char> > >
	add	esp, 4
	push	eax
	movzx	ecx, BYTE PTR $T2[ebp]
	push	ecx
	mov	ecx, DWORD PTR _this$[ebp]
	call	??$?0U?$_Wrap_alloc@V?$allocator@D@std@@@std@@$$V@?$_Compressed_pair@U?$_Wrap_alloc@V?$allocator@D@std@@@std@@V?$_String_val@U?$_Simple_types@D@std@@@2@$00@std@@QAE@U_One_then_variadic_args_t@1@$$QAU?$_Wrap_alloc@V?$allocator@D@std@@@1@@Z ; std::_Compressed_pair<std::_Wrap_alloc<std::allocator<char> >,std::_String_val<std::_Simple_types<char> >,1>::_Compressed_pair<std::_Wrap_alloc<std::allocator<char> >,std::_String_val<std::_Simple_types<char> >,1><std::_Wrap_alloc<std::allocator<char> > >
	mov	DWORD PTR __$EHRec$[ebp+8], 0

; 623  : 		_Alloc_proxy();

	mov	ecx, DWORD PTR _this$[ebp]
	call	?_Alloc_proxy@?$_String_alloc@U?$_String_base_types@DV?$allocator@D@std@@@std@@@std@@QAEXXZ ; std::_String_alloc<std::_String_base_types<char,std::allocator<char> > >::_Alloc_proxy

; 624  : 		}

	mov	DWORD PTR __$EHRec$[ebp+8], -1
	mov	eax, DWORD PTR _this$[ebp]
	mov	ecx, DWORD PTR __$EHRec$[ebp]
	mov	DWORD PTR fs:0, ecx
	pop	ecx
	add	esp, 20					; 00000014H
	cmp	ebp, esp
	call	__RTC_CheckEsp
	mov	esp, ebp
	pop	ebp
	ret	4
_TEXT	ENDS
;	COMDAT text$x
text$x	SEGMENT
__unwindfunclet$??$?0U?$_Wrap_alloc@V?$allocator@D@std@@@std@@X@?$_String_alloc@U?$_String_base_types@DV?$allocator@D@std@@@std@@@std@@QAE@$$QAU?$_Wrap_alloc@V?$allocator@D@std@@@1@@Z$0:
	mov	ecx, DWORD PTR _this$[ebp]
	jmp	??1?$_Compressed_pair@U?$_Wrap_alloc@V?$allocator@D@std@@@std@@V?$_String_val@U?$_Simple_types@D@std@@@2@$00@std@@QAE@XZ
__ehhandler$??$?0U?$_Wrap_alloc@V?$allocator@D@std@@@std@@X@?$_String_alloc@U?$_String_base_types@DV?$allocator@D@std@@@std@@@std@@QAE@$$QAU?$_Wrap_alloc@V?$allocator@D@std@@@1@@Z:
	mov	edx, DWORD PTR [esp+8]
	lea	eax, DWORD PTR [edx+12]
	mov	ecx, DWORD PTR [edx-12]
	xor	ecx, eax
	call	@__security_check_cookie@4
	mov	eax, OFFSET __ehfuncinfo$??$?0U?$_Wrap_alloc@V?$allocator@D@std@@@std@@X@?$_String_alloc@U?$_String_base_types@DV?$allocator@D@std@@@std@@@std@@QAE@$$QAU?$_Wrap_alloc@V?$allocator@D@std@@@1@@Z
	jmp	___CxxFrameHandler3
text$x	ENDS
??$?0U?$_Wrap_alloc@V?$allocator@D@std@@@std@@X@?$_String_alloc@U?$_String_base_types@DV?$allocator@D@std@@@std@@@std@@QAE@$$QAU?$_Wrap_alloc@V?$allocator@D@std@@@1@@Z ENDP ; std::_String_alloc<std::_String_base_types<char,std::allocator<char> > >::_String_alloc<std::_String_base_types<char,std::allocator<char> > ><std::_Wrap_alloc<std::allocator<char> >,void>
; Function compile flags: /Odtp /RTCsu
; File c:\program files (x86)\microsoft visual studio 14.0\vc\include\type_traits
;	COMDAT ??$move@AAU?$_Wrap_alloc@V?$allocator@D@std@@@std@@@std@@YA$$QAU?$_Wrap_alloc@V?$allocator@D@std@@@0@AAU10@@Z
_TEXT	SEGMENT
__Arg$ = 8						; size = 4
??$move@AAU?$_Wrap_alloc@V?$allocator@D@std@@@std@@@std@@YA$$QAU?$_Wrap_alloc@V?$allocator@D@std@@@0@AAU10@@Z PROC ; std::move<std::_Wrap_alloc<std::allocator<char> > &>, COMDAT

; 1291 : 	{	// forward _Arg as movable

	push	ebp
	mov	ebp, esp

; 1292 : 	return (static_cast<typename remove_reference<_Ty>::type&&>(_Arg));

	mov	eax, DWORD PTR __Arg$[ebp]

; 1293 : 	}

	pop	ebp
	ret	0
??$move@AAU?$_Wrap_alloc@V?$allocator@D@std@@@std@@@std@@YA$$QAU?$_Wrap_alloc@V?$allocator@D@std@@@0@AAU10@@Z ENDP ; std::move<std::_Wrap_alloc<std::allocator<char> > &>
_TEXT	ENDS
; Function compile flags: /Odtp /RTCsu
; File c:\program files (x86)\microsoft visual studio 14.0\vc\include\xutility
;	COMDAT ??$_Debug_pointer@$$CBD@std@@YAXPBDPB_WI@Z
_TEXT	SEGMENT
__Ptr$ = 8						; size = 4
__File$ = 12						; size = 4
__Line$ = 16						; size = 4
??$_Debug_pointer@$$CBD@std@@YAXPBDPB_WI@Z PROC		; std::_Debug_pointer<char const >, COMDAT

; 923  : 	{	// test pointer for non-singularity, pointers

	push	ebp
	mov	ebp, esp

; 924  : 	if (_Ptr == 0)

	cmp	DWORD PTR __Ptr$[ebp], 0
	jne	SHORT $LN1@Debug_poin

; 925  : 		_DEBUG_ERROR2("invalid null pointer", _File, _Line);

	mov	eax, DWORD PTR __Line$[ebp]
	push	eax
	mov	ecx, DWORD PTR __File$[ebp]
	push	ecx
	push	OFFSET ??_C@_1CK@EOPGIILJ@?$AAi?$AAn?$AAv?$AAa?$AAl?$AAi?$AAd?$AA?5?$AAn?$AAu?$AAl?$AAl?$AA?5?$AAp?$AAo?$AAi?$AAn?$AAt?$AAe?$AAr?$AA?$AA@
	call	?_Debug_message@std@@YAXPB_W0I@Z	; std::_Debug_message
	add	esp, 12					; 0000000cH
$LN1@Debug_poin:

; 926  : 	}

	cmp	ebp, esp
	call	__RTC_CheckEsp
	pop	ebp
	ret	0
??$_Debug_pointer@$$CBD@std@@YAXPBDPB_WI@Z ENDP		; std::_Debug_pointer<char const >
_TEXT	ENDS
; Function compile flags: /Odtp /RTCsu
;	COMDAT ??4?$_List_iterator@V?$_List_val@U?$_List_simple_types@PAVRaven_Bot@@@std@@@std@@@std@@QAEAAV01@$$QAV01@@Z
_TEXT	SEGMENT
_this$ = -4						; size = 4
___that$ = 8						; size = 4
??4?$_List_iterator@V?$_List_val@U?$_List_simple_types@PAVRaven_Bot@@@std@@@std@@@std@@QAEAAV01@$$QAV01@@Z PROC ; std::_List_iterator<std::_List_val<std::_List_simple_types<Raven_Bot *> > >::operator=, COMDAT
; _this$ = ecx
	push	ebp
	mov	ebp, esp
	push	ecx
	mov	DWORD PTR [ebp-4], -858993460		; ccccccccH
	mov	DWORD PTR _this$[ebp], ecx
	mov	eax, DWORD PTR ___that$[ebp]
	push	eax
	mov	ecx, DWORD PTR _this$[ebp]
	call	??4?$_List_const_iterator@V?$_List_val@U?$_List_simple_types@PAVRaven_Bot@@@std@@@std@@@std@@QAEAAV01@$$QAV01@@Z
	mov	eax, DWORD PTR _this$[ebp]
	add	esp, 4
	cmp	ebp, esp
	call	__RTC_CheckEsp
	mov	esp, ebp
	pop	ebp
	ret	4
??4?$_List_iterator@V?$_List_val@U?$_List_simple_types@PAVRaven_Bot@@@std@@@std@@@std@@QAEAAV01@$$QAV01@@Z ENDP ; std::_List_iterator<std::_List_val<std::_List_simple_types<Raven_Bot *> > >::operator=
_TEXT	ENDS
; Function compile flags: /Odtp /RTCsu
;	COMDAT ??1?$_List_iterator@V?$_List_val@U?$_List_simple_types@PAVRaven_Bot@@@std@@@std@@@std@@QAE@XZ
_TEXT	SEGMENT
_this$ = -4						; size = 4
??1?$_List_iterator@V?$_List_val@U?$_List_simple_types@PAVRaven_Bot@@@std@@@std@@@std@@QAE@XZ PROC ; std::_List_iterator<std::_List_val<std::_List_simple_types<Raven_Bot *> > >::~_List_iterator<std::_List_val<std::_List_simple_types<Raven_Bot *> > >, COMDAT
; _this$ = ecx
	push	ebp
	mov	ebp, esp
	push	ecx
	mov	DWORD PTR [ebp-4], -858993460		; ccccccccH
	mov	DWORD PTR _this$[ebp], ecx
	mov	ecx, DWORD PTR _this$[ebp]
	call	??1?$_List_const_iterator@V?$_List_val@U?$_List_simple_types@PAVRaven_Bot@@@std@@@std@@@std@@QAE@XZ
	add	esp, 4
	cmp	ebp, esp
	call	__RTC_CheckEsp
	mov	esp, ebp
	pop	ebp
	ret	0
??1?$_List_iterator@V?$_List_val@U?$_List_simple_types@PAVRaven_Bot@@@std@@@std@@@std@@QAE@XZ ENDP ; std::_List_iterator<std::_List_val<std::_List_simple_types<Raven_Bot *> > >::~_List_iterator<std::_List_val<std::_List_simple_types<Raven_Bot *> > >
_TEXT	ENDS
; Function compile flags: /Odtp /RTCsu
; File c:\program files (x86)\microsoft visual studio 14.0\vc\include\list
;	COMDAT ??E?$_List_iterator@V?$_List_val@U?$_List_simple_types@PAVRaven_Bot@@@std@@@std@@@std@@QAEAAV01@XZ
_TEXT	SEGMENT
_this$ = -4						; size = 4
??E?$_List_iterator@V?$_List_val@U?$_List_simple_types@PAVRaven_Bot@@@std@@@std@@@std@@QAEAAV01@XZ PROC ; std::_List_iterator<std::_List_val<std::_List_simple_types<Raven_Bot *> > >::operator++, COMDAT
; _this$ = ecx

; 375  : 		{	// preincrement

	push	ebp
	mov	ebp, esp
	push	ecx
	mov	DWORD PTR [ebp-4], -858993460		; ccccccccH
	mov	DWORD PTR _this$[ebp], ecx

; 376  : 		++(*(_Mybase *)this);

	mov	ecx, DWORD PTR _this$[ebp]
	call	??E?$_List_const_iterator@V?$_List_val@U?$_List_simple_types@PAVRaven_Bot@@@std@@@std@@@std@@QAEAAV01@XZ ; std::_List_const_iterator<std::_List_val<std::_List_simple_types<Raven_Bot *> > >::operator++

; 377  : 		return (*this);

	mov	eax, DWORD PTR _this$[ebp]

; 378  : 		}

	add	esp, 4
	cmp	ebp, esp
	call	__RTC_CheckEsp
	mov	esp, ebp
	pop	ebp
	ret	0
??E?$_List_iterator@V?$_List_val@U?$_List_simple_types@PAVRaven_Bot@@@std@@@std@@@std@@QAEAAV01@XZ ENDP ; std::_List_iterator<std::_List_val<std::_List_simple_types<Raven_Bot *> > >::operator++
_TEXT	ENDS
; Function compile flags: /Odtp /RTCsu
; File c:\program files (x86)\microsoft visual studio 14.0\vc\include\list
;	COMDAT ??D?$_List_iterator@V?$_List_val@U?$_List_simple_types@PAVRaven_Bot@@@std@@@std@@@std@@QBEAAPAVRaven_Bot@@XZ
_TEXT	SEGMENT
_this$ = -4						; size = 4
??D?$_List_iterator@V?$_List_val@U?$_List_simple_types@PAVRaven_Bot@@@std@@@std@@@std@@QBEAAPAVRaven_Bot@@XZ PROC ; std::_List_iterator<std::_List_val<std::_List_simple_types<Raven_Bot *> > >::operator*, COMDAT
; _this$ = ecx

; 365  : 		{	// return designated value

	push	ebp
	mov	ebp, esp
	push	ecx
	mov	DWORD PTR [ebp-4], -858993460		; ccccccccH
	mov	DWORD PTR _this$[ebp], ecx

; 366  : 		return ((reference)**(_Mybase *)this);

	mov	ecx, DWORD PTR _this$[ebp]
	call	??D?$_List_const_iterator@V?$_List_val@U?$_List_simple_types@PAVRaven_Bot@@@std@@@std@@@std@@QBEABQAVRaven_Bot@@XZ ; std::_List_const_iterator<std::_List_val<std::_List_simple_types<Raven_Bot *> > >::operator*

; 367  : 		}

	add	esp, 4
	cmp	ebp, esp
	call	__RTC_CheckEsp
	mov	esp, ebp
	pop	ebp
	ret	0
??D?$_List_iterator@V?$_List_val@U?$_List_simple_types@PAVRaven_Bot@@@std@@@std@@@std@@QBEAAPAVRaven_Bot@@XZ ENDP ; std::_List_iterator<std::_List_val<std::_List_simple_types<Raven_Bot *> > >::operator*
_TEXT	ENDS
; Function compile flags: /Odtp /RTCsu
; File c:\program files (x86)\microsoft visual studio 14.0\vc\include\list
;	COMDAT ??0?$_List_iterator@V?$_List_val@U?$_List_simple_types@PAVRaven_Bot@@@std@@@std@@@std@@QAE@PAU?$_List_node@PAVRaven_Bot@@PAX@1@PBV?$_List_val@U?$_List_simple_types@PAVRaven_Bot@@@std@@@1@@Z
_TEXT	SEGMENT
_this$ = -4						; size = 4
__Pnode$ = 8						; size = 4
__Plist$ = 12						; size = 4
??0?$_List_iterator@V?$_List_val@U?$_List_simple_types@PAVRaven_Bot@@@std@@@std@@@std@@QAE@PAU?$_List_node@PAVRaven_Bot@@PAX@1@PBV?$_List_val@U?$_List_simple_types@PAVRaven_Bot@@@std@@@1@@Z PROC ; std::_List_iterator<std::_List_val<std::_List_simple_types<Raven_Bot *> > >::_List_iterator<std::_List_val<std::_List_simple_types<Raven_Bot *> > >, COMDAT
; _this$ = ecx

; 348  : 		{	// construct with node pointer _Pnode

	push	ebp
	mov	ebp, esp
	push	ecx
	mov	DWORD PTR [ebp-4], -858993460		; ccccccccH
	mov	DWORD PTR _this$[ebp], ecx

; 347  : 		: _Mybase(_Pnode, _Plist)

	mov	eax, DWORD PTR __Plist$[ebp]
	push	eax
	mov	ecx, DWORD PTR __Pnode$[ebp]
	push	ecx
	mov	ecx, DWORD PTR _this$[ebp]
	call	??0?$_List_const_iterator@V?$_List_val@U?$_List_simple_types@PAVRaven_Bot@@@std@@@std@@@std@@QAE@PAU?$_List_node@PAVRaven_Bot@@PAX@1@PBV?$_List_val@U?$_List_simple_types@PAVRaven_Bot@@@std@@@1@@Z ; std::_List_const_iterator<std::_List_val<std::_List_simple_types<Raven_Bot *> > >::_List_const_iterator<std::_List_val<std::_List_simple_types<Raven_Bot *> > >

; 349  : 		}

	mov	eax, DWORD PTR _this$[ebp]
	add	esp, 4
	cmp	ebp, esp
	call	__RTC_CheckEsp
	mov	esp, ebp
	pop	ebp
	ret	8
??0?$_List_iterator@V?$_List_val@U?$_List_simple_types@PAVRaven_Bot@@@std@@@std@@@std@@QAE@PAU?$_List_node@PAVRaven_Bot@@PAX@1@PBV?$_List_val@U?$_List_simple_types@PAVRaven_Bot@@@std@@@1@@Z ENDP ; std::_List_iterator<std::_List_val<std::_List_simple_types<Raven_Bot *> > >::_List_iterator<std::_List_val<std::_List_simple_types<Raven_Bot *> > >
_TEXT	ENDS
; Function compile flags: /Odtp /RTCsu
; File c:\program files (x86)\microsoft visual studio 14.0\vc\include\list
;	COMDAT ??0?$_List_iterator@V?$_List_val@U?$_List_simple_types@PAVRaven_Bot@@@std@@@std@@@std@@QAE@XZ
_TEXT	SEGMENT
_this$ = -4						; size = 4
??0?$_List_iterator@V?$_List_val@U?$_List_simple_types@PAVRaven_Bot@@@std@@@std@@@std@@QAE@XZ PROC ; std::_List_iterator<std::_List_val<std::_List_simple_types<Raven_Bot *> > >::_List_iterator<std::_List_val<std::_List_simple_types<Raven_Bot *> > >, COMDAT
; _this$ = ecx

; 342  : 	_List_iterator()

	push	ebp
	mov	ebp, esp
	push	ecx
	mov	DWORD PTR [ebp-4], -858993460		; ccccccccH
	mov	DWORD PTR _this$[ebp], ecx

; 343  : 		{	// construct with null node

	mov	ecx, DWORD PTR _this$[ebp]
	call	??0?$_List_const_iterator@V?$_List_val@U?$_List_simple_types@PAVRaven_Bot@@@std@@@std@@@std@@QAE@XZ ; std::_List_const_iterator<std::_List_val<std::_List_simple_types<Raven_Bot *> > >::_List_const_iterator<std::_List_val<std::_List_simple_types<Raven_Bot *> > >

; 344  : 		}

	mov	eax, DWORD PTR _this$[ebp]
	add	esp, 4
	cmp	ebp, esp
	call	__RTC_CheckEsp
	mov	esp, ebp
	pop	ebp
	ret	0
??0?$_List_iterator@V?$_List_val@U?$_List_simple_types@PAVRaven_Bot@@@std@@@std@@@std@@QAE@XZ ENDP ; std::_List_iterator<std::_List_val<std::_List_simple_types<Raven_Bot *> > >::_List_iterator<std::_List_val<std::_List_simple_types<Raven_Bot *> > >
_TEXT	ENDS
; Function compile flags: /Odtp /RTCsu
;	COMDAT ??4?$_List_const_iterator@V?$_List_val@U?$_List_simple_types@PAVRaven_Bot@@@std@@@std@@@std@@QAEAAV01@$$QAV01@@Z
_TEXT	SEGMENT
_this$ = -4						; size = 4
___that$ = 8						; size = 4
??4?$_List_const_iterator@V?$_List_val@U?$_List_simple_types@PAVRaven_Bot@@@std@@@std@@@std@@QAEAAV01@$$QAV01@@Z PROC ; std::_List_const_iterator<std::_List_val<std::_List_simple_types<Raven_Bot *> > >::operator=, COMDAT
; _this$ = ecx
	push	ebp
	mov	ebp, esp
	push	ecx
	mov	DWORD PTR [ebp-4], -858993460		; ccccccccH
	mov	DWORD PTR _this$[ebp], ecx
	mov	eax, DWORD PTR ___that$[ebp]
	push	eax
	mov	ecx, DWORD PTR _this$[ebp]
	call	??4?$_List_unchecked_const_iterator@V?$_List_val@U?$_List_simple_types@PAVRaven_Bot@@@std@@@std@@U_Iterator_base12@2@@std@@QAEAAV01@$$QAV01@@Z
	mov	eax, DWORD PTR _this$[ebp]
	add	esp, 4
	cmp	ebp, esp
	call	__RTC_CheckEsp
	mov	esp, ebp
	pop	ebp
	ret	4
??4?$_List_const_iterator@V?$_List_val@U?$_List_simple_types@PAVRaven_Bot@@@std@@@std@@@std@@QAEAAV01@$$QAV01@@Z ENDP ; std::_List_const_iterator<std::_List_val<std::_List_simple_types<Raven_Bot *> > >::operator=
_TEXT	ENDS
; Function compile flags: /Odtp /RTCsu
;	COMDAT ??1?$_List_const_iterator@V?$_List_val@U?$_List_simple_types@PAVRaven_Bot@@@std@@@std@@@std@@QAE@XZ
_TEXT	SEGMENT
_this$ = -4						; size = 4
??1?$_List_const_iterator@V?$_List_val@U?$_List_simple_types@PAVRaven_Bot@@@std@@@std@@@std@@QAE@XZ PROC ; std::_List_const_iterator<std::_List_val<std::_List_simple_types<Raven_Bot *> > >::~_List_const_iterator<std::_List_val<std::_List_simple_types<Raven_Bot *> > >, COMDAT
; _this$ = ecx
	push	ebp
	mov	ebp, esp
	push	ecx
	mov	DWORD PTR [ebp-4], -858993460		; ccccccccH
	mov	DWORD PTR _this$[ebp], ecx
	mov	ecx, DWORD PTR _this$[ebp]
	call	??1?$_List_unchecked_const_iterator@V?$_List_val@U?$_List_simple_types@PAVRaven_Bot@@@std@@@std@@U_Iterator_base12@2@@std@@QAE@XZ
	add	esp, 4
	cmp	ebp, esp
	call	__RTC_CheckEsp
	mov	esp, ebp
	pop	ebp
	ret	0
??1?$_List_const_iterator@V?$_List_val@U?$_List_simple_types@PAVRaven_Bot@@@std@@@std@@@std@@QAE@XZ ENDP ; std::_List_const_iterator<std::_List_val<std::_List_simple_types<Raven_Bot *> > >::~_List_const_iterator<std::_List_val<std::_List_simple_types<Raven_Bot *> > >
_TEXT	ENDS
; Function compile flags: /Odtp /RTCsu
; File c:\program files (x86)\microsoft visual studio 14.0\vc\include\list
;	COMDAT ??9?$_List_const_iterator@V?$_List_val@U?$_List_simple_types@PAVRaven_Bot@@@std@@@std@@@std@@QBE_NABV01@@Z
_TEXT	SEGMENT
tv69 = -8						; size = 4
_this$ = -4						; size = 4
__Right$ = 8						; size = 4
??9?$_List_const_iterator@V?$_List_val@U?$_List_simple_types@PAVRaven_Bot@@@std@@@std@@@std@@QBE_NABV01@@Z PROC ; std::_List_const_iterator<std::_List_val<std::_List_simple_types<Raven_Bot *> > >::operator!=, COMDAT
; _this$ = ecx

; 305  : 		{	// test for iterator inequality

	push	ebp
	mov	ebp, esp
	sub	esp, 8
	mov	DWORD PTR [ebp-8], -858993460		; ccccccccH
	mov	DWORD PTR [ebp-4], -858993460		; ccccccccH
	mov	DWORD PTR _this$[ebp], ecx

; 306  : 		return (!(*this == _Right));

	mov	eax, DWORD PTR __Right$[ebp]
	push	eax
	mov	ecx, DWORD PTR _this$[ebp]
	call	??8?$_List_const_iterator@V?$_List_val@U?$_List_simple_types@PAVRaven_Bot@@@std@@@std@@@std@@QBE_NABV01@@Z ; std::_List_const_iterator<std::_List_val<std::_List_simple_types<Raven_Bot *> > >::operator==
	movzx	ecx, al
	test	ecx, ecx
	jne	SHORT $LN3@operator
	mov	DWORD PTR tv69[ebp], 1
	jmp	SHORT $LN4@operator
$LN3@operator:
	mov	DWORD PTR tv69[ebp], 0
$LN4@operator:
	mov	al, BYTE PTR tv69[ebp]

; 307  : 		}

	add	esp, 8
	cmp	ebp, esp
	call	__RTC_CheckEsp
	mov	esp, ebp
	pop	ebp
	ret	4
??9?$_List_const_iterator@V?$_List_val@U?$_List_simple_types@PAVRaven_Bot@@@std@@@std@@@std@@QBE_NABV01@@Z ENDP ; std::_List_const_iterator<std::_List_val<std::_List_simple_types<Raven_Bot *> > >::operator!=
_TEXT	ENDS
; Function compile flags: /Odtp /RTCsu
; File c:\program files (x86)\microsoft visual studio 14.0\vc\include\list
;	COMDAT ??8?$_List_const_iterator@V?$_List_val@U?$_List_simple_types@PAVRaven_Bot@@@std@@@std@@@std@@QBE_NABV01@@Z
_TEXT	SEGMENT
tv139 = -8						; size = 4
_this$ = -4						; size = 4
__Right$ = 8						; size = 4
??8?$_List_const_iterator@V?$_List_val@U?$_List_simple_types@PAVRaven_Bot@@@std@@@std@@@std@@QBE_NABV01@@Z PROC ; std::_List_const_iterator<std::_List_val<std::_List_simple_types<Raven_Bot *> > >::operator==, COMDAT
; _this$ = ecx

; 289  : 		{	// test for iterator equality

	push	ebp
	mov	ebp, esp
	sub	esp, 8
	push	esi
	mov	DWORD PTR [ebp-8], -858993460		; ccccccccH
	mov	DWORD PTR [ebp-4], -858993460		; ccccccccH
	mov	DWORD PTR _this$[ebp], ecx

; 290  :  #if _ITERATOR_DEBUG_LEVEL == 2
; 291  : 		if (this->_Getcont() != _Right._Getcont())

	mov	ecx, DWORD PTR _this$[ebp]
	call	?_Getcont@_Iterator_base12@std@@QBEPBU_Container_base12@2@XZ ; std::_Iterator_base12::_Getcont
	mov	esi, eax
	mov	ecx, DWORD PTR __Right$[ebp]
	call	?_Getcont@_Iterator_base12@std@@QBEPBU_Container_base12@2@XZ ; std::_Iterator_base12::_Getcont
	cmp	esi, eax
	je	SHORT $LN2@operator

; 292  : 			{	// report error
; 293  : 			_DEBUG_ERROR("list iterators incompatible");

	push	293					; 00000125H
	push	OFFSET ??_C@_1II@PHKIGFNF@?$AAC?$AA?3?$AA?2?$AAP?$AAr?$AAo?$AAg?$AAr?$AAa?$AAm?$AA?5?$AAF?$AAi?$AAl?$AAe?$AAs?$AA?5?$AA?$CI?$AAx?$AA8?$AA6?$AA?$CJ?$AA?2?$AAM?$AAi?$AAc?$AAr?$AAo?$AAs?$AAo?$AAf?$AAt@
	push	OFFSET ??_C@_1DI@MDELDGPI@?$AAl?$AAi?$AAs?$AAt?$AA?5?$AAi?$AAt?$AAe?$AAr?$AAa?$AAt?$AAo?$AAr?$AAs?$AA?5?$AAi?$AAn?$AAc?$AAo?$AAm?$AAp?$AAa?$AAt?$AAi?$AAb?$AAl?$AAe?$AA?$AA@
	call	?_Debug_message@std@@YAXPB_W0I@Z	; std::_Debug_message
	add	esp, 12					; 0000000cH

; 294  : 			_SCL_SECURE_INVALID_ARGUMENT;

	mov	eax, OFFSET ??_C@_0CI@FNPHFCCM@Standard?5C?$CL?$CL?5Libraries?5Invalid?5A@
	test	eax, eax
	je	SHORT $LN4@operator
	xor	ecx, ecx
	jne	SHORT $LN5@operator
$LN4@operator:
	push	OFFSET ??_C@_1FO@GJIHNDLM@?$AA?$CC?$AAS?$AAt?$AAa?$AAn?$AAd?$AAa?$AAr?$AAd?$AA?5?$AAC?$AA?$CL?$AA?$CL?$AA?5?$AAL?$AAi?$AAb?$AAr?$AAa?$AAr?$AAi?$AAe?$AAs?$AA?5?$AAI?$AAn?$AAv?$AAa?$AAl?$AAi?$AAd?$AA?5@
	push	OFFSET ??_C@_17CNPHIMPH@?$AA?$CF?$AAl?$AAs?$AA?$AA@
	push	0
	push	294					; 00000126H
	push	OFFSET ??_C@_1II@PHKIGFNF@?$AAC?$AA?3?$AA?2?$AAP?$AAr?$AAo?$AAg?$AAr?$AAa?$AAm?$AA?5?$AAF?$AAi?$AAl?$AAe?$AAs?$AA?5?$AA?$CI?$AAx?$AA8?$AA6?$AA?$CJ?$AA?2?$AAM?$AAi?$AAc?$AAr?$AAo?$AAs?$AAo?$AAf?$AAt@
	push	2
	call	__CrtDbgReportW
	add	esp, 24					; 00000018H
	cmp	eax, 1
	jne	SHORT $LN5@operator
	int	3
$LN5@operator:
	push	0
	push	294					; 00000126H
	push	OFFSET ??_C@_1II@PHKIGFNF@?$AAC?$AA?3?$AA?2?$AAP?$AAr?$AAo?$AAg?$AAr?$AAa?$AAm?$AA?5?$AAF?$AAi?$AAl?$AAe?$AAs?$AA?5?$AA?$CI?$AAx?$AA8?$AA6?$AA?$CJ?$AA?2?$AAM?$AAi?$AAc?$AAr?$AAo?$AAs?$AAo?$AAf?$AAt@
	push	OFFSET ??_C@_1OE@HJIALJKP@?$AAs?$AAt?$AAd?$AA?3?$AA?3?$AA_?$AAL?$AAi?$AAs?$AAt?$AA_?$AAc?$AAo?$AAn?$AAs?$AAt?$AA_?$AAi?$AAt?$AAe?$AAr?$AAa?$AAt?$AAo?$AAr?$AA?$DM?$AAc?$AAl?$AAa?$AAs?$AAs?$AA?5@
	push	OFFSET ??_C@_1CG@JNLFBNGN@?$AA?$CC?$AAi?$AAn?$AAv?$AAa?$AAl?$AAi?$AAd?$AA?5?$AAa?$AAr?$AAg?$AAu?$AAm?$AAe?$AAn?$AAt?$AA?$CC?$AA?$AA@
	call	__invalid_parameter
	add	esp, 20					; 00000014H
$LN2@operator:

; 295  : 			}
; 296  : 
; 297  :  #elif _ITERATOR_DEBUG_LEVEL == 1
; 298  : 		_SCL_SECURE_VALIDATE(this->_Getcont() == _Right._Getcont());
; 299  :  #endif /* _ITERATOR_DEBUG_LEVEL */
; 300  : 
; 301  : 		return (this->_Ptr == _Right._Ptr);

	mov	eax, DWORD PTR _this$[ebp]
	mov	ecx, DWORD PTR __Right$[ebp]
	mov	edx, DWORD PTR [eax+8]
	cmp	edx, DWORD PTR [ecx+8]
	jne	SHORT $LN6@operator
	mov	DWORD PTR tv139[ebp], 1
	jmp	SHORT $LN7@operator
$LN6@operator:
	mov	DWORD PTR tv139[ebp], 0
$LN7@operator:
	mov	al, BYTE PTR tv139[ebp]

; 302  : 		}

	pop	esi
	add	esp, 8
	cmp	ebp, esp
	call	__RTC_CheckEsp
	mov	esp, ebp
	pop	ebp
	ret	4
??8?$_List_const_iterator@V?$_List_val@U?$_List_simple_types@PAVRaven_Bot@@@std@@@std@@@std@@QBE_NABV01@@Z ENDP ; std::_List_const_iterator<std::_List_val<std::_List_simple_types<Raven_Bot *> > >::operator==
_TEXT	ENDS
; Function compile flags: /Odtp /RTCsu
; File c:\program files (x86)\microsoft visual studio 14.0\vc\include\list
;	COMDAT ??E?$_List_const_iterator@V?$_List_val@U?$_List_simple_types@PAVRaven_Bot@@@std@@@std@@@std@@QAEAAV01@XZ
_TEXT	SEGMENT
__Mycont$ = -8						; size = 4
_this$ = -4						; size = 4
??E?$_List_const_iterator@V?$_List_val@U?$_List_simple_types@PAVRaven_Bot@@@std@@@std@@@std@@QAEAAV01@XZ PROC ; std::_List_const_iterator<std::_List_val<std::_List_simple_types<Raven_Bot *> > >::operator++, COMDAT
; _this$ = ecx

; 226  : 		{	// preincrement

	push	ebp
	mov	ebp, esp
	sub	esp, 8
	mov	DWORD PTR [ebp-8], -858993460		; ccccccccH
	mov	DWORD PTR [ebp-4], -858993460		; ccccccccH
	mov	DWORD PTR _this$[ebp], ecx

; 227  :  #if _ITERATOR_DEBUG_LEVEL == 2
; 228  : 		const auto _Mycont = static_cast<const _Mylist *>(this->_Getcont());

	mov	ecx, DWORD PTR _this$[ebp]
	call	?_Getcont@_Iterator_base12@std@@QBEPBU_Container_base12@2@XZ ; std::_Iterator_base12::_Getcont
	mov	DWORD PTR __Mycont$[ebp], eax

; 229  : 		if (_Mycont == 0
; 230  : 			|| this->_Ptr == nullptr_t{}
; 231  : 			|| this->_Ptr == _Mycont->_Myhead)

	cmp	DWORD PTR __Mycont$[ebp], 0
	je	SHORT $LN3@operator
	mov	eax, DWORD PTR _this$[ebp]
	cmp	DWORD PTR [eax+8], 0
	je	SHORT $LN3@operator
	mov	ecx, DWORD PTR _this$[ebp]
	mov	edx, DWORD PTR __Mycont$[ebp]
	mov	eax, DWORD PTR [ecx+8]
	cmp	eax, DWORD PTR [edx+4]
	jne	SHORT $LN2@operator
$LN3@operator:

; 232  : 			{	// report error
; 233  : 			_DEBUG_ERROR("list iterator not incrementable");

	push	233					; 000000e9H
	push	OFFSET ??_C@_1II@PHKIGFNF@?$AAC?$AA?3?$AA?2?$AAP?$AAr?$AAo?$AAg?$AAr?$AAa?$AAm?$AA?5?$AAF?$AAi?$AAl?$AAe?$AAs?$AA?5?$AA?$CI?$AAx?$AA8?$AA6?$AA?$CJ?$AA?2?$AAM?$AAi?$AAc?$AAr?$AAo?$AAs?$AAo?$AAf?$AAt@
	push	OFFSET ??_C@_1EA@DOGAGKDH@?$AAl?$AAi?$AAs?$AAt?$AA?5?$AAi?$AAt?$AAe?$AAr?$AAa?$AAt?$AAo?$AAr?$AA?5?$AAn?$AAo?$AAt?$AA?5?$AAi?$AAn?$AAc?$AAr?$AAe?$AAm?$AAe?$AAn?$AAt?$AAa?$AAb?$AAl?$AAe?$AA?$AA@
	call	?_Debug_message@std@@YAXPB_W0I@Z	; std::_Debug_message
	add	esp, 12					; 0000000cH

; 234  : 			_SCL_SECURE_OUT_OF_RANGE;

	mov	ecx, OFFSET ??_C@_0CE@OFMIGAMM@Standard?5C?$CL?$CL?5Libraries?5Out?5of?5Ra@
	test	ecx, ecx
	je	SHORT $LN5@operator
	xor	edx, edx
	jne	SHORT $LN6@operator
$LN5@operator:
	push	OFFSET ??_C@_1FG@IBPIFFN@?$AA?$CC?$AAS?$AAt?$AAa?$AAn?$AAd?$AAa?$AAr?$AAd?$AA?5?$AAC?$AA?$CL?$AA?$CL?$AA?5?$AAL?$AAi?$AAb?$AAr?$AAa?$AAr?$AAi?$AAe?$AAs?$AA?5?$AAO?$AAu?$AAt?$AA?5?$AAo?$AAf?$AA?5?$AAR@
	push	OFFSET ??_C@_17CNPHIMPH@?$AA?$CF?$AAl?$AAs?$AA?$AA@
	push	0
	push	234					; 000000eaH
	push	OFFSET ??_C@_1II@PHKIGFNF@?$AAC?$AA?3?$AA?2?$AAP?$AAr?$AAo?$AAg?$AAr?$AAa?$AAm?$AA?5?$AAF?$AAi?$AAl?$AAe?$AAs?$AA?5?$AA?$CI?$AAx?$AA8?$AA6?$AA?$CJ?$AA?2?$AAM?$AAi?$AAc?$AAr?$AAo?$AAs?$AAo?$AAf?$AAt@
	push	2
	call	__CrtDbgReportW
	add	esp, 24					; 00000018H
	cmp	eax, 1
	jne	SHORT $LN6@operator
	int	3
$LN6@operator:
	push	0
	push	234					; 000000eaH
	push	OFFSET ??_C@_1II@PHKIGFNF@?$AAC?$AA?3?$AA?2?$AAP?$AAr?$AAo?$AAg?$AAr?$AAa?$AAm?$AA?5?$AAF?$AAi?$AAl?$AAe?$AAs?$AA?5?$AA?$CI?$AAx?$AA8?$AA6?$AA?$CJ?$AA?2?$AAM?$AAi?$AAc?$AAr?$AAo?$AAs?$AAo?$AAf?$AAt@
	push	OFFSET ??_C@_1OE@NJHNFAGK@?$AAs?$AAt?$AAd?$AA?3?$AA?3?$AA_?$AAL?$AAi?$AAs?$AAt?$AA_?$AAc?$AAo?$AAn?$AAs?$AAt?$AA_?$AAi?$AAt?$AAe?$AAr?$AAa?$AAt?$AAo?$AAr?$AA?$DM?$AAc?$AAl?$AAa?$AAs?$AAs?$AA?5@
	push	OFFSET ??_C@_1BO@MEPPHOO@?$AA?$CC?$AAo?$AAu?$AAt?$AA?5?$AAo?$AAf?$AA?5?$AAr?$AAa?$AAn?$AAg?$AAe?$AA?$CC?$AA?$AA@
	call	__invalid_parameter
	add	esp, 20					; 00000014H
$LN2@operator:

; 235  : 			}
; 236  : 
; 237  :  #elif _ITERATOR_DEBUG_LEVEL == 1
; 238  : 		_SCL_SECURE_VALIDATE(this->_Ptr != nullptr_t{});
; 239  : 		const auto _Mycont = static_cast<const _Mylist *>(this->_Getcont());
; 240  : 		_SCL_SECURE_VALIDATE(_Mycont != 0);
; 241  : 		_SCL_SECURE_VALIDATE_RANGE(this->_Ptr != _Mycont->_Myhead);
; 242  :  #endif /* _ITERATOR_DEBUG_LEVEL */
; 243  : 
; 244  : 		this->_Ptr = _Mylist::_Nextnode(this->_Ptr);

	mov	ecx, DWORD PTR _this$[ebp]
	mov	edx, DWORD PTR [ecx+8]
	push	edx
	call	?_Nextnode@?$_List_val@U?$_List_simple_types@PAVRaven_Bot@@@std@@@std@@SAAAPAU?$_List_node@PAVRaven_Bot@@PAX@2@PAU32@@Z ; std::_List_val<std::_List_simple_types<Raven_Bot *> >::_Nextnode
	add	esp, 4
	mov	ecx, DWORD PTR _this$[ebp]
	mov	edx, DWORD PTR [eax]
	mov	DWORD PTR [ecx+8], edx

; 245  : 		return (*this);

	mov	eax, DWORD PTR _this$[ebp]

; 246  : 		}

	add	esp, 8
	cmp	ebp, esp
	call	__RTC_CheckEsp
	mov	esp, ebp
	pop	ebp
	ret	0
??E?$_List_const_iterator@V?$_List_val@U?$_List_simple_types@PAVRaven_Bot@@@std@@@std@@@std@@QAEAAV01@XZ ENDP ; std::_List_const_iterator<std::_List_val<std::_List_simple_types<Raven_Bot *> > >::operator++
_TEXT	ENDS
; Function compile flags: /Odtp /RTCsu
; File c:\program files (x86)\microsoft visual studio 14.0\vc\include\list
;	COMDAT ??D?$_List_const_iterator@V?$_List_val@U?$_List_simple_types@PAVRaven_Bot@@@std@@@std@@@std@@QBEABQAVRaven_Bot@@XZ
_TEXT	SEGMENT
__Mycont$ = -8						; size = 4
_this$ = -4						; size = 4
??D?$_List_const_iterator@V?$_List_val@U?$_List_simple_types@PAVRaven_Bot@@@std@@@std@@@std@@QBEABQAVRaven_Bot@@XZ PROC ; std::_List_const_iterator<std::_List_val<std::_List_simple_types<Raven_Bot *> > >::operator*, COMDAT
; _this$ = ecx

; 204  : 		{	// return designated value

	push	ebp
	mov	ebp, esp
	sub	esp, 8
	mov	DWORD PTR [ebp-8], -858993460		; ccccccccH
	mov	DWORD PTR [ebp-4], -858993460		; ccccccccH
	mov	DWORD PTR _this$[ebp], ecx

; 205  :  #if _ITERATOR_DEBUG_LEVEL == 2
; 206  : 		const auto _Mycont = static_cast<const _Mylist *>(this->_Getcont());

	mov	ecx, DWORD PTR _this$[ebp]
	call	?_Getcont@_Iterator_base12@std@@QBEPBU_Container_base12@2@XZ ; std::_Iterator_base12::_Getcont
	mov	DWORD PTR __Mycont$[ebp], eax

; 207  : 		if (_Mycont == 0
; 208  : 			|| this->_Ptr == nullptr_t{}
; 209  : 			|| this->_Ptr == _Mycont->_Myhead)

	cmp	DWORD PTR __Mycont$[ebp], 0
	je	SHORT $LN3@operator
	mov	eax, DWORD PTR _this$[ebp]
	cmp	DWORD PTR [eax+8], 0
	je	SHORT $LN3@operator
	mov	ecx, DWORD PTR _this$[ebp]
	mov	edx, DWORD PTR __Mycont$[ebp]
	mov	eax, DWORD PTR [ecx+8]
	cmp	eax, DWORD PTR [edx+4]
	jne	SHORT $LN2@operator
$LN3@operator:

; 210  : 			{	// report error
; 211  : 			_DEBUG_ERROR("list iterator not dereferencable");

	push	211					; 000000d3H
	push	OFFSET ??_C@_1II@PHKIGFNF@?$AAC?$AA?3?$AA?2?$AAP?$AAr?$AAo?$AAg?$AAr?$AAa?$AAm?$AA?5?$AAF?$AAi?$AAl?$AAe?$AAs?$AA?5?$AA?$CI?$AAx?$AA8?$AA6?$AA?$CJ?$AA?2?$AAM?$AAi?$AAc?$AAr?$AAo?$AAs?$AAo?$AAf?$AAt@
	push	OFFSET ??_C@_1EC@HILJLMMC@?$AAl?$AAi?$AAs?$AAt?$AA?5?$AAi?$AAt?$AAe?$AAr?$AAa?$AAt?$AAo?$AAr?$AA?5?$AAn?$AAo?$AAt?$AA?5?$AAd?$AAe?$AAr?$AAe?$AAf?$AAe?$AAr?$AAe?$AAn?$AAc?$AAa?$AAb?$AAl?$AAe@
	call	?_Debug_message@std@@YAXPB_W0I@Z	; std::_Debug_message
	add	esp, 12					; 0000000cH

; 212  : 			_SCL_SECURE_OUT_OF_RANGE;

	mov	ecx, OFFSET ??_C@_0CE@OFMIGAMM@Standard?5C?$CL?$CL?5Libraries?5Out?5of?5Ra@
	test	ecx, ecx
	je	SHORT $LN5@operator
	xor	edx, edx
	jne	SHORT $LN6@operator
$LN5@operator:
	push	OFFSET ??_C@_1FG@IBPIFFN@?$AA?$CC?$AAS?$AAt?$AAa?$AAn?$AAd?$AAa?$AAr?$AAd?$AA?5?$AAC?$AA?$CL?$AA?$CL?$AA?5?$AAL?$AAi?$AAb?$AAr?$AAa?$AAr?$AAi?$AAe?$AAs?$AA?5?$AAO?$AAu?$AAt?$AA?5?$AAo?$AAf?$AA?5?$AAR@
	push	OFFSET ??_C@_17CNPHIMPH@?$AA?$CF?$AAl?$AAs?$AA?$AA@
	push	0
	push	212					; 000000d4H
	push	OFFSET ??_C@_1II@PHKIGFNF@?$AAC?$AA?3?$AA?2?$AAP?$AAr?$AAo?$AAg?$AAr?$AAa?$AAm?$AA?5?$AAF?$AAi?$AAl?$AAe?$AAs?$AA?5?$AA?$CI?$AAx?$AA8?$AA6?$AA?$CJ?$AA?2?$AAM?$AAi?$AAc?$AAr?$AAo?$AAs?$AAo?$AAf?$AAt@
	push	2
	call	__CrtDbgReportW
	add	esp, 24					; 00000018H
	cmp	eax, 1
	jne	SHORT $LN6@operator
	int	3
$LN6@operator:
	push	0
	push	212					; 000000d4H
	push	OFFSET ??_C@_1II@PHKIGFNF@?$AAC?$AA?3?$AA?2?$AAP?$AAr?$AAo?$AAg?$AAr?$AAa?$AAm?$AA?5?$AAF?$AAi?$AAl?$AAe?$AAs?$AA?5?$AA?$CI?$AAx?$AA8?$AA6?$AA?$CJ?$AA?2?$AAM?$AAi?$AAc?$AAr?$AAo?$AAs?$AAo?$AAf?$AAt@
	push	OFFSET ??_C@_1OC@BFEHCKCD@?$AAs?$AAt?$AAd?$AA?3?$AA?3?$AA_?$AAL?$AAi?$AAs?$AAt?$AA_?$AAc?$AAo?$AAn?$AAs?$AAt?$AA_?$AAi?$AAt?$AAe?$AAr?$AAa?$AAt?$AAo?$AAr?$AA?$DM?$AAc?$AAl?$AAa?$AAs?$AAs?$AA?5@
	push	OFFSET ??_C@_1BO@MEPPHOO@?$AA?$CC?$AAo?$AAu?$AAt?$AA?5?$AAo?$AAf?$AA?5?$AAr?$AAa?$AAn?$AAg?$AAe?$AA?$CC?$AA?$AA@
	call	__invalid_parameter
	add	esp, 20					; 00000014H
$LN2@operator:

; 213  : 			}
; 214  : 
; 215  :  #elif _ITERATOR_DEBUG_LEVEL == 1
; 216  : 		_SCL_SECURE_VALIDATE(this->_Ptr != nullptr_t{});
; 217  : 		const auto _Mycont = static_cast<const _Mylist *>(this->_Getcont());
; 218  : 		_SCL_SECURE_VALIDATE(_Mycont != 0);
; 219  : 		_SCL_SECURE_VALIDATE_RANGE(this->_Ptr != _Mycont->_Myhead);
; 220  :  #endif /* _ITERATOR_DEBUG_LEVEL */
; 221  : 
; 222  : 		return (_Mylist::_Myval(this->_Ptr));

	mov	ecx, DWORD PTR _this$[ebp]
	mov	edx, DWORD PTR [ecx+8]
	push	edx
	call	?_Myval@?$_List_val@U?$_List_simple_types@PAVRaven_Bot@@@std@@@std@@SAAAPAVRaven_Bot@@PAU?$_List_node@PAVRaven_Bot@@PAX@2@@Z ; std::_List_val<std::_List_simple_types<Raven_Bot *> >::_Myval
	add	esp, 4

; 223  : 		}

	add	esp, 8
	cmp	ebp, esp
	call	__RTC_CheckEsp
	mov	esp, ebp
	pop	ebp
	ret	0
??D?$_List_const_iterator@V?$_List_val@U?$_List_simple_types@PAVRaven_Bot@@@std@@@std@@@std@@QBEABQAVRaven_Bot@@XZ ENDP ; std::_List_const_iterator<std::_List_val<std::_List_simple_types<Raven_Bot *> > >::operator*
_TEXT	ENDS
; Function compile flags: /Odtp /RTCsu
; File c:\program files (x86)\microsoft visual studio 14.0\vc\include\list
;	COMDAT ??0?$_List_const_iterator@V?$_List_val@U?$_List_simple_types@PAVRaven_Bot@@@std@@@std@@@std@@QAE@PAU?$_List_node@PAVRaven_Bot@@PAX@1@PBV?$_List_val@U?$_List_simple_types@PAVRaven_Bot@@@std@@@1@@Z
_TEXT	SEGMENT
_this$ = -4						; size = 4
__Pnode$ = 8						; size = 4
__Plist$ = 12						; size = 4
??0?$_List_const_iterator@V?$_List_val@U?$_List_simple_types@PAVRaven_Bot@@@std@@@std@@@std@@QAE@PAU?$_List_node@PAVRaven_Bot@@PAX@1@PBV?$_List_val@U?$_List_simple_types@PAVRaven_Bot@@@std@@@1@@Z PROC ; std::_List_const_iterator<std::_List_val<std::_List_simple_types<Raven_Bot *> > >::_List_const_iterator<std::_List_val<std::_List_simple_types<Raven_Bot *> > >, COMDAT
; _this$ = ecx

; 187  : 		{	// construct with node pointer _Pnode

	push	ebp
	mov	ebp, esp
	push	ecx
	mov	DWORD PTR [ebp-4], -858993460		; ccccccccH
	mov	DWORD PTR _this$[ebp], ecx

; 186  : 		: _Mybase(_Pnode, _Plist)

	mov	eax, DWORD PTR __Plist$[ebp]
	push	eax
	mov	ecx, DWORD PTR __Pnode$[ebp]
	push	ecx
	mov	ecx, DWORD PTR _this$[ebp]
	call	??0?$_List_unchecked_const_iterator@V?$_List_val@U?$_List_simple_types@PAVRaven_Bot@@@std@@@std@@U_Iterator_base12@2@@std@@QAE@PAU?$_List_node@PAVRaven_Bot@@PAX@1@PBV?$_List_val@U?$_List_simple_types@PAVRaven_Bot@@@std@@@1@@Z ; std::_List_unchecked_const_iterator<std::_List_val<std::_List_simple_types<Raven_Bot *> >,std::_Iterator_base12>::_List_unchecked_const_iterator<std::_List_val<std::_List_simple_types<Raven_Bot *> >,std::_Iterator_base12>

; 188  : 		}

	mov	eax, DWORD PTR _this$[ebp]
	add	esp, 4
	cmp	ebp, esp
	call	__RTC_CheckEsp
	mov	esp, ebp
	pop	ebp
	ret	8
??0?$_List_const_iterator@V?$_List_val@U?$_List_simple_types@PAVRaven_Bot@@@std@@@std@@@std@@QAE@PAU?$_List_node@PAVRaven_Bot@@PAX@1@PBV?$_List_val@U?$_List_simple_types@PAVRaven_Bot@@@std@@@1@@Z ENDP ; std::_List_const_iterator<std::_List_val<std::_List_simple_types<Raven_Bot *> > >::_List_const_iterator<std::_List_val<std::_List_simple_types<Raven_Bot *> > >
_TEXT	ENDS
; Function compile flags: /Odtp /RTCsu
; File c:\program files (x86)\microsoft visual studio 14.0\vc\include\list
;	COMDAT ??0?$_List_const_iterator@V?$_List_val@U?$_List_simple_types@PAVRaven_Bot@@@std@@@std@@@std@@QAE@XZ
_TEXT	SEGMENT
_this$ = -4						; size = 4
??0?$_List_const_iterator@V?$_List_val@U?$_List_simple_types@PAVRaven_Bot@@@std@@@std@@@std@@QAE@XZ PROC ; std::_List_const_iterator<std::_List_val<std::_List_simple_types<Raven_Bot *> > >::_List_const_iterator<std::_List_val<std::_List_simple_types<Raven_Bot *> > >, COMDAT
; _this$ = ecx

; 182  : 		{	// construct with null node pointer

	push	ebp
	mov	ebp, esp
	push	ecx
	mov	DWORD PTR [ebp-4], -858993460		; ccccccccH
	mov	DWORD PTR _this$[ebp], ecx

; 181  : 		: _Mybase()

	mov	ecx, DWORD PTR _this$[ebp]
	call	??0?$_List_unchecked_const_iterator@V?$_List_val@U?$_List_simple_types@PAVRaven_Bot@@@std@@@std@@U_Iterator_base12@2@@std@@QAE@XZ ; std::_List_unchecked_const_iterator<std::_List_val<std::_List_simple_types<Raven_Bot *> >,std::_Iterator_base12>::_List_unchecked_const_iterator<std::_List_val<std::_List_simple_types<Raven_Bot *> >,std::_Iterator_base12>

; 183  : 		}

	mov	eax, DWORD PTR _this$[ebp]
	add	esp, 4
	cmp	ebp, esp
	call	__RTC_CheckEsp
	mov	esp, ebp
	pop	ebp
	ret	0
??0?$_List_const_iterator@V?$_List_val@U?$_List_simple_types@PAVRaven_Bot@@@std@@@std@@@std@@QAE@XZ ENDP ; std::_List_const_iterator<std::_List_val<std::_List_simple_types<Raven_Bot *> > >::_List_const_iterator<std::_List_val<std::_List_simple_types<Raven_Bot *> > >
_TEXT	ENDS
; Function compile flags: /Odtp /RTCsu
;	COMDAT ??4?$_List_unchecked_const_iterator@V?$_List_val@U?$_List_simple_types@PAVRaven_Bot@@@std@@@std@@U_Iterator_base12@2@@std@@QAEAAV01@$$QAV01@@Z
_TEXT	SEGMENT
_this$ = -4						; size = 4
___that$ = 8						; size = 4
??4?$_List_unchecked_const_iterator@V?$_List_val@U?$_List_simple_types@PAVRaven_Bot@@@std@@@std@@U_Iterator_base12@2@@std@@QAEAAV01@$$QAV01@@Z PROC ; std::_List_unchecked_const_iterator<std::_List_val<std::_List_simple_types<Raven_Bot *> >,std::_Iterator_base12>::operator=, COMDAT
; _this$ = ecx
	push	ebp
	mov	ebp, esp
	push	ecx
	mov	DWORD PTR [ebp-4], -858993460		; ccccccccH
	mov	DWORD PTR _this$[ebp], ecx
	mov	eax, DWORD PTR ___that$[ebp]
	push	eax
	mov	ecx, DWORD PTR _this$[ebp]
	call	??4?$_Iterator012@Ubidirectional_iterator_tag@std@@PAVRaven_Bot@@HPBQAV3@ABQAV3@U_Iterator_base12@2@@std@@QAEAAU01@$$QAU01@@Z
	mov	ecx, DWORD PTR _this$[ebp]
	mov	edx, DWORD PTR ___that$[ebp]
	mov	eax, DWORD PTR [edx+8]
	mov	DWORD PTR [ecx+8], eax
	mov	eax, DWORD PTR _this$[ebp]
	add	esp, 4
	cmp	ebp, esp
	call	__RTC_CheckEsp
	mov	esp, ebp
	pop	ebp
	ret	4
??4?$_List_unchecked_const_iterator@V?$_List_val@U?$_List_simple_types@PAVRaven_Bot@@@std@@@std@@U_Iterator_base12@2@@std@@QAEAAV01@$$QAV01@@Z ENDP ; std::_List_unchecked_const_iterator<std::_List_val<std::_List_simple_types<Raven_Bot *> >,std::_Iterator_base12>::operator=
_TEXT	ENDS
; Function compile flags: /Odtp /RTCsu
;	COMDAT ??1?$_List_unchecked_const_iterator@V?$_List_val@U?$_List_simple_types@PAVRaven_Bot@@@std@@@std@@U_Iterator_base12@2@@std@@QAE@XZ
_TEXT	SEGMENT
_this$ = -4						; size = 4
??1?$_List_unchecked_const_iterator@V?$_List_val@U?$_List_simple_types@PAVRaven_Bot@@@std@@@std@@U_Iterator_base12@2@@std@@QAE@XZ PROC ; std::_List_unchecked_const_iterator<std::_List_val<std::_List_simple_types<Raven_Bot *> >,std::_Iterator_base12>::~_List_unchecked_const_iterator<std::_List_val<std::_List_simple_types<Raven_Bot *> >,std::_Iterator_base12>, COMDAT
; _this$ = ecx
	push	ebp
	mov	ebp, esp
	push	ecx
	mov	DWORD PTR [ebp-4], -858993460		; ccccccccH
	mov	DWORD PTR _this$[ebp], ecx
	mov	ecx, DWORD PTR _this$[ebp]
	call	??1?$_Iterator012@Ubidirectional_iterator_tag@std@@PAVRaven_Bot@@HPBQAV3@ABQAV3@U_Iterator_base12@2@@std@@QAE@XZ
	add	esp, 4
	cmp	ebp, esp
	call	__RTC_CheckEsp
	mov	esp, ebp
	pop	ebp
	ret	0
??1?$_List_unchecked_const_iterator@V?$_List_val@U?$_List_simple_types@PAVRaven_Bot@@@std@@@std@@U_Iterator_base12@2@@std@@QAE@XZ ENDP ; std::_List_unchecked_const_iterator<std::_List_val<std::_List_simple_types<Raven_Bot *> >,std::_Iterator_base12>::~_List_unchecked_const_iterator<std::_List_val<std::_List_simple_types<Raven_Bot *> >,std::_Iterator_base12>
_TEXT	ENDS
; Function compile flags: /Odtp /RTCsu
; File c:\program files (x86)\microsoft visual studio 14.0\vc\include\list
;	COMDAT ??0?$_List_unchecked_const_iterator@V?$_List_val@U?$_List_simple_types@PAVRaven_Bot@@@std@@@std@@U_Iterator_base12@2@@std@@QAE@PAU?$_List_node@PAVRaven_Bot@@PAX@1@PBV?$_List_val@U?$_List_simple_types@PAVRaven_Bot@@@std@@@1@@Z
_TEXT	SEGMENT
_this$ = -16						; size = 4
__$EHRec$ = -12						; size = 12
__Pnode$ = 8						; size = 4
__Plist$ = 12						; size = 4
??0?$_List_unchecked_const_iterator@V?$_List_val@U?$_List_simple_types@PAVRaven_Bot@@@std@@@std@@U_Iterator_base12@2@@std@@QAE@PAU?$_List_node@PAVRaven_Bot@@PAX@1@PBV?$_List_val@U?$_List_simple_types@PAVRaven_Bot@@@std@@@1@@Z PROC ; std::_List_unchecked_const_iterator<std::_List_val<std::_List_simple_types<Raven_Bot *> >,std::_Iterator_base12>::_List_unchecked_const_iterator<std::_List_val<std::_List_simple_types<Raven_Bot *> >,std::_Iterator_base12>, COMDAT
; _this$ = ecx

; 44   : 		{	// construct with node pointer _Pnode

	push	ebp
	mov	ebp, esp
	push	-1
	push	__ehhandler$??0?$_List_unchecked_const_iterator@V?$_List_val@U?$_List_simple_types@PAVRaven_Bot@@@std@@@std@@U_Iterator_base12@2@@std@@QAE@PAU?$_List_node@PAVRaven_Bot@@PAX@1@PBV?$_List_val@U?$_List_simple_types@PAVRaven_Bot@@@std@@@1@@Z
	mov	eax, DWORD PTR fs:0
	push	eax
	push	ecx
	mov	DWORD PTR [ebp-16], -858993460		; ccccccccH
	mov	eax, DWORD PTR ___security_cookie
	xor	eax, ebp
	push	eax
	lea	eax, DWORD PTR __$EHRec$[ebp]
	mov	DWORD PTR fs:0, eax
	mov	DWORD PTR _this$[ebp], ecx
	mov	ecx, DWORD PTR _this$[ebp]
	call	??0?$_Iterator012@Ubidirectional_iterator_tag@std@@PAVRaven_Bot@@HPBQAV3@ABQAV3@U_Iterator_base12@2@@std@@QAE@XZ
	mov	DWORD PTR __$EHRec$[ebp+8], 0

; 43   : 		: _Ptr(_Pnode)

	mov	eax, DWORD PTR _this$[ebp]
	mov	ecx, DWORD PTR __Pnode$[ebp]
	mov	DWORD PTR [eax+8], ecx

; 45   : 		this->_Adopt(_Plist);

	mov	edx, DWORD PTR __Plist$[ebp]
	push	edx
	mov	ecx, DWORD PTR _this$[ebp]
	call	?_Adopt@_Iterator_base12@std@@QAEXPBU_Container_base12@2@@Z ; std::_Iterator_base12::_Adopt

; 46   : 		}

	mov	DWORD PTR __$EHRec$[ebp+8], -1
	mov	eax, DWORD PTR _this$[ebp]
	mov	ecx, DWORD PTR __$EHRec$[ebp]
	mov	DWORD PTR fs:0, ecx
	pop	ecx
	add	esp, 16					; 00000010H
	cmp	ebp, esp
	call	__RTC_CheckEsp
	mov	esp, ebp
	pop	ebp
	ret	8
_TEXT	ENDS
;	COMDAT text$x
text$x	SEGMENT
__unwindfunclet$??0?$_List_unchecked_const_iterator@V?$_List_val@U?$_List_simple_types@PAVRaven_Bot@@@std@@@std@@U_Iterator_base12@2@@std@@QAE@PAU?$_List_node@PAVRaven_Bot@@PAX@1@PBV?$_List_val@U?$_List_simple_types@PAVRaven_Bot@@@std@@@1@@Z$0:
	mov	ecx, DWORD PTR _this$[ebp]
	jmp	??1?$_Iterator012@Ubidirectional_iterator_tag@std@@PAVRaven_Bot@@HPBQAV3@ABQAV3@U_Iterator_base12@2@@std@@QAE@XZ
__ehhandler$??0?$_List_unchecked_const_iterator@V?$_List_val@U?$_List_simple_types@PAVRaven_Bot@@@std@@@std@@U_Iterator_base12@2@@std@@QAE@PAU?$_List_node@PAVRaven_Bot@@PAX@1@PBV?$_List_val@U?$_List_simple_types@PAVRaven_Bot@@@std@@@1@@Z:
	mov	edx, DWORD PTR [esp+8]
	lea	eax, DWORD PTR [edx+12]
	mov	ecx, DWORD PTR [edx-8]
	xor	ecx, eax
	call	@__security_check_cookie@4
	mov	eax, OFFSET __ehfuncinfo$??0?$_List_unchecked_const_iterator@V?$_List_val@U?$_List_simple_types@PAVRaven_Bot@@@std@@@std@@U_Iterator_base12@2@@std@@QAE@PAU?$_List_node@PAVRaven_Bot@@PAX@1@PBV?$_List_val@U?$_List_simple_types@PAVRaven_Bot@@@std@@@1@@Z
	jmp	___CxxFrameHandler3
text$x	ENDS
??0?$_List_unchecked_const_iterator@V?$_List_val@U?$_List_simple_types@PAVRaven_Bot@@@std@@@std@@U_Iterator_base12@2@@std@@QAE@PAU?$_List_node@PAVRaven_Bot@@PAX@1@PBV?$_List_val@U?$_List_simple_types@PAVRaven_Bot@@@std@@@1@@Z ENDP ; std::_List_unchecked_const_iterator<std::_List_val<std::_List_simple_types<Raven_Bot *> >,std::_Iterator_base12>::_List_unchecked_const_iterator<std::_List_val<std::_List_simple_types<Raven_Bot *> >,std::_Iterator_base12>
; Function compile flags: /Odtp /RTCsu
; File c:\program files (x86)\microsoft visual studio 14.0\vc\include\list
;	COMDAT ??0?$_List_unchecked_const_iterator@V?$_List_val@U?$_List_simple_types@PAVRaven_Bot@@@std@@@std@@U_Iterator_base12@2@@std@@QAE@XZ
_TEXT	SEGMENT
_this$ = -4						; size = 4
??0?$_List_unchecked_const_iterator@V?$_List_val@U?$_List_simple_types@PAVRaven_Bot@@@std@@@std@@U_Iterator_base12@2@@std@@QAE@XZ PROC ; std::_List_unchecked_const_iterator<std::_List_val<std::_List_simple_types<Raven_Bot *> >,std::_Iterator_base12>::_List_unchecked_const_iterator<std::_List_val<std::_List_simple_types<Raven_Bot *> >,std::_Iterator_base12>, COMDAT
; _this$ = ecx

; 39   : 		{	// construct with null node pointer

	push	ebp
	mov	ebp, esp
	push	ecx
	mov	DWORD PTR [ebp-4], -858993460		; ccccccccH
	mov	DWORD PTR _this$[ebp], ecx
	mov	ecx, DWORD PTR _this$[ebp]
	call	??0?$_Iterator012@Ubidirectional_iterator_tag@std@@PAVRaven_Bot@@HPBQAV3@ABQAV3@U_Iterator_base12@2@@std@@QAE@XZ

; 38   : 		: _Ptr()

	mov	eax, DWORD PTR _this$[ebp]
	mov	DWORD PTR [eax+8], 0

; 40   : 		}

	mov	eax, DWORD PTR _this$[ebp]
	add	esp, 4
	cmp	ebp, esp
	call	__RTC_CheckEsp
	mov	esp, ebp
	pop	ebp
	ret	0
??0?$_List_unchecked_const_iterator@V?$_List_val@U?$_List_simple_types@PAVRaven_Bot@@@std@@@std@@U_Iterator_base12@2@@std@@QAE@XZ ENDP ; std::_List_unchecked_const_iterator<std::_List_val<std::_List_simple_types<Raven_Bot *> >,std::_Iterator_base12>::_List_unchecked_const_iterator<std::_List_val<std::_List_simple_types<Raven_Bot *> >,std::_Iterator_base12>
_TEXT	ENDS
; Function compile flags: /Odtp /RTCsu
;	COMDAT ??4?$_Iterator012@Ubidirectional_iterator_tag@std@@PAVRaven_Bot@@HPBQAV3@ABQAV3@U_Iterator_base12@2@@std@@QAEAAU01@$$QAU01@@Z
_TEXT	SEGMENT
_this$ = -4						; size = 4
___that$ = 8						; size = 4
??4?$_Iterator012@Ubidirectional_iterator_tag@std@@PAVRaven_Bot@@HPBQAV3@ABQAV3@U_Iterator_base12@2@@std@@QAEAAU01@$$QAU01@@Z PROC ; std::_Iterator012<std::bidirectional_iterator_tag,Raven_Bot *,int,Raven_Bot * const *,Raven_Bot * const &,std::_Iterator_base12>::operator=, COMDAT
; _this$ = ecx
	push	ebp
	mov	ebp, esp
	push	ecx
	mov	DWORD PTR [ebp-4], -858993460		; ccccccccH
	mov	DWORD PTR _this$[ebp], ecx
	mov	eax, DWORD PTR ___that$[ebp]
	push	eax
	mov	ecx, DWORD PTR _this$[ebp]
	call	??4_Iterator_base12@std@@QAEAAU01@ABU01@@Z ; std::_Iterator_base12::operator=
	mov	eax, DWORD PTR _this$[ebp]
	add	esp, 4
	cmp	ebp, esp
	call	__RTC_CheckEsp
	mov	esp, ebp
	pop	ebp
	ret	4
??4?$_Iterator012@Ubidirectional_iterator_tag@std@@PAVRaven_Bot@@HPBQAV3@ABQAV3@U_Iterator_base12@2@@std@@QAEAAU01@$$QAU01@@Z ENDP ; std::_Iterator012<std::bidirectional_iterator_tag,Raven_Bot *,int,Raven_Bot * const *,Raven_Bot * const &,std::_Iterator_base12>::operator=
_TEXT	ENDS
; Function compile flags: /Odtp /RTCsu
;	COMDAT ??1?$_Iterator012@Ubidirectional_iterator_tag@std@@PAVRaven_Bot@@HPBQAV3@ABQAV3@U_Iterator_base12@2@@std@@QAE@XZ
_TEXT	SEGMENT
_this$ = -4						; size = 4
??1?$_Iterator012@Ubidirectional_iterator_tag@std@@PAVRaven_Bot@@HPBQAV3@ABQAV3@U_Iterator_base12@2@@std@@QAE@XZ PROC ; std::_Iterator012<std::bidirectional_iterator_tag,Raven_Bot *,int,Raven_Bot * const *,Raven_Bot * const &,std::_Iterator_base12>::~_Iterator012<std::bidirectional_iterator_tag,Raven_Bot *,int,Raven_Bot * const *,Raven_Bot * const &,std::_Iterator_base12>, COMDAT
; _this$ = ecx
	push	ebp
	mov	ebp, esp
	push	ecx
	mov	DWORD PTR [ebp-4], -858993460		; ccccccccH
	mov	DWORD PTR _this$[ebp], ecx
	mov	ecx, DWORD PTR _this$[ebp]
	call	??1_Iterator_base12@std@@QAE@XZ		; std::_Iterator_base12::~_Iterator_base12
	add	esp, 4
	cmp	ebp, esp
	call	__RTC_CheckEsp
	mov	esp, ebp
	pop	ebp
	ret	0
??1?$_Iterator012@Ubidirectional_iterator_tag@std@@PAVRaven_Bot@@HPBQAV3@ABQAV3@U_Iterator_base12@2@@std@@QAE@XZ ENDP ; std::_Iterator012<std::bidirectional_iterator_tag,Raven_Bot *,int,Raven_Bot * const *,Raven_Bot * const &,std::_Iterator_base12>::~_Iterator012<std::bidirectional_iterator_tag,Raven_Bot *,int,Raven_Bot * const *,Raven_Bot * const &,std::_Iterator_base12>
_TEXT	ENDS
; Function compile flags: /Odtp /RTCsu
;	COMDAT ??0?$_Iterator012@Ubidirectional_iterator_tag@std@@PAVRaven_Bot@@HPBQAV3@ABQAV3@U_Iterator_base12@2@@std@@QAE@XZ
_TEXT	SEGMENT
_this$ = -4						; size = 4
??0?$_Iterator012@Ubidirectional_iterator_tag@std@@PAVRaven_Bot@@HPBQAV3@ABQAV3@U_Iterator_base12@2@@std@@QAE@XZ PROC ; std::_Iterator012<std::bidirectional_iterator_tag,Raven_Bot *,int,Raven_Bot * const *,Raven_Bot * const &,std::_Iterator_base12>::_Iterator012<std::bidirectional_iterator_tag,Raven_Bot *,int,Raven_Bot * const *,Raven_Bot * const &,std::_Iterator_base12>, COMDAT
; _this$ = ecx
	push	ebp
	mov	ebp, esp
	push	ecx
	mov	DWORD PTR [ebp-4], -858993460		; ccccccccH
	mov	DWORD PTR _this$[ebp], ecx
	mov	ecx, DWORD PTR _this$[ebp]
	call	??0_Iterator_base12@std@@QAE@XZ		; std::_Iterator_base12::_Iterator_base12
	mov	eax, DWORD PTR _this$[ebp]
	add	esp, 4
	cmp	ebp, esp
	call	__RTC_CheckEsp
	mov	esp, ebp
	pop	ebp
	ret	0
??0?$_Iterator012@Ubidirectional_iterator_tag@std@@PAVRaven_Bot@@HPBQAV3@ABQAV3@U_Iterator_base12@2@@std@@QAE@XZ ENDP ; std::_Iterator012<std::bidirectional_iterator_tag,Raven_Bot *,int,Raven_Bot * const *,Raven_Bot * const &,std::_Iterator_base12>::_Iterator012<std::bidirectional_iterator_tag,Raven_Bot *,int,Raven_Bot * const *,Raven_Bot * const &,std::_Iterator_base12>
_TEXT	ENDS
; Function compile flags: /Odtp /RTCsu
; File e:\documents\cours\git\raven\raven\2d\wallintersectiontests.h
;	COMDAT ??$FindClosestPointOfIntersectionWithWalls@V?$vector@PAVWall2D@@V?$allocator@PAVWall2D@@@std@@@std@@@@YA_NUVector2D@@0AANAAU0@ABV?$vector@PAVWall2D@@V?$allocator@PAVWall2D@@@std@@@std@@@Z
_TEXT	SEGMENT
tv135 = -132						; size = 4
tv65 = -128						; size = 4
$T2 = -122						; size = 1
$T3 = -121						; size = 1
$T4 = -120						; size = 16
$T5 = -104						; size = 16
$T6 = -88						; size = 12
$T7 = -73						; size = 1
_point$8 = -68						; size = 16
_dist$9 = -44						; size = 8
_curWall$ = -28						; size = 12
__$EHRec$ = -12						; size = 12
_A$ = 8							; size = 16
_B$ = 24						; size = 16
_distance$ = 40						; size = 4
_ip$ = 44						; size = 4
_walls$ = 48						; size = 4
??$FindClosestPointOfIntersectionWithWalls@V?$vector@PAVWall2D@@V?$allocator@PAVWall2D@@@std@@@std@@@@YA_NUVector2D@@0AANAAU0@ABV?$vector@PAVWall2D@@V?$allocator@PAVWall2D@@@std@@@std@@@Z PROC ; FindClosestPointOfIntersectionWithWalls<std::vector<Wall2D *,std::allocator<Wall2D *> > >, COMDAT

; 94   : {

	push	ebp
	mov	ebp, esp
	push	-1
	push	__ehhandler$??$FindClosestPointOfIntersectionWithWalls@V?$vector@PAVWall2D@@V?$allocator@PAVWall2D@@@std@@@std@@@@YA_NUVector2D@@0AANAAU0@ABV?$vector@PAVWall2D@@V?$allocator@PAVWall2D@@@std@@@std@@@Z
	mov	eax, DWORD PTR fs:0
	push	eax
	sub	esp, 120				; 00000078H
	push	edi
	lea	edi, DWORD PTR [ebp-132]
	mov	ecx, 30					; 0000001eH
	mov	eax, -858993460				; ccccccccH
	rep stosd
	mov	eax, DWORD PTR ___security_cookie
	xor	eax, ebp
	push	eax
	lea	eax, DWORD PTR __$EHRec$[ebp]
	mov	DWORD PTR fs:0, eax

; 95   :   distance = MaxDouble;

	mov	eax, DWORD PTR _distance$[ebp]
	movsd	xmm0, QWORD PTR __real@7fefffffffffffff
	movsd	QWORD PTR [eax], xmm0

; 96   : 
; 97   :   ContWall::const_iterator curWall = walls.begin();

	lea	ecx, DWORD PTR _curWall$[ebp]
	push	ecx
	mov	ecx, DWORD PTR _walls$[ebp]
	call	?begin@?$vector@PAVWall2D@@V?$allocator@PAVWall2D@@@std@@@std@@QBE?AV?$_Vector_const_iterator@V?$_Vector_val@U?$_Simple_types@PAVWall2D@@@std@@@std@@@2@XZ ; std::vector<Wall2D *,std::allocator<Wall2D *> >::begin
	mov	DWORD PTR __$EHRec$[ebp+8], 0
	jmp	SHORT $LN4@FindCloses
$LN2@FindCloses:

; 98   :   for (curWall; curWall != walls.end(); ++curWall)

	lea	ecx, DWORD PTR _curWall$[ebp]
	call	??E?$_Vector_const_iterator@V?$_Vector_val@U?$_Simple_types@PAVWall2D@@@std@@@std@@@std@@QAEAAV01@XZ ; std::_Vector_const_iterator<std::_Vector_val<std::_Simple_types<Wall2D *> > >::operator++
$LN4@FindCloses:
	lea	edx, DWORD PTR $T6[ebp]
	push	edx
	mov	ecx, DWORD PTR _walls$[ebp]
	call	?end@?$vector@PAVWall2D@@V?$allocator@PAVWall2D@@@std@@@std@@QBE?AV?$_Vector_const_iterator@V?$_Vector_val@U?$_Simple_types@PAVWall2D@@@std@@@std@@@2@XZ ; std::vector<Wall2D *,std::allocator<Wall2D *> >::end
	mov	DWORD PTR tv65[ebp], eax
	mov	eax, DWORD PTR tv65[ebp]
	mov	DWORD PTR tv135[ebp], eax
	mov	BYTE PTR __$EHRec$[ebp+8], 1
	mov	ecx, DWORD PTR tv135[ebp]
	push	ecx
	lea	ecx, DWORD PTR _curWall$[ebp]
	call	??9?$_Vector_const_iterator@V?$_Vector_val@U?$_Simple_types@PAVWall2D@@@std@@@std@@@std@@QBE_NABV01@@Z ; std::_Vector_const_iterator<std::_Vector_val<std::_Simple_types<Wall2D *> > >::operator!=
	mov	BYTE PTR $T7[ebp], al
	mov	BYTE PTR __$EHRec$[ebp+8], 0
	lea	ecx, DWORD PTR $T6[ebp]
	call	??1?$_Vector_const_iterator@V?$_Vector_val@U?$_Simple_types@PAVWall2D@@@std@@@std@@@std@@QAE@XZ
	movzx	edx, BYTE PTR $T7[ebp]
	test	edx, edx
	je	$LN3@FindCloses

; 99   :   {
; 100  :     double dist = 0.0;

	xorps	xmm0, xmm0
	movsd	QWORD PTR _dist$9[ebp], xmm0

; 101  :     Vector2D point;

	lea	ecx, DWORD PTR _point$8[ebp]
	call	??0Vector2D@@QAE@XZ			; Vector2D::Vector2D

; 102  : 
; 103  :     if (LineIntersection2D(A, B, (*curWall)->From(), (*curWall)->To(), dist, point))

	lea	eax, DWORD PTR _point$8[ebp]
	push	eax
	lea	ecx, DWORD PTR _dist$9[ebp]
	push	ecx
	lea	edx, DWORD PTR $T5[ebp]
	push	edx
	lea	ecx, DWORD PTR _curWall$[ebp]
	call	??D?$_Vector_const_iterator@V?$_Vector_val@U?$_Simple_types@PAVWall2D@@@std@@@std@@@std@@QBEABQAVWall2D@@XZ ; std::_Vector_const_iterator<std::_Vector_val<std::_Simple_types<Wall2D *> > >::operator*
	mov	ecx, DWORD PTR [eax]
	call	?To@Wall2D@@QBE?AUVector2D@@XZ		; Wall2D::To
	sub	esp, 16					; 00000010H
	mov	ecx, esp
	mov	edx, DWORD PTR [eax]
	mov	DWORD PTR [ecx], edx
	mov	edx, DWORD PTR [eax+4]
	mov	DWORD PTR [ecx+4], edx
	mov	edx, DWORD PTR [eax+8]
	mov	DWORD PTR [ecx+8], edx
	mov	eax, DWORD PTR [eax+12]
	mov	DWORD PTR [ecx+12], eax
	lea	ecx, DWORD PTR $T4[ebp]
	push	ecx
	lea	ecx, DWORD PTR _curWall$[ebp]
	call	??D?$_Vector_const_iterator@V?$_Vector_val@U?$_Simple_types@PAVWall2D@@@std@@@std@@@std@@QBEABQAVWall2D@@XZ ; std::_Vector_const_iterator<std::_Vector_val<std::_Simple_types<Wall2D *> > >::operator*
	mov	ecx, DWORD PTR [eax]
	call	?From@Wall2D@@QBE?AUVector2D@@XZ	; Wall2D::From
	sub	esp, 16					; 00000010H
	mov	edx, esp
	mov	ecx, DWORD PTR [eax]
	mov	DWORD PTR [edx], ecx
	mov	ecx, DWORD PTR [eax+4]
	mov	DWORD PTR [edx+4], ecx
	mov	ecx, DWORD PTR [eax+8]
	mov	DWORD PTR [edx+8], ecx
	mov	eax, DWORD PTR [eax+12]
	mov	DWORD PTR [edx+12], eax
	sub	esp, 16					; 00000010H
	mov	ecx, esp
	mov	edx, DWORD PTR _B$[ebp]
	mov	DWORD PTR [ecx], edx
	mov	eax, DWORD PTR _B$[ebp+4]
	mov	DWORD PTR [ecx+4], eax
	mov	edx, DWORD PTR _B$[ebp+8]
	mov	DWORD PTR [ecx+8], edx
	mov	eax, DWORD PTR _B$[ebp+12]
	mov	DWORD PTR [ecx+12], eax
	sub	esp, 16					; 00000010H
	mov	ecx, esp
	mov	edx, DWORD PTR _A$[ebp]
	mov	DWORD PTR [ecx], edx
	mov	eax, DWORD PTR _A$[ebp+4]
	mov	DWORD PTR [ecx+4], eax
	mov	edx, DWORD PTR _A$[ebp+8]
	mov	DWORD PTR [ecx+8], edx
	mov	eax, DWORD PTR _A$[ebp+12]
	mov	DWORD PTR [ecx+12], eax
	call	?LineIntersection2D@@YA_NUVector2D@@000AANAAU1@@Z ; LineIntersection2D
	add	esp, 72					; 00000048H
	movzx	ecx, al
	test	ecx, ecx
	je	SHORT $LN6@FindCloses

; 104  :     {
; 105  :       if (dist < distance)

	mov	edx, DWORD PTR _distance$[ebp]
	movsd	xmm0, QWORD PTR [edx]
	comisd	xmm0, QWORD PTR _dist$9[ebp]
	jbe	SHORT $LN6@FindCloses

; 106  :       {
; 107  :         distance = dist;

	mov	eax, DWORD PTR _distance$[ebp]
	movsd	xmm0, QWORD PTR _dist$9[ebp]
	movsd	QWORD PTR [eax], xmm0

; 108  :         ip = point;

	mov	ecx, DWORD PTR _ip$[ebp]
	mov	edx, DWORD PTR _point$8[ebp]
	mov	DWORD PTR [ecx], edx
	mov	eax, DWORD PTR _point$8[ebp+4]
	mov	DWORD PTR [ecx+4], eax
	mov	edx, DWORD PTR _point$8[ebp+8]
	mov	DWORD PTR [ecx+8], edx
	mov	eax, DWORD PTR _point$8[ebp+12]
	mov	DWORD PTR [ecx+12], eax
$LN6@FindCloses:

; 109  :       }
; 110  :     }
; 111  :   }

	jmp	$LN2@FindCloses
$LN3@FindCloses:

; 112  : 
; 113  :   if (distance < MaxDouble) return true;

	mov	ecx, DWORD PTR _distance$[ebp]
	movsd	xmm0, QWORD PTR __real@7fefffffffffffff
	comisd	xmm0, QWORD PTR [ecx]
	jbe	SHORT $LN7@FindCloses
	mov	BYTE PTR $T3[ebp], 1
	mov	DWORD PTR __$EHRec$[ebp+8], -1
	lea	ecx, DWORD PTR _curWall$[ebp]
	call	??1?$_Vector_const_iterator@V?$_Vector_val@U?$_Simple_types@PAVWall2D@@@std@@@std@@@std@@QAE@XZ
	mov	al, BYTE PTR $T3[ebp]
	jmp	SHORT $LN1@FindCloses
$LN7@FindCloses:

; 114  : 
; 115  :   return false;

	mov	BYTE PTR $T2[ebp], 0
	mov	DWORD PTR __$EHRec$[ebp+8], -1
	lea	ecx, DWORD PTR _curWall$[ebp]
	call	??1?$_Vector_const_iterator@V?$_Vector_val@U?$_Simple_types@PAVWall2D@@@std@@@std@@@std@@QAE@XZ
	mov	al, BYTE PTR $T2[ebp]
$LN1@FindCloses:

; 116  : }

	push	edx
	mov	ecx, ebp
	push	eax
	lea	edx, DWORD PTR $LN16@FindCloses
	call	@_RTC_CheckStackVars@8
	pop	eax
	pop	edx
	mov	ecx, DWORD PTR __$EHRec$[ebp]
	mov	DWORD PTR fs:0, ecx
	pop	ecx
	pop	edi
	add	esp, 132				; 00000084H
	cmp	ebp, esp
	call	__RTC_CheckEsp
	mov	esp, ebp
	pop	ebp
	ret	0
	npad	1
$LN16@FindCloses:
	DD	3
	DD	$LN15@FindCloses
$LN15@FindCloses:
	DD	-28					; ffffffe4H
	DD	12					; 0000000cH
	DD	$LN11@FindCloses
	DD	-44					; ffffffd4H
	DD	8
	DD	$LN12@FindCloses
	DD	-68					; ffffffbcH
	DD	16					; 00000010H
	DD	$LN13@FindCloses
$LN13@FindCloses:
	DB	112					; 00000070H
	DB	111					; 0000006fH
	DB	105					; 00000069H
	DB	110					; 0000006eH
	DB	116					; 00000074H
	DB	0
$LN12@FindCloses:
	DB	100					; 00000064H
	DB	105					; 00000069H
	DB	115					; 00000073H
	DB	116					; 00000074H
	DB	0
$LN11@FindCloses:
	DB	99					; 00000063H
	DB	117					; 00000075H
	DB	114					; 00000072H
	DB	87					; 00000057H
	DB	97					; 00000061H
	DB	108					; 0000006cH
	DB	108					; 0000006cH
	DB	0
_TEXT	ENDS
;	COMDAT text$x
text$x	SEGMENT
__unwindfunclet$??$FindClosestPointOfIntersectionWithWalls@V?$vector@PAVWall2D@@V?$allocator@PAVWall2D@@@std@@@std@@@@YA_NUVector2D@@0AANAAU0@ABV?$vector@PAVWall2D@@V?$allocator@PAVWall2D@@@std@@@std@@@Z$0:
	lea	ecx, DWORD PTR _curWall$[ebp]
	jmp	??1?$_Vector_const_iterator@V?$_Vector_val@U?$_Simple_types@PAVWall2D@@@std@@@std@@@std@@QAE@XZ
__unwindfunclet$??$FindClosestPointOfIntersectionWithWalls@V?$vector@PAVWall2D@@V?$allocator@PAVWall2D@@@std@@@std@@@@YA_NUVector2D@@0AANAAU0@ABV?$vector@PAVWall2D@@V?$allocator@PAVWall2D@@@std@@@std@@@Z$1:
	lea	ecx, DWORD PTR $T6[ebp]
	jmp	??1?$_Vector_const_iterator@V?$_Vector_val@U?$_Simple_types@PAVWall2D@@@std@@@std@@@std@@QAE@XZ
__ehhandler$??$FindClosestPointOfIntersectionWithWalls@V?$vector@PAVWall2D@@V?$allocator@PAVWall2D@@@std@@@std@@@@YA_NUVector2D@@0AANAAU0@ABV?$vector@PAVWall2D@@V?$allocator@PAVWall2D@@@std@@@std@@@Z:
	mov	edx, DWORD PTR [esp+8]
	lea	eax, DWORD PTR [edx+12]
	mov	ecx, DWORD PTR [edx-128]
	xor	ecx, eax
	call	@__security_check_cookie@4
	mov	eax, OFFSET __ehfuncinfo$??$FindClosestPointOfIntersectionWithWalls@V?$vector@PAVWall2D@@V?$allocator@PAVWall2D@@@std@@@std@@@@YA_NUVector2D@@0AANAAU0@ABV?$vector@PAVWall2D@@V?$allocator@PAVWall2D@@@std@@@std@@@Z
	jmp	___CxxFrameHandler3
text$x	ENDS
??$FindClosestPointOfIntersectionWithWalls@V?$vector@PAVWall2D@@V?$allocator@PAVWall2D@@@std@@@std@@@@YA_NUVector2D@@0AANAAU0@ABV?$vector@PAVWall2D@@V?$allocator@PAVWall2D@@@std@@@std@@@Z ENDP ; FindClosestPointOfIntersectionWithWalls<std::vector<Wall2D *,std::allocator<Wall2D *> > >
; Function compile flags: /Odtp /RTCsu
; File e:\documents\cours\git\raven\raven\raven_map.h
;	COMDAT ?GetWalls@Raven_Map@@QBEABV?$vector@PAVWall2D@@V?$allocator@PAVWall2D@@@std@@@std@@XZ
_TEXT	SEGMENT
_this$ = -4						; size = 4
?GetWalls@Raven_Map@@QBEABV?$vector@PAVWall2D@@V?$allocator@PAVWall2D@@@std@@@std@@XZ PROC ; Raven_Map::GetWalls, COMDAT
; _this$ = ecx

; 115  :   const std::vector<Wall2D*>&        GetWalls()const{return m_Walls;}

	push	ebp
	mov	ebp, esp
	push	ecx
	mov	DWORD PTR [ebp-4], -858993460		; ccccccccH
	mov	DWORD PTR _this$[ebp], ecx
	mov	eax, DWORD PTR _this$[ebp]
	mov	esp, ebp
	pop	ebp
	ret	0
?GetWalls@Raven_Map@@QBEABV?$vector@PAVWall2D@@V?$allocator@PAVWall2D@@@std@@@std@@XZ ENDP ; Raven_Map::GetWalls
_TEXT	ENDS
; Function compile flags: /Odtp /RTCsu
; File c:\program files (x86)\microsoft visual studio 14.0\vc\include\vector
;	COMDAT ?end@?$vector@PAVWall2D@@V?$allocator@PAVWall2D@@@std@@@std@@QBE?AV?$_Vector_const_iterator@V?$_Vector_val@U?$_Simple_types@PAVWall2D@@@std@@@std@@@2@XZ
_TEXT	SEGMENT
_this$ = -16						; size = 4
__$EHRec$ = -12						; size = 12
___$ReturnUdt$ = 8					; size = 4
?end@?$vector@PAVWall2D@@V?$allocator@PAVWall2D@@@std@@@std@@QBE?AV?$_Vector_const_iterator@V?$_Vector_val@U?$_Simple_types@PAVWall2D@@@std@@@std@@@2@XZ PROC ; std::vector<Wall2D *,std::allocator<Wall2D *> >::end, COMDAT
; _this$ = ecx

; 1072 : 		{	// return iterator for end of nonmutable sequence

	push	ebp
	mov	ebp, esp
	push	-1
	push	__ehhandler$?end@?$vector@PAVWall2D@@V?$allocator@PAVWall2D@@@std@@@std@@QBE?AV?$_Vector_const_iterator@V?$_Vector_val@U?$_Simple_types@PAVWall2D@@@std@@@std@@@2@XZ
	mov	eax, DWORD PTR fs:0
	push	eax
	push	ecx
	mov	DWORD PTR [ebp-16], -858993460		; ccccccccH
	mov	eax, DWORD PTR ___security_cookie
	xor	eax, ebp
	push	eax
	lea	eax, DWORD PTR __$EHRec$[ebp]
	mov	DWORD PTR fs:0, eax
	mov	DWORD PTR _this$[ebp], ecx

; 1073 : 		return (const_iterator(this->_Mylast(), &this->_Get_data()));

	mov	ecx, DWORD PTR _this$[ebp]
	call	?_Get_data@?$_Vector_alloc@U?$_Vec_base_types@PAVWall2D@@V?$allocator@PAVWall2D@@@std@@@std@@@std@@QBEABV?$_Vector_val@U?$_Simple_types@PAVWall2D@@@std@@@2@XZ ; std::_Vector_alloc<std::_Vec_base_types<Wall2D *,std::allocator<Wall2D *> > >::_Get_data
	push	eax
	mov	ecx, DWORD PTR _this$[ebp]
	call	?_Mylast@?$_Vector_alloc@U?$_Vec_base_types@PAVWall2D@@V?$allocator@PAVWall2D@@@std@@@std@@@std@@QBEABQAPAVWall2D@@XZ ; std::_Vector_alloc<std::_Vec_base_types<Wall2D *,std::allocator<Wall2D *> > >::_Mylast
	mov	eax, DWORD PTR [eax]
	push	eax
	mov	ecx, DWORD PTR ___$ReturnUdt$[ebp]
	call	??0?$_Vector_const_iterator@V?$_Vector_val@U?$_Simple_types@PAVWall2D@@@std@@@std@@@std@@QAE@PAPAVWall2D@@PBU_Container_base12@1@@Z ; std::_Vector_const_iterator<std::_Vector_val<std::_Simple_types<Wall2D *> > >::_Vector_const_iterator<std::_Vector_val<std::_Simple_types<Wall2D *> > >
	mov	eax, DWORD PTR ___$ReturnUdt$[ebp]

; 1074 : 		}

	mov	ecx, DWORD PTR __$EHRec$[ebp]
	mov	DWORD PTR fs:0, ecx
	pop	ecx
	add	esp, 16					; 00000010H
	cmp	ebp, esp
	call	__RTC_CheckEsp
	mov	esp, ebp
	pop	ebp
	ret	4
_TEXT	ENDS
;	COMDAT text$x
text$x	SEGMENT
__ehhandler$?end@?$vector@PAVWall2D@@V?$allocator@PAVWall2D@@@std@@@std@@QBE?AV?$_Vector_const_iterator@V?$_Vector_val@U?$_Simple_types@PAVWall2D@@@std@@@std@@@2@XZ:
	mov	edx, DWORD PTR [esp+8]
	lea	eax, DWORD PTR [edx+12]
	mov	ecx, DWORD PTR [edx-8]
	xor	ecx, eax
	call	@__security_check_cookie@4
	mov	eax, OFFSET __ehfuncinfo$?end@?$vector@PAVWall2D@@V?$allocator@PAVWall2D@@@std@@@std@@QBE?AV?$_Vector_const_iterator@V?$_Vector_val@U?$_Simple_types@PAVWall2D@@@std@@@std@@@2@XZ
	jmp	___CxxFrameHandler3
text$x	ENDS
?end@?$vector@PAVWall2D@@V?$allocator@PAVWall2D@@@std@@@std@@QBE?AV?$_Vector_const_iterator@V?$_Vector_val@U?$_Simple_types@PAVWall2D@@@std@@@std@@@2@XZ ENDP ; std::vector<Wall2D *,std::allocator<Wall2D *> >::end
; Function compile flags: /Odtp /RTCsu
; File c:\program files (x86)\microsoft visual studio 14.0\vc\include\vector
;	COMDAT ?begin@?$vector@PAVWall2D@@V?$allocator@PAVWall2D@@@std@@@std@@QBE?AV?$_Vector_const_iterator@V?$_Vector_val@U?$_Simple_types@PAVWall2D@@@std@@@std@@@2@XZ
_TEXT	SEGMENT
_this$ = -16						; size = 4
__$EHRec$ = -12						; size = 12
___$ReturnUdt$ = 8					; size = 4
?begin@?$vector@PAVWall2D@@V?$allocator@PAVWall2D@@@std@@@std@@QBE?AV?$_Vector_const_iterator@V?$_Vector_val@U?$_Simple_types@PAVWall2D@@@std@@@std@@@2@XZ PROC ; std::vector<Wall2D *,std::allocator<Wall2D *> >::begin, COMDAT
; _this$ = ecx

; 1062 : 		{	// return iterator for beginning of nonmutable sequence

	push	ebp
	mov	ebp, esp
	push	-1
	push	__ehhandler$?begin@?$vector@PAVWall2D@@V?$allocator@PAVWall2D@@@std@@@std@@QBE?AV?$_Vector_const_iterator@V?$_Vector_val@U?$_Simple_types@PAVWall2D@@@std@@@std@@@2@XZ
	mov	eax, DWORD PTR fs:0
	push	eax
	push	ecx
	mov	DWORD PTR [ebp-16], -858993460		; ccccccccH
	mov	eax, DWORD PTR ___security_cookie
	xor	eax, ebp
	push	eax
	lea	eax, DWORD PTR __$EHRec$[ebp]
	mov	DWORD PTR fs:0, eax
	mov	DWORD PTR _this$[ebp], ecx

; 1063 : 		return (const_iterator(this->_Myfirst(), &this->_Get_data()));

	mov	ecx, DWORD PTR _this$[ebp]
	call	?_Get_data@?$_Vector_alloc@U?$_Vec_base_types@PAVWall2D@@V?$allocator@PAVWall2D@@@std@@@std@@@std@@QBEABV?$_Vector_val@U?$_Simple_types@PAVWall2D@@@std@@@2@XZ ; std::_Vector_alloc<std::_Vec_base_types<Wall2D *,std::allocator<Wall2D *> > >::_Get_data
	push	eax
	mov	ecx, DWORD PTR _this$[ebp]
	call	?_Myfirst@?$_Vector_alloc@U?$_Vec_base_types@PAVWall2D@@V?$allocator@PAVWall2D@@@std@@@std@@@std@@QBEABQAPAVWall2D@@XZ ; std::_Vector_alloc<std::_Vec_base_types<Wall2D *,std::allocator<Wall2D *> > >::_Myfirst
	mov	eax, DWORD PTR [eax]
	push	eax
	mov	ecx, DWORD PTR ___$ReturnUdt$[ebp]
	call	??0?$_Vector_const_iterator@V?$_Vector_val@U?$_Simple_types@PAVWall2D@@@std@@@std@@@std@@QAE@PAPAVWall2D@@PBU_Container_base12@1@@Z ; std::_Vector_const_iterator<std::_Vector_val<std::_Simple_types<Wall2D *> > >::_Vector_const_iterator<std::_Vector_val<std::_Simple_types<Wall2D *> > >
	mov	eax, DWORD PTR ___$ReturnUdt$[ebp]

; 1064 : 		}

	mov	ecx, DWORD PTR __$EHRec$[ebp]
	mov	DWORD PTR fs:0, ecx
	pop	ecx
	add	esp, 16					; 00000010H
	cmp	ebp, esp
	call	__RTC_CheckEsp
	mov	esp, ebp
	pop	ebp
	ret	4
_TEXT	ENDS
;	COMDAT text$x
text$x	SEGMENT
__ehhandler$?begin@?$vector@PAVWall2D@@V?$allocator@PAVWall2D@@@std@@@std@@QBE?AV?$_Vector_const_iterator@V?$_Vector_val@U?$_Simple_types@PAVWall2D@@@std@@@std@@@2@XZ:
	mov	edx, DWORD PTR [esp+8]
	lea	eax, DWORD PTR [edx+12]
	mov	ecx, DWORD PTR [edx-8]
	xor	ecx, eax
	call	@__security_check_cookie@4
	mov	eax, OFFSET __ehfuncinfo$?begin@?$vector@PAVWall2D@@V?$allocator@PAVWall2D@@@std@@@std@@QBE?AV?$_Vector_const_iterator@V?$_Vector_val@U?$_Simple_types@PAVWall2D@@@std@@@std@@@2@XZ
	jmp	___CxxFrameHandler3
text$x	ENDS
?begin@?$vector@PAVWall2D@@V?$allocator@PAVWall2D@@@std@@@std@@QBE?AV?$_Vector_const_iterator@V?$_Vector_val@U?$_Simple_types@PAVWall2D@@@std@@@std@@@2@XZ ENDP ; std::vector<Wall2D *,std::allocator<Wall2D *> >::begin
; Function compile flags: /Odtp /RTCsu
; File c:\program files (x86)\microsoft visual studio 14.0\vc\include\xutility
;	COMDAT ?_Get_second@?$_Compressed_pair@U?$_Wrap_alloc@V?$allocator@PAVWall2D@@@std@@@std@@V?$_Vector_val@U?$_Simple_types@PAVWall2D@@@std@@@2@$00@std@@QBEABV?$_Vector_val@U?$_Simple_types@PAVWall2D@@@std@@@2@XZ
_TEXT	SEGMENT
_this$ = -4						; size = 4
?_Get_second@?$_Compressed_pair@U?$_Wrap_alloc@V?$allocator@PAVWall2D@@@std@@@std@@V?$_Vector_val@U?$_Simple_types@PAVWall2D@@@std@@@2@$00@std@@QBEABV?$_Vector_val@U?$_Simple_types@PAVWall2D@@@std@@@2@XZ PROC ; std::_Compressed_pair<std::_Wrap_alloc<std::allocator<Wall2D *> >,std::_Vector_val<std::_Simple_types<Wall2D *> >,1>::_Get_second, COMDAT
; _this$ = ecx

; 319  : 		{	// return const reference to second

	push	ebp
	mov	ebp, esp
	push	ecx
	mov	DWORD PTR [ebp-4], -858993460		; ccccccccH
	mov	DWORD PTR _this$[ebp], ecx

; 320  : 		return (_Myval2);

	mov	eax, DWORD PTR _this$[ebp]

; 321  : 		}

	mov	esp, ebp
	pop	ebp
	ret	0
?_Get_second@?$_Compressed_pair@U?$_Wrap_alloc@V?$allocator@PAVWall2D@@@std@@@std@@V?$_Vector_val@U?$_Simple_types@PAVWall2D@@@std@@@2@$00@std@@QBEABV?$_Vector_val@U?$_Simple_types@PAVWall2D@@@std@@@2@XZ ENDP ; std::_Compressed_pair<std::_Wrap_alloc<std::allocator<Wall2D *> >,std::_Vector_val<std::_Simple_types<Wall2D *> >,1>::_Get_second
_TEXT	ENDS
; Function compile flags: /Odtp /RTCsu
; File c:\program files (x86)\microsoft visual studio 14.0\vc\include\vector
;	COMDAT ?_Mylast@?$_Vector_alloc@U?$_Vec_base_types@PAVWall2D@@V?$allocator@PAVWall2D@@@std@@@std@@@std@@QBEABQAPAVWall2D@@XZ
_TEXT	SEGMENT
_this$ = -4						; size = 4
?_Mylast@?$_Vector_alloc@U?$_Vec_base_types@PAVWall2D@@V?$allocator@PAVWall2D@@@std@@@std@@@std@@QBEABQAPAVWall2D@@XZ PROC ; std::_Vector_alloc<std::_Vec_base_types<Wall2D *,std::allocator<Wall2D *> > >::_Mylast, COMDAT
; _this$ = ecx

; 657  : 		{	// return const reference to _Mylast

	push	ebp
	mov	ebp, esp
	push	ecx
	mov	DWORD PTR [ebp-4], -858993460		; ccccccccH
	mov	DWORD PTR _this$[ebp], ecx

; 658  : 		return (_Get_data()._Mylast);

	mov	ecx, DWORD PTR _this$[ebp]
	call	?_Get_data@?$_Vector_alloc@U?$_Vec_base_types@PAVWall2D@@V?$allocator@PAVWall2D@@@std@@@std@@@std@@QBEABV?$_Vector_val@U?$_Simple_types@PAVWall2D@@@std@@@2@XZ ; std::_Vector_alloc<std::_Vec_base_types<Wall2D *,std::allocator<Wall2D *> > >::_Get_data
	add	eax, 8

; 659  : 		}

	add	esp, 4
	cmp	ebp, esp
	call	__RTC_CheckEsp
	mov	esp, ebp
	pop	ebp
	ret	0
?_Mylast@?$_Vector_alloc@U?$_Vec_base_types@PAVWall2D@@V?$allocator@PAVWall2D@@@std@@@std@@@std@@QBEABQAPAVWall2D@@XZ ENDP ; std::_Vector_alloc<std::_Vec_base_types<Wall2D *,std::allocator<Wall2D *> > >::_Mylast
_TEXT	ENDS
; Function compile flags: /Odtp /RTCsu
; File c:\program files (x86)\microsoft visual studio 14.0\vc\include\vector
;	COMDAT ?_Myfirst@?$_Vector_alloc@U?$_Vec_base_types@PAVWall2D@@V?$allocator@PAVWall2D@@@std@@@std@@@std@@QBEABQAPAVWall2D@@XZ
_TEXT	SEGMENT
_this$ = -4						; size = 4
?_Myfirst@?$_Vector_alloc@U?$_Vec_base_types@PAVWall2D@@V?$allocator@PAVWall2D@@@std@@@std@@@std@@QBEABQAPAVWall2D@@XZ PROC ; std::_Vector_alloc<std::_Vec_base_types<Wall2D *,std::allocator<Wall2D *> > >::_Myfirst, COMDAT
; _this$ = ecx

; 647  : 		{	// return const reference to _Myfirst

	push	ebp
	mov	ebp, esp
	push	ecx
	mov	DWORD PTR [ebp-4], -858993460		; ccccccccH
	mov	DWORD PTR _this$[ebp], ecx

; 648  : 		return (_Get_data()._Myfirst);

	mov	ecx, DWORD PTR _this$[ebp]
	call	?_Get_data@?$_Vector_alloc@U?$_Vec_base_types@PAVWall2D@@V?$allocator@PAVWall2D@@@std@@@std@@@std@@QBEABV?$_Vector_val@U?$_Simple_types@PAVWall2D@@@std@@@2@XZ ; std::_Vector_alloc<std::_Vec_base_types<Wall2D *,std::allocator<Wall2D *> > >::_Get_data
	add	eax, 4

; 649  : 		}

	add	esp, 4
	cmp	ebp, esp
	call	__RTC_CheckEsp
	mov	esp, ebp
	pop	ebp
	ret	0
?_Myfirst@?$_Vector_alloc@U?$_Vec_base_types@PAVWall2D@@V?$allocator@PAVWall2D@@@std@@@std@@@std@@QBEABQAPAVWall2D@@XZ ENDP ; std::_Vector_alloc<std::_Vec_base_types<Wall2D *,std::allocator<Wall2D *> > >::_Myfirst
_TEXT	ENDS
; Function compile flags: /Odtp /RTCsu
; File c:\program files (x86)\microsoft visual studio 14.0\vc\include\vector
;	COMDAT ?_Get_data@?$_Vector_alloc@U?$_Vec_base_types@PAVWall2D@@V?$allocator@PAVWall2D@@@std@@@std@@@std@@QBEABV?$_Vector_val@U?$_Simple_types@PAVWall2D@@@std@@@2@XZ
_TEXT	SEGMENT
_this$ = -4						; size = 4
?_Get_data@?$_Vector_alloc@U?$_Vec_base_types@PAVWall2D@@V?$allocator@PAVWall2D@@@std@@@std@@@std@@QBEABV?$_Vector_val@U?$_Simple_types@PAVWall2D@@@std@@@2@XZ PROC ; std::_Vector_alloc<std::_Vec_base_types<Wall2D *,std::allocator<Wall2D *> > >::_Get_data, COMDAT
; _this$ = ecx

; 637  : 		{	// return const reference to _Vector_val

	push	ebp
	mov	ebp, esp
	push	ecx
	mov	DWORD PTR [ebp-4], -858993460		; ccccccccH
	mov	DWORD PTR _this$[ebp], ecx

; 638  : 		return (_Mypair._Get_second());

	mov	ecx, DWORD PTR _this$[ebp]
	call	?_Get_second@?$_Compressed_pair@U?$_Wrap_alloc@V?$allocator@PAVWall2D@@@std@@@std@@V?$_Vector_val@U?$_Simple_types@PAVWall2D@@@std@@@2@$00@std@@QBEABV?$_Vector_val@U?$_Simple_types@PAVWall2D@@@std@@@2@XZ ; std::_Compressed_pair<std::_Wrap_alloc<std::allocator<Wall2D *> >,std::_Vector_val<std::_Simple_types<Wall2D *> >,1>::_Get_second

; 639  : 		}

	add	esp, 4
	cmp	ebp, esp
	call	__RTC_CheckEsp
	mov	esp, ebp
	pop	ebp
	ret	0
?_Get_data@?$_Vector_alloc@U?$_Vec_base_types@PAVWall2D@@V?$allocator@PAVWall2D@@@std@@@std@@@std@@QBEABV?$_Vector_val@U?$_Simple_types@PAVWall2D@@@std@@@2@XZ ENDP ; std::_Vector_alloc<std::_Vec_base_types<Wall2D *,std::allocator<Wall2D *> > >::_Get_data
_TEXT	ENDS
; Function compile flags: /Odtp /RTCsu
; File e:\documents\cours\git\raven\raven\raven_game.h
;	COMDAT ?GetMap@Raven_Game@@QAEQAVRaven_Map@@XZ
_TEXT	SEGMENT
_this$ = -4						; size = 4
?GetMap@Raven_Game@@QAEQAVRaven_Map@@XZ PROC		; Raven_Game::GetMap, COMDAT
; _this$ = ecx

; 158  :   Raven_Map* const                         GetMap(){return m_pMap;}

	push	ebp
	mov	ebp, esp
	push	ecx
	mov	DWORD PTR [ebp-4], -858993460		; ccccccccH
	mov	DWORD PTR _this$[ebp], ecx
	mov	eax, DWORD PTR _this$[ebp]
	mov	eax, DWORD PTR [eax]
	mov	esp, ebp
	pop	ebp
	ret	0
?GetMap@Raven_Game@@QAEQAVRaven_Map@@XZ ENDP		; Raven_Game::GetMap
_TEXT	ENDS
; Function compile flags: /Odtp /RTCsu
; File c:\program files (x86)\microsoft visual studio 14.0\vc\include\list
;	COMDAT ?_Orphan_ptr@?$list@PAVRaven_Bot@@V?$allocator@PAVRaven_Bot@@@std@@@std@@QAEXPAU?$_List_node@PAVRaven_Bot@@PAX@2@@Z
_TEXT	SEGMENT
__Pnext$ = -32						; size = 4
__Lock$ = -24						; size = 4
_this$ = -16						; size = 4
__$EHRec$ = -12						; size = 12
__Ptr$ = 8						; size = 4
?_Orphan_ptr@?$list@PAVRaven_Bot@@V?$allocator@PAVRaven_Bot@@@std@@@std@@QAEXPAU?$_List_node@PAVRaven_Bot@@PAX@2@@Z PROC ; std::list<Raven_Bot *,std::allocator<Raven_Bot *> >::_Orphan_ptr, COMDAT
; _this$ = ecx

; 1914 : 		{	// orphan iterators with specified node pointers

	push	ebp
	mov	ebp, esp
	push	-1
	push	__ehhandler$?_Orphan_ptr@?$list@PAVRaven_Bot@@V?$allocator@PAVRaven_Bot@@@std@@@std@@QAEXPAU?$_List_node@PAVRaven_Bot@@PAX@2@@Z
	mov	eax, DWORD PTR fs:0
	push	eax
	sub	esp, 20					; 00000014H
	push	esi
	mov	eax, -858993460				; ccccccccH
	mov	DWORD PTR [ebp-32], eax
	mov	DWORD PTR [ebp-28], eax
	mov	DWORD PTR [ebp-24], eax
	mov	DWORD PTR [ebp-20], eax
	mov	DWORD PTR [ebp-16], eax
	mov	eax, DWORD PTR ___security_cookie
	xor	eax, ebp
	push	eax
	lea	eax, DWORD PTR __$EHRec$[ebp]
	mov	DWORD PTR fs:0, eax
	mov	DWORD PTR _this$[ebp], ecx

; 1915 : 		_Lockit _Lock(_LOCK_DEBUG);

	push	3
	lea	ecx, DWORD PTR __Lock$[ebp]
	call	??0_Lockit@std@@QAE@H@Z			; std::_Lockit::_Lockit
	mov	DWORD PTR __$EHRec$[ebp+8], 0

; 1916 : 		const_iterator **_Pnext = (const_iterator **)this->_Getpfirst();

	mov	ecx, DWORD PTR _this$[ebp]
	call	?_Getpfirst@?$_List_alloc@U?$_List_base_types@PAVRaven_Bot@@V?$allocator@PAVRaven_Bot@@@std@@@std@@@std@@QBEPAPAU_Iterator_base12@2@XZ ; std::_List_alloc<std::_List_base_types<Raven_Bot *,std::allocator<Raven_Bot *> > >::_Getpfirst
	mov	DWORD PTR __Pnext$[ebp], eax

; 1917 : 		if (_Pnext != 0)

	cmp	DWORD PTR __Pnext$[ebp], 0
	je	SHORT $LN4@Orphan_ptr
$LN2@Orphan_ptr:

; 1918 : 			while (*_Pnext != 0)

	mov	eax, DWORD PTR __Pnext$[ebp]
	cmp	DWORD PTR [eax], 0
	je	SHORT $LN4@Orphan_ptr

; 1919 : 				{	// test an iterator
; 1920 : 				if ((*_Pnext)->_Ptr == this->_Myhead()
; 1921 : 					|| (_Ptr != nullptr_t{} && (*_Pnext)->_Ptr != _Ptr))

	mov	ecx, DWORD PTR __Pnext$[ebp]
	mov	esi, DWORD PTR [ecx]
	mov	ecx, DWORD PTR _this$[ebp]
	call	?_Myhead@?$_List_alloc@U?$_List_base_types@PAVRaven_Bot@@V?$allocator@PAVRaven_Bot@@@std@@@std@@@std@@QAEAAPAU?$_List_node@PAVRaven_Bot@@PAX@2@XZ ; std::_List_alloc<std::_List_base_types<Raven_Bot *,std::allocator<Raven_Bot *> > >::_Myhead
	mov	edx, DWORD PTR [esi+8]
	cmp	edx, DWORD PTR [eax]
	je	SHORT $LN7@Orphan_ptr
	cmp	DWORD PTR __Ptr$[ebp], 0
	je	SHORT $LN5@Orphan_ptr
	mov	eax, DWORD PTR __Pnext$[ebp]
	mov	ecx, DWORD PTR [eax]
	mov	edx, DWORD PTR [ecx+8]
	cmp	edx, DWORD PTR __Ptr$[ebp]
	je	SHORT $LN5@Orphan_ptr
$LN7@Orphan_ptr:

; 1922 : 					_Pnext = (const_iterator **)(*_Pnext)->_Getpnext();

	mov	eax, DWORD PTR __Pnext$[ebp]
	mov	ecx, DWORD PTR [eax]
	call	?_Getpnext@_Iterator_base12@std@@QAEPAPAU12@XZ ; std::_Iterator_base12::_Getpnext
	mov	DWORD PTR __Pnext$[ebp], eax

; 1923 : 				else

	jmp	SHORT $LN6@Orphan_ptr
$LN5@Orphan_ptr:

; 1924 : 					{	// orphan the iterator
; 1925 : 					(*_Pnext)->_Clrcont();

	mov	ecx, DWORD PTR __Pnext$[ebp]
	mov	ecx, DWORD PTR [ecx]
	call	?_Clrcont@_Iterator_base12@std@@QAEXXZ	; std::_Iterator_base12::_Clrcont

; 1926 : 					*_Pnext = *(const_iterator **)(*_Pnext)->_Getpnext();

	mov	edx, DWORD PTR __Pnext$[ebp]
	mov	ecx, DWORD PTR [edx]
	call	?_Getpnext@_Iterator_base12@std@@QAEPAPAU12@XZ ; std::_Iterator_base12::_Getpnext
	mov	ecx, DWORD PTR __Pnext$[ebp]
	mov	edx, DWORD PTR [eax]
	mov	DWORD PTR [ecx], edx
$LN6@Orphan_ptr:

; 1927 : 					}
; 1928 : 				}

	jmp	SHORT $LN2@Orphan_ptr
$LN4@Orphan_ptr:

; 1929 : 		}

	mov	DWORD PTR __$EHRec$[ebp+8], -1
	lea	ecx, DWORD PTR __Lock$[ebp]
	call	??1_Lockit@std@@QAE@XZ			; std::_Lockit::~_Lockit
	push	edx
	mov	ecx, ebp
	push	eax
	lea	edx, DWORD PTR $LN13@Orphan_ptr
	call	@_RTC_CheckStackVars@8
	pop	eax
	pop	edx
	mov	ecx, DWORD PTR __$EHRec$[ebp]
	mov	DWORD PTR fs:0, ecx
	pop	ecx
	pop	esi
	add	esp, 32					; 00000020H
	cmp	ebp, esp
	call	__RTC_CheckEsp
	mov	esp, ebp
	pop	ebp
	ret	4
	npad	2
$LN13@Orphan_ptr:
	DD	1
	DD	$LN12@Orphan_ptr
$LN12@Orphan_ptr:
	DD	-24					; ffffffe8H
	DD	4
	DD	$LN10@Orphan_ptr
$LN10@Orphan_ptr:
	DB	95					; 0000005fH
	DB	76					; 0000004cH
	DB	111					; 0000006fH
	DB	99					; 00000063H
	DB	107					; 0000006bH
	DB	0
_TEXT	ENDS
;	COMDAT text$x
text$x	SEGMENT
__unwindfunclet$?_Orphan_ptr@?$list@PAVRaven_Bot@@V?$allocator@PAVRaven_Bot@@@std@@@std@@QAEXPAU?$_List_node@PAVRaven_Bot@@PAX@2@@Z$0:
	lea	ecx, DWORD PTR __Lock$[ebp]
	jmp	??1_Lockit@std@@QAE@XZ			; std::_Lockit::~_Lockit
__ehhandler$?_Orphan_ptr@?$list@PAVRaven_Bot@@V?$allocator@PAVRaven_Bot@@@std@@@std@@QAEXPAU?$_List_node@PAVRaven_Bot@@PAX@2@@Z:
	mov	edx, DWORD PTR [esp+8]
	lea	eax, DWORD PTR [edx+12]
	mov	ecx, DWORD PTR [edx-28]
	xor	ecx, eax
	call	@__security_check_cookie@4
	mov	eax, OFFSET __ehfuncinfo$?_Orphan_ptr@?$list@PAVRaven_Bot@@V?$allocator@PAVRaven_Bot@@@std@@@std@@QAEXPAU?$_List_node@PAVRaven_Bot@@PAX@2@@Z
	jmp	___CxxFrameHandler3
text$x	ENDS
?_Orphan_ptr@?$list@PAVRaven_Bot@@V?$allocator@PAVRaven_Bot@@@std@@@std@@QAEXPAU?$_List_node@PAVRaven_Bot@@PAX@2@@Z ENDP ; std::list<Raven_Bot *,std::allocator<Raven_Bot *> >::_Orphan_ptr
; Function compile flags: /Odtp /RTCsu
; File c:\program files (x86)\microsoft visual studio 14.0\vc\include\list
;	COMDAT ?_Tidy@?$list@PAVRaven_Bot@@V?$allocator@PAVRaven_Bot@@@std@@@std@@QAEXXZ
_TEXT	SEGMENT
_this$ = -4						; size = 4
?_Tidy@?$list@PAVRaven_Bot@@V?$allocator@PAVRaven_Bot@@@std@@@std@@QAEXXZ PROC ; std::list<Raven_Bot *,std::allocator<Raven_Bot *> >::_Tidy, COMDAT
; _this$ = ecx

; 1883 : 		{	// free all storage

	push	ebp
	mov	ebp, esp
	push	ecx
	mov	DWORD PTR [ebp-4], -858993460		; ccccccccH
	mov	DWORD PTR _this$[ebp], ecx

; 1884 : 		clear();

	mov	ecx, DWORD PTR _this$[ebp]
	call	?clear@?$list@PAVRaven_Bot@@V?$allocator@PAVRaven_Bot@@@std@@@std@@QAEXXZ ; std::list<Raven_Bot *,std::allocator<Raven_Bot *> >::clear

; 1885 : 		}

	add	esp, 4
	cmp	ebp, esp
	call	__RTC_CheckEsp
	mov	esp, ebp
	pop	ebp
	ret	0
?_Tidy@?$list@PAVRaven_Bot@@V?$allocator@PAVRaven_Bot@@@std@@@std@@QAEXXZ ENDP ; std::list<Raven_Bot *,std::allocator<Raven_Bot *> >::_Tidy
_TEXT	ENDS
; Function compile flags: /Odtp /RTCsu
; File c:\program files (x86)\microsoft visual studio 14.0\vc\include\list
;	COMDAT ?clear@?$list@PAVRaven_Bot@@V?$allocator@PAVRaven_Bot@@@std@@@std@@QAEXXZ
_TEXT	SEGMENT
__Pnext$2 = -24						; size = 4
__Pnode$ = -20						; size = 4
_this$ = -16						; size = 4
__$EHRec$ = -12						; size = 12
?clear@?$list@PAVRaven_Bot@@V?$allocator@PAVRaven_Bot@@@std@@@std@@QAEXXZ PROC ; std::list<Raven_Bot *,std::allocator<Raven_Bot *> >::clear, COMDAT
; _this$ = ecx

; 1500 : 		{	// erase all

	push	ebp
	mov	ebp, esp
	push	-1
	push	__ehhandler$?clear@?$list@PAVRaven_Bot@@V?$allocator@PAVRaven_Bot@@@std@@@std@@QAEXXZ
	mov	eax, DWORD PTR fs:0
	push	eax
	sub	esp, 12					; 0000000cH
	push	esi
	mov	DWORD PTR [ebp-24], -858993460		; ccccccccH
	mov	DWORD PTR [ebp-20], -858993460		; ccccccccH
	mov	DWORD PTR [ebp-16], -858993460		; ccccccccH
	mov	eax, DWORD PTR ___security_cookie
	xor	eax, ebp
	push	eax
	lea	eax, DWORD PTR __$EHRec$[ebp]
	mov	DWORD PTR fs:0, eax
	mov	DWORD PTR _this$[ebp], ecx

; 1501 :  #if _ITERATOR_DEBUG_LEVEL == 2
; 1502 : 
; 1503 : 		this->_Orphan_ptr(nullptr);

	push	0
	mov	ecx, DWORD PTR _this$[ebp]
	call	?_Orphan_ptr@?$list@PAVRaven_Bot@@V?$allocator@PAVRaven_Bot@@@std@@@std@@QAEXPAU?$_List_node@PAVRaven_Bot@@PAX@2@@Z ; std::list<Raven_Bot *,std::allocator<Raven_Bot *> >::_Orphan_ptr

; 1504 :  #endif /* _ITERATOR_DEBUG_LEVEL == 2 */
; 1505 : 		_Nodeptr _Pnode = this->_Nextnode(this->_Myhead());

	mov	ecx, DWORD PTR _this$[ebp]
	call	?_Myhead@?$_List_alloc@U?$_List_base_types@PAVRaven_Bot@@V?$allocator@PAVRaven_Bot@@@std@@@std@@@std@@QAEAAPAU?$_List_node@PAVRaven_Bot@@PAX@2@XZ ; std::_List_alloc<std::_List_base_types<Raven_Bot *,std::allocator<Raven_Bot *> > >::_Myhead
	mov	eax, DWORD PTR [eax]
	push	eax
	call	?_Nextnode@?$_List_alloc@U?$_List_base_types@PAVRaven_Bot@@V?$allocator@PAVRaven_Bot@@@std@@@std@@@std@@SAAAPAU?$_List_node@PAVRaven_Bot@@PAX@2@PAU32@@Z ; std::_List_alloc<std::_List_base_types<Raven_Bot *,std::allocator<Raven_Bot *> > >::_Nextnode
	add	esp, 4
	mov	ecx, DWORD PTR [eax]
	mov	DWORD PTR __Pnode$[ebp], ecx

; 1506 : 		this->_Nextnode(this->_Myhead()) = this->_Myhead();

	mov	ecx, DWORD PTR _this$[ebp]
	call	?_Myhead@?$_List_alloc@U?$_List_base_types@PAVRaven_Bot@@V?$allocator@PAVRaven_Bot@@@std@@@std@@@std@@QAEAAPAU?$_List_node@PAVRaven_Bot@@PAX@2@XZ ; std::_List_alloc<std::_List_base_types<Raven_Bot *,std::allocator<Raven_Bot *> > >::_Myhead
	mov	esi, eax
	mov	ecx, DWORD PTR _this$[ebp]
	call	?_Myhead@?$_List_alloc@U?$_List_base_types@PAVRaven_Bot@@V?$allocator@PAVRaven_Bot@@@std@@@std@@@std@@QAEAAPAU?$_List_node@PAVRaven_Bot@@PAX@2@XZ ; std::_List_alloc<std::_List_base_types<Raven_Bot *,std::allocator<Raven_Bot *> > >::_Myhead
	mov	edx, DWORD PTR [eax]
	push	edx
	call	?_Nextnode@?$_List_alloc@U?$_List_base_types@PAVRaven_Bot@@V?$allocator@PAVRaven_Bot@@@std@@@std@@@std@@SAAAPAU?$_List_node@PAVRaven_Bot@@PAX@2@PAU32@@Z ; std::_List_alloc<std::_List_base_types<Raven_Bot *,std::allocator<Raven_Bot *> > >::_Nextnode
	add	esp, 4
	mov	ecx, DWORD PTR [esi]
	mov	DWORD PTR [eax], ecx

; 1507 : 		this->_Prevnode(this->_Myhead()) = this->_Myhead();

	mov	ecx, DWORD PTR _this$[ebp]
	call	?_Myhead@?$_List_alloc@U?$_List_base_types@PAVRaven_Bot@@V?$allocator@PAVRaven_Bot@@@std@@@std@@@std@@QAEAAPAU?$_List_node@PAVRaven_Bot@@PAX@2@XZ ; std::_List_alloc<std::_List_base_types<Raven_Bot *,std::allocator<Raven_Bot *> > >::_Myhead
	mov	esi, eax
	mov	ecx, DWORD PTR _this$[ebp]
	call	?_Myhead@?$_List_alloc@U?$_List_base_types@PAVRaven_Bot@@V?$allocator@PAVRaven_Bot@@@std@@@std@@@std@@QAEAAPAU?$_List_node@PAVRaven_Bot@@PAX@2@XZ ; std::_List_alloc<std::_List_base_types<Raven_Bot *,std::allocator<Raven_Bot *> > >::_Myhead
	mov	edx, DWORD PTR [eax]
	push	edx
	call	?_Prevnode@?$_List_alloc@U?$_List_base_types@PAVRaven_Bot@@V?$allocator@PAVRaven_Bot@@@std@@@std@@@std@@SAAAPAU?$_List_node@PAVRaven_Bot@@PAX@2@PAU32@@Z ; std::_List_alloc<std::_List_base_types<Raven_Bot *,std::allocator<Raven_Bot *> > >::_Prevnode
	add	esp, 4
	mov	ecx, DWORD PTR [esi]
	mov	DWORD PTR [eax], ecx

; 1508 : 		this->_Mysize() = 0;

	mov	ecx, DWORD PTR _this$[ebp]
	call	?_Mysize@?$_List_alloc@U?$_List_base_types@PAVRaven_Bot@@V?$allocator@PAVRaven_Bot@@@std@@@std@@@std@@QAEAAIXZ ; std::_List_alloc<std::_List_base_types<Raven_Bot *,std::allocator<Raven_Bot *> > >::_Mysize
	mov	DWORD PTR [eax], 0

; 1509 : 
; 1510 : 		for (_Nodeptr _Pnext; _Pnode != this->_Myhead(); _Pnode = _Pnext)

	jmp	SHORT $LN4@clear
$LN2@clear:
	mov	edx, DWORD PTR __Pnext$2[ebp]
	mov	DWORD PTR __Pnode$[ebp], edx
$LN4@clear:
	mov	ecx, DWORD PTR _this$[ebp]
	call	?_Myhead@?$_List_alloc@U?$_List_base_types@PAVRaven_Bot@@V?$allocator@PAVRaven_Bot@@@std@@@std@@@std@@QAEAAPAU?$_List_node@PAVRaven_Bot@@PAX@2@XZ ; std::_List_alloc<std::_List_base_types<Raven_Bot *,std::allocator<Raven_Bot *> > >::_Myhead
	mov	ecx, DWORD PTR __Pnode$[ebp]
	cmp	ecx, DWORD PTR [eax]
	je	SHORT $LN5@clear

; 1511 : 			{	// delete an element
; 1512 : 			_Pnext = this->_Nextnode(_Pnode);

	mov	edx, DWORD PTR __Pnode$[ebp]
	push	edx
	call	?_Nextnode@?$_List_alloc@U?$_List_base_types@PAVRaven_Bot@@V?$allocator@PAVRaven_Bot@@@std@@@std@@@std@@SAAAPAU?$_List_node@PAVRaven_Bot@@PAX@2@PAU32@@Z ; std::_List_alloc<std::_List_base_types<Raven_Bot *,std::allocator<Raven_Bot *> > >::_Nextnode
	add	esp, 4
	mov	eax, DWORD PTR [eax]
	mov	DWORD PTR __Pnext$2[ebp], eax

; 1513 : 			this->_Freenode(_Pnode);

	mov	ecx, DWORD PTR __Pnode$[ebp]
	push	ecx
	mov	ecx, DWORD PTR _this$[ebp]
	call	?_Freenode@?$_List_buy@PAVRaven_Bot@@V?$allocator@PAVRaven_Bot@@@std@@@std@@QAEXPAU?$_List_node@PAVRaven_Bot@@PAX@2@@Z ; std::_List_buy<Raven_Bot *,std::allocator<Raven_Bot *> >::_Freenode

; 1514 : 			}

	jmp	SHORT $LN2@clear
$LN5@clear:

; 1515 : 		}

	mov	ecx, DWORD PTR __$EHRec$[ebp]
	mov	DWORD PTR fs:0, ecx
	pop	ecx
	pop	esi
	add	esp, 24					; 00000018H
	cmp	ebp, esp
	call	__RTC_CheckEsp
	mov	esp, ebp
	pop	ebp
	ret	0
_TEXT	ENDS
;	COMDAT text$x
text$x	SEGMENT
__ehhandler$?clear@?$list@PAVRaven_Bot@@V?$allocator@PAVRaven_Bot@@@std@@@std@@QAEXXZ:
	mov	edx, DWORD PTR [esp+8]
	lea	eax, DWORD PTR [edx+12]
	mov	ecx, DWORD PTR [edx-20]
	xor	ecx, eax
	call	@__security_check_cookie@4
	mov	eax, OFFSET __ehfuncinfo$?clear@?$list@PAVRaven_Bot@@V?$allocator@PAVRaven_Bot@@@std@@@std@@QAEXXZ
	jmp	___CxxFrameHandler3
text$x	ENDS
?clear@?$list@PAVRaven_Bot@@V?$allocator@PAVRaven_Bot@@@std@@@std@@QAEXXZ ENDP ; std::list<Raven_Bot *,std::allocator<Raven_Bot *> >::clear
; Function compile flags: /Odtp /RTCsu
; File c:\program files (x86)\microsoft visual studio 14.0\vc\include\list
;	COMDAT ?empty@?$list@PAVRaven_Bot@@V?$allocator@PAVRaven_Bot@@@std@@@std@@QBE_NXZ
_TEXT	SEGMENT
tv71 = -8						; size = 4
_this$ = -4						; size = 4
?empty@?$list@PAVRaven_Bot@@V?$allocator@PAVRaven_Bot@@@std@@@std@@QBE_NXZ PROC ; std::list<Raven_Bot *,std::allocator<Raven_Bot *> >::empty, COMDAT
; _this$ = ecx

; 1251 : 		{	// test if sequence is empty

	push	ebp
	mov	ebp, esp
	sub	esp, 8
	mov	DWORD PTR [ebp-8], -858993460		; ccccccccH
	mov	DWORD PTR [ebp-4], -858993460		; ccccccccH
	mov	DWORD PTR _this$[ebp], ecx

; 1252 : 		return (this->_Mysize() == 0);

	mov	ecx, DWORD PTR _this$[ebp]
	call	?_Mysize@?$_List_alloc@U?$_List_base_types@PAVRaven_Bot@@V?$allocator@PAVRaven_Bot@@@std@@@std@@@std@@QBEABIXZ ; std::_List_alloc<std::_List_base_types<Raven_Bot *,std::allocator<Raven_Bot *> > >::_Mysize
	cmp	DWORD PTR [eax], 0
	jne	SHORT $LN3@empty
	mov	DWORD PTR tv71[ebp], 1
	jmp	SHORT $LN4@empty
$LN3@empty:
	mov	DWORD PTR tv71[ebp], 0
$LN4@empty:
	mov	al, BYTE PTR tv71[ebp]

; 1253 : 		}

	add	esp, 8
	cmp	ebp, esp
	call	__RTC_CheckEsp
	mov	esp, ebp
	pop	ebp
	ret	0
?empty@?$list@PAVRaven_Bot@@V?$allocator@PAVRaven_Bot@@@std@@@std@@QBE_NXZ ENDP ; std::list<Raven_Bot *,std::allocator<Raven_Bot *> >::empty
_TEXT	ENDS
; Function compile flags: /Odtp /RTCsu
; File c:\program files (x86)\microsoft visual studio 14.0\vc\include\list
;	COMDAT ?end@?$list@PAVRaven_Bot@@V?$allocator@PAVRaven_Bot@@@std@@@std@@QAE?AV?$_List_iterator@V?$_List_val@U?$_List_simple_types@PAVRaven_Bot@@@std@@@std@@@2@XZ
_TEXT	SEGMENT
_this$ = -16						; size = 4
__$EHRec$ = -12						; size = 12
___$ReturnUdt$ = 8					; size = 4
?end@?$list@PAVRaven_Bot@@V?$allocator@PAVRaven_Bot@@@std@@@std@@QAE?AV?$_List_iterator@V?$_List_val@U?$_List_simple_types@PAVRaven_Bot@@@std@@@std@@@2@XZ PROC ; std::list<Raven_Bot *,std::allocator<Raven_Bot *> >::end, COMDAT
; _this$ = ecx

; 1130 : 		{	// return iterator for end of mutable sequence

	push	ebp
	mov	ebp, esp
	push	-1
	push	__ehhandler$?end@?$list@PAVRaven_Bot@@V?$allocator@PAVRaven_Bot@@@std@@@std@@QAE?AV?$_List_iterator@V?$_List_val@U?$_List_simple_types@PAVRaven_Bot@@@std@@@std@@@2@XZ
	mov	eax, DWORD PTR fs:0
	push	eax
	push	ecx
	mov	DWORD PTR [ebp-16], -858993460		; ccccccccH
	mov	eax, DWORD PTR ___security_cookie
	xor	eax, ebp
	push	eax
	lea	eax, DWORD PTR __$EHRec$[ebp]
	mov	DWORD PTR fs:0, eax
	mov	DWORD PTR _this$[ebp], ecx

; 1131 : 		return (iterator(this->_Myhead(), &this->_Get_data()));

	mov	ecx, DWORD PTR _this$[ebp]
	call	?_Get_data@?$_List_alloc@U?$_List_base_types@PAVRaven_Bot@@V?$allocator@PAVRaven_Bot@@@std@@@std@@@std@@QAEAAV?$_List_val@U?$_List_simple_types@PAVRaven_Bot@@@std@@@2@XZ ; std::_List_alloc<std::_List_base_types<Raven_Bot *,std::allocator<Raven_Bot *> > >::_Get_data
	push	eax
	mov	ecx, DWORD PTR _this$[ebp]
	call	?_Myhead@?$_List_alloc@U?$_List_base_types@PAVRaven_Bot@@V?$allocator@PAVRaven_Bot@@@std@@@std@@@std@@QAEAAPAU?$_List_node@PAVRaven_Bot@@PAX@2@XZ ; std::_List_alloc<std::_List_base_types<Raven_Bot *,std::allocator<Raven_Bot *> > >::_Myhead
	mov	eax, DWORD PTR [eax]
	push	eax
	mov	ecx, DWORD PTR ___$ReturnUdt$[ebp]
	call	??0?$_List_iterator@V?$_List_val@U?$_List_simple_types@PAVRaven_Bot@@@std@@@std@@@std@@QAE@PAU?$_List_node@PAVRaven_Bot@@PAX@1@PBV?$_List_val@U?$_List_simple_types@PAVRaven_Bot@@@std@@@1@@Z ; std::_List_iterator<std::_List_val<std::_List_simple_types<Raven_Bot *> > >::_List_iterator<std::_List_val<std::_List_simple_types<Raven_Bot *> > >
	mov	eax, DWORD PTR ___$ReturnUdt$[ebp]

; 1132 : 		}

	mov	ecx, DWORD PTR __$EHRec$[ebp]
	mov	DWORD PTR fs:0, ecx
	pop	ecx
	add	esp, 16					; 00000010H
	cmp	ebp, esp
	call	__RTC_CheckEsp
	mov	esp, ebp
	pop	ebp
	ret	4
_TEXT	ENDS
;	COMDAT text$x
text$x	SEGMENT
__ehhandler$?end@?$list@PAVRaven_Bot@@V?$allocator@PAVRaven_Bot@@@std@@@std@@QAE?AV?$_List_iterator@V?$_List_val@U?$_List_simple_types@PAVRaven_Bot@@@std@@@std@@@2@XZ:
	mov	edx, DWORD PTR [esp+8]
	lea	eax, DWORD PTR [edx+12]
	mov	ecx, DWORD PTR [edx-8]
	xor	ecx, eax
	call	@__security_check_cookie@4
	mov	eax, OFFSET __ehfuncinfo$?end@?$list@PAVRaven_Bot@@V?$allocator@PAVRaven_Bot@@@std@@@std@@QAE?AV?$_List_iterator@V?$_List_val@U?$_List_simple_types@PAVRaven_Bot@@@std@@@std@@@2@XZ
	jmp	___CxxFrameHandler3
text$x	ENDS
?end@?$list@PAVRaven_Bot@@V?$allocator@PAVRaven_Bot@@@std@@@std@@QAE?AV?$_List_iterator@V?$_List_val@U?$_List_simple_types@PAVRaven_Bot@@@std@@@std@@@2@XZ ENDP ; std::list<Raven_Bot *,std::allocator<Raven_Bot *> >::end
; Function compile flags: /Odtp /RTCsu
; File c:\program files (x86)\microsoft visual studio 14.0\vc\include\list
;	COMDAT ?begin@?$list@PAVRaven_Bot@@V?$allocator@PAVRaven_Bot@@@std@@@std@@QAE?AV?$_List_iterator@V?$_List_val@U?$_List_simple_types@PAVRaven_Bot@@@std@@@std@@@2@XZ
_TEXT	SEGMENT
_this$ = -16						; size = 4
__$EHRec$ = -12						; size = 12
___$ReturnUdt$ = 8					; size = 4
?begin@?$list@PAVRaven_Bot@@V?$allocator@PAVRaven_Bot@@@std@@@std@@QAE?AV?$_List_iterator@V?$_List_val@U?$_List_simple_types@PAVRaven_Bot@@@std@@@std@@@2@XZ PROC ; std::list<Raven_Bot *,std::allocator<Raven_Bot *> >::begin, COMDAT
; _this$ = ecx

; 1118 : 		{	// return iterator for beginning of mutable sequence

	push	ebp
	mov	ebp, esp
	push	-1
	push	__ehhandler$?begin@?$list@PAVRaven_Bot@@V?$allocator@PAVRaven_Bot@@@std@@@std@@QAE?AV?$_List_iterator@V?$_List_val@U?$_List_simple_types@PAVRaven_Bot@@@std@@@std@@@2@XZ
	mov	eax, DWORD PTR fs:0
	push	eax
	push	ecx
	mov	DWORD PTR [ebp-16], -858993460		; ccccccccH
	mov	eax, DWORD PTR ___security_cookie
	xor	eax, ebp
	push	eax
	lea	eax, DWORD PTR __$EHRec$[ebp]
	mov	DWORD PTR fs:0, eax
	mov	DWORD PTR _this$[ebp], ecx

; 1119 : 		return (iterator(this->_Nextnode(this->_Myhead()),

	mov	ecx, DWORD PTR _this$[ebp]
	call	?_Get_data@?$_List_alloc@U?$_List_base_types@PAVRaven_Bot@@V?$allocator@PAVRaven_Bot@@@std@@@std@@@std@@QAEAAV?$_List_val@U?$_List_simple_types@PAVRaven_Bot@@@std@@@2@XZ ; std::_List_alloc<std::_List_base_types<Raven_Bot *,std::allocator<Raven_Bot *> > >::_Get_data
	push	eax
	mov	ecx, DWORD PTR _this$[ebp]
	call	?_Myhead@?$_List_alloc@U?$_List_base_types@PAVRaven_Bot@@V?$allocator@PAVRaven_Bot@@@std@@@std@@@std@@QAEAAPAU?$_List_node@PAVRaven_Bot@@PAX@2@XZ ; std::_List_alloc<std::_List_base_types<Raven_Bot *,std::allocator<Raven_Bot *> > >::_Myhead
	mov	eax, DWORD PTR [eax]
	push	eax
	call	?_Nextnode@?$_List_alloc@U?$_List_base_types@PAVRaven_Bot@@V?$allocator@PAVRaven_Bot@@@std@@@std@@@std@@SAAAPAU?$_List_node@PAVRaven_Bot@@PAX@2@PAU32@@Z ; std::_List_alloc<std::_List_base_types<Raven_Bot *,std::allocator<Raven_Bot *> > >::_Nextnode
	add	esp, 4
	mov	ecx, DWORD PTR [eax]
	push	ecx
	mov	ecx, DWORD PTR ___$ReturnUdt$[ebp]
	call	??0?$_List_iterator@V?$_List_val@U?$_List_simple_types@PAVRaven_Bot@@@std@@@std@@@std@@QAE@PAU?$_List_node@PAVRaven_Bot@@PAX@1@PBV?$_List_val@U?$_List_simple_types@PAVRaven_Bot@@@std@@@1@@Z ; std::_List_iterator<std::_List_val<std::_List_simple_types<Raven_Bot *> > >::_List_iterator<std::_List_val<std::_List_simple_types<Raven_Bot *> > >
	mov	eax, DWORD PTR ___$ReturnUdt$[ebp]

; 1120 : 			&this->_Get_data()));
; 1121 : 		}

	mov	ecx, DWORD PTR __$EHRec$[ebp]
	mov	DWORD PTR fs:0, ecx
	pop	ecx
	add	esp, 16					; 00000010H
	cmp	ebp, esp
	call	__RTC_CheckEsp
	mov	esp, ebp
	pop	ebp
	ret	4
_TEXT	ENDS
;	COMDAT text$x
text$x	SEGMENT
__ehhandler$?begin@?$list@PAVRaven_Bot@@V?$allocator@PAVRaven_Bot@@@std@@@std@@QAE?AV?$_List_iterator@V?$_List_val@U?$_List_simple_types@PAVRaven_Bot@@@std@@@std@@@2@XZ:
	mov	edx, DWORD PTR [esp+8]
	lea	eax, DWORD PTR [edx+12]
	mov	ecx, DWORD PTR [edx-8]
	xor	ecx, eax
	call	@__security_check_cookie@4
	mov	eax, OFFSET __ehfuncinfo$?begin@?$list@PAVRaven_Bot@@V?$allocator@PAVRaven_Bot@@@std@@@std@@QAE?AV?$_List_iterator@V?$_List_val@U?$_List_simple_types@PAVRaven_Bot@@@std@@@std@@@2@XZ
	jmp	___CxxFrameHandler3
text$x	ENDS
?begin@?$list@PAVRaven_Bot@@V?$allocator@PAVRaven_Bot@@@std@@@std@@QAE?AV?$_List_iterator@V?$_List_val@U?$_List_simple_types@PAVRaven_Bot@@@std@@@std@@@2@XZ ENDP ; std::list<Raven_Bot *,std::allocator<Raven_Bot *> >::begin
; Function compile flags: /Odtp /RTCsu
; File c:\program files (x86)\microsoft visual studio 14.0\vc\include\list
;	COMDAT ??1?$list@PAVRaven_Bot@@V?$allocator@PAVRaven_Bot@@@std@@@std@@QAE@XZ
_TEXT	SEGMENT
_this$ = -16						; size = 4
__$EHRec$ = -12						; size = 12
??1?$list@PAVRaven_Bot@@V?$allocator@PAVRaven_Bot@@@std@@@std@@QAE@XZ PROC ; std::list<Raven_Bot *,std::allocator<Raven_Bot *> >::~list<Raven_Bot *,std::allocator<Raven_Bot *> >, COMDAT
; _this$ = ecx

; 1097 : 		{	// destroy the object

	push	ebp
	mov	ebp, esp
	push	-1
	push	__ehhandler$??1?$list@PAVRaven_Bot@@V?$allocator@PAVRaven_Bot@@@std@@@std@@QAE@XZ
	mov	eax, DWORD PTR fs:0
	push	eax
	push	ecx
	mov	DWORD PTR [ebp-16], -858993460		; ccccccccH
	mov	eax, DWORD PTR ___security_cookie
	xor	eax, ebp
	push	eax
	lea	eax, DWORD PTR __$EHRec$[ebp]
	mov	DWORD PTR fs:0, eax
	mov	DWORD PTR _this$[ebp], ecx

; 1098 : 		_Tidy();

	mov	ecx, DWORD PTR _this$[ebp]
	call	?_Tidy@?$list@PAVRaven_Bot@@V?$allocator@PAVRaven_Bot@@@std@@@std@@QAEXXZ ; std::list<Raven_Bot *,std::allocator<Raven_Bot *> >::_Tidy

; 1099 : 		}

	mov	ecx, DWORD PTR _this$[ebp]
	call	??1?$_List_buy@PAVRaven_Bot@@V?$allocator@PAVRaven_Bot@@@std@@@std@@QAE@XZ
	mov	ecx, DWORD PTR __$EHRec$[ebp]
	mov	DWORD PTR fs:0, ecx
	pop	ecx
	add	esp, 16					; 00000010H
	cmp	ebp, esp
	call	__RTC_CheckEsp
	mov	esp, ebp
	pop	ebp
	ret	0
_TEXT	ENDS
;	COMDAT text$x
text$x	SEGMENT
__ehhandler$??1?$list@PAVRaven_Bot@@V?$allocator@PAVRaven_Bot@@@std@@@std@@QAE@XZ:
	mov	edx, DWORD PTR [esp+8]
	lea	eax, DWORD PTR [edx+12]
	mov	ecx, DWORD PTR [edx-8]
	xor	ecx, eax
	call	@__security_check_cookie@4
	mov	eax, OFFSET __ehfuncinfo$??1?$list@PAVRaven_Bot@@V?$allocator@PAVRaven_Bot@@@std@@@std@@QAE@XZ
	jmp	___CxxFrameHandler3
text$x	ENDS
??1?$list@PAVRaven_Bot@@V?$allocator@PAVRaven_Bot@@@std@@@std@@QAE@XZ ENDP ; std::list<Raven_Bot *,std::allocator<Raven_Bot *> >::~list<Raven_Bot *,std::allocator<Raven_Bot *> >
; Function compile flags: /Odtp /RTCsu
;	COMDAT ??1?$_List_buy@PAVRaven_Bot@@V?$allocator@PAVRaven_Bot@@@std@@@std@@QAE@XZ
_TEXT	SEGMENT
_this$ = -4						; size = 4
??1?$_List_buy@PAVRaven_Bot@@V?$allocator@PAVRaven_Bot@@@std@@@std@@QAE@XZ PROC ; std::_List_buy<Raven_Bot *,std::allocator<Raven_Bot *> >::~_List_buy<Raven_Bot *,std::allocator<Raven_Bot *> >, COMDAT
; _this$ = ecx
	push	ebp
	mov	ebp, esp
	push	ecx
	mov	DWORD PTR [ebp-4], -858993460		; ccccccccH
	mov	DWORD PTR _this$[ebp], ecx
	mov	ecx, DWORD PTR _this$[ebp]
	call	??1?$_List_alloc@U?$_List_base_types@PAVRaven_Bot@@V?$allocator@PAVRaven_Bot@@@std@@@std@@@std@@QAE@XZ ; std::_List_alloc<std::_List_base_types<Raven_Bot *,std::allocator<Raven_Bot *> > >::~_List_alloc<std::_List_base_types<Raven_Bot *,std::allocator<Raven_Bot *> > >
	add	esp, 4
	cmp	ebp, esp
	call	__RTC_CheckEsp
	mov	esp, ebp
	pop	ebp
	ret	0
??1?$_List_buy@PAVRaven_Bot@@V?$allocator@PAVRaven_Bot@@@std@@@std@@QAE@XZ ENDP ; std::_List_buy<Raven_Bot *,std::allocator<Raven_Bot *> >::~_List_buy<Raven_Bot *,std::allocator<Raven_Bot *> >
_TEXT	ENDS
; Function compile flags: /Odtp /RTCsu
; File c:\program files (x86)\microsoft visual studio 14.0\vc\include\list
;	COMDAT ?_Freenode@?$_List_buy@PAVRaven_Bot@@V?$allocator@PAVRaven_Bot@@@std@@@std@@QAEXPAU?$_List_node@PAVRaven_Bot@@PAX@2@@Z
_TEXT	SEGMENT
_this$ = -4						; size = 4
__Pnode$ = 8						; size = 4
?_Freenode@?$_List_buy@PAVRaven_Bot@@V?$allocator@PAVRaven_Bot@@@std@@@std@@QAEXPAU?$_List_node@PAVRaven_Bot@@PAX@2@@Z PROC ; std::_List_buy<Raven_Bot *,std::allocator<Raven_Bot *> >::_Freenode, COMDAT
; _this$ = ecx

; 848  : 		{	// give node back

	push	ebp
	mov	ebp, esp
	push	ecx
	mov	DWORD PTR [ebp-4], -858993460		; ccccccccH
	mov	DWORD PTR _this$[ebp], ecx

; 849  : 		this->_Getal().destroy(

	mov	eax, DWORD PTR __Pnode$[ebp]
	push	eax
	call	?_Nextnode@?$_List_alloc@U?$_List_base_types@PAVRaven_Bot@@V?$allocator@PAVRaven_Bot@@@std@@@std@@@std@@SAAAPAU?$_List_node@PAVRaven_Bot@@PAX@2@PAU32@@Z ; std::_List_alloc<std::_List_base_types<Raven_Bot *,std::allocator<Raven_Bot *> > >::_Nextnode
	add	esp, 4
	push	eax
	call	??$addressof@PAU?$_List_node@PAVRaven_Bot@@PAX@std@@@std@@YAPAPAU?$_List_node@PAVRaven_Bot@@PAX@0@AAPAU10@@Z ; std::addressof<std::_List_node<Raven_Bot *,void *> *>
	add	esp, 4
	push	eax
	mov	ecx, DWORD PTR _this$[ebp]
	call	?_Getal@?$_List_alloc@U?$_List_base_types@PAVRaven_Bot@@V?$allocator@PAVRaven_Bot@@@std@@@std@@@std@@QAEAAU?$_Wrap_alloc@V?$allocator@U?$_List_node@PAVRaven_Bot@@PAX@std@@@std@@@2@XZ ; std::_List_alloc<std::_List_base_types<Raven_Bot *,std::allocator<Raven_Bot *> > >::_Getal
	mov	ecx, eax
	call	??$destroy@PAU?$_List_node@PAVRaven_Bot@@PAX@std@@@?$_Wrap_alloc@V?$allocator@U?$_List_node@PAVRaven_Bot@@PAX@std@@@std@@@std@@QAEXPAPAU?$_List_node@PAVRaven_Bot@@PAX@1@@Z ; std::_Wrap_alloc<std::allocator<std::_List_node<Raven_Bot *,void *> > >::destroy<std::_List_node<Raven_Bot *,void *> *>

; 850  : 			_STD addressof(this->_Nextnode(_Pnode)));
; 851  : 		this->_Getal().destroy(

	mov	ecx, DWORD PTR __Pnode$[ebp]
	push	ecx
	call	?_Prevnode@?$_List_alloc@U?$_List_base_types@PAVRaven_Bot@@V?$allocator@PAVRaven_Bot@@@std@@@std@@@std@@SAAAPAU?$_List_node@PAVRaven_Bot@@PAX@2@PAU32@@Z ; std::_List_alloc<std::_List_base_types<Raven_Bot *,std::allocator<Raven_Bot *> > >::_Prevnode
	add	esp, 4
	push	eax
	call	??$addressof@PAU?$_List_node@PAVRaven_Bot@@PAX@std@@@std@@YAPAPAU?$_List_node@PAVRaven_Bot@@PAX@0@AAPAU10@@Z ; std::addressof<std::_List_node<Raven_Bot *,void *> *>
	add	esp, 4
	push	eax
	mov	ecx, DWORD PTR _this$[ebp]
	call	?_Getal@?$_List_alloc@U?$_List_base_types@PAVRaven_Bot@@V?$allocator@PAVRaven_Bot@@@std@@@std@@@std@@QAEAAU?$_Wrap_alloc@V?$allocator@U?$_List_node@PAVRaven_Bot@@PAX@std@@@std@@@2@XZ ; std::_List_alloc<std::_List_base_types<Raven_Bot *,std::allocator<Raven_Bot *> > >::_Getal
	mov	ecx, eax
	call	??$destroy@PAU?$_List_node@PAVRaven_Bot@@PAX@std@@@?$_Wrap_alloc@V?$allocator@U?$_List_node@PAVRaven_Bot@@PAX@std@@@std@@@std@@QAEXPAPAU?$_List_node@PAVRaven_Bot@@PAX@1@@Z ; std::_Wrap_alloc<std::allocator<std::_List_node<Raven_Bot *,void *> > >::destroy<std::_List_node<Raven_Bot *,void *> *>

; 852  : 			_STD addressof(this->_Prevnode(_Pnode)));
; 853  : 		this->_Getal().destroy(

	mov	edx, DWORD PTR __Pnode$[ebp]
	push	edx
	call	?_Myval@?$_List_alloc@U?$_List_base_types@PAVRaven_Bot@@V?$allocator@PAVRaven_Bot@@@std@@@std@@@std@@SAAAPAVRaven_Bot@@PAU?$_List_node@PAVRaven_Bot@@PAX@2@@Z ; std::_List_alloc<std::_List_base_types<Raven_Bot *,std::allocator<Raven_Bot *> > >::_Myval
	add	esp, 4
	push	eax
	call	??$addressof@PAVRaven_Bot@@@std@@YAPAPAVRaven_Bot@@AAPAV1@@Z ; std::addressof<Raven_Bot *>
	add	esp, 4
	push	eax
	mov	ecx, DWORD PTR _this$[ebp]
	call	?_Getal@?$_List_alloc@U?$_List_base_types@PAVRaven_Bot@@V?$allocator@PAVRaven_Bot@@@std@@@std@@@std@@QAEAAU?$_Wrap_alloc@V?$allocator@U?$_List_node@PAVRaven_Bot@@PAX@std@@@std@@@2@XZ ; std::_List_alloc<std::_List_base_types<Raven_Bot *,std::allocator<Raven_Bot *> > >::_Getal
	mov	ecx, eax
	call	??$destroy@PAVRaven_Bot@@@?$_Wrap_alloc@V?$allocator@U?$_List_node@PAVRaven_Bot@@PAX@std@@@std@@@std@@QAEXPAPAVRaven_Bot@@@Z ; std::_Wrap_alloc<std::allocator<std::_List_node<Raven_Bot *,void *> > >::destroy<Raven_Bot *>

; 854  : 			_STD addressof(this->_Myval(_Pnode)));
; 855  : 		this->_Getal().deallocate(_Pnode, 1);

	push	1
	mov	eax, DWORD PTR __Pnode$[ebp]
	push	eax
	mov	ecx, DWORD PTR _this$[ebp]
	call	?_Getal@?$_List_alloc@U?$_List_base_types@PAVRaven_Bot@@V?$allocator@PAVRaven_Bot@@@std@@@std@@@std@@QAEAAU?$_Wrap_alloc@V?$allocator@U?$_List_node@PAVRaven_Bot@@PAX@std@@@std@@@2@XZ ; std::_List_alloc<std::_List_base_types<Raven_Bot *,std::allocator<Raven_Bot *> > >::_Getal
	mov	ecx, eax
	call	?deallocate@?$_Wrap_alloc@V?$allocator@U?$_List_node@PAVRaven_Bot@@PAX@std@@@std@@@std@@QAEXPAU?$_List_node@PAVRaven_Bot@@PAX@2@I@Z ; std::_Wrap_alloc<std::allocator<std::_List_node<Raven_Bot *,void *> > >::deallocate

; 856  : 		}

	add	esp, 4
	cmp	ebp, esp
	call	__RTC_CheckEsp
	mov	esp, ebp
	pop	ebp
	ret	4
?_Freenode@?$_List_buy@PAVRaven_Bot@@V?$allocator@PAVRaven_Bot@@@std@@@std@@QAEXPAU?$_List_node@PAVRaven_Bot@@PAX@2@@Z ENDP ; std::_List_buy<Raven_Bot *,std::allocator<Raven_Bot *> >::_Freenode
_TEXT	ENDS
; Function compile flags: /Odtp /RTCsu
;	COMDAT ??1?$_Compressed_pair@U?$_Wrap_alloc@V?$allocator@U?$_List_node@PAVRaven_Bot@@PAX@std@@@std@@@std@@V?$_List_val@U?$_List_simple_types@PAVRaven_Bot@@@std@@@2@$00@std@@QAE@XZ
_TEXT	SEGMENT
_this$ = -4						; size = 4
??1?$_Compressed_pair@U?$_Wrap_alloc@V?$allocator@U?$_List_node@PAVRaven_Bot@@PAX@std@@@std@@@std@@V?$_List_val@U?$_List_simple_types@PAVRaven_Bot@@@std@@@2@$00@std@@QAE@XZ PROC ; std::_Compressed_pair<std::_Wrap_alloc<std::allocator<std::_List_node<Raven_Bot *,void *> > >,std::_List_val<std::_List_simple_types<Raven_Bot *> >,1>::~_Compressed_pair<std::_Wrap_alloc<std::allocator<std::_List_node<Raven_Bot *,void *> > >,std::_List_val<std::_List_simple_types<Raven_Bot *> >,1>, COMDAT
; _this$ = ecx
	push	ebp
	mov	ebp, esp
	push	ecx
	mov	DWORD PTR [ebp-4], -858993460		; ccccccccH
	mov	DWORD PTR _this$[ebp], ecx
	mov	ecx, DWORD PTR _this$[ebp]
	call	??1?$_List_val@U?$_List_simple_types@PAVRaven_Bot@@@std@@@std@@QAE@XZ
	add	esp, 4
	cmp	ebp, esp
	call	__RTC_CheckEsp
	mov	esp, ebp
	pop	ebp
	ret	0
??1?$_Compressed_pair@U?$_Wrap_alloc@V?$allocator@U?$_List_node@PAVRaven_Bot@@PAX@std@@@std@@@std@@V?$_List_val@U?$_List_simple_types@PAVRaven_Bot@@@std@@@2@$00@std@@QAE@XZ ENDP ; std::_Compressed_pair<std::_Wrap_alloc<std::allocator<std::_List_node<Raven_Bot *,void *> > >,std::_List_val<std::_List_simple_types<Raven_Bot *> >,1>::~_Compressed_pair<std::_Wrap_alloc<std::allocator<std::_List_node<Raven_Bot *,void *> > >,std::_List_val<std::_List_simple_types<Raven_Bot *> >,1>
_TEXT	ENDS
; Function compile flags: /Odtp /RTCsu
; File c:\program files (x86)\microsoft visual studio 14.0\vc\include\xutility
;	COMDAT ?_Get_second@?$_Compressed_pair@U?$_Wrap_alloc@V?$allocator@U?$_List_node@PAVRaven_Bot@@PAX@std@@@std@@@std@@V?$_List_val@U?$_List_simple_types@PAVRaven_Bot@@@std@@@2@$00@std@@QBEABV?$_List_val@U?$_List_simple_types@PAVRaven_Bot@@@std@@@2@XZ
_TEXT	SEGMENT
_this$ = -4						; size = 4
?_Get_second@?$_Compressed_pair@U?$_Wrap_alloc@V?$allocator@U?$_List_node@PAVRaven_Bot@@PAX@std@@@std@@@std@@V?$_List_val@U?$_List_simple_types@PAVRaven_Bot@@@std@@@2@$00@std@@QBEABV?$_List_val@U?$_List_simple_types@PAVRaven_Bot@@@std@@@2@XZ PROC ; std::_Compressed_pair<std::_Wrap_alloc<std::allocator<std::_List_node<Raven_Bot *,void *> > >,std::_List_val<std::_List_simple_types<Raven_Bot *> >,1>::_Get_second, COMDAT
; _this$ = ecx

; 319  : 		{	// return const reference to second

	push	ebp
	mov	ebp, esp
	push	ecx
	mov	DWORD PTR [ebp-4], -858993460		; ccccccccH
	mov	DWORD PTR _this$[ebp], ecx

; 320  : 		return (_Myval2);

	mov	eax, DWORD PTR _this$[ebp]

; 321  : 		}

	mov	esp, ebp
	pop	ebp
	ret	0
?_Get_second@?$_Compressed_pair@U?$_Wrap_alloc@V?$allocator@U?$_List_node@PAVRaven_Bot@@PAX@std@@@std@@@std@@V?$_List_val@U?$_List_simple_types@PAVRaven_Bot@@@std@@@2@$00@std@@QBEABV?$_List_val@U?$_List_simple_types@PAVRaven_Bot@@@std@@@2@XZ ENDP ; std::_Compressed_pair<std::_Wrap_alloc<std::allocator<std::_List_node<Raven_Bot *,void *> > >,std::_List_val<std::_List_simple_types<Raven_Bot *> >,1>::_Get_second
_TEXT	ENDS
; Function compile flags: /Odtp /RTCsu
; File c:\program files (x86)\microsoft visual studio 14.0\vc\include\xutility
;	COMDAT ?_Get_second@?$_Compressed_pair@U?$_Wrap_alloc@V?$allocator@U?$_List_node@PAVRaven_Bot@@PAX@std@@@std@@@std@@V?$_List_val@U?$_List_simple_types@PAVRaven_Bot@@@std@@@2@$00@std@@QAEAAV?$_List_val@U?$_List_simple_types@PAVRaven_Bot@@@std@@@2@XZ
_TEXT	SEGMENT
_this$ = -4						; size = 4
?_Get_second@?$_Compressed_pair@U?$_Wrap_alloc@V?$allocator@U?$_List_node@PAVRaven_Bot@@PAX@std@@@std@@@std@@V?$_List_val@U?$_List_simple_types@PAVRaven_Bot@@@std@@@2@$00@std@@QAEAAV?$_List_val@U?$_List_simple_types@PAVRaven_Bot@@@std@@@2@XZ PROC ; std::_Compressed_pair<std::_Wrap_alloc<std::allocator<std::_List_node<Raven_Bot *,void *> > >,std::_List_val<std::_List_simple_types<Raven_Bot *> >,1>::_Get_second, COMDAT
; _this$ = ecx

; 314  : 		{	// return reference to second

	push	ebp
	mov	ebp, esp
	push	ecx
	mov	DWORD PTR [ebp-4], -858993460		; ccccccccH
	mov	DWORD PTR _this$[ebp], ecx

; 315  : 		return (_Myval2);

	mov	eax, DWORD PTR _this$[ebp]

; 316  : 		}

	mov	esp, ebp
	pop	ebp
	ret	0
?_Get_second@?$_Compressed_pair@U?$_Wrap_alloc@V?$allocator@U?$_List_node@PAVRaven_Bot@@PAX@std@@@std@@@std@@V?$_List_val@U?$_List_simple_types@PAVRaven_Bot@@@std@@@2@$00@std@@QAEAAV?$_List_val@U?$_List_simple_types@PAVRaven_Bot@@@std@@@2@XZ ENDP ; std::_Compressed_pair<std::_Wrap_alloc<std::allocator<std::_List_node<Raven_Bot *,void *> > >,std::_List_val<std::_List_simple_types<Raven_Bot *> >,1>::_Get_second
_TEXT	ENDS
; Function compile flags: /Odtp /RTCsu
; File c:\program files (x86)\microsoft visual studio 14.0\vc\include\xutility
;	COMDAT ?_Get_first@?$_Compressed_pair@U?$_Wrap_alloc@V?$allocator@U?$_List_node@PAVRaven_Bot@@PAX@std@@@std@@@std@@V?$_List_val@U?$_List_simple_types@PAVRaven_Bot@@@std@@@2@$00@std@@QAEAAU?$_Wrap_alloc@V?$allocator@U?$_List_node@PAVRaven_Bot@@PAX@std@@@std@@@2@XZ
_TEXT	SEGMENT
_this$ = -4						; size = 4
?_Get_first@?$_Compressed_pair@U?$_Wrap_alloc@V?$allocator@U?$_List_node@PAVRaven_Bot@@PAX@std@@@std@@@std@@V?$_List_val@U?$_List_simple_types@PAVRaven_Bot@@@std@@@2@$00@std@@QAEAAU?$_Wrap_alloc@V?$allocator@U?$_List_node@PAVRaven_Bot@@PAX@std@@@std@@@2@XZ PROC ; std::_Compressed_pair<std::_Wrap_alloc<std::allocator<std::_List_node<Raven_Bot *,void *> > >,std::_List_val<std::_List_simple_types<Raven_Bot *> >,1>::_Get_first, COMDAT
; _this$ = ecx

; 294  : 		{	// return reference to first

	push	ebp
	mov	ebp, esp
	push	ecx
	mov	DWORD PTR [ebp-4], -858993460		; ccccccccH
	mov	DWORD PTR _this$[ebp], ecx

; 295  : 		return (*this);

	mov	eax, DWORD PTR _this$[ebp]

; 296  : 		}

	mov	esp, ebp
	pop	ebp
	ret	0
?_Get_first@?$_Compressed_pair@U?$_Wrap_alloc@V?$allocator@U?$_List_node@PAVRaven_Bot@@PAX@std@@@std@@@std@@V?$_List_val@U?$_List_simple_types@PAVRaven_Bot@@@std@@@2@$00@std@@QAEAAU?$_Wrap_alloc@V?$allocator@U?$_List_node@PAVRaven_Bot@@PAX@std@@@std@@@2@XZ ENDP ; std::_Compressed_pair<std::_Wrap_alloc<std::allocator<std::_List_node<Raven_Bot *,void *> > >,std::_List_val<std::_List_simple_types<Raven_Bot *> >,1>::_Get_first
_TEXT	ENDS
; Function compile flags: /Odtp /RTCsu
;	COMDAT ??1?$_List_val@U?$_List_simple_types@PAVRaven_Bot@@@std@@@std@@QAE@XZ
_TEXT	SEGMENT
_this$ = -4						; size = 4
??1?$_List_val@U?$_List_simple_types@PAVRaven_Bot@@@std@@@std@@QAE@XZ PROC ; std::_List_val<std::_List_simple_types<Raven_Bot *> >::~_List_val<std::_List_simple_types<Raven_Bot *> >, COMDAT
; _this$ = ecx
	push	ebp
	mov	ebp, esp
	push	ecx
	mov	DWORD PTR [ebp-4], -858993460		; ccccccccH
	mov	DWORD PTR _this$[ebp], ecx
	mov	ecx, DWORD PTR _this$[ebp]
	call	??1_Container_base12@std@@QAE@XZ	; std::_Container_base12::~_Container_base12
	add	esp, 4
	cmp	ebp, esp
	call	__RTC_CheckEsp
	mov	esp, ebp
	pop	ebp
	ret	0
??1?$_List_val@U?$_List_simple_types@PAVRaven_Bot@@@std@@@std@@QAE@XZ ENDP ; std::_List_val<std::_List_simple_types<Raven_Bot *> >::~_List_val<std::_List_simple_types<Raven_Bot *> >
_TEXT	ENDS
; Function compile flags: /Odtp /RTCsu
; File c:\program files (x86)\microsoft visual studio 14.0\vc\include\list
;	COMDAT ?_Myval@?$_List_val@U?$_List_simple_types@PAVRaven_Bot@@@std@@@std@@SAAAPAVRaven_Bot@@PAU?$_List_node@PAVRaven_Bot@@PAX@2@@Z
_TEXT	SEGMENT
__Pnode$ = 8						; size = 4
?_Myval@?$_List_val@U?$_List_simple_types@PAVRaven_Bot@@@std@@@std@@SAAAPAVRaven_Bot@@PAU?$_List_node@PAVRaven_Bot@@PAX@2@@Z PROC ; std::_List_val<std::_List_simple_types<Raven_Bot *> >::_Myval, COMDAT

; 545  : 		{	// return reference to value in node

	push	ebp
	mov	ebp, esp

; 546  : 		return ((reference)_Pnode->_Myval);

	mov	eax, DWORD PTR __Pnode$[ebp]
	add	eax, 8

; 547  : 		}

	pop	ebp
	ret	0
?_Myval@?$_List_val@U?$_List_simple_types@PAVRaven_Bot@@@std@@@std@@SAAAPAVRaven_Bot@@PAU?$_List_node@PAVRaven_Bot@@PAX@2@@Z ENDP ; std::_List_val<std::_List_simple_types<Raven_Bot *> >::_Myval
_TEXT	ENDS
; Function compile flags: /Odtp /RTCsu
; File c:\program files (x86)\microsoft visual studio 14.0\vc\include\list
;	COMDAT ?_Prevnode@?$_List_val@U?$_List_simple_types@PAVRaven_Bot@@@std@@@std@@SAAAPAU?$_List_node@PAVRaven_Bot@@PAX@2@PAU32@@Z
_TEXT	SEGMENT
__Pnode$ = 8						; size = 4
?_Prevnode@?$_List_val@U?$_List_simple_types@PAVRaven_Bot@@@std@@@std@@SAAAPAU?$_List_node@PAVRaven_Bot@@PAX@2@PAU32@@Z PROC ; std::_List_val<std::_List_simple_types<Raven_Bot *> >::_Prevnode, COMDAT

; 540  : 		{	// return reference to predecessor pointer in node

	push	ebp
	mov	ebp, esp

; 541  : 		return ((_Nodepref)_Pnode->_Prev);

	mov	eax, DWORD PTR __Pnode$[ebp]
	add	eax, 4

; 542  : 		}

	pop	ebp
	ret	0
?_Prevnode@?$_List_val@U?$_List_simple_types@PAVRaven_Bot@@@std@@@std@@SAAAPAU?$_List_node@PAVRaven_Bot@@PAX@2@PAU32@@Z ENDP ; std::_List_val<std::_List_simple_types<Raven_Bot *> >::_Prevnode
_TEXT	ENDS
; Function compile flags: /Odtp /RTCsu
; File c:\program files (x86)\microsoft visual studio 14.0\vc\include\list
;	COMDAT ?_Nextnode@?$_List_val@U?$_List_simple_types@PAVRaven_Bot@@@std@@@std@@SAAAPAU?$_List_node@PAVRaven_Bot@@PAX@2@PAU32@@Z
_TEXT	SEGMENT
__Pnode$ = 8						; size = 4
?_Nextnode@?$_List_val@U?$_List_simple_types@PAVRaven_Bot@@@std@@@std@@SAAAPAU?$_List_node@PAVRaven_Bot@@PAX@2@PAU32@@Z PROC ; std::_List_val<std::_List_simple_types<Raven_Bot *> >::_Nextnode, COMDAT

; 535  : 		{	// return reference to successor pointer in node

	push	ebp
	mov	ebp, esp

; 536  : 		return ((_Nodepref)_Pnode->_Next);

	mov	eax, DWORD PTR __Pnode$[ebp]

; 537  : 		}

	pop	ebp
	ret	0
?_Nextnode@?$_List_val@U?$_List_simple_types@PAVRaven_Bot@@@std@@@std@@SAAAPAU?$_List_node@PAVRaven_Bot@@PAX@2@PAU32@@Z ENDP ; std::_List_val<std::_List_simple_types<Raven_Bot *> >::_Nextnode
_TEXT	ENDS
; Function compile flags: /Odtp /RTCsu
; File c:\program files (x86)\microsoft visual studio 14.0\vc\include\list
;	COMDAT ?_Mysize@?$_List_alloc@U?$_List_base_types@PAVRaven_Bot@@V?$allocator@PAVRaven_Bot@@@std@@@std@@@std@@QBEABIXZ
_TEXT	SEGMENT
_this$ = -4						; size = 4
?_Mysize@?$_List_alloc@U?$_List_base_types@PAVRaven_Bot@@V?$allocator@PAVRaven_Bot@@@std@@@std@@@std@@QBEABIXZ PROC ; std::_List_alloc<std::_List_base_types<Raven_Bot *,std::allocator<Raven_Bot *> > >::_Mysize, COMDAT
; _this$ = ecx

; 796  : 		{	// return const reference to _Mysize

	push	ebp
	mov	ebp, esp
	push	ecx
	mov	DWORD PTR [ebp-4], -858993460		; ccccccccH
	mov	DWORD PTR _this$[ebp], ecx

; 797  : 		return (_Get_data()._Mysize);

	mov	ecx, DWORD PTR _this$[ebp]
	call	?_Get_data@?$_List_alloc@U?$_List_base_types@PAVRaven_Bot@@V?$allocator@PAVRaven_Bot@@@std@@@std@@@std@@QBEABV?$_List_val@U?$_List_simple_types@PAVRaven_Bot@@@std@@@2@XZ ; std::_List_alloc<std::_List_base_types<Raven_Bot *,std::allocator<Raven_Bot *> > >::_Get_data
	add	eax, 8

; 798  : 		}

	add	esp, 4
	cmp	ebp, esp
	call	__RTC_CheckEsp
	mov	esp, ebp
	pop	ebp
	ret	0
?_Mysize@?$_List_alloc@U?$_List_base_types@PAVRaven_Bot@@V?$allocator@PAVRaven_Bot@@@std@@@std@@@std@@QBEABIXZ ENDP ; std::_List_alloc<std::_List_base_types<Raven_Bot *,std::allocator<Raven_Bot *> > >::_Mysize
_TEXT	ENDS
; Function compile flags: /Odtp /RTCsu
; File c:\program files (x86)\microsoft visual studio 14.0\vc\include\list
;	COMDAT ?_Mysize@?$_List_alloc@U?$_List_base_types@PAVRaven_Bot@@V?$allocator@PAVRaven_Bot@@@std@@@std@@@std@@QAEAAIXZ
_TEXT	SEGMENT
_this$ = -4						; size = 4
?_Mysize@?$_List_alloc@U?$_List_base_types@PAVRaven_Bot@@V?$allocator@PAVRaven_Bot@@@std@@@std@@@std@@QAEAAIXZ PROC ; std::_List_alloc<std::_List_base_types<Raven_Bot *,std::allocator<Raven_Bot *> > >::_Mysize, COMDAT
; _this$ = ecx

; 791  : 		{	// return reference to _Mysize

	push	ebp
	mov	ebp, esp
	push	ecx
	mov	DWORD PTR [ebp-4], -858993460		; ccccccccH
	mov	DWORD PTR _this$[ebp], ecx

; 792  : 		return (_Get_data()._Mysize);

	mov	ecx, DWORD PTR _this$[ebp]
	call	?_Get_data@?$_List_alloc@U?$_List_base_types@PAVRaven_Bot@@V?$allocator@PAVRaven_Bot@@@std@@@std@@@std@@QAEAAV?$_List_val@U?$_List_simple_types@PAVRaven_Bot@@@std@@@2@XZ ; std::_List_alloc<std::_List_base_types<Raven_Bot *,std::allocator<Raven_Bot *> > >::_Get_data
	add	eax, 8

; 793  : 		}

	add	esp, 4
	cmp	ebp, esp
	call	__RTC_CheckEsp
	mov	esp, ebp
	pop	ebp
	ret	0
?_Mysize@?$_List_alloc@U?$_List_base_types@PAVRaven_Bot@@V?$allocator@PAVRaven_Bot@@@std@@@std@@@std@@QAEAAIXZ ENDP ; std::_List_alloc<std::_List_base_types<Raven_Bot *,std::allocator<Raven_Bot *> > >::_Mysize
_TEXT	ENDS
; Function compile flags: /Odtp /RTCsu
; File c:\program files (x86)\microsoft visual studio 14.0\vc\include\list
;	COMDAT ?_Myhead@?$_List_alloc@U?$_List_base_types@PAVRaven_Bot@@V?$allocator@PAVRaven_Bot@@@std@@@std@@@std@@QAEAAPAU?$_List_node@PAVRaven_Bot@@PAX@2@XZ
_TEXT	SEGMENT
_this$ = -4						; size = 4
?_Myhead@?$_List_alloc@U?$_List_base_types@PAVRaven_Bot@@V?$allocator@PAVRaven_Bot@@@std@@@std@@@std@@QAEAAPAU?$_List_node@PAVRaven_Bot@@PAX@2@XZ PROC ; std::_List_alloc<std::_List_base_types<Raven_Bot *,std::allocator<Raven_Bot *> > >::_Myhead, COMDAT
; _this$ = ecx

; 781  : 		{	// return reference to _Myhead

	push	ebp
	mov	ebp, esp
	push	ecx
	mov	DWORD PTR [ebp-4], -858993460		; ccccccccH
	mov	DWORD PTR _this$[ebp], ecx

; 782  : 		return (_Get_data()._Myhead);

	mov	ecx, DWORD PTR _this$[ebp]
	call	?_Get_data@?$_List_alloc@U?$_List_base_types@PAVRaven_Bot@@V?$allocator@PAVRaven_Bot@@@std@@@std@@@std@@QAEAAV?$_List_val@U?$_List_simple_types@PAVRaven_Bot@@@std@@@2@XZ ; std::_List_alloc<std::_List_base_types<Raven_Bot *,std::allocator<Raven_Bot *> > >::_Get_data
	add	eax, 4

; 783  : 		}

	add	esp, 4
	cmp	ebp, esp
	call	__RTC_CheckEsp
	mov	esp, ebp
	pop	ebp
	ret	0
?_Myhead@?$_List_alloc@U?$_List_base_types@PAVRaven_Bot@@V?$allocator@PAVRaven_Bot@@@std@@@std@@@std@@QAEAAPAU?$_List_node@PAVRaven_Bot@@PAX@2@XZ ENDP ; std::_List_alloc<std::_List_base_types<Raven_Bot *,std::allocator<Raven_Bot *> > >::_Myhead
_TEXT	ENDS
; Function compile flags: /Odtp /RTCsu
; File c:\program files (x86)\microsoft visual studio 14.0\vc\include\list
;	COMDAT ?_Get_data@?$_List_alloc@U?$_List_base_types@PAVRaven_Bot@@V?$allocator@PAVRaven_Bot@@@std@@@std@@@std@@QBEABV?$_List_val@U?$_List_simple_types@PAVRaven_Bot@@@std@@@2@XZ
_TEXT	SEGMENT
_this$ = -4						; size = 4
?_Get_data@?$_List_alloc@U?$_List_base_types@PAVRaven_Bot@@V?$allocator@PAVRaven_Bot@@@std@@@std@@@std@@QBEABV?$_List_val@U?$_List_simple_types@PAVRaven_Bot@@@std@@@2@XZ PROC ; std::_List_alloc<std::_List_base_types<Raven_Bot *,std::allocator<Raven_Bot *> > >::_Get_data, COMDAT
; _this$ = ecx

; 776  : 		{	// return const reference to _List_val

	push	ebp
	mov	ebp, esp
	push	ecx
	mov	DWORD PTR [ebp-4], -858993460		; ccccccccH
	mov	DWORD PTR _this$[ebp], ecx

; 777  : 		return (_Mypair._Get_second());

	mov	ecx, DWORD PTR _this$[ebp]
	call	?_Get_second@?$_Compressed_pair@U?$_Wrap_alloc@V?$allocator@U?$_List_node@PAVRaven_Bot@@PAX@std@@@std@@@std@@V?$_List_val@U?$_List_simple_types@PAVRaven_Bot@@@std@@@2@$00@std@@QBEABV?$_List_val@U?$_List_simple_types@PAVRaven_Bot@@@std@@@2@XZ ; std::_Compressed_pair<std::_Wrap_alloc<std::allocator<std::_List_node<Raven_Bot *,void *> > >,std::_List_val<std::_List_simple_types<Raven_Bot *> >,1>::_Get_second

; 778  : 		}

	add	esp, 4
	cmp	ebp, esp
	call	__RTC_CheckEsp
	mov	esp, ebp
	pop	ebp
	ret	0
?_Get_data@?$_List_alloc@U?$_List_base_types@PAVRaven_Bot@@V?$allocator@PAVRaven_Bot@@@std@@@std@@@std@@QBEABV?$_List_val@U?$_List_simple_types@PAVRaven_Bot@@@std@@@2@XZ ENDP ; std::_List_alloc<std::_List_base_types<Raven_Bot *,std::allocator<Raven_Bot *> > >::_Get_data
_TEXT	ENDS
; Function compile flags: /Odtp /RTCsu
; File c:\program files (x86)\microsoft visual studio 14.0\vc\include\list
;	COMDAT ?_Get_data@?$_List_alloc@U?$_List_base_types@PAVRaven_Bot@@V?$allocator@PAVRaven_Bot@@@std@@@std@@@std@@QAEAAV?$_List_val@U?$_List_simple_types@PAVRaven_Bot@@@std@@@2@XZ
_TEXT	SEGMENT
_this$ = -4						; size = 4
?_Get_data@?$_List_alloc@U?$_List_base_types@PAVRaven_Bot@@V?$allocator@PAVRaven_Bot@@@std@@@std@@@std@@QAEAAV?$_List_val@U?$_List_simple_types@PAVRaven_Bot@@@std@@@2@XZ PROC ; std::_List_alloc<std::_List_base_types<Raven_Bot *,std::allocator<Raven_Bot *> > >::_Get_data, COMDAT
; _this$ = ecx

; 771  : 		{	// return reference to _List_val

	push	ebp
	mov	ebp, esp
	push	ecx
	mov	DWORD PTR [ebp-4], -858993460		; ccccccccH
	mov	DWORD PTR _this$[ebp], ecx

; 772  : 		return (_Mypair._Get_second());

	mov	ecx, DWORD PTR _this$[ebp]
	call	?_Get_second@?$_Compressed_pair@U?$_Wrap_alloc@V?$allocator@U?$_List_node@PAVRaven_Bot@@PAX@std@@@std@@@std@@V?$_List_val@U?$_List_simple_types@PAVRaven_Bot@@@std@@@2@$00@std@@QAEAAV?$_List_val@U?$_List_simple_types@PAVRaven_Bot@@@std@@@2@XZ ; std::_Compressed_pair<std::_Wrap_alloc<std::allocator<std::_List_node<Raven_Bot *,void *> > >,std::_List_val<std::_List_simple_types<Raven_Bot *> >,1>::_Get_second

; 773  : 		}

	add	esp, 4
	cmp	ebp, esp
	call	__RTC_CheckEsp
	mov	esp, ebp
	pop	ebp
	ret	0
?_Get_data@?$_List_alloc@U?$_List_base_types@PAVRaven_Bot@@V?$allocator@PAVRaven_Bot@@@std@@@std@@@std@@QAEAAV?$_List_val@U?$_List_simple_types@PAVRaven_Bot@@@std@@@2@XZ ENDP ; std::_List_alloc<std::_List_base_types<Raven_Bot *,std::allocator<Raven_Bot *> > >::_Get_data
_TEXT	ENDS
; Function compile flags: /Odtp /RTCsu
; File c:\program files (x86)\microsoft visual studio 14.0\vc\include\list
;	COMDAT ?_Getal@?$_List_alloc@U?$_List_base_types@PAVRaven_Bot@@V?$allocator@PAVRaven_Bot@@@std@@@std@@@std@@QAEAAU?$_Wrap_alloc@V?$allocator@U?$_List_node@PAVRaven_Bot@@PAX@std@@@std@@@2@XZ
_TEXT	SEGMENT
_this$ = -4						; size = 4
?_Getal@?$_List_alloc@U?$_List_base_types@PAVRaven_Bot@@V?$allocator@PAVRaven_Bot@@@std@@@std@@@std@@QAEAAU?$_Wrap_alloc@V?$allocator@U?$_List_node@PAVRaven_Bot@@PAX@std@@@std@@@2@XZ PROC ; std::_List_alloc<std::_List_base_types<Raven_Bot *,std::allocator<Raven_Bot *> > >::_Getal, COMDAT
; _this$ = ecx

; 761  : 		{	// return reference to allocator

	push	ebp
	mov	ebp, esp
	push	ecx
	mov	DWORD PTR [ebp-4], -858993460		; ccccccccH
	mov	DWORD PTR _this$[ebp], ecx

; 762  : 		return (_Mypair._Get_first());

	mov	ecx, DWORD PTR _this$[ebp]
	call	?_Get_first@?$_Compressed_pair@U?$_Wrap_alloc@V?$allocator@U?$_List_node@PAVRaven_Bot@@PAX@std@@@std@@@std@@V?$_List_val@U?$_List_simple_types@PAVRaven_Bot@@@std@@@2@$00@std@@QAEAAU?$_Wrap_alloc@V?$allocator@U?$_List_node@PAVRaven_Bot@@PAX@std@@@std@@@2@XZ ; std::_Compressed_pair<std::_Wrap_alloc<std::allocator<std::_List_node<Raven_Bot *,void *> > >,std::_List_val<std::_List_simple_types<Raven_Bot *> >,1>::_Get_first

; 763  : 		}

	add	esp, 4
	cmp	ebp, esp
	call	__RTC_CheckEsp
	mov	esp, ebp
	pop	ebp
	ret	0
?_Getal@?$_List_alloc@U?$_List_base_types@PAVRaven_Bot@@V?$allocator@PAVRaven_Bot@@@std@@@std@@@std@@QAEAAU?$_Wrap_alloc@V?$allocator@U?$_List_node@PAVRaven_Bot@@PAX@std@@@std@@@2@XZ ENDP ; std::_List_alloc<std::_List_base_types<Raven_Bot *,std::allocator<Raven_Bot *> > >::_Getal
_TEXT	ENDS
; Function compile flags: /Odtp /RTCsu
; File c:\program files (x86)\microsoft visual studio 14.0\vc\include\list
;	COMDAT ?_Orphan_all@?$_List_alloc@U?$_List_base_types@PAVRaven_Bot@@V?$allocator@PAVRaven_Bot@@@std@@@std@@@std@@QAEXXZ
_TEXT	SEGMENT
_this$ = -4						; size = 4
?_Orphan_all@?$_List_alloc@U?$_List_base_types@PAVRaven_Bot@@V?$allocator@PAVRaven_Bot@@@std@@@std@@@std@@QAEXXZ PROC ; std::_List_alloc<std::_List_base_types<Raven_Bot *,std::allocator<Raven_Bot *> > >::_Orphan_all, COMDAT
; _this$ = ecx

; 751  : 		{	// orphan all iterators

	push	ebp
	mov	ebp, esp
	push	ecx
	mov	DWORD PTR [ebp-4], -858993460		; ccccccccH
	mov	DWORD PTR _this$[ebp], ecx

; 752  : 		_Get_data()._Orphan_all();

	mov	ecx, DWORD PTR _this$[ebp]
	call	?_Get_data@?$_List_alloc@U?$_List_base_types@PAVRaven_Bot@@V?$allocator@PAVRaven_Bot@@@std@@@std@@@std@@QAEAAV?$_List_val@U?$_List_simple_types@PAVRaven_Bot@@@std@@@2@XZ ; std::_List_alloc<std::_List_base_types<Raven_Bot *,std::allocator<Raven_Bot *> > >::_Get_data
	mov	ecx, eax
	call	?_Orphan_all@_Container_base12@std@@QAEXXZ ; std::_Container_base12::_Orphan_all

; 753  : 		}

	add	esp, 4
	cmp	ebp, esp
	call	__RTC_CheckEsp
	mov	esp, ebp
	pop	ebp
	ret	0
?_Orphan_all@?$_List_alloc@U?$_List_base_types@PAVRaven_Bot@@V?$allocator@PAVRaven_Bot@@@std@@@std@@@std@@QAEXXZ ENDP ; std::_List_alloc<std::_List_base_types<Raven_Bot *,std::allocator<Raven_Bot *> > >::_Orphan_all
_TEXT	ENDS
; Function compile flags: /Odtp /RTCsu
; File c:\program files (x86)\microsoft visual studio 14.0\vc\include\list
;	COMDAT ?_Freeheadnode@?$_List_alloc@U?$_List_base_types@PAVRaven_Bot@@V?$allocator@PAVRaven_Bot@@@std@@@std@@@std@@QAEXPAU?$_List_node@PAVRaven_Bot@@PAX@2@@Z
_TEXT	SEGMENT
_this$ = -4						; size = 4
__Pnode$ = 8						; size = 4
?_Freeheadnode@?$_List_alloc@U?$_List_base_types@PAVRaven_Bot@@V?$allocator@PAVRaven_Bot@@@std@@@std@@@std@@QAEXPAU?$_List_node@PAVRaven_Bot@@PAX@2@@Z PROC ; std::_List_alloc<std::_List_base_types<Raven_Bot *,std::allocator<Raven_Bot *> > >::_Freeheadnode, COMDAT
; _this$ = ecx

; 719  : 		{	// free head node using current allocator

	push	ebp
	mov	ebp, esp
	push	ecx
	mov	DWORD PTR [ebp-4], -858993460		; ccccccccH
	mov	DWORD PTR _this$[ebp], ecx

; 720  : 		_Getal().destroy(

	mov	eax, DWORD PTR __Pnode$[ebp]
	push	eax
	call	?_Nextnode@?$_List_alloc@U?$_List_base_types@PAVRaven_Bot@@V?$allocator@PAVRaven_Bot@@@std@@@std@@@std@@SAAAPAU?$_List_node@PAVRaven_Bot@@PAX@2@PAU32@@Z ; std::_List_alloc<std::_List_base_types<Raven_Bot *,std::allocator<Raven_Bot *> > >::_Nextnode
	add	esp, 4
	push	eax
	call	??$addressof@PAU?$_List_node@PAVRaven_Bot@@PAX@std@@@std@@YAPAPAU?$_List_node@PAVRaven_Bot@@PAX@0@AAPAU10@@Z ; std::addressof<std::_List_node<Raven_Bot *,void *> *>
	add	esp, 4
	push	eax
	mov	ecx, DWORD PTR _this$[ebp]
	call	?_Getal@?$_List_alloc@U?$_List_base_types@PAVRaven_Bot@@V?$allocator@PAVRaven_Bot@@@std@@@std@@@std@@QAEAAU?$_Wrap_alloc@V?$allocator@U?$_List_node@PAVRaven_Bot@@PAX@std@@@std@@@2@XZ ; std::_List_alloc<std::_List_base_types<Raven_Bot *,std::allocator<Raven_Bot *> > >::_Getal
	mov	ecx, eax
	call	??$destroy@PAU?$_List_node@PAVRaven_Bot@@PAX@std@@@?$_Wrap_alloc@V?$allocator@U?$_List_node@PAVRaven_Bot@@PAX@std@@@std@@@std@@QAEXPAPAU?$_List_node@PAVRaven_Bot@@PAX@1@@Z ; std::_Wrap_alloc<std::allocator<std::_List_node<Raven_Bot *,void *> > >::destroy<std::_List_node<Raven_Bot *,void *> *>

; 721  : 			_STD addressof(_Nextnode(_Pnode)));
; 722  : 		_Getal().destroy(

	mov	ecx, DWORD PTR __Pnode$[ebp]
	push	ecx
	call	?_Prevnode@?$_List_alloc@U?$_List_base_types@PAVRaven_Bot@@V?$allocator@PAVRaven_Bot@@@std@@@std@@@std@@SAAAPAU?$_List_node@PAVRaven_Bot@@PAX@2@PAU32@@Z ; std::_List_alloc<std::_List_base_types<Raven_Bot *,std::allocator<Raven_Bot *> > >::_Prevnode
	add	esp, 4
	push	eax
	call	??$addressof@PAU?$_List_node@PAVRaven_Bot@@PAX@std@@@std@@YAPAPAU?$_List_node@PAVRaven_Bot@@PAX@0@AAPAU10@@Z ; std::addressof<std::_List_node<Raven_Bot *,void *> *>
	add	esp, 4
	push	eax
	mov	ecx, DWORD PTR _this$[ebp]
	call	?_Getal@?$_List_alloc@U?$_List_base_types@PAVRaven_Bot@@V?$allocator@PAVRaven_Bot@@@std@@@std@@@std@@QAEAAU?$_Wrap_alloc@V?$allocator@U?$_List_node@PAVRaven_Bot@@PAX@std@@@std@@@2@XZ ; std::_List_alloc<std::_List_base_types<Raven_Bot *,std::allocator<Raven_Bot *> > >::_Getal
	mov	ecx, eax
	call	??$destroy@PAU?$_List_node@PAVRaven_Bot@@PAX@std@@@?$_Wrap_alloc@V?$allocator@U?$_List_node@PAVRaven_Bot@@PAX@std@@@std@@@std@@QAEXPAPAU?$_List_node@PAVRaven_Bot@@PAX@1@@Z ; std::_Wrap_alloc<std::allocator<std::_List_node<Raven_Bot *,void *> > >::destroy<std::_List_node<Raven_Bot *,void *> *>

; 723  : 			_STD addressof(_Prevnode(_Pnode)));
; 724  : 		_Getal().deallocate(_Pnode, 1);

	push	1
	mov	edx, DWORD PTR __Pnode$[ebp]
	push	edx
	mov	ecx, DWORD PTR _this$[ebp]
	call	?_Getal@?$_List_alloc@U?$_List_base_types@PAVRaven_Bot@@V?$allocator@PAVRaven_Bot@@@std@@@std@@@std@@QAEAAU?$_Wrap_alloc@V?$allocator@U?$_List_node@PAVRaven_Bot@@PAX@std@@@std@@@2@XZ ; std::_List_alloc<std::_List_base_types<Raven_Bot *,std::allocator<Raven_Bot *> > >::_Getal
	mov	ecx, eax
	call	?deallocate@?$_Wrap_alloc@V?$allocator@U?$_List_node@PAVRaven_Bot@@PAX@std@@@std@@@std@@QAEXPAU?$_List_node@PAVRaven_Bot@@PAX@2@I@Z ; std::_Wrap_alloc<std::allocator<std::_List_node<Raven_Bot *,void *> > >::deallocate

; 725  : 		}

	add	esp, 4
	cmp	ebp, esp
	call	__RTC_CheckEsp
	mov	esp, ebp
	pop	ebp
	ret	4
?_Freeheadnode@?$_List_alloc@U?$_List_base_types@PAVRaven_Bot@@V?$allocator@PAVRaven_Bot@@@std@@@std@@@std@@QAEXPAU?$_List_node@PAVRaven_Bot@@PAX@2@@Z ENDP ; std::_List_alloc<std::_List_base_types<Raven_Bot *,std::allocator<Raven_Bot *> > >::_Freeheadnode
_TEXT	ENDS
; Function compile flags: /Odtp /RTCsu
; File c:\program files (x86)\microsoft visual studio 14.0\vc\include\list
;	COMDAT ?_Myproxy@?$_List_alloc@U?$_List_base_types@PAVRaven_Bot@@V?$allocator@PAVRaven_Bot@@@std@@@std@@@std@@QAEAAPAU_Container_proxy@2@XZ
_TEXT	SEGMENT
_this$ = -4						; size = 4
?_Myproxy@?$_List_alloc@U?$_List_base_types@PAVRaven_Bot@@V?$allocator@PAVRaven_Bot@@@std@@@std@@@std@@QAEAAPAU_Container_proxy@2@XZ PROC ; std::_List_alloc<std::_List_base_types<Raven_Bot *,std::allocator<Raven_Bot *> > >::_Myproxy, COMDAT
; _this$ = ecx

; 703  : 		{	// return reference to _Myproxy

	push	ebp
	mov	ebp, esp
	push	ecx
	mov	DWORD PTR [ebp-4], -858993460		; ccccccccH
	mov	DWORD PTR _this$[ebp], ecx

; 704  : 		return (_Get_data()._Myproxy);

	mov	ecx, DWORD PTR _this$[ebp]
	call	?_Get_data@?$_List_alloc@U?$_List_base_types@PAVRaven_Bot@@V?$allocator@PAVRaven_Bot@@@std@@@std@@@std@@QAEAAV?$_List_val@U?$_List_simple_types@PAVRaven_Bot@@@std@@@2@XZ ; std::_List_alloc<std::_List_base_types<Raven_Bot *,std::allocator<Raven_Bot *> > >::_Get_data

; 705  : 		}

	add	esp, 4
	cmp	ebp, esp
	call	__RTC_CheckEsp
	mov	esp, ebp
	pop	ebp
	ret	0
?_Myproxy@?$_List_alloc@U?$_List_base_types@PAVRaven_Bot@@V?$allocator@PAVRaven_Bot@@@std@@@std@@@std@@QAEAAPAU_Container_proxy@2@XZ ENDP ; std::_List_alloc<std::_List_base_types<Raven_Bot *,std::allocator<Raven_Bot *> > >::_Myproxy
_TEXT	ENDS
; Function compile flags: /Odtp /RTCsu
; File c:\program files (x86)\microsoft visual studio 14.0\vc\include\list
;	COMDAT ?_Getpfirst@?$_List_alloc@U?$_List_base_types@PAVRaven_Bot@@V?$allocator@PAVRaven_Bot@@@std@@@std@@@std@@QBEPAPAU_Iterator_base12@2@XZ
_TEXT	SEGMENT
_this$ = -4						; size = 4
?_Getpfirst@?$_List_alloc@U?$_List_base_types@PAVRaven_Bot@@V?$allocator@PAVRaven_Bot@@@std@@@std@@@std@@QBEPAPAU_Iterator_base12@2@XZ PROC ; std::_List_alloc<std::_List_base_types<Raven_Bot *,std::allocator<Raven_Bot *> > >::_Getpfirst, COMDAT
; _this$ = ecx

; 698  : 		{	// get address of iterator chain

	push	ebp
	mov	ebp, esp
	push	ecx
	mov	DWORD PTR [ebp-4], -858993460		; ccccccccH
	mov	DWORD PTR _this$[ebp], ecx

; 699  : 		return (_Get_data()._Getpfirst());

	mov	ecx, DWORD PTR _this$[ebp]
	call	?_Get_data@?$_List_alloc@U?$_List_base_types@PAVRaven_Bot@@V?$allocator@PAVRaven_Bot@@@std@@@std@@@std@@QBEABV?$_List_val@U?$_List_simple_types@PAVRaven_Bot@@@std@@@2@XZ ; std::_List_alloc<std::_List_base_types<Raven_Bot *,std::allocator<Raven_Bot *> > >::_Get_data
	mov	ecx, eax
	call	?_Getpfirst@_Container_base12@std@@QBEPAPAU_Iterator_base12@2@XZ ; std::_Container_base12::_Getpfirst

; 700  : 		}

	add	esp, 4
	cmp	ebp, esp
	call	__RTC_CheckEsp
	mov	esp, ebp
	pop	ebp
	ret	0
?_Getpfirst@?$_List_alloc@U?$_List_base_types@PAVRaven_Bot@@V?$allocator@PAVRaven_Bot@@@std@@@std@@@std@@QBEPAPAU_Iterator_base12@2@XZ ENDP ; std::_List_alloc<std::_List_base_types<Raven_Bot *,std::allocator<Raven_Bot *> > >::_Getpfirst
_TEXT	ENDS
; Function compile flags: /Odtp /RTCsu
; File c:\program files (x86)\microsoft visual studio 14.0\vc\include\list
;	COMDAT ?_Free_proxy@?$_List_alloc@U?$_List_base_types@PAVRaven_Bot@@V?$allocator@PAVRaven_Bot@@@std@@@std@@@std@@QAEXXZ
_TEXT	SEGMENT
__Alproxy$ = -9						; size = 1
_this$ = -4						; size = 4
?_Free_proxy@?$_List_alloc@U?$_List_base_types@PAVRaven_Bot@@V?$allocator@PAVRaven_Bot@@@std@@@std@@@std@@QAEXXZ PROC ; std::_List_alloc<std::_List_base_types<Raven_Bot *,std::allocator<Raven_Bot *> > >::_Free_proxy, COMDAT
; _this$ = ecx

; 688  : 		{	// destroy proxy

	push	ebp
	mov	ebp, esp
	sub	esp, 16					; 00000010H
	mov	eax, -858993460				; ccccccccH
	mov	DWORD PTR [ebp-16], eax
	mov	DWORD PTR [ebp-12], eax
	mov	DWORD PTR [ebp-8], eax
	mov	DWORD PTR [ebp-4], eax
	mov	DWORD PTR _this$[ebp], ecx

; 689  : 		typename _Alty::template rebind<_Container_proxy>::other
; 690  : 			_Alproxy(_Getal());

	mov	ecx, DWORD PTR _this$[ebp]
	call	?_Getal@?$_List_alloc@U?$_List_base_types@PAVRaven_Bot@@V?$allocator@PAVRaven_Bot@@@std@@@std@@@std@@QAEAAU?$_Wrap_alloc@V?$allocator@U?$_List_node@PAVRaven_Bot@@PAX@std@@@std@@@2@XZ ; std::_List_alloc<std::_List_base_types<Raven_Bot *,std::allocator<Raven_Bot *> > >::_Getal
	push	eax
	lea	ecx, DWORD PTR __Alproxy$[ebp]
	call	??$?0AAU?$_Wrap_alloc@V?$allocator@U?$_List_node@PAVRaven_Bot@@PAX@std@@@std@@@std@@@?$_Wrap_alloc@V?$allocator@U_Container_proxy@std@@@std@@@std@@QAE@AAU?$_Wrap_alloc@V?$allocator@U?$_List_node@PAVRaven_Bot@@PAX@std@@@std@@@1@@Z ; std::_Wrap_alloc<std::allocator<std::_Container_proxy> >::_Wrap_alloc<std::allocator<std::_Container_proxy> ><std::_Wrap_alloc<std::allocator<std::_List_node<Raven_Bot *,void *> > > &>

; 691  : 		_Orphan_all();

	mov	ecx, DWORD PTR _this$[ebp]
	call	?_Orphan_all@?$_List_alloc@U?$_List_base_types@PAVRaven_Bot@@V?$allocator@PAVRaven_Bot@@@std@@@std@@@std@@QAEXXZ ; std::_List_alloc<std::_List_base_types<Raven_Bot *,std::allocator<Raven_Bot *> > >::_Orphan_all

; 692  : 		_Alproxy.destroy(_Myproxy());

	mov	ecx, DWORD PTR _this$[ebp]
	call	?_Myproxy@?$_List_alloc@U?$_List_base_types@PAVRaven_Bot@@V?$allocator@PAVRaven_Bot@@@std@@@std@@@std@@QAEAAPAU_Container_proxy@2@XZ ; std::_List_alloc<std::_List_base_types<Raven_Bot *,std::allocator<Raven_Bot *> > >::_Myproxy
	mov	eax, DWORD PTR [eax]
	push	eax
	lea	ecx, DWORD PTR __Alproxy$[ebp]
	call	??$destroy@U_Container_proxy@std@@@?$_Wrap_alloc@V?$allocator@U_Container_proxy@std@@@std@@@std@@QAEXPAU_Container_proxy@1@@Z ; std::_Wrap_alloc<std::allocator<std::_Container_proxy> >::destroy<std::_Container_proxy>

; 693  : 		_Alproxy.deallocate(_Alproxy.address(*_Myproxy()), 1);

	push	1
	mov	ecx, DWORD PTR _this$[ebp]
	call	?_Myproxy@?$_List_alloc@U?$_List_base_types@PAVRaven_Bot@@V?$allocator@PAVRaven_Bot@@@std@@@std@@@std@@QAEAAPAU_Container_proxy@2@XZ ; std::_List_alloc<std::_List_base_types<Raven_Bot *,std::allocator<Raven_Bot *> > >::_Myproxy
	mov	ecx, DWORD PTR [eax]
	push	ecx
	lea	ecx, DWORD PTR __Alproxy$[ebp]
	call	?address@?$_Wrap_alloc@V?$allocator@U_Container_proxy@std@@@std@@@std@@QBEPAU_Container_proxy@2@AAU32@@Z ; std::_Wrap_alloc<std::allocator<std::_Container_proxy> >::address
	push	eax
	lea	ecx, DWORD PTR __Alproxy$[ebp]
	call	?deallocate@?$_Wrap_alloc@V?$allocator@U_Container_proxy@std@@@std@@@std@@QAEXPAU_Container_proxy@2@I@Z ; std::_Wrap_alloc<std::allocator<std::_Container_proxy> >::deallocate

; 694  : 		_Myproxy() = 0;

	mov	ecx, DWORD PTR _this$[ebp]
	call	?_Myproxy@?$_List_alloc@U?$_List_base_types@PAVRaven_Bot@@V?$allocator@PAVRaven_Bot@@@std@@@std@@@std@@QAEAAPAU_Container_proxy@2@XZ ; std::_List_alloc<std::_List_base_types<Raven_Bot *,std::allocator<Raven_Bot *> > >::_Myproxy
	mov	DWORD PTR [eax], 0

; 695  : 		}

	push	edx
	mov	ecx, ebp
	push	eax
	lea	edx, DWORD PTR $LN5@Free_proxy
	call	@_RTC_CheckStackVars@8
	pop	eax
	pop	edx
	add	esp, 16					; 00000010H
	cmp	ebp, esp
	call	__RTC_CheckEsp
	mov	esp, ebp
	pop	ebp
	ret	0
	npad	3
$LN5@Free_proxy:
	DD	1
	DD	$LN4@Free_proxy
$LN4@Free_proxy:
	DD	-9					; fffffff7H
	DD	1
	DD	$LN3@Free_proxy
$LN3@Free_proxy:
	DB	95					; 0000005fH
	DB	65					; 00000041H
	DB	108					; 0000006cH
	DB	112					; 00000070H
	DB	114					; 00000072H
	DB	111					; 0000006fH
	DB	120					; 00000078H
	DB	121					; 00000079H
	DB	0
?_Free_proxy@?$_List_alloc@U?$_List_base_types@PAVRaven_Bot@@V?$allocator@PAVRaven_Bot@@@std@@@std@@@std@@QAEXXZ ENDP ; std::_List_alloc<std::_List_base_types<Raven_Bot *,std::allocator<Raven_Bot *> > >::_Free_proxy
_TEXT	ENDS
; Function compile flags: /Odtp /RTCsu
; File c:\program files (x86)\microsoft visual studio 14.0\vc\include\list
;	COMDAT ??1?$_List_alloc@U?$_List_base_types@PAVRaven_Bot@@V?$allocator@PAVRaven_Bot@@@std@@@std@@@std@@QAE@XZ
_TEXT	SEGMENT
_this$ = -16						; size = 4
__$EHRec$ = -12						; size = 12
??1?$_List_alloc@U?$_List_base_types@PAVRaven_Bot@@V?$allocator@PAVRaven_Bot@@@std@@@std@@@std@@QAE@XZ PROC ; std::_List_alloc<std::_List_base_types<Raven_Bot *,std::allocator<Raven_Bot *> > >::~_List_alloc<std::_List_base_types<Raven_Bot *,std::allocator<Raven_Bot *> > >, COMDAT
; _this$ = ecx

; 659  : 		{	// destroy proxy

	push	ebp
	mov	ebp, esp
	push	-1
	push	__ehhandler$??1?$_List_alloc@U?$_List_base_types@PAVRaven_Bot@@V?$allocator@PAVRaven_Bot@@@std@@@std@@@std@@QAE@XZ
	mov	eax, DWORD PTR fs:0
	push	eax
	push	ecx
	mov	DWORD PTR [ebp-16], -858993460		; ccccccccH
	mov	eax, DWORD PTR ___security_cookie
	xor	eax, ebp
	push	eax
	lea	eax, DWORD PTR __$EHRec$[ebp]
	mov	DWORD PTR fs:0, eax
	mov	DWORD PTR _this$[ebp], ecx

; 660  : 		_Freeheadnode(_Myhead());

	mov	ecx, DWORD PTR _this$[ebp]
	call	?_Myhead@?$_List_alloc@U?$_List_base_types@PAVRaven_Bot@@V?$allocator@PAVRaven_Bot@@@std@@@std@@@std@@QAEAAPAU?$_List_node@PAVRaven_Bot@@PAX@2@XZ ; std::_List_alloc<std::_List_base_types<Raven_Bot *,std::allocator<Raven_Bot *> > >::_Myhead
	mov	eax, DWORD PTR [eax]
	push	eax
	mov	ecx, DWORD PTR _this$[ebp]
	call	?_Freeheadnode@?$_List_alloc@U?$_List_base_types@PAVRaven_Bot@@V?$allocator@PAVRaven_Bot@@@std@@@std@@@std@@QAEXPAU?$_List_node@PAVRaven_Bot@@PAX@2@@Z ; std::_List_alloc<std::_List_base_types<Raven_Bot *,std::allocator<Raven_Bot *> > >::_Freeheadnode

; 661  : 		_Free_proxy();

	mov	ecx, DWORD PTR _this$[ebp]
	call	?_Free_proxy@?$_List_alloc@U?$_List_base_types@PAVRaven_Bot@@V?$allocator@PAVRaven_Bot@@@std@@@std@@@std@@QAEXXZ ; std::_List_alloc<std::_List_base_types<Raven_Bot *,std::allocator<Raven_Bot *> > >::_Free_proxy

; 662  : 		}

	mov	ecx, DWORD PTR _this$[ebp]
	call	??1?$_Compressed_pair@U?$_Wrap_alloc@V?$allocator@U?$_List_node@PAVRaven_Bot@@PAX@std@@@std@@@std@@V?$_List_val@U?$_List_simple_types@PAVRaven_Bot@@@std@@@2@$00@std@@QAE@XZ
	mov	ecx, DWORD PTR __$EHRec$[ebp]
	mov	DWORD PTR fs:0, ecx
	pop	ecx
	add	esp, 16					; 00000010H
	cmp	ebp, esp
	call	__RTC_CheckEsp
	mov	esp, ebp
	pop	ebp
	ret	0
_TEXT	ENDS
;	COMDAT text$x
text$x	SEGMENT
__ehhandler$??1?$_List_alloc@U?$_List_base_types@PAVRaven_Bot@@V?$allocator@PAVRaven_Bot@@@std@@@std@@@std@@QAE@XZ:
	mov	edx, DWORD PTR [esp+8]
	lea	eax, DWORD PTR [edx+12]
	mov	ecx, DWORD PTR [edx-8]
	xor	ecx, eax
	call	@__security_check_cookie@4
	mov	eax, OFFSET __ehfuncinfo$??1?$_List_alloc@U?$_List_base_types@PAVRaven_Bot@@V?$allocator@PAVRaven_Bot@@@std@@@std@@@std@@QAE@XZ
	jmp	___CxxFrameHandler3
text$x	ENDS
??1?$_List_alloc@U?$_List_base_types@PAVRaven_Bot@@V?$allocator@PAVRaven_Bot@@@std@@@std@@@std@@QAE@XZ ENDP ; std::_List_alloc<std::_List_base_types<Raven_Bot *,std::allocator<Raven_Bot *> > >::~_List_alloc<std::_List_base_types<Raven_Bot *,std::allocator<Raven_Bot *> > >
; Function compile flags: /Odtp /RTCsu
; File c:\program files (x86)\microsoft visual studio 14.0\vc\include\list
;	COMDAT ?_Myval@?$_List_alloc@U?$_List_base_types@PAVRaven_Bot@@V?$allocator@PAVRaven_Bot@@@std@@@std@@@std@@SAAAPAVRaven_Bot@@PAU?$_List_node@PAVRaven_Bot@@PAX@2@@Z
_TEXT	SEGMENT
__Pnode$ = 8						; size = 4
?_Myval@?$_List_alloc@U?$_List_base_types@PAVRaven_Bot@@V?$allocator@PAVRaven_Bot@@@std@@@std@@@std@@SAAAPAVRaven_Bot@@PAU?$_List_node@PAVRaven_Bot@@PAX@2@@Z PROC ; std::_List_alloc<std::_List_base_types<Raven_Bot *,std::allocator<Raven_Bot *> > >::_Myval, COMDAT

; 595  : 		{	// return reference to value in node

	push	ebp
	mov	ebp, esp

; 596  : 		return (_List_val<_Val_types>::_Myval(_Pnode));

	mov	eax, DWORD PTR __Pnode$[ebp]
	push	eax
	call	?_Myval@?$_List_val@U?$_List_simple_types@PAVRaven_Bot@@@std@@@std@@SAAAPAVRaven_Bot@@PAU?$_List_node@PAVRaven_Bot@@PAX@2@@Z ; std::_List_val<std::_List_simple_types<Raven_Bot *> >::_Myval
	add	esp, 4

; 597  : 		}

	cmp	ebp, esp
	call	__RTC_CheckEsp
	pop	ebp
	ret	0
?_Myval@?$_List_alloc@U?$_List_base_types@PAVRaven_Bot@@V?$allocator@PAVRaven_Bot@@@std@@@std@@@std@@SAAAPAVRaven_Bot@@PAU?$_List_node@PAVRaven_Bot@@PAX@2@@Z ENDP ; std::_List_alloc<std::_List_base_types<Raven_Bot *,std::allocator<Raven_Bot *> > >::_Myval
_TEXT	ENDS
; Function compile flags: /Odtp /RTCsu
; File c:\program files (x86)\microsoft visual studio 14.0\vc\include\list
;	COMDAT ?_Prevnode@?$_List_alloc@U?$_List_base_types@PAVRaven_Bot@@V?$allocator@PAVRaven_Bot@@@std@@@std@@@std@@SAAAPAU?$_List_node@PAVRaven_Bot@@PAX@2@PAU32@@Z
_TEXT	SEGMENT
__Pnode$ = 8						; size = 4
?_Prevnode@?$_List_alloc@U?$_List_base_types@PAVRaven_Bot@@V?$allocator@PAVRaven_Bot@@@std@@@std@@@std@@SAAAPAU?$_List_node@PAVRaven_Bot@@PAX@2@PAU32@@Z PROC ; std::_List_alloc<std::_List_base_types<Raven_Bot *,std::allocator<Raven_Bot *> > >::_Prevnode, COMDAT

; 590  : 		{	// return reference to predecessor pointer in node

	push	ebp
	mov	ebp, esp

; 591  : 		return (_List_val<_Val_types>::_Prevnode(_Pnode));

	mov	eax, DWORD PTR __Pnode$[ebp]
	push	eax
	call	?_Prevnode@?$_List_val@U?$_List_simple_types@PAVRaven_Bot@@@std@@@std@@SAAAPAU?$_List_node@PAVRaven_Bot@@PAX@2@PAU32@@Z ; std::_List_val<std::_List_simple_types<Raven_Bot *> >::_Prevnode
	add	esp, 4

; 592  : 		}

	cmp	ebp, esp
	call	__RTC_CheckEsp
	pop	ebp
	ret	0
?_Prevnode@?$_List_alloc@U?$_List_base_types@PAVRaven_Bot@@V?$allocator@PAVRaven_Bot@@@std@@@std@@@std@@SAAAPAU?$_List_node@PAVRaven_Bot@@PAX@2@PAU32@@Z ENDP ; std::_List_alloc<std::_List_base_types<Raven_Bot *,std::allocator<Raven_Bot *> > >::_Prevnode
_TEXT	ENDS
; Function compile flags: /Odtp /RTCsu
; File c:\program files (x86)\microsoft visual studio 14.0\vc\include\list
;	COMDAT ?_Nextnode@?$_List_alloc@U?$_List_base_types@PAVRaven_Bot@@V?$allocator@PAVRaven_Bot@@@std@@@std@@@std@@SAAAPAU?$_List_node@PAVRaven_Bot@@PAX@2@PAU32@@Z
_TEXT	SEGMENT
__Pnode$ = 8						; size = 4
?_Nextnode@?$_List_alloc@U?$_List_base_types@PAVRaven_Bot@@V?$allocator@PAVRaven_Bot@@@std@@@std@@@std@@SAAAPAU?$_List_node@PAVRaven_Bot@@PAX@2@PAU32@@Z PROC ; std::_List_alloc<std::_List_base_types<Raven_Bot *,std::allocator<Raven_Bot *> > >::_Nextnode, COMDAT

; 585  : 		{	// return reference to successor pointer in node

	push	ebp
	mov	ebp, esp

; 586  : 		return (_List_val<_Val_types>::_Nextnode(_Pnode));

	mov	eax, DWORD PTR __Pnode$[ebp]
	push	eax
	call	?_Nextnode@?$_List_val@U?$_List_simple_types@PAVRaven_Bot@@@std@@@std@@SAAAPAU?$_List_node@PAVRaven_Bot@@PAX@2@PAU32@@Z ; std::_List_val<std::_List_simple_types<Raven_Bot *> >::_Nextnode
	add	esp, 4

; 587  : 		}

	cmp	ebp, esp
	call	__RTC_CheckEsp
	pop	ebp
	ret	0
?_Nextnode@?$_List_alloc@U?$_List_base_types@PAVRaven_Bot@@V?$allocator@PAVRaven_Bot@@@std@@@std@@@std@@SAAAPAU?$_List_node@PAVRaven_Bot@@PAX@2@PAU32@@Z ENDP ; std::_List_alloc<std::_List_base_types<Raven_Bot *,std::allocator<Raven_Bot *> > >::_Nextnode
_TEXT	ENDS
; Function compile flags: /Odtp /RTCsu
; File c:\program files (x86)\microsoft visual studio 14.0\vc\include\xmemory0
;	COMDAT ?deallocate@?$_Wrap_alloc@V?$allocator@U?$_List_node@PAVRaven_Bot@@PAX@std@@@std@@@std@@QAEXPAU?$_List_node@PAVRaven_Bot@@PAX@2@I@Z
_TEXT	SEGMENT
_this$ = -4						; size = 4
__Ptr$ = 8						; size = 4
__Count$ = 12						; size = 4
?deallocate@?$_Wrap_alloc@V?$allocator@U?$_List_node@PAVRaven_Bot@@PAX@std@@@std@@@std@@QAEXPAU?$_List_node@PAVRaven_Bot@@PAX@2@I@Z PROC ; std::_Wrap_alloc<std::allocator<std::_List_node<Raven_Bot *,void *> > >::deallocate, COMDAT
; _this$ = ecx

; 986  : 		{	// deallocate object at _Ptr, ignore size

	push	ebp
	mov	ebp, esp
	push	ecx
	mov	DWORD PTR [ebp-4], -858993460		; ccccccccH
	mov	DWORD PTR _this$[ebp], ecx

; 987  : 		_Mybase::deallocate(_Ptr, _Count);

	mov	eax, DWORD PTR __Count$[ebp]
	push	eax
	mov	ecx, DWORD PTR __Ptr$[ebp]
	push	ecx
	mov	ecx, DWORD PTR _this$[ebp]
	call	?deallocate@?$allocator@U?$_List_node@PAVRaven_Bot@@PAX@std@@@std@@QAEXPAU?$_List_node@PAVRaven_Bot@@PAX@2@I@Z ; std::allocator<std::_List_node<Raven_Bot *,void *> >::deallocate

; 988  : 		}

	add	esp, 4
	cmp	ebp, esp
	call	__RTC_CheckEsp
	mov	esp, ebp
	pop	ebp
	ret	8
?deallocate@?$_Wrap_alloc@V?$allocator@U?$_List_node@PAVRaven_Bot@@PAX@std@@@std@@@std@@QAEXPAU?$_List_node@PAVRaven_Bot@@PAX@2@I@Z ENDP ; std::_Wrap_alloc<std::allocator<std::_List_node<Raven_Bot *,void *> > >::deallocate
_TEXT	ENDS
; Function compile flags: /Odtp /RTCsu
; File c:\program files (x86)\microsoft visual studio 14.0\vc\include\xmemory0
;	COMDAT ?deallocate@?$allocator@U?$_List_node@PAVRaven_Bot@@PAX@std@@@std@@QAEXPAU?$_List_node@PAVRaven_Bot@@PAX@2@I@Z
_TEXT	SEGMENT
_this$ = -4						; size = 4
__Ptr$ = 8						; size = 4
__Count$ = 12						; size = 4
?deallocate@?$allocator@U?$_List_node@PAVRaven_Bot@@PAX@std@@@std@@QAEXPAU?$_List_node@PAVRaven_Bot@@PAX@2@I@Z PROC ; std::allocator<std::_List_node<Raven_Bot *,void *> >::deallocate, COMDAT
; _this$ = ecx

; 719  : 		{	// deallocate object at _Ptr

	push	ebp
	mov	ebp, esp
	push	ecx
	mov	DWORD PTR [ebp-4], -858993460		; ccccccccH
	mov	DWORD PTR _this$[ebp], ecx

; 720  : 		_Deallocate(_Ptr, _Count, sizeof (_Ty));

	push	12					; 0000000cH
	mov	eax, DWORD PTR __Count$[ebp]
	push	eax
	mov	ecx, DWORD PTR __Ptr$[ebp]
	push	ecx
	call	?_Deallocate@std@@YAXPAXII@Z		; std::_Deallocate
	add	esp, 12					; 0000000cH

; 721  : 		}

	add	esp, 4
	cmp	ebp, esp
	call	__RTC_CheckEsp
	mov	esp, ebp
	pop	ebp
	ret	8
?deallocate@?$allocator@U?$_List_node@PAVRaven_Bot@@PAX@std@@@std@@QAEXPAU?$_List_node@PAVRaven_Bot@@PAX@2@I@Z ENDP ; std::allocator<std::_List_node<Raven_Bot *,void *> >::deallocate
_TEXT	ENDS
; Function compile flags: /Odtp /RTCsu
; File e:\documents\cours\git\raven\raven\2d\wall2d.h
;	COMDAT ?To@Wall2D@@QBE?AUVector2D@@XZ
_TEXT	SEGMENT
_this$ = -4						; size = 4
___$ReturnUdt$ = 8					; size = 4
?To@Wall2D@@QBE?AUVector2D@@XZ PROC			; Wall2D::To, COMDAT
; _this$ = ecx

; 66   :   Vector2D To()const    {return m_vB;}

	push	ebp
	mov	ebp, esp
	push	ecx
	mov	DWORD PTR [ebp-4], -858993460		; ccccccccH
	mov	DWORD PTR _this$[ebp], ecx
	mov	eax, DWORD PTR _this$[ebp]
	add	eax, 24					; 00000018H
	mov	ecx, DWORD PTR ___$ReturnUdt$[ebp]
	mov	edx, DWORD PTR [eax]
	mov	DWORD PTR [ecx], edx
	mov	edx, DWORD PTR [eax+4]
	mov	DWORD PTR [ecx+4], edx
	mov	edx, DWORD PTR [eax+8]
	mov	DWORD PTR [ecx+8], edx
	mov	eax, DWORD PTR [eax+12]
	mov	DWORD PTR [ecx+12], eax
	mov	eax, DWORD PTR ___$ReturnUdt$[ebp]
	mov	esp, ebp
	pop	ebp
	ret	4
?To@Wall2D@@QBE?AUVector2D@@XZ ENDP			; Wall2D::To
_TEXT	ENDS
; Function compile flags: /Odtp /RTCsu
; File e:\documents\cours\git\raven\raven\2d\wall2d.h
;	COMDAT ?From@Wall2D@@QBE?AUVector2D@@XZ
_TEXT	SEGMENT
_this$ = -4						; size = 4
___$ReturnUdt$ = 8					; size = 4
?From@Wall2D@@QBE?AUVector2D@@XZ PROC			; Wall2D::From, COMDAT
; _this$ = ecx

; 63   :   Vector2D From()const  {return m_vA;}

	push	ebp
	mov	ebp, esp
	push	ecx
	mov	DWORD PTR [ebp-4], -858993460		; ccccccccH
	mov	DWORD PTR _this$[ebp], ecx
	mov	eax, DWORD PTR _this$[ebp]
	add	eax, 8
	mov	ecx, DWORD PTR ___$ReturnUdt$[ebp]
	mov	edx, DWORD PTR [eax]
	mov	DWORD PTR [ecx], edx
	mov	edx, DWORD PTR [eax+4]
	mov	DWORD PTR [ecx+4], edx
	mov	edx, DWORD PTR [eax+8]
	mov	DWORD PTR [ecx+8], edx
	mov	eax, DWORD PTR [eax+12]
	mov	DWORD PTR [ecx+12], eax
	mov	eax, DWORD PTR ___$ReturnUdt$[ebp]
	mov	esp, ebp
	pop	ebp
	ret	4
?From@Wall2D@@QBE?AUVector2D@@XZ ENDP			; Wall2D::From
_TEXT	ENDS
; Function compile flags: /Odtp /RTCsu
; File e:\documents\cours\git\raven\raven\raven_bot.h
;	COMDAT ?GetWorld@Raven_Bot@@QAEQAVRaven_Game@@XZ
_TEXT	SEGMENT
_this$ = -4						; size = 4
?GetWorld@Raven_Bot@@QAEQAVRaven_Game@@XZ PROC		; Raven_Bot::GetWorld, COMDAT
; _this$ = ecx

; 203  :   Raven_Game* const                  GetWorld(){return m_pWorld;} 

	push	ebp
	mov	ebp, esp
	push	ecx
	mov	DWORD PTR [ebp-4], -858993460		; ccccccccH
	mov	DWORD PTR _this$[ebp], ecx
	mov	eax, DWORD PTR _this$[ebp]
	mov	eax, DWORD PTR [eax+148]
	mov	esp, ebp
	pop	ebp
	ret	0
?GetWorld@Raven_Bot@@QAEQAVRaven_Game@@XZ ENDP		; Raven_Bot::GetWorld
_TEXT	ENDS
; Function compile flags: /Odtp /RTCsu
; File e:\documents\cours\git\raven\raven\raven_bot.h
;	COMDAT ?Facing@Raven_Bot@@QBE?AUVector2D@@XZ
_TEXT	SEGMENT
_this$ = -4						; size = 4
___$ReturnUdt$ = 8					; size = 4
?Facing@Raven_Bot@@QBE?AUVector2D@@XZ PROC		; Raven_Bot::Facing, COMDAT
; _this$ = ecx

; 152  :   Vector2D      Facing()const{return m_vFacing;}

	push	ebp
	mov	ebp, esp
	push	ecx
	mov	DWORD PTR [ebp-4], -858993460		; ccccccccH
	mov	DWORD PTR _this$[ebp], ecx
	mov	eax, DWORD PTR _this$[ebp]
	add	eax, 208				; 000000d0H
	mov	ecx, DWORD PTR ___$ReturnUdt$[ebp]
	mov	edx, DWORD PTR [eax]
	mov	DWORD PTR [ecx], edx
	mov	edx, DWORD PTR [eax+4]
	mov	DWORD PTR [ecx+4], edx
	mov	edx, DWORD PTR [eax+8]
	mov	DWORD PTR [ecx+8], edx
	mov	eax, DWORD PTR [eax+12]
	mov	DWORD PTR [ecx+12], eax
	mov	eax, DWORD PTR ___$ReturnUdt$[ebp]
	mov	esp, ebp
	pop	ebp
	ret	4
?Facing@Raven_Bot@@QBE?AUVector2D@@XZ ENDP		; Raven_Bot::Facing
_TEXT	ENDS
; Function compile flags: /Odtp /RTCsu
; File e:\documents\cours\git\raven\raven\misc\cgdi.h
;	COMDAT ?Line@Cgdi@@QAEXUVector2D@@0@Z
_TEXT	SEGMENT
_this$ = -4						; size = 4
_from$ = 8						; size = 16
_to$ = 24						; size = 16
?Line@Cgdi@@QAEXUVector2D@@0@Z PROC			; Cgdi::Line, COMDAT
; _this$ = ecx

; 244  :   {

	push	ebp
	mov	ebp, esp
	push	ecx
	push	esi
	mov	DWORD PTR [ebp-4], -858993460		; ccccccccH
	mov	DWORD PTR _this$[ebp], ecx

; 245  :     MoveToEx(m_hdc, (int)from.x, (int)from.y, NULL);

	mov	esi, esp
	push	0
	cvttsd2si eax, QWORD PTR _from$[ebp+8]
	push	eax
	cvttsd2si ecx, QWORD PTR _from$[ebp]
	push	ecx
	mov	edx, DWORD PTR _this$[ebp]
	mov	eax, DWORD PTR [edx+124]
	push	eax
	call	DWORD PTR __imp__MoveToEx@16
	cmp	esi, esp
	call	__RTC_CheckEsp

; 246  :     LineTo(m_hdc, (int)to.x, (int)to.y);

	cvttsd2si ecx, QWORD PTR _to$[ebp+8]
	mov	esi, esp
	push	ecx
	cvttsd2si edx, QWORD PTR _to$[ebp]
	push	edx
	mov	eax, DWORD PTR _this$[ebp]
	mov	ecx, DWORD PTR [eax+124]
	push	ecx
	call	DWORD PTR __imp__LineTo@12
	cmp	esi, esp
	call	__RTC_CheckEsp

; 247  :   }

	pop	esi
	add	esp, 4
	cmp	ebp, esp
	call	__RTC_CheckEsp
	mov	esp, ebp
	pop	ebp
	ret	32					; 00000020H
?Line@Cgdi@@QAEXUVector2D@@0@Z ENDP			; Cgdi::Line
_TEXT	ENDS
; Function compile flags: /Odtp /RTCsu
; File e:\documents\cours\git\raven\raven\misc\cgdi.h
;	COMDAT ?GreenPen@Cgdi@@QAEXXZ
_TEXT	SEGMENT
_this$ = -4						; size = 4
?GreenPen@Cgdi@@QAEXXZ PROC				; Cgdi::GreenPen, COMDAT
; _this$ = ecx

; 139  :   void GreenPen(){if(m_hdc){SelectObject(m_hdc, m_GreenPen);}}

	push	ebp
	mov	ebp, esp
	push	ecx
	push	esi
	mov	DWORD PTR [ebp-4], -858993460		; ccccccccH
	mov	DWORD PTR _this$[ebp], ecx
	mov	eax, DWORD PTR _this$[ebp]
	cmp	DWORD PTR [eax+124], 0
	je	SHORT $LN1@GreenPen
	mov	esi, esp
	mov	ecx, DWORD PTR _this$[ebp]
	mov	edx, DWORD PTR [ecx+16]
	push	edx
	mov	eax, DWORD PTR _this$[ebp]
	mov	ecx, DWORD PTR [eax+124]
	push	ecx
	call	DWORD PTR __imp__SelectObject@8
	cmp	esi, esp
	call	__RTC_CheckEsp
$LN1@GreenPen:
	pop	esi
	add	esp, 4
	cmp	ebp, esp
	call	__RTC_CheckEsp
	mov	esp, ebp
	pop	ebp
	ret	0
?GreenPen@Cgdi@@QAEXXZ ENDP				; Cgdi::GreenPen
_TEXT	ENDS
; Function compile flags: /Odtp /RTCsu
; File e:\documents\cours\git\raven\raven\script\luahelperfunctions.h
;	COMDAT ??$PopLuaNumber@N@@YANPAUlua_State@@PBD@Z
_TEXT	SEGMENT
tv95 = -108						; size = 4
tv75 = -104						; size = 4
$T2 = -100						; size = 12
_val$ = -88						; size = 8
$T3 = -80						; size = 28
_err$4 = -48						; size = 28
__$ArrayPad$ = -16					; size = 4
__$EHRec$ = -12						; size = 12
_pL$ = 8						; size = 4
_name$ = 12						; size = 4
??$PopLuaNumber@N@@YANPAUlua_State@@PBD@Z PROC		; PopLuaNumber<double>, COMDAT

; 66   : {

	push	ebp
	mov	ebp, esp
	push	-1
	push	__ehhandler$??$PopLuaNumber@N@@YANPAUlua_State@@PBD@Z
	mov	eax, DWORD PTR fs:0
	push	eax
	sub	esp, 96					; 00000060H
	push	edi
	lea	edi, DWORD PTR [ebp-108]
	mov	ecx, 24					; 00000018H
	mov	eax, -858993460				; ccccccccH
	rep stosd
	mov	eax, DWORD PTR ___security_cookie
	xor	eax, ebp
	mov	DWORD PTR __$ArrayPad$[ebp], eax
	push	eax
	lea	eax, DWORD PTR __$EHRec$[ebp]
	mov	DWORD PTR fs:0, eax

; 67   :   lua_settop(pL, 0);

	push	0
	mov	eax, DWORD PTR _pL$[ebp]
	push	eax
	call	_lua_settop
	add	esp, 8

; 68   : 
; 69   :   lua_getglobal(pL, name);

	mov	ecx, DWORD PTR _name$[ebp]
	push	ecx
	mov	edx, DWORD PTR _pL$[ebp]
	push	edx
	call	_lua_pushstring
	add	esp, 8
	push	-10001					; ffffd8efH
	mov	eax, DWORD PTR _pL$[ebp]
	push	eax
	call	_lua_gettable
	add	esp, 8

; 70   : 
; 71   :   //check that the variable is the correct type. If it is not throw an
; 72   :   //exception
; 73   :   if (!lua_isnumber(pL, 1))

	push	1
	mov	ecx, DWORD PTR _pL$[ebp]
	push	ecx
	call	_lua_isnumber
	add	esp, 8
	test	eax, eax
	jne	SHORT $LN2@PopLuaNumb

; 74   :   {
; 75   :     std::string err("<PopLuaNumber> Cannot retrieve: ");

	push	OFFSET ??_C@_0CB@NOKEJIID@?$DMPopLuaNumber?$DO?5Cannot?5retrieve?3?5@
	lea	ecx, DWORD PTR _err$4[ebp]
	call	??0?$basic_string@DU?$char_traits@D@std@@V?$allocator@D@2@@std@@QAE@PBD@Z ; std::basic_string<char,std::char_traits<char>,std::allocator<char> >::basic_string<char,std::char_traits<char>,std::allocator<char> >
	mov	DWORD PTR __$EHRec$[ebp+8], 0

; 76   : 
; 77   :     throw std::runtime_error(err + name);

	mov	edx, DWORD PTR _name$[ebp]
	push	edx
	lea	eax, DWORD PTR _err$4[ebp]
	push	eax
	lea	ecx, DWORD PTR $T3[ebp]
	push	ecx
	call	??$?HDU?$char_traits@D@std@@V?$allocator@D@1@@std@@YA?AV?$basic_string@DU?$char_traits@D@std@@V?$allocator@D@2@@0@ABV10@PBD@Z ; std::operator+<char,std::char_traits<char>,std::allocator<char> >
	add	esp, 12					; 0000000cH
	mov	DWORD PTR tv75[ebp], eax
	mov	edx, DWORD PTR tv75[ebp]
	mov	DWORD PTR tv95[ebp], edx
	mov	BYTE PTR __$EHRec$[ebp+8], 1
	mov	eax, DWORD PTR tv95[ebp]
	push	eax
	lea	ecx, DWORD PTR $T2[ebp]
	call	??0runtime_error@std@@QAE@ABV?$basic_string@DU?$char_traits@D@std@@V?$allocator@D@2@@1@@Z ; std::runtime_error::runtime_error
	push	OFFSET __TI2?AVruntime_error@std@@
	lea	ecx, DWORD PTR $T2[ebp]
	push	ecx
	call	__CxxThrowException@8
	mov	BYTE PTR __$EHRec$[ebp+8], 0
	lea	ecx, DWORD PTR $T3[ebp]
	call	??1?$basic_string@DU?$char_traits@D@std@@V?$allocator@D@2@@std@@QAE@XZ ; std::basic_string<char,std::char_traits<char>,std::allocator<char> >::~basic_string<char,std::char_traits<char>,std::allocator<char> >

; 78   :   }

	mov	DWORD PTR __$EHRec$[ebp+8], -1
	lea	ecx, DWORD PTR _err$4[ebp]
	call	??1?$basic_string@DU?$char_traits@D@std@@V?$allocator@D@2@@std@@QAE@XZ ; std::basic_string<char,std::char_traits<char>,std::allocator<char> >::~basic_string<char,std::char_traits<char>,std::allocator<char> >
$LN2@PopLuaNumb:

; 79   : 
; 80   :   //grab the value, cast to the correct type and return
; 81   :   T val = (T)lua_tonumber(pL, 1);

	push	1
	mov	edx, DWORD PTR _pL$[ebp]
	push	edx
	call	_lua_tonumber
	add	esp, 8
	fstp	QWORD PTR _val$[ebp]

; 82   : 
; 83   :   //remove the value from the stack
; 84   :   lua_pop(pL, 1);

	push	-2					; fffffffeH
	mov	eax, DWORD PTR _pL$[ebp]
	push	eax
	call	_lua_settop
	add	esp, 8

; 85   : 
; 86   :   return val;

	fld	QWORD PTR _val$[ebp]
$LN1@PopLuaNumb:

; 87   : }

	push	edx
	mov	ecx, ebp
	push	eax
	lea	edx, DWORD PTR $LN9@PopLuaNumb
	call	@_RTC_CheckStackVars@8
	pop	eax
	pop	edx
	mov	ecx, DWORD PTR __$EHRec$[ebp]
	mov	DWORD PTR fs:0, ecx
	pop	ecx
	pop	edi
	mov	ecx, DWORD PTR __$ArrayPad$[ebp]
	xor	ecx, ebp
	call	@__security_check_cookie@4
	add	esp, 108				; 0000006cH
	cmp	ebp, esp
	call	__RTC_CheckEsp
	mov	esp, ebp
	pop	ebp
	ret	0
	npad	2
$LN9@PopLuaNumb:
	DD	1
	DD	$LN8@PopLuaNumb
$LN8@PopLuaNumb:
	DD	-48					; ffffffd0H
	DD	28					; 0000001cH
	DD	$LN6@PopLuaNumb
$LN6@PopLuaNumb:
	DB	101					; 00000065H
	DB	114					; 00000072H
	DB	114					; 00000072H
	DB	0
_TEXT	ENDS
;	COMDAT text$x
text$x	SEGMENT
__unwindfunclet$??$PopLuaNumber@N@@YANPAUlua_State@@PBD@Z$0:
	lea	ecx, DWORD PTR _err$4[ebp]
	jmp	??1?$basic_string@DU?$char_traits@D@std@@V?$allocator@D@2@@std@@QAE@XZ ; std::basic_string<char,std::char_traits<char>,std::allocator<char> >::~basic_string<char,std::char_traits<char>,std::allocator<char> >
__unwindfunclet$??$PopLuaNumber@N@@YANPAUlua_State@@PBD@Z$1:
	lea	ecx, DWORD PTR $T3[ebp]
	jmp	??1?$basic_string@DU?$char_traits@D@std@@V?$allocator@D@2@@std@@QAE@XZ ; std::basic_string<char,std::char_traits<char>,std::allocator<char> >::~basic_string<char,std::char_traits<char>,std::allocator<char> >
__ehhandler$??$PopLuaNumber@N@@YANPAUlua_State@@PBD@Z:
	mov	edx, DWORD PTR [esp+8]
	lea	eax, DWORD PTR [edx+12]
	mov	ecx, DWORD PTR [edx-104]
	xor	ecx, eax
	call	@__security_check_cookie@4
	mov	ecx, DWORD PTR [edx-4]
	xor	ecx, eax
	call	@__security_check_cookie@4
	mov	eax, OFFSET __ehfuncinfo$??$PopLuaNumber@N@@YANPAUlua_State@@PBD@Z
	jmp	___CxxFrameHandler3
text$x	ENDS
??$PopLuaNumber@N@@YANPAUlua_State@@PBD@Z ENDP		; PopLuaNumber<double>
; Function compile flags: /Odtp /RTCsu
; File e:\documents\cours\git\raven\raven\script\luahelperfunctions.h
;	COMDAT ??$PopLuaNumber@H@@YAHPAUlua_State@@PBD@Z
_TEXT	SEGMENT
tv128 = -104						; size = 4
tv75 = -100						; size = 4
$T2 = -96						; size = 12
_val$ = -84						; size = 4
$T3 = -80						; size = 28
_err$4 = -48						; size = 28
__$ArrayPad$ = -16					; size = 4
__$EHRec$ = -12						; size = 12
_pL$ = 8						; size = 4
_name$ = 12						; size = 4
??$PopLuaNumber@H@@YAHPAUlua_State@@PBD@Z PROC		; PopLuaNumber<int>, COMDAT

; 66   : {

	push	ebp
	mov	ebp, esp
	push	-1
	push	__ehhandler$??$PopLuaNumber@H@@YAHPAUlua_State@@PBD@Z
	mov	eax, DWORD PTR fs:0
	push	eax
	sub	esp, 92					; 0000005cH
	push	edi
	lea	edi, DWORD PTR [ebp-104]
	mov	ecx, 23					; 00000017H
	mov	eax, -858993460				; ccccccccH
	rep stosd
	mov	eax, DWORD PTR ___security_cookie
	xor	eax, ebp
	mov	DWORD PTR __$ArrayPad$[ebp], eax
	push	eax
	lea	eax, DWORD PTR __$EHRec$[ebp]
	mov	DWORD PTR fs:0, eax

; 67   :   lua_settop(pL, 0);

	push	0
	mov	eax, DWORD PTR _pL$[ebp]
	push	eax
	call	_lua_settop
	add	esp, 8

; 68   : 
; 69   :   lua_getglobal(pL, name);

	mov	ecx, DWORD PTR _name$[ebp]
	push	ecx
	mov	edx, DWORD PTR _pL$[ebp]
	push	edx
	call	_lua_pushstring
	add	esp, 8
	push	-10001					; ffffd8efH
	mov	eax, DWORD PTR _pL$[ebp]
	push	eax
	call	_lua_gettable
	add	esp, 8

; 70   : 
; 71   :   //check that the variable is the correct type. If it is not throw an
; 72   :   //exception
; 73   :   if (!lua_isnumber(pL, 1))

	push	1
	mov	ecx, DWORD PTR _pL$[ebp]
	push	ecx
	call	_lua_isnumber
	add	esp, 8
	test	eax, eax
	jne	SHORT $LN2@PopLuaNumb

; 74   :   {
; 75   :     std::string err("<PopLuaNumber> Cannot retrieve: ");

	push	OFFSET ??_C@_0CB@NOKEJIID@?$DMPopLuaNumber?$DO?5Cannot?5retrieve?3?5@
	lea	ecx, DWORD PTR _err$4[ebp]
	call	??0?$basic_string@DU?$char_traits@D@std@@V?$allocator@D@2@@std@@QAE@PBD@Z ; std::basic_string<char,std::char_traits<char>,std::allocator<char> >::basic_string<char,std::char_traits<char>,std::allocator<char> >
	mov	DWORD PTR __$EHRec$[ebp+8], 0

; 76   : 
; 77   :     throw std::runtime_error(err + name);

	mov	edx, DWORD PTR _name$[ebp]
	push	edx
	lea	eax, DWORD PTR _err$4[ebp]
	push	eax
	lea	ecx, DWORD PTR $T3[ebp]
	push	ecx
	call	??$?HDU?$char_traits@D@std@@V?$allocator@D@1@@std@@YA?AV?$basic_string@DU?$char_traits@D@std@@V?$allocator@D@2@@0@ABV10@PBD@Z ; std::operator+<char,std::char_traits<char>,std::allocator<char> >
	add	esp, 12					; 0000000cH
	mov	DWORD PTR tv75[ebp], eax
	mov	edx, DWORD PTR tv75[ebp]
	mov	DWORD PTR tv128[ebp], edx
	mov	BYTE PTR __$EHRec$[ebp+8], 1
	mov	eax, DWORD PTR tv128[ebp]
	push	eax
	lea	ecx, DWORD PTR $T2[ebp]
	call	??0runtime_error@std@@QAE@ABV?$basic_string@DU?$char_traits@D@std@@V?$allocator@D@2@@1@@Z ; std::runtime_error::runtime_error
	push	OFFSET __TI2?AVruntime_error@std@@
	lea	ecx, DWORD PTR $T2[ebp]
	push	ecx
	call	__CxxThrowException@8
	mov	BYTE PTR __$EHRec$[ebp+8], 0
	lea	ecx, DWORD PTR $T3[ebp]
	call	??1?$basic_string@DU?$char_traits@D@std@@V?$allocator@D@2@@std@@QAE@XZ ; std::basic_string<char,std::char_traits<char>,std::allocator<char> >::~basic_string<char,std::char_traits<char>,std::allocator<char> >

; 78   :   }

	mov	DWORD PTR __$EHRec$[ebp+8], -1
	lea	ecx, DWORD PTR _err$4[ebp]
	call	??1?$basic_string@DU?$char_traits@D@std@@V?$allocator@D@2@@std@@QAE@XZ ; std::basic_string<char,std::char_traits<char>,std::allocator<char> >::~basic_string<char,std::char_traits<char>,std::allocator<char> >
$LN2@PopLuaNumb:

; 79   : 
; 80   :   //grab the value, cast to the correct type and return
; 81   :   T val = (T)lua_tonumber(pL, 1);

	push	1
	mov	edx, DWORD PTR _pL$[ebp]
	push	edx
	call	_lua_tonumber
	add	esp, 8
	call	__ftol2_sse
	mov	DWORD PTR _val$[ebp], eax

; 82   : 
; 83   :   //remove the value from the stack
; 84   :   lua_pop(pL, 1);

	push	-2					; fffffffeH
	mov	eax, DWORD PTR _pL$[ebp]
	push	eax
	call	_lua_settop
	add	esp, 8

; 85   : 
; 86   :   return val;

	mov	eax, DWORD PTR _val$[ebp]
$LN1@PopLuaNumb:

; 87   : }

	push	edx
	mov	ecx, ebp
	push	eax
	lea	edx, DWORD PTR $LN9@PopLuaNumb
	call	@_RTC_CheckStackVars@8
	pop	eax
	pop	edx
	mov	ecx, DWORD PTR __$EHRec$[ebp]
	mov	DWORD PTR fs:0, ecx
	pop	ecx
	pop	edi
	mov	ecx, DWORD PTR __$ArrayPad$[ebp]
	xor	ecx, ebp
	call	@__security_check_cookie@4
	add	esp, 104				; 00000068H
	cmp	ebp, esp
	call	__RTC_CheckEsp
	mov	esp, ebp
	pop	ebp
	ret	0
	npad	1
$LN9@PopLuaNumb:
	DD	1
	DD	$LN8@PopLuaNumb
$LN8@PopLuaNumb:
	DD	-48					; ffffffd0H
	DD	28					; 0000001cH
	DD	$LN6@PopLuaNumb
$LN6@PopLuaNumb:
	DB	101					; 00000065H
	DB	114					; 00000072H
	DB	114					; 00000072H
	DB	0
_TEXT	ENDS
;	COMDAT text$x
text$x	SEGMENT
__unwindfunclet$??$PopLuaNumber@H@@YAHPAUlua_State@@PBD@Z$0:
	lea	ecx, DWORD PTR _err$4[ebp]
	jmp	??1?$basic_string@DU?$char_traits@D@std@@V?$allocator@D@2@@std@@QAE@XZ ; std::basic_string<char,std::char_traits<char>,std::allocator<char> >::~basic_string<char,std::char_traits<char>,std::allocator<char> >
__unwindfunclet$??$PopLuaNumber@H@@YAHPAUlua_State@@PBD@Z$1:
	lea	ecx, DWORD PTR $T3[ebp]
	jmp	??1?$basic_string@DU?$char_traits@D@std@@V?$allocator@D@2@@std@@QAE@XZ ; std::basic_string<char,std::char_traits<char>,std::allocator<char> >::~basic_string<char,std::char_traits<char>,std::allocator<char> >
__ehhandler$??$PopLuaNumber@H@@YAHPAUlua_State@@PBD@Z:
	mov	edx, DWORD PTR [esp+8]
	lea	eax, DWORD PTR [edx+12]
	mov	ecx, DWORD PTR [edx-100]
	xor	ecx, eax
	call	@__security_check_cookie@4
	mov	ecx, DWORD PTR [edx-4]
	xor	ecx, eax
	call	@__security_check_cookie@4
	mov	eax, OFFSET __ehfuncinfo$??$PopLuaNumber@H@@YAHPAUlua_State@@PBD@Z
	jmp	___CxxFrameHandler3
text$x	ENDS
??$PopLuaNumber@H@@YAHPAUlua_State@@PBD@Z ENDP		; PopLuaNumber<int>
; Function compile flags: /Odtp /RTCsu
; File e:\documents\cours\git\raven\raven\script\scriptor.h
;	COMDAT ?GetDouble@Scriptor@@QAENPAD@Z
_TEXT	SEGMENT
_this$ = -4						; size = 4
_VariableName$ = 8					; size = 4
?GetDouble@Scriptor@@QAENPAD@Z PROC			; Scriptor::GetDouble, COMDAT
; _this$ = ecx

; 61   :   {

	push	ebp
	mov	ebp, esp
	push	ecx
	mov	DWORD PTR [ebp-4], -858993460		; ccccccccH
	mov	DWORD PTR _this$[ebp], ecx

; 62   :     return PopLuaNumber<double>(m_pLuaState, VariableName);

	mov	eax, DWORD PTR _VariableName$[ebp]
	push	eax
	mov	ecx, DWORD PTR _this$[ebp]
	mov	edx, DWORD PTR [ecx]
	push	edx
	call	??$PopLuaNumber@N@@YANPAUlua_State@@PBD@Z ; PopLuaNumber<double>
	add	esp, 8

; 63   :   }

	add	esp, 4
	cmp	ebp, esp
	call	__RTC_CheckEsp
	mov	esp, ebp
	pop	ebp
	ret	4
?GetDouble@Scriptor@@QAENPAD@Z ENDP			; Scriptor::GetDouble
_TEXT	ENDS
; Function compile flags: /Odtp /RTCsu
; File e:\documents\cours\git\raven\raven\script\scriptor.h
;	COMDAT ?GetInt@Scriptor@@QAEHPAD@Z
_TEXT	SEGMENT
_this$ = -4						; size = 4
_VariableName$ = 8					; size = 4
?GetInt@Scriptor@@QAEHPAD@Z PROC			; Scriptor::GetInt, COMDAT
; _this$ = ecx

; 51   :   {

	push	ebp
	mov	ebp, esp
	push	ecx
	mov	DWORD PTR [ebp-4], -858993460		; ccccccccH
	mov	DWORD PTR _this$[ebp], ecx

; 52   :     return PopLuaNumber<int>(m_pLuaState, VariableName);

	mov	eax, DWORD PTR _VariableName$[ebp]
	push	eax
	mov	ecx, DWORD PTR _this$[ebp]
	mov	edx, DWORD PTR [ecx]
	push	edx
	call	??$PopLuaNumber@H@@YAHPAUlua_State@@PBD@Z ; PopLuaNumber<int>
	add	esp, 8

; 53   :   }

	add	esp, 4
	cmp	ebp, esp
	call	__RTC_CheckEsp
	mov	esp, ebp
	pop	ebp
	ret	4
?GetInt@Scriptor@@QAEHPAD@Z ENDP			; Scriptor::GetInt
_TEXT	ENDS
; Function compile flags: /Odtp /RTCsu
; File c:\program files (x86)\microsoft visual studio 14.0\vc\include\xstring
;	COMDAT ??$?HDU?$char_traits@D@std@@V?$allocator@D@1@@std@@YA?AV?$basic_string@DU?$char_traits@D@std@@V?$allocator@D@2@@0@ABV10@PBD@Z
_TEXT	SEGMENT
$T2 = -56						; size = 4
__Ans$ = -48						; size = 28
__$ArrayPad$ = -16					; size = 4
__$EHRec$ = -12						; size = 12
___$ReturnUdt$ = 8					; size = 4
__Left$ = 12						; size = 4
__Right$ = 16						; size = 4
??$?HDU?$char_traits@D@std@@V?$allocator@D@1@@std@@YA?AV?$basic_string@DU?$char_traits@D@std@@V?$allocator@D@2@@0@ABV10@PBD@Z PROC ; std::operator+<char,std::char_traits<char>,std::allocator<char> >, COMDAT

; 2355 : 	{	// return string + NTCS

	push	ebp
	mov	ebp, esp
	push	-1
	push	__ehhandler$??$?HDU?$char_traits@D@std@@V?$allocator@D@1@@std@@YA?AV?$basic_string@DU?$char_traits@D@std@@V?$allocator@D@2@@0@ABV10@PBD@Z
	mov	eax, DWORD PTR fs:0
	push	eax
	sub	esp, 44					; 0000002cH
	push	esi
	push	edi
	lea	edi, DWORD PTR [ebp-56]
	mov	ecx, 11					; 0000000bH
	mov	eax, -858993460				; ccccccccH
	rep stosd
	mov	eax, DWORD PTR ___security_cookie
	xor	eax, ebp
	mov	DWORD PTR __$ArrayPad$[ebp], eax
	push	eax
	lea	eax, DWORD PTR __$EHRec$[ebp]
	mov	DWORD PTR fs:0, eax
	mov	DWORD PTR $T2[ebp], 0

; 2356 : 	basic_string<_Elem, _Traits, _Alloc> _Ans;

	lea	ecx, DWORD PTR __Ans$[ebp]
	call	??0?$basic_string@DU?$char_traits@D@std@@V?$allocator@D@2@@std@@QAE@XZ ; std::basic_string<char,std::char_traits<char>,std::allocator<char> >::basic_string<char,std::char_traits<char>,std::allocator<char> >
	mov	DWORD PTR __$EHRec$[ebp+8], 0

; 2357 : 	_Ans.reserve(_Left.size() + _Traits::length(_Right));

	mov	ecx, DWORD PTR __Left$[ebp]
	call	?size@?$basic_string@DU?$char_traits@D@std@@V?$allocator@D@2@@std@@QBEIXZ ; std::basic_string<char,std::char_traits<char>,std::allocator<char> >::size
	mov	esi, eax
	mov	eax, DWORD PTR __Right$[ebp]
	push	eax
	call	?length@?$char_traits@D@std@@SAIPBD@Z	; std::char_traits<char>::length
	add	esp, 4
	add	esi, eax
	push	esi
	lea	ecx, DWORD PTR __Ans$[ebp]
	call	?reserve@?$basic_string@DU?$char_traits@D@std@@V?$allocator@D@2@@std@@QAEXI@Z ; std::basic_string<char,std::char_traits<char>,std::allocator<char> >::reserve

; 2358 : 	_Ans += _Left;

	mov	ecx, DWORD PTR __Left$[ebp]
	push	ecx
	lea	ecx, DWORD PTR __Ans$[ebp]
	call	??Y?$basic_string@DU?$char_traits@D@std@@V?$allocator@D@2@@std@@QAEAAV01@ABV01@@Z ; std::basic_string<char,std::char_traits<char>,std::allocator<char> >::operator+=

; 2359 : 	_Ans += _Right;

	mov	edx, DWORD PTR __Right$[ebp]
	push	edx
	lea	ecx, DWORD PTR __Ans$[ebp]
	call	??Y?$basic_string@DU?$char_traits@D@std@@V?$allocator@D@2@@std@@QAEAAV01@PBD@Z ; std::basic_string<char,std::char_traits<char>,std::allocator<char> >::operator+=

; 2360 : 	return (_Ans);

	lea	eax, DWORD PTR __Ans$[ebp]
	push	eax
	mov	ecx, DWORD PTR ___$ReturnUdt$[ebp]
	call	??0?$basic_string@DU?$char_traits@D@std@@V?$allocator@D@2@@std@@QAE@$$QAV01@@Z ; std::basic_string<char,std::char_traits<char>,std::allocator<char> >::basic_string<char,std::char_traits<char>,std::allocator<char> >
	mov	ecx, DWORD PTR $T2[ebp]
	or	ecx, 1
	mov	DWORD PTR $T2[ebp], ecx
	mov	DWORD PTR __$EHRec$[ebp+8], -1
	lea	ecx, DWORD PTR __Ans$[ebp]
	call	??1?$basic_string@DU?$char_traits@D@std@@V?$allocator@D@2@@std@@QAE@XZ ; std::basic_string<char,std::char_traits<char>,std::allocator<char> >::~basic_string<char,std::char_traits<char>,std::allocator<char> >
	mov	eax, DWORD PTR ___$ReturnUdt$[ebp]

; 2361 : 	}

	push	edx
	mov	ecx, ebp
	push	eax
	lea	edx, DWORD PTR $LN9@operator
	call	@_RTC_CheckStackVars@8
	pop	eax
	pop	edx
	mov	ecx, DWORD PTR __$EHRec$[ebp]
	mov	DWORD PTR fs:0, ecx
	pop	ecx
	pop	edi
	pop	esi
	mov	ecx, DWORD PTR __$ArrayPad$[ebp]
	xor	ecx, ebp
	call	@__security_check_cookie@4
	add	esp, 56					; 00000038H
	cmp	ebp, esp
	call	__RTC_CheckEsp
	mov	esp, ebp
	pop	ebp
	ret	0
	npad	3
$LN9@operator:
	DD	1
	DD	$LN8@operator
$LN8@operator:
	DD	-48					; ffffffd0H
	DD	28					; 0000001cH
	DD	$LN6@operator
$LN6@operator:
	DB	95					; 0000005fH
	DB	65					; 00000041H
	DB	110					; 0000006eH
	DB	115					; 00000073H
	DB	0
_TEXT	ENDS
;	COMDAT text$x
text$x	SEGMENT
__unwindfunclet$??$?HDU?$char_traits@D@std@@V?$allocator@D@1@@std@@YA?AV?$basic_string@DU?$char_traits@D@std@@V?$allocator@D@2@@0@ABV10@PBD@Z$0:
	lea	ecx, DWORD PTR __Ans$[ebp]
	jmp	??1?$basic_string@DU?$char_traits@D@std@@V?$allocator@D@2@@std@@QAE@XZ ; std::basic_string<char,std::char_traits<char>,std::allocator<char> >::~basic_string<char,std::char_traits<char>,std::allocator<char> >
__ehhandler$??$?HDU?$char_traits@D@std@@V?$allocator@D@1@@std@@YA?AV?$basic_string@DU?$char_traits@D@std@@V?$allocator@D@2@@0@ABV10@PBD@Z:
	mov	edx, DWORD PTR [esp+8]
	lea	eax, DWORD PTR [edx+12]
	mov	ecx, DWORD PTR [edx-56]
	xor	ecx, eax
	call	@__security_check_cookie@4
	mov	ecx, DWORD PTR [edx-4]
	xor	ecx, eax
	call	@__security_check_cookie@4
	mov	eax, OFFSET __ehfuncinfo$??$?HDU?$char_traits@D@std@@V?$allocator@D@1@@std@@YA?AV?$basic_string@DU?$char_traits@D@std@@V?$allocator@D@2@@0@ABV10@PBD@Z
	jmp	___CxxFrameHandler3
text$x	ENDS
??$?HDU?$char_traits@D@std@@V?$allocator@D@1@@std@@YA?AV?$basic_string@DU?$char_traits@D@std@@V?$allocator@D@2@@0@ABV10@PBD@Z ENDP ; std::operator+<char,std::char_traits<char>,std::allocator<char> >
; Function compile flags: /Odtp /RTCsu
;	COMDAT ??_GSlug@@UAEPAXI@Z
_TEXT	SEGMENT
_this$ = -4						; size = 4
___flags$ = 8						; size = 4
??_GSlug@@UAEPAXI@Z PROC				; Slug::`scalar deleting destructor', COMDAT
; _this$ = ecx
	push	ebp
	mov	ebp, esp
	push	ecx
	mov	DWORD PTR [ebp-4], -858993460		; ccccccccH
	mov	DWORD PTR _this$[ebp], ecx
	mov	ecx, DWORD PTR _this$[ebp]
	call	??1Slug@@UAE@XZ
	mov	eax, DWORD PTR ___flags$[ebp]
	and	eax, 1
	je	SHORT $LN2@scalar
	push	232					; 000000e8H
	mov	ecx, DWORD PTR _this$[ebp]
	push	ecx
	call	??3@YAXPAXI@Z				; operator delete
	add	esp, 8
$LN2@scalar:
	mov	eax, DWORD PTR _this$[ebp]
	add	esp, 4
	cmp	ebp, esp
	call	__RTC_CheckEsp
	mov	esp, ebp
	pop	ebp
	ret	4
??_GSlug@@UAEPAXI@Z ENDP				; Slug::`scalar deleting destructor'
_TEXT	ENDS
; Function compile flags: /Odtp /RTCsu
;	COMDAT ??1Slug@@UAE@XZ
_TEXT	SEGMENT
_this$ = -4						; size = 4
??1Slug@@UAE@XZ PROC					; Slug::~Slug, COMDAT
; _this$ = ecx
	push	ebp
	mov	ebp, esp
	push	ecx
	mov	DWORD PTR [ebp-4], -858993460		; ccccccccH
	mov	DWORD PTR _this$[ebp], ecx
	mov	ecx, DWORD PTR _this$[ebp]
	call	??1Raven_Projectile@@UAE@XZ
	add	esp, 4
	cmp	ebp, esp
	call	__RTC_CheckEsp
	mov	esp, ebp
	pop	ebp
	ret	0
??1Slug@@UAE@XZ ENDP					; Slug::~Slug
_TEXT	ENDS
; Function compile flags: /Odtp /RTCsu
; File e:\documents\cours\git\raven\raven\armory\projectile_slug.cpp
_TEXT	SEGMENT
$T1 = -140						; size = 16
$T2 = -124						; size = 16
$T3 = -108						; size = 16
$T4 = -92						; size = 16
_accel$5 = -72						; size = 16
_sf$6 = -48						; size = 16
_DesiredVelocity$7 = -24				; size = 16
_this$ = -4						; size = 4
?Update@Slug@@UAEXXZ PROC				; Slug::Update
; _this$ = ecx

; 40   : {

	push	ebp
	mov	ebp, esp
	sub	esp, 140				; 0000008cH
	push	edi
	push	ecx
	lea	edi, DWORD PTR [ebp-140]
	mov	ecx, 35					; 00000023H
	mov	eax, -858993460				; ccccccccH
	rep stosd
	pop	ecx
	mov	DWORD PTR _this$[ebp], ecx

; 41   :   if (!HasImpacted())

	mov	ecx, DWORD PTR _this$[ebp]
	call	?HasImpacted@Raven_Projectile@@QBE_NXZ	; Raven_Projectile::HasImpacted
	movzx	eax, al
	test	eax, eax
	jne	$LN2@Update

; 42   :   {
; 43   :      //calculate the steering force
; 44   :     Vector2D DesiredVelocity = Vec2DNormalize(m_vTarget - Pos()) * MaxSpeed();

	mov	ecx, DWORD PTR _this$[ebp]
	call	?MaxSpeed@MovingEntity@@QBENXZ		; MovingEntity::MaxSpeed
	sub	esp, 8
	fstp	QWORD PTR [esp]
	lea	ecx, DWORD PTR $T4[ebp]
	push	ecx
	mov	ecx, DWORD PTR _this$[ebp]
	call	?Pos@BaseGameEntity@@QBE?AUVector2D@@XZ	; BaseGameEntity::Pos
	push	eax
	mov	edx, DWORD PTR _this$[ebp]
	add	edx, 152				; 00000098H
	push	edx
	lea	eax, DWORD PTR $T3[ebp]
	push	eax
	call	??G@YA?AUVector2D@@ABU0@0@Z		; operator-
	add	esp, 12					; 0000000cH
	push	eax
	lea	ecx, DWORD PTR $T2[ebp]
	push	ecx
	call	?Vec2DNormalize@@YA?AUVector2D@@ABU1@@Z	; Vec2DNormalize
	add	esp, 8
	push	eax
	lea	edx, DWORD PTR _DesiredVelocity$7[ebp]
	push	edx
	call	??D@YA?AUVector2D@@ABU0@N@Z		; operator*
	add	esp, 16					; 00000010H

; 45   : 
; 46   :     Vector2D sf = DesiredVelocity - Velocity();

	lea	eax, DWORD PTR $T1[ebp]
	push	eax
	mov	ecx, DWORD PTR _this$[ebp]
	call	?Velocity@MovingEntity@@QBE?AUVector2D@@XZ ; MovingEntity::Velocity
	push	eax
	lea	ecx, DWORD PTR _DesiredVelocity$7[ebp]
	push	ecx
	lea	edx, DWORD PTR _sf$6[ebp]
	push	edx
	call	??G@YA?AUVector2D@@ABU0@0@Z		; operator-
	add	esp, 12					; 0000000cH

; 47   : 
; 48   :     //update the position
; 49   :     Vector2D accel = sf / m_dMass;

	mov	eax, DWORD PTR _this$[ebp]
	sub	esp, 8
	movsd	xmm0, QWORD PTR [eax+112]
	movsd	QWORD PTR [esp], xmm0
	lea	ecx, DWORD PTR _sf$6[ebp]
	push	ecx
	lea	edx, DWORD PTR _accel$5[ebp]
	push	edx
	call	??K@YA?AUVector2D@@ABU0@N@Z		; operator/
	add	esp, 16					; 00000010H

; 50   : 
; 51   :     m_vVelocity += accel;

	lea	eax, DWORD PTR _accel$5[ebp]
	push	eax
	mov	ecx, DWORD PTR _this$[ebp]
	add	ecx, 64					; 00000040H
	call	??YVector2D@@QAEABU0@ABU0@@Z		; Vector2D::operator+=

; 52   : 
; 53   :     //make sure the slug does not exceed maximum velocity
; 54   :     m_vVelocity.Truncate(m_dMaxSpeed);

	mov	ecx, DWORD PTR _this$[ebp]
	sub	esp, 8
	movsd	xmm0, QWORD PTR [ecx+120]
	movsd	QWORD PTR [esp], xmm0
	mov	ecx, DWORD PTR _this$[ebp]
	add	ecx, 64					; 00000040H
	call	?Truncate@Vector2D@@QAEXN@Z		; Vector2D::Truncate

; 55   : 
; 56   :     //update the position
; 57   :     m_vPosition += m_vVelocity; 

	mov	edx, DWORD PTR _this$[ebp]
	add	edx, 64					; 00000040H
	push	edx
	mov	ecx, DWORD PTR _this$[ebp]
	add	ecx, 24					; 00000018H
	call	??YVector2D@@QAEABU0@ABU0@@Z		; Vector2D::operator+=

; 58   : 
; 59   :     TestForImpact();

	mov	ecx, DWORD PTR _this$[ebp]
	call	?TestForImpact@Slug@@AAEXXZ		; Slug::TestForImpact
	jmp	SHORT $LN4@Update
$LN2@Update:

; 60   :   }
; 61   :   else if (!isVisibleToPlayer())

	mov	ecx, DWORD PTR _this$[ebp]
	call	?isVisibleToPlayer@Slug@@ABE_NXZ	; Slug::isVisibleToPlayer
	movzx	eax, al
	test	eax, eax
	jne	SHORT $LN4@Update

; 62   :   {
; 63   :     m_bDead = true;

	mov	ecx, DWORD PTR _this$[ebp]
	mov	BYTE PTR [ecx+196], 1
$LN4@Update:

; 64   :   }
; 65   : 
; 66   : }

	push	edx
	mov	ecx, ebp
	push	eax
	lea	edx, DWORD PTR $LN10@Update
	call	@_RTC_CheckStackVars@8
	pop	eax
	pop	edx
	pop	edi
	add	esp, 140				; 0000008cH
	cmp	ebp, esp
	call	__RTC_CheckEsp
	mov	esp, ebp
	pop	ebp
	ret	0
	npad	3
$LN10@Update:
	DD	3
	DD	$LN9@Update
$LN9@Update:
	DD	-24					; ffffffe8H
	DD	16					; 00000010H
	DD	$LN6@Update
	DD	-48					; ffffffd0H
	DD	16					; 00000010H
	DD	$LN7@Update
	DD	-72					; ffffffb8H
	DD	16					; 00000010H
	DD	$LN8@Update
$LN8@Update:
	DB	97					; 00000061H
	DB	99					; 00000063H
	DB	99					; 00000063H
	DB	101					; 00000065H
	DB	108					; 0000006cH
	DB	0
$LN7@Update:
	DB	115					; 00000073H
	DB	102					; 00000066H
	DB	0
$LN6@Update:
	DB	68					; 00000044H
	DB	101					; 00000065H
	DB	115					; 00000073H
	DB	105					; 00000069H
	DB	114					; 00000072H
	DB	101					; 00000065H
	DB	100					; 00000064H
	DB	86					; 00000056H
	DB	101					; 00000065H
	DB	108					; 0000006cH
	DB	111					; 0000006fH
	DB	99					; 00000063H
	DB	105					; 00000069H
	DB	116					; 00000074H
	DB	121					; 00000079H
	DB	0
?Update@Slug@@UAEXXZ ENDP				; Slug::Update
_TEXT	ENDS
; Function compile flags: /Odtp /RTCsu
; File e:\documents\cours\git\raven\raven\armory\projectile_slug.cpp
_TEXT	SEGMENT
_this$ = -4						; size = 4
?Render@Slug@@UAEXXZ PROC				; Slug::Render
; _this$ = ecx

; 108  : {

	push	ebp
	mov	ebp, esp
	push	ecx
	mov	DWORD PTR [ebp-4], -858993460		; ccccccccH
	mov	DWORD PTR _this$[ebp], ecx

; 109  :   if (isVisibleToPlayer() && m_bImpacted)

	mov	ecx, DWORD PTR _this$[ebp]
	call	?isVisibleToPlayer@Slug@@ABE_NXZ	; Slug::isVisibleToPlayer
	movzx	eax, al
	test	eax, eax
	je	SHORT $LN1@Render
	mov	ecx, DWORD PTR _this$[ebp]
	movzx	edx, BYTE PTR [ecx+197]
	test	edx, edx
	je	SHORT $LN1@Render

; 110  :   {
; 111  :     gdi->GreenPen();

	call	?Instance@Cgdi@@SAPAV1@XZ		; Cgdi::Instance
	mov	ecx, eax
	call	?GreenPen@Cgdi@@QAEXXZ			; Cgdi::GreenPen

; 112  :     gdi->Line(m_vOrigin, m_vImpactPoint);

	mov	eax, DWORD PTR _this$[ebp]
	add	eax, 200				; 000000c8H
	sub	esp, 16					; 00000010H
	mov	ecx, esp
	mov	edx, DWORD PTR [eax]
	mov	DWORD PTR [ecx], edx
	mov	edx, DWORD PTR [eax+4]
	mov	DWORD PTR [ecx+4], edx
	mov	edx, DWORD PTR [eax+8]
	mov	DWORD PTR [ecx+8], edx
	mov	eax, DWORD PTR [eax+12]
	mov	DWORD PTR [ecx+12], eax
	mov	ecx, DWORD PTR _this$[ebp]
	add	ecx, 176				; 000000b0H
	sub	esp, 16					; 00000010H
	mov	edx, esp
	mov	eax, DWORD PTR [ecx]
	mov	DWORD PTR [edx], eax
	mov	eax, DWORD PTR [ecx+4]
	mov	DWORD PTR [edx+4], eax
	mov	eax, DWORD PTR [ecx+8]
	mov	DWORD PTR [edx+8], eax
	mov	ecx, DWORD PTR [ecx+12]
	mov	DWORD PTR [edx+12], ecx
	call	?Instance@Cgdi@@SAPAV1@XZ		; Cgdi::Instance
	mov	ecx, eax
	call	?Line@Cgdi@@QAEXUVector2D@@0@Z		; Cgdi::Line
$LN1@Render:

; 113  :   }
; 114  : }

	add	esp, 4
	cmp	ebp, esp
	call	__RTC_CheckEsp
	mov	esp, ebp
	pop	ebp
	ret	0
?Render@Slug@@UAEXXZ ENDP				; Slug::Render
_TEXT	ENDS
; Function compile flags: /Odtp /RTCsu
; File e:\documents\cours\git\raven\raven\armory\projectile_slug.cpp
_TEXT	SEGMENT
$T2 = -48						; size = 16
$T3 = -32						; size = 16
_this$ = -16						; size = 4
__$EHRec$ = -12						; size = 12
_shooter$ = 8						; size = 4
_target$ = 12						; size = 16
??0Slug@@QAE@PAVRaven_Bot@@UVector2D@@@Z PROC		; Slug::Slug
; _this$ = ecx

; 32   : {

	push	ebp
	mov	ebp, esp
	push	-1
	push	__ehhandler$??0Slug@@QAE@PAVRaven_Bot@@UVector2D@@@Z
	mov	eax, DWORD PTR fs:0
	push	eax
	sub	esp, 36					; 00000024H
	mov	eax, -858993460				; ccccccccH
	mov	DWORD PTR [ebp-48], eax
	mov	DWORD PTR [ebp-44], eax
	mov	DWORD PTR [ebp-40], eax
	mov	DWORD PTR [ebp-36], eax
	mov	DWORD PTR [ebp-32], eax
	mov	DWORD PTR [ebp-28], eax
	mov	DWORD PTR [ebp-24], eax
	mov	DWORD PTR [ebp-20], eax
	mov	DWORD PTR [ebp-16], eax
	mov	eax, DWORD PTR ___security_cookie
	xor	eax, ebp
	push	eax
	lea	eax, DWORD PTR __$EHRec$[ebp]
	mov	DWORD PTR fs:0, eax
	mov	DWORD PTR _this$[ebp], ecx

; 20   :         Raven_Projectile(target,

	push	OFFSET $SG169135
	call	?Instance@Raven_Scriptor@@SAPAV1@XZ	; Raven_Scriptor::Instance
	mov	ecx, eax
	call	?GetDouble@Scriptor@@QAENPAD@Z		; Scriptor::GetDouble
	sub	esp, 8
	fstp	QWORD PTR [esp]
	push	OFFSET $SG169136
	call	?Instance@Raven_Scriptor@@SAPAV1@XZ	; Raven_Scriptor::Instance
	mov	ecx, eax
	call	?GetDouble@Scriptor@@QAENPAD@Z		; Scriptor::GetDouble
	sub	esp, 8
	fstp	QWORD PTR [esp]
	push	OFFSET $SG169137
	call	?Instance@Raven_Scriptor@@SAPAV1@XZ	; Raven_Scriptor::Instance
	mov	ecx, eax
	call	?GetDouble@Scriptor@@QAENPAD@Z		; Scriptor::GetDouble
	sub	esp, 8
	fstp	QWORD PTR [esp]
	push	OFFSET $SG169138
	call	?Instance@Raven_Scriptor@@SAPAV1@XZ	; Raven_Scriptor::Instance
	mov	ecx, eax
	call	?GetDouble@Scriptor@@QAENPAD@Z		; Scriptor::GetDouble
	sub	esp, 8
	fstp	QWORD PTR [esp]
	push	OFFSET $SG169139
	call	?Instance@Raven_Scriptor@@SAPAV1@XZ	; Raven_Scriptor::Instance
	mov	ecx, eax
	call	?GetInt@Scriptor@@QAEHPAD@Z		; Scriptor::GetInt
	push	eax
	lea	eax, DWORD PTR $T3[ebp]
	push	eax
	mov	ecx, DWORD PTR _shooter$[ebp]
	call	?Facing@Raven_Bot@@QBE?AUVector2D@@XZ	; Raven_Bot::Facing
	sub	esp, 16					; 00000010H
	mov	ecx, esp
	mov	edx, DWORD PTR [eax]
	mov	DWORD PTR [ecx], edx
	mov	edx, DWORD PTR [eax+4]
	mov	DWORD PTR [ecx+4], edx
	mov	edx, DWORD PTR [eax+8]
	mov	DWORD PTR [ecx+8], edx
	mov	eax, DWORD PTR [eax+12]
	mov	DWORD PTR [ecx+12], eax
	lea	ecx, DWORD PTR $T2[ebp]
	push	ecx
	mov	ecx, DWORD PTR _shooter$[ebp]
	call	?Pos@BaseGameEntity@@QBE?AUVector2D@@XZ	; BaseGameEntity::Pos
	sub	esp, 16					; 00000010H
	mov	edx, esp
	mov	ecx, DWORD PTR [eax]
	mov	DWORD PTR [edx], ecx
	mov	ecx, DWORD PTR [eax+4]
	mov	DWORD PTR [edx+4], ecx
	mov	ecx, DWORD PTR [eax+8]
	mov	DWORD PTR [edx+8], ecx
	mov	eax, DWORD PTR [eax+12]
	mov	DWORD PTR [edx+12], eax
	mov	ecx, DWORD PTR _shooter$[ebp]
	call	?ID@BaseGameEntity@@QBEHXZ		; BaseGameEntity::ID
	push	eax
	mov	ecx, DWORD PTR _shooter$[ebp]
	call	?GetWorld@Raven_Bot@@QAEQAVRaven_Game@@XZ ; Raven_Bot::GetWorld
	push	eax
	sub	esp, 16					; 00000010H
	mov	ecx, esp
	mov	edx, DWORD PTR _target$[ebp]
	mov	DWORD PTR [ecx], edx
	mov	eax, DWORD PTR _target$[ebp+4]
	mov	DWORD PTR [ecx+4], eax
	mov	edx, DWORD PTR _target$[ebp+8]
	mov	DWORD PTR [ecx+8], edx
	mov	eax, DWORD PTR _target$[ebp+12]
	mov	DWORD PTR [ecx+12], eax
	mov	ecx, DWORD PTR _this$[ebp]
	call	??0Raven_Projectile@@QAE@UVector2D@@PAVRaven_Game@@H00HNNNN@Z ; Raven_Projectile::Raven_Projectile
	mov	DWORD PTR __$EHRec$[ebp+8], 0

; 32   : {

	mov	ecx, DWORD PTR _this$[ebp]
	mov	DWORD PTR [ecx], OFFSET ??_7Slug@@6B@

; 21   :                          shooter->GetWorld(),
; 22   :                          shooter->ID(),
; 23   :                          shooter->Pos(),
; 24   :                          shooter->Facing(),
; 25   :                          script->GetInt("Slug_Damage"),
; 26   :                          script->GetDouble("Slug_Scale"),
; 27   :                          script->GetDouble("Slug_MaxSpeed"),
; 28   :                          script->GetDouble("Slug_Mass"),
; 29   :                          script->GetDouble("Slug_MaxForce")),
; 30   : 
; 31   :         m_dTimeShotIsVisible(script->GetDouble("Slug_Persistance"))

	push	OFFSET $SG169140
	call	?Instance@Raven_Scriptor@@SAPAV1@XZ	; Raven_Scriptor::Instance
	mov	ecx, eax
	call	?GetDouble@Scriptor@@QAENPAD@Z		; Scriptor::GetDouble
	mov	edx, DWORD PTR _this$[ebp]
	fstp	QWORD PTR [edx+224]

; 33   :   
; 34   : }

	mov	DWORD PTR __$EHRec$[ebp+8], -1
	mov	eax, DWORD PTR _this$[ebp]
	mov	ecx, DWORD PTR __$EHRec$[ebp]
	mov	DWORD PTR fs:0, ecx
	pop	ecx
	add	esp, 48					; 00000030H
	cmp	ebp, esp
	call	__RTC_CheckEsp
	mov	esp, ebp
	pop	ebp
	ret	20					; 00000014H
_TEXT	ENDS
text$x	SEGMENT
__unwindfunclet$??0Slug@@QAE@PAVRaven_Bot@@UVector2D@@@Z$0:
	mov	ecx, DWORD PTR _this$[ebp]
	jmp	??1Raven_Projectile@@UAE@XZ
__ehhandler$??0Slug@@QAE@PAVRaven_Bot@@UVector2D@@@Z:
	mov	edx, DWORD PTR [esp+8]
	lea	eax, DWORD PTR [edx+12]
	mov	ecx, DWORD PTR [edx-40]
	xor	ecx, eax
	call	@__security_check_cookie@4
	mov	eax, OFFSET __ehfuncinfo$??0Slug@@QAE@PAVRaven_Bot@@UVector2D@@@Z
	jmp	___CxxFrameHandler3
text$x	ENDS
??0Slug@@QAE@PAVRaven_Bot@@UVector2D@@@Z ENDP		; Slug::Slug
; Function compile flags: /Odtp /RTCsu
; File e:\documents\cours\git\raven\raven\armory\projectile_slug.h
;	COMDAT ?isVisibleToPlayer@Slug@@ABE_NXZ
_TEXT	SEGMENT
tv75 = -16						; size = 4
tv81 = -12						; size = 8
_this$ = -4						; size = 4
?isVisibleToPlayer@Slug@@ABE_NXZ PROC			; Slug::isVisibleToPlayer, COMDAT
; _this$ = ecx

; 30   :   bool  isVisibleToPlayer()const{return Clock->GetCurrentTime() < m_dTimeOfCreation + m_dTimeShotIsVisible;}

	push	ebp
	mov	ebp, esp
	sub	esp, 16					; 00000010H
	mov	eax, -858993460				; ccccccccH
	mov	DWORD PTR [ebp-16], eax
	mov	DWORD PTR [ebp-12], eax
	mov	DWORD PTR [ebp-8], eax
	mov	DWORD PTR [ebp-4], eax
	mov	DWORD PTR _this$[ebp], ecx
	call	?Instance@CrudeTimer@@SAPAV1@XZ		; CrudeTimer::Instance
	mov	ecx, eax
	call	?GetTickCount@CrudeTimer@@QAENXZ	; CrudeTimer::GetTickCount
	fstp	QWORD PTR tv81[ebp]
	mov	eax, DWORD PTR _this$[ebp]
	mov	ecx, DWORD PTR _this$[ebp]
	movsd	xmm0, QWORD PTR [eax+216]
	addsd	xmm0, QWORD PTR [ecx+224]
	comisd	xmm0, QWORD PTR tv81[ebp]
	jbe	SHORT $LN3@isVisibleT
	mov	DWORD PTR tv75[ebp], 1
	jmp	SHORT $LN4@isVisibleT
$LN3@isVisibleT:
	mov	DWORD PTR tv75[ebp], 0
$LN4@isVisibleT:
	mov	al, BYTE PTR tv75[ebp]
	add	esp, 16					; 00000010H
	cmp	ebp, esp
	call	__RTC_CheckEsp
	mov	esp, ebp
	pop	ebp
	ret	0
?isVisibleToPlayer@Slug@@ABE_NXZ ENDP			; Slug::isVisibleToPlayer
_TEXT	ENDS
; Function compile flags: /Odtp /RTCsu
; File e:\documents\cours\git\raven\raven\armory\projectile_slug.cpp
_TEXT	SEGMENT
tv214 = -116						; size = 4
tv135 = -112						; size = 4
tv212 = -108						; size = 4
tv155 = -104						; size = 4
$T2 = -100						; size = 12
$T3 = -85						; size = 1
$T4 = -84						; size = 12
_it$ = -68						; size = 12
_hits$ = -48						; size = 12
_DistToClosestImpact$ = -28				; size = 8
_this$ = -16						; size = 4
__$EHRec$ = -12						; size = 12
?TestForImpact@Slug@@AAEXXZ PROC			; Slug::TestForImpact
; _this$ = ecx

; 70   : {

	push	ebp
	mov	ebp, esp
	push	-1
	push	__ehhandler$?TestForImpact@Slug@@AAEXXZ
	mov	eax, DWORD PTR fs:0
	push	eax
	sub	esp, 104				; 00000068H
	push	edi
	push	ecx
	lea	edi, DWORD PTR [ebp-116]
	mov	ecx, 26					; 0000001aH
	mov	eax, -858993460				; ccccccccH
	rep stosd
	pop	ecx
	mov	eax, DWORD PTR ___security_cookie
	xor	eax, ebp
	push	eax
	lea	eax, DWORD PTR __$EHRec$[ebp]
	mov	DWORD PTR fs:0, eax
	mov	DWORD PTR _this$[ebp], ecx

; 71   :   // a rail gun slug travels VERY fast. It only gets the chance to update once 
; 72   :   m_bImpacted = true;

	mov	eax, DWORD PTR _this$[ebp]
	mov	BYTE PTR [eax+197], 1

; 73   : 
; 74   :   //first find the closest wall that this ray intersects with. Then we
; 75   :   //can test against all entities within this range.
; 76   :   double DistToClosestImpact;
; 77   :   FindClosestPointOfIntersectionWithWalls(m_vOrigin,

	mov	ecx, DWORD PTR _this$[ebp]
	mov	ecx, DWORD PTR [ecx+168]
	call	?GetMap@Raven_Game@@QAEQAVRaven_Map@@XZ	; Raven_Game::GetMap
	mov	ecx, eax
	call	?GetWalls@Raven_Map@@QBEABV?$vector@PAVWall2D@@V?$allocator@PAVWall2D@@@std@@@std@@XZ ; Raven_Map::GetWalls
	push	eax
	mov	edx, DWORD PTR _this$[ebp]
	add	edx, 200				; 000000c8H
	push	edx
	lea	eax, DWORD PTR _DistToClosestImpact$[ebp]
	push	eax
	mov	ecx, DWORD PTR _this$[ebp]
	add	ecx, 24					; 00000018H
	sub	esp, 16					; 00000010H
	mov	edx, esp
	mov	eax, DWORD PTR [ecx]
	mov	DWORD PTR [edx], eax
	mov	eax, DWORD PTR [ecx+4]
	mov	DWORD PTR [edx+4], eax
	mov	eax, DWORD PTR [ecx+8]
	mov	DWORD PTR [edx+8], eax
	mov	ecx, DWORD PTR [ecx+12]
	mov	DWORD PTR [edx+12], ecx
	mov	edx, DWORD PTR _this$[ebp]
	add	edx, 176				; 000000b0H
	sub	esp, 16					; 00000010H
	mov	eax, esp
	mov	ecx, DWORD PTR [edx]
	mov	DWORD PTR [eax], ecx
	mov	ecx, DWORD PTR [edx+4]
	mov	DWORD PTR [eax+4], ecx
	mov	ecx, DWORD PTR [edx+8]
	mov	DWORD PTR [eax+8], ecx
	mov	edx, DWORD PTR [edx+12]
	mov	DWORD PTR [eax+12], edx
	call	??$FindClosestPointOfIntersectionWithWalls@V?$vector@PAVWall2D@@V?$allocator@PAVWall2D@@@std@@@std@@@@YA_NUVector2D@@0AANAAU0@ABV?$vector@PAVWall2D@@V?$allocator@PAVWall2D@@@std@@@std@@@Z ; FindClosestPointOfIntersectionWithWalls<std::vector<Wall2D *,std::allocator<Wall2D *> > >
	add	esp, 44					; 0000002cH

; 78   :                                           m_vPosition,
; 79   :                                           DistToClosestImpact,
; 80   :                                           m_vImpactPoint,
; 81   :                                           m_pWorld->GetMap()->GetWalls());
; 82   : 
; 83   :   //test to see if the ray between the current position of the slug and 
; 84   :   //the start position intersects with any bots.
; 85   :   std::list<Raven_Bot*> hits = GetListOfIntersectingBots(m_vOrigin, m_vImpactPoint);

	mov	eax, DWORD PTR _this$[ebp]
	add	eax, 200				; 000000c8H
	sub	esp, 16					; 00000010H
	mov	ecx, esp
	mov	edx, DWORD PTR [eax]
	mov	DWORD PTR [ecx], edx
	mov	edx, DWORD PTR [eax+4]
	mov	DWORD PTR [ecx+4], edx
	mov	edx, DWORD PTR [eax+8]
	mov	DWORD PTR [ecx+8], edx
	mov	eax, DWORD PTR [eax+12]
	mov	DWORD PTR [ecx+12], eax
	mov	ecx, DWORD PTR _this$[ebp]
	add	ecx, 176				; 000000b0H
	sub	esp, 16					; 00000010H
	mov	edx, esp
	mov	eax, DWORD PTR [ecx]
	mov	DWORD PTR [edx], eax
	mov	eax, DWORD PTR [ecx+4]
	mov	DWORD PTR [edx+4], eax
	mov	eax, DWORD PTR [ecx+8]
	mov	DWORD PTR [edx+8], eax
	mov	ecx, DWORD PTR [ecx+12]
	mov	DWORD PTR [edx+12], ecx
	lea	edx, DWORD PTR _hits$[ebp]
	push	edx
	mov	ecx, DWORD PTR _this$[ebp]
	call	?GetListOfIntersectingBots@Raven_Projectile@@IBE?AV?$list@PAVRaven_Bot@@V?$allocator@PAVRaven_Bot@@@std@@@std@@UVector2D@@0@Z ; Raven_Projectile::GetListOfIntersectingBots
	mov	DWORD PTR __$EHRec$[ebp+8], 0

; 86   : 
; 87   :   //if no bots hit just return;
; 88   :   if (hits.empty()) return;

	lea	ecx, DWORD PTR _hits$[ebp]
	call	?empty@?$list@PAVRaven_Bot@@V?$allocator@PAVRaven_Bot@@@std@@@std@@QBE_NXZ ; std::list<Raven_Bot *,std::allocator<Raven_Bot *> >::empty
	movzx	eax, al
	test	eax, eax
	je	SHORT $LN5@TestForImp
	mov	DWORD PTR __$EHRec$[ebp+8], -1
	lea	ecx, DWORD PTR _hits$[ebp]
	call	??1?$list@PAVRaven_Bot@@V?$allocator@PAVRaven_Bot@@@std@@@std@@QAE@XZ ; std::list<Raven_Bot *,std::allocator<Raven_Bot *> >::~list<Raven_Bot *,std::allocator<Raven_Bot *> >
	jmp	$LN1@TestForImp
$LN5@TestForImp:

; 89   : 
; 90   :   //give some damage to the hit bots
; 91   :   std::list<Raven_Bot*>::iterator it;

	lea	ecx, DWORD PTR _it$[ebp]
	call	??0?$_List_iterator@V?$_List_val@U?$_List_simple_types@PAVRaven_Bot@@@std@@@std@@@std@@QAE@XZ ; std::_List_iterator<std::_List_val<std::_List_simple_types<Raven_Bot *> > >::_List_iterator<std::_List_val<std::_List_simple_types<Raven_Bot *> > >
	mov	BYTE PTR __$EHRec$[ebp+8], 1

; 92   :   for (it=hits.begin(); it != hits.end(); ++it)

	lea	ecx, DWORD PTR $T4[ebp]
	push	ecx
	lea	ecx, DWORD PTR _hits$[ebp]
	call	?begin@?$list@PAVRaven_Bot@@V?$allocator@PAVRaven_Bot@@@std@@@std@@QAE?AV?$_List_iterator@V?$_List_val@U?$_List_simple_types@PAVRaven_Bot@@@std@@@std@@@2@XZ ; std::list<Raven_Bot *,std::allocator<Raven_Bot *> >::begin
	mov	DWORD PTR tv155[ebp], eax
	mov	edx, DWORD PTR tv155[ebp]
	mov	DWORD PTR tv212[ebp], edx
	mov	BYTE PTR __$EHRec$[ebp+8], 2
	mov	eax, DWORD PTR tv212[ebp]
	push	eax
	lea	ecx, DWORD PTR _it$[ebp]
	call	??4?$_List_iterator@V?$_List_val@U?$_List_simple_types@PAVRaven_Bot@@@std@@@std@@@std@@QAEAAV01@$$QAV01@@Z
	mov	BYTE PTR __$EHRec$[ebp+8], 1
	lea	ecx, DWORD PTR $T4[ebp]
	call	??1?$_List_iterator@V?$_List_val@U?$_List_simple_types@PAVRaven_Bot@@@std@@@std@@@std@@QAE@XZ
	jmp	SHORT $LN4@TestForImp
$LN2@TestForImp:
	lea	ecx, DWORD PTR _it$[ebp]
	call	??E?$_List_iterator@V?$_List_val@U?$_List_simple_types@PAVRaven_Bot@@@std@@@std@@@std@@QAEAAV01@XZ ; std::_List_iterator<std::_List_val<std::_List_simple_types<Raven_Bot *> > >::operator++
$LN4@TestForImp:
	lea	ecx, DWORD PTR $T2[ebp]
	push	ecx
	lea	ecx, DWORD PTR _hits$[ebp]
	call	?end@?$list@PAVRaven_Bot@@V?$allocator@PAVRaven_Bot@@@std@@@std@@QAE?AV?$_List_iterator@V?$_List_val@U?$_List_simple_types@PAVRaven_Bot@@@std@@@std@@@2@XZ ; std::list<Raven_Bot *,std::allocator<Raven_Bot *> >::end
	mov	DWORD PTR tv135[ebp], eax
	mov	edx, DWORD PTR tv135[ebp]
	mov	DWORD PTR tv214[ebp], edx
	mov	BYTE PTR __$EHRec$[ebp+8], 3
	mov	eax, DWORD PTR tv214[ebp]
	push	eax
	lea	ecx, DWORD PTR _it$[ebp]
	call	??9?$_List_const_iterator@V?$_List_val@U?$_List_simple_types@PAVRaven_Bot@@@std@@@std@@@std@@QBE_NABV01@@Z ; std::_List_const_iterator<std::_List_val<std::_List_simple_types<Raven_Bot *> > >::operator!=
	mov	BYTE PTR $T3[ebp], al
	mov	BYTE PTR __$EHRec$[ebp+8], 1
	lea	ecx, DWORD PTR $T2[ebp]
	call	??1?$_List_iterator@V?$_List_val@U?$_List_simple_types@PAVRaven_Bot@@@std@@@std@@@std@@QAE@XZ
	movzx	ecx, BYTE PTR $T3[ebp]
	test	ecx, ecx
	je	SHORT $LN3@TestForImp

; 93   :   {
; 94   :     //send a message to the bot to let it know it's been hit, and who the
; 95   :     //shot came from
; 96   :     Dispatcher->DispatchMsg(SEND_MSG_IMMEDIATELY,

	mov	edx, DWORD PTR _this$[ebp]
	add	edx, 192				; 000000c0H
	push	edx
	push	3
	lea	ecx, DWORD PTR _it$[ebp]
	call	??D?$_List_iterator@V?$_List_val@U?$_List_simple_types@PAVRaven_Bot@@@std@@@std@@@std@@QBEAAPAVRaven_Bot@@XZ ; std::_List_iterator<std::_List_val<std::_List_simple_types<Raven_Bot *> > >::operator*
	mov	ecx, DWORD PTR [eax]
	call	?ID@BaseGameEntity@@QBEHXZ		; BaseGameEntity::ID
	push	eax
	mov	eax, DWORD PTR _this$[ebp]
	mov	ecx, DWORD PTR [eax+144]
	push	ecx
	sub	esp, 8
	xorps	xmm0, xmm0
	movsd	QWORD PTR [esp], xmm0
	call	?Instance@MessageDispatcher@@SAPAV1@XZ	; MessageDispatcher::Instance
	mov	ecx, eax
	call	?DispatchMsg@MessageDispatcher@@QAEXNHHHPAX@Z ; MessageDispatcher::DispatchMsg

; 97   :                             m_iShooterID,
; 98   :                             (*it)->ID(),
; 99   :                             Msg_TakeThatMF,
; 100  :                             (void*)&m_iDamageInflicted);
; 101  :     
; 102  :   }

	jmp	$LN2@TestForImp
$LN3@TestForImp:

; 103  : }

	mov	BYTE PTR __$EHRec$[ebp+8], 0
	lea	ecx, DWORD PTR _it$[ebp]
	call	??1?$_List_iterator@V?$_List_val@U?$_List_simple_types@PAVRaven_Bot@@@std@@@std@@@std@@QAE@XZ
	mov	DWORD PTR __$EHRec$[ebp+8], -1
	lea	ecx, DWORD PTR _hits$[ebp]
	call	??1?$list@PAVRaven_Bot@@V?$allocator@PAVRaven_Bot@@@std@@@std@@QAE@XZ ; std::list<Raven_Bot *,std::allocator<Raven_Bot *> >::~list<Raven_Bot *,std::allocator<Raven_Bot *> >
$LN1@TestForImp:
	push	edx
	mov	ecx, ebp
	push	eax
	lea	edx, DWORD PTR $LN16@TestForImp
	call	@_RTC_CheckStackVars@8
	pop	eax
	pop	edx
	mov	ecx, DWORD PTR __$EHRec$[ebp]
	mov	DWORD PTR fs:0, ecx
	pop	ecx
	pop	edi
	add	esp, 116				; 00000074H
	cmp	ebp, esp
	call	__RTC_CheckEsp
	mov	esp, ebp
	pop	ebp
	ret	0
	npad	3
$LN16@TestForImp:
	DD	3
	DD	$LN15@TestForImp
$LN15@TestForImp:
	DD	-28					; ffffffe4H
	DD	8
	DD	$LN11@TestForImp
	DD	-48					; ffffffd0H
	DD	12					; 0000000cH
	DD	$LN12@TestForImp
	DD	-68					; ffffffbcH
	DD	12					; 0000000cH
	DD	$LN13@TestForImp
$LN13@TestForImp:
	DB	105					; 00000069H
	DB	116					; 00000074H
	DB	0
$LN12@TestForImp:
	DB	104					; 00000068H
	DB	105					; 00000069H
	DB	116					; 00000074H
	DB	115					; 00000073H
	DB	0
$LN11@TestForImp:
	DB	68					; 00000044H
	DB	105					; 00000069H
	DB	115					; 00000073H
	DB	116					; 00000074H
	DB	84					; 00000054H
	DB	111					; 0000006fH
	DB	67					; 00000043H
	DB	108					; 0000006cH
	DB	111					; 0000006fH
	DB	115					; 00000073H
	DB	101					; 00000065H
	DB	115					; 00000073H
	DB	116					; 00000074H
	DB	73					; 00000049H
	DB	109					; 0000006dH
	DB	112					; 00000070H
	DB	97					; 00000061H
	DB	99					; 00000063H
	DB	116					; 00000074H
	DB	0
_TEXT	ENDS
text$x	SEGMENT
__unwindfunclet$?TestForImpact@Slug@@AAEXXZ$0:
	lea	ecx, DWORD PTR _hits$[ebp]
	jmp	??1?$list@PAVRaven_Bot@@V?$allocator@PAVRaven_Bot@@@std@@@std@@QAE@XZ ; std::list<Raven_Bot *,std::allocator<Raven_Bot *> >::~list<Raven_Bot *,std::allocator<Raven_Bot *> >
__unwindfunclet$?TestForImpact@Slug@@AAEXXZ$1:
	lea	ecx, DWORD PTR _it$[ebp]
	jmp	??1?$_List_iterator@V?$_List_val@U?$_List_simple_types@PAVRaven_Bot@@@std@@@std@@@std@@QAE@XZ
__unwindfunclet$?TestForImpact@Slug@@AAEXXZ$2:
	lea	ecx, DWORD PTR $T4[ebp]
	jmp	??1?$_List_iterator@V?$_List_val@U?$_List_simple_types@PAVRaven_Bot@@@std@@@std@@@std@@QAE@XZ
__unwindfunclet$?TestForImpact@Slug@@AAEXXZ$3:
	lea	ecx, DWORD PTR $T2[ebp]
	jmp	??1?$_List_iterator@V?$_List_val@U?$_List_simple_types@PAVRaven_Bot@@@std@@@std@@@std@@QAE@XZ
__ehhandler$?TestForImpact@Slug@@AAEXXZ:
	mov	edx, DWORD PTR [esp+8]
	lea	eax, DWORD PTR [edx+12]
	mov	ecx, DWORD PTR [edx-112]
	xor	ecx, eax
	call	@__security_check_cookie@4
	mov	eax, OFFSET __ehfuncinfo$?TestForImpact@Slug@@AAEXXZ
	jmp	___CxxFrameHandler3
text$x	ENDS
?TestForImpact@Slug@@AAEXXZ ENDP			; Slug::TestForImpact
; Function compile flags: /Odtp /RTCsu
;	COMDAT ??_GRaven_Projectile@@UAEPAXI@Z
_TEXT	SEGMENT
_this$ = -4						; size = 4
___flags$ = 8						; size = 4
??_GRaven_Projectile@@UAEPAXI@Z PROC			; Raven_Projectile::`scalar deleting destructor', COMDAT
; _this$ = ecx
	push	ebp
	mov	ebp, esp
	push	ecx
	mov	DWORD PTR [ebp-4], -858993460		; ccccccccH
	mov	DWORD PTR _this$[ebp], ecx
	mov	ecx, DWORD PTR _this$[ebp]
	call	??1Raven_Projectile@@UAE@XZ
	mov	eax, DWORD PTR ___flags$[ebp]
	and	eax, 1
	je	SHORT $LN2@scalar
	push	224					; 000000e0H
	mov	ecx, DWORD PTR _this$[ebp]
	push	ecx
	call	??3@YAXPAXI@Z				; operator delete
	add	esp, 8
$LN2@scalar:
	mov	eax, DWORD PTR _this$[ebp]
	add	esp, 4
	cmp	ebp, esp
	call	__RTC_CheckEsp
	mov	esp, ebp
	pop	ebp
	ret	4
??_GRaven_Projectile@@UAEPAXI@Z ENDP			; Raven_Projectile::`scalar deleting destructor'
_TEXT	ENDS
; Function compile flags: /Odtp /RTCsu
;	COMDAT ??1Raven_Projectile@@UAE@XZ
_TEXT	SEGMENT
_this$ = -4						; size = 4
??1Raven_Projectile@@UAE@XZ PROC			; Raven_Projectile::~Raven_Projectile, COMDAT
; _this$ = ecx
	push	ebp
	mov	ebp, esp
	push	ecx
	mov	DWORD PTR [ebp-4], -858993460		; ccccccccH
	mov	DWORD PTR _this$[ebp], ecx
	mov	ecx, DWORD PTR _this$[ebp]
	call	??1MovingEntity@@UAE@XZ			; MovingEntity::~MovingEntity
	add	esp, 4
	cmp	ebp, esp
	call	__RTC_CheckEsp
	mov	esp, ebp
	pop	ebp
	ret	0
??1Raven_Projectile@@UAE@XZ ENDP			; Raven_Projectile::~Raven_Projectile
_TEXT	ENDS
; Function compile flags: /Odtp /RTCsu
; File e:\documents\cours\git\raven\raven\armory\raven_projectile.h
;	COMDAT ?HasImpacted@Raven_Projectile@@QBE_NXZ
_TEXT	SEGMENT
_this$ = -4						; size = 4
?HasImpacted@Raven_Projectile@@QBE_NXZ PROC		; Raven_Projectile::HasImpacted, COMDAT
; _this$ = ecx

; 112  :   bool HasImpacted()const{return m_bImpacted;}

	push	ebp
	mov	ebp, esp
	push	ecx
	mov	DWORD PTR [ebp-4], -858993460		; ccccccccH
	mov	DWORD PTR _this$[ebp], ecx
	mov	eax, DWORD PTR _this$[ebp]
	mov	al, BYTE PTR [eax+197]
	mov	esp, ebp
	pop	ebp
	ret	0
?HasImpacted@Raven_Projectile@@QBE_NXZ ENDP		; Raven_Projectile::HasImpacted
_TEXT	ENDS
; Function compile flags: /Odtp /RTCsu
; File e:\documents\cours\git\raven\raven\armory\raven_projectile.h
;	COMDAT ?Read@Raven_Projectile@@UAEXAAV?$basic_ifstream@DU?$char_traits@D@std@@@std@@@Z
_TEXT	SEGMENT
_this$ = -4						; size = 4
_is$ = 8						; size = 4
?Read@Raven_Projectile@@UAEXAAV?$basic_ifstream@DU?$char_traits@D@std@@@std@@@Z PROC ; Raven_Projectile::Read, COMDAT
; _this$ = ecx

; 100  :   void Read (std::ifstream& is){}

	push	ebp
	mov	ebp, esp
	push	ecx
	mov	DWORD PTR [ebp-4], -858993460		; ccccccccH
	mov	DWORD PTR _this$[ebp], ecx
	mov	esp, ebp
	pop	ebp
	ret	4
?Read@Raven_Projectile@@UAEXAAV?$basic_ifstream@DU?$char_traits@D@std@@@std@@@Z ENDP ; Raven_Projectile::Read
_TEXT	ENDS
; Function compile flags: /Odtp /RTCsu
; File e:\documents\cours\git\raven\raven\armory\raven_projectile.h
;	COMDAT ?Write@Raven_Projectile@@UBEXAAV?$basic_ostream@DU?$char_traits@D@std@@@std@@@Z
_TEXT	SEGMENT
_this$ = -4						; size = 4
_os$ = 8						; size = 4
?Write@Raven_Projectile@@UBEXAAV?$basic_ostream@DU?$char_traits@D@std@@@std@@@Z PROC ; Raven_Projectile::Write, COMDAT
; _this$ = ecx

; 99   :   void Write(std::ostream&  os)const{}

	push	ebp
	mov	ebp, esp
	push	ecx
	mov	DWORD PTR [ebp-4], -858993460		; ccccccccH
	mov	DWORD PTR _this$[ebp], ecx
	mov	esp, ebp
	pop	ebp
	ret	4
?Write@Raven_Projectile@@UBEXAAV?$basic_ostream@DU?$char_traits@D@std@@@std@@@Z ENDP ; Raven_Projectile::Write
_TEXT	ENDS
; Function compile flags: /Odtp /RTCsu
; File e:\documents\cours\git\raven\raven\armory\raven_projectile.h
;	COMDAT ??0Raven_Projectile@@QAE@UVector2D@@PAVRaven_Game@@H00HNNNN@Z
_TEXT	SEGMENT
$T2 = -48						; size = 16
$T3 = -32						; size = 16
_this$ = -16						; size = 4
__$EHRec$ = -12						; size = 12
_target$ = 8						; size = 16
_world$ = 24						; size = 4
_ShooterID$ = 28					; size = 4
_origin$ = 32						; size = 16
_heading$ = 48						; size = 16
_damage$ = 64						; size = 4
_scale$ = 68						; size = 8
_MaxSpeed$ = 76						; size = 8
_mass$ = 84						; size = 8
_MaxForce$ = 92						; size = 8
??0Raven_Projectile@@QAE@UVector2D@@PAVRaven_Game@@H00HNNNN@Z PROC ; Raven_Projectile::Raven_Projectile, COMDAT
; _this$ = ecx

; 95   :   {m_dTimeOfCreation = Clock->GetCurrentTime();}

	push	ebp
	mov	ebp, esp
	push	-1
	push	__ehhandler$??0Raven_Projectile@@QAE@UVector2D@@PAVRaven_Game@@H00HNNNN@Z
	mov	eax, DWORD PTR fs:0
	push	eax
	sub	esp, 36					; 00000024H
	mov	eax, -858993460				; ccccccccH
	mov	DWORD PTR [ebp-48], eax
	mov	DWORD PTR [ebp-44], eax
	mov	DWORD PTR [ebp-40], eax
	mov	DWORD PTR [ebp-36], eax
	mov	DWORD PTR [ebp-32], eax
	mov	DWORD PTR [ebp-28], eax
	mov	DWORD PTR [ebp-24], eax
	mov	DWORD PTR [ebp-20], eax
	mov	DWORD PTR [ebp-16], eax
	mov	eax, DWORD PTR ___security_cookie
	xor	eax, ebp
	push	eax
	lea	eax, DWORD PTR __$EHRec$[ebp]
	mov	DWORD PTR fs:0, eax
	mov	DWORD PTR _this$[ebp], ecx

; 76   :                    double    MaxForce):  MovingEntity(origin,

	sub	esp, 8
	movsd	xmm0, QWORD PTR _MaxForce$[ebp]
	movsd	QWORD PTR [esp], xmm0
	sub	esp, 8
	xorps	xmm0, xmm0
	movsd	QWORD PTR [esp], xmm0
	sub	esp, 8
	movsd	xmm0, QWORD PTR _scale$[ebp]
	movsd	QWORD PTR [esp], xmm0
	sub	esp, 8
	movsd	xmm0, QWORD PTR _scale$[ebp]
	movsd	QWORD PTR [esp], xmm0
	lea	ecx, DWORD PTR $T3[ebp]
	call	??0Vector2D@@QAE@NN@Z			; Vector2D::Vector2D
	sub	esp, 16					; 00000010H
	mov	ecx, esp
	mov	edx, DWORD PTR [eax]
	mov	DWORD PTR [ecx], edx
	mov	edx, DWORD PTR [eax+4]
	mov	DWORD PTR [ecx+4], edx
	mov	edx, DWORD PTR [eax+8]
	mov	DWORD PTR [ecx+8], edx
	mov	eax, DWORD PTR [eax+12]
	mov	DWORD PTR [ecx+12], eax
	sub	esp, 8
	movsd	xmm0, QWORD PTR _mass$[ebp]
	movsd	QWORD PTR [esp], xmm0
	sub	esp, 16					; 00000010H
	mov	ecx, esp
	mov	edx, DWORD PTR _heading$[ebp]
	mov	DWORD PTR [ecx], edx
	mov	eax, DWORD PTR _heading$[ebp+4]
	mov	DWORD PTR [ecx+4], eax
	mov	edx, DWORD PTR _heading$[ebp+8]
	mov	DWORD PTR [ecx+8], edx
	mov	eax, DWORD PTR _heading$[ebp+12]
	mov	DWORD PTR [ecx+12], eax
	sub	esp, 8
	movsd	xmm0, QWORD PTR _MaxSpeed$[ebp]
	movsd	QWORD PTR [esp], xmm0
	sub	esp, 8
	xorps	xmm0, xmm0
	movsd	QWORD PTR [esp], xmm0
	sub	esp, 8
	xorps	xmm0, xmm0
	movsd	QWORD PTR [esp], xmm0
	lea	ecx, DWORD PTR $T2[ebp]
	call	??0Vector2D@@QAE@NN@Z			; Vector2D::Vector2D
	sub	esp, 16					; 00000010H
	mov	ecx, esp
	mov	edx, DWORD PTR [eax]
	mov	DWORD PTR [ecx], edx
	mov	edx, DWORD PTR [eax+4]
	mov	DWORD PTR [ecx+4], edx
	mov	edx, DWORD PTR [eax+8]
	mov	DWORD PTR [ecx+8], edx
	mov	eax, DWORD PTR [eax+12]
	mov	DWORD PTR [ecx+12], eax
	sub	esp, 8
	movsd	xmm0, QWORD PTR _scale$[ebp]
	movsd	QWORD PTR [esp], xmm0
	sub	esp, 16					; 00000010H
	mov	ecx, esp
	mov	edx, DWORD PTR _origin$[ebp]
	mov	DWORD PTR [ecx], edx
	mov	eax, DWORD PTR _origin$[ebp+4]
	mov	DWORD PTR [ecx+4], eax
	mov	edx, DWORD PTR _origin$[ebp+8]
	mov	DWORD PTR [ecx+8], edx
	mov	eax, DWORD PTR _origin$[ebp+12]
	mov	DWORD PTR [ecx+12], eax
	mov	ecx, DWORD PTR _this$[ebp]
	call	??0MovingEntity@@QAE@UVector2D@@N0N0N0NN@Z ; MovingEntity::MovingEntity
	mov	DWORD PTR __$EHRec$[ebp+8], 0

; 95   :   {m_dTimeOfCreation = Clock->GetCurrentTime();}

	mov	ecx, DWORD PTR _this$[ebp]
	mov	DWORD PTR [ecx], OFFSET ??_7Raven_Projectile@@6B@

; 92   :                                         m_iShooterID(ShooterID)

	mov	edx, DWORD PTR _this$[ebp]
	mov	eax, DWORD PTR _ShooterID$[ebp]
	mov	DWORD PTR [edx+144], eax

; 77   :                                                      scale,
; 78   :                                                      Vector2D(0,0),
; 79   :                                                      MaxSpeed,
; 80   :                                                      heading,
; 81   :                                                      mass,
; 82   :                                                      Vector2D(scale, scale),
; 83   :                                                      0, //max turn rate irrelevant here, all shots go straight
; 84   :                                                      MaxForce),
; 85   : 
; 86   :                                         m_vTarget(target),

	mov	ecx, DWORD PTR _this$[ebp]
	add	ecx, 152				; 00000098H
	mov	edx, DWORD PTR _target$[ebp]
	mov	DWORD PTR [ecx], edx
	mov	eax, DWORD PTR _target$[ebp+4]
	mov	DWORD PTR [ecx+4], eax
	mov	edx, DWORD PTR _target$[ebp+8]
	mov	DWORD PTR [ecx+8], edx
	mov	eax, DWORD PTR _target$[ebp+12]
	mov	DWORD PTR [ecx+12], eax

; 89   :                                         m_pWorld(world),

	mov	ecx, DWORD PTR _this$[ebp]
	mov	edx, DWORD PTR _world$[ebp]
	mov	DWORD PTR [ecx+168], edx

; 91   :                                         m_vOrigin(origin),

	mov	eax, DWORD PTR _this$[ebp]
	add	eax, 176				; 000000b0H
	mov	ecx, DWORD PTR _origin$[ebp]
	mov	DWORD PTR [eax], ecx
	mov	edx, DWORD PTR _origin$[ebp+4]
	mov	DWORD PTR [eax+4], edx
	mov	ecx, DWORD PTR _origin$[ebp+8]
	mov	DWORD PTR [eax+8], ecx
	mov	edx, DWORD PTR _origin$[ebp+12]
	mov	DWORD PTR [eax+12], edx

; 90   :                                         m_iDamageInflicted(damage),

	mov	eax, DWORD PTR _this$[ebp]
	mov	ecx, DWORD PTR _damage$[ebp]
	mov	DWORD PTR [eax+192], ecx

; 87   :                                         m_bDead(false),

	mov	edx, DWORD PTR _this$[ebp]
	mov	BYTE PTR [edx+196], 0

; 88   :                                         m_bImpacted(false),

	mov	eax, DWORD PTR _this$[ebp]
	mov	BYTE PTR [eax+197], 0

; 95   :   {m_dTimeOfCreation = Clock->GetCurrentTime();}

	mov	ecx, DWORD PTR _this$[ebp]
	add	ecx, 200				; 000000c8H
	call	??0Vector2D@@QAE@XZ			; Vector2D::Vector2D
	call	?Instance@CrudeTimer@@SAPAV1@XZ		; CrudeTimer::Instance
	mov	ecx, eax
	call	?GetTickCount@CrudeTimer@@QAENXZ	; CrudeTimer::GetTickCount
	mov	ecx, DWORD PTR _this$[ebp]
	fstp	QWORD PTR [ecx+216]
	mov	DWORD PTR __$EHRec$[ebp+8], -1
	mov	eax, DWORD PTR _this$[ebp]
	mov	ecx, DWORD PTR __$EHRec$[ebp]
	mov	DWORD PTR fs:0, ecx
	pop	ecx
	add	esp, 48					; 00000030H
	cmp	ebp, esp
	call	__RTC_CheckEsp
	mov	esp, ebp
	pop	ebp
	ret	92					; 0000005cH
_TEXT	ENDS
;	COMDAT text$x
text$x	SEGMENT
__unwindfunclet$??0Raven_Projectile@@QAE@UVector2D@@PAVRaven_Game@@H00HNNNN@Z$0:
	mov	ecx, DWORD PTR _this$[ebp]
	jmp	??1MovingEntity@@UAE@XZ			; MovingEntity::~MovingEntity
__ehhandler$??0Raven_Projectile@@QAE@UVector2D@@PAVRaven_Game@@H00HNNNN@Z:
	mov	edx, DWORD PTR [esp+8]
	lea	eax, DWORD PTR [edx+12]
	mov	ecx, DWORD PTR [edx-40]
	xor	ecx, eax
	call	@__security_check_cookie@4
	mov	eax, OFFSET __ehfuncinfo$??0Raven_Projectile@@QAE@UVector2D@@PAVRaven_Game@@H00HNNNN@Z
	jmp	___CxxFrameHandler3
text$x	ENDS
??0Raven_Projectile@@QAE@UVector2D@@PAVRaven_Game@@H00HNNNN@Z ENDP ; Raven_Projectile::Raven_Projectile
; Function compile flags: /Odtp /RTCsu
; File e:\documents\cours\git\raven\raven\time\crudetimer.h
;	COMDAT ?GetTickCount@CrudeTimer@@QAENXZ
_TEXT	SEGMENT
tv78 = -16						; size = 8
tv73 = -8						; size = 4
_this$ = -4						; size = 4
?GetTickCount@CrudeTimer@@QAENXZ PROC			; CrudeTimer::GetTickCount, COMDAT
; _this$ = ecx

; 42   :   double GetCurrentTime(){return timeGetTime() * 0.001 - m_dStartTime;}

	push	ebp
	mov	ebp, esp
	sub	esp, 16					; 00000010H
	push	esi
	mov	eax, -858993460				; ccccccccH
	mov	DWORD PTR [ebp-16], eax
	mov	DWORD PTR [ebp-12], eax
	mov	DWORD PTR [ebp-8], eax
	mov	DWORD PTR [ebp-4], eax
	mov	DWORD PTR _this$[ebp], ecx
	mov	esi, esp
	call	DWORD PTR __imp__timeGetTime@0
	cmp	esi, esp
	call	__RTC_CheckEsp
	mov	DWORD PTR tv73[ebp], eax
	cvtsi2sd xmm0, DWORD PTR tv73[ebp]
	mov	eax, DWORD PTR tv73[ebp]
	shr	eax, 31					; 0000001fH
	addsd	xmm0, QWORD PTR __xmm@41f00000000000000000000000000000[eax*8]
	mulsd	xmm0, QWORD PTR __real@3f50624dd2f1a9fc
	mov	ecx, DWORD PTR _this$[ebp]
	subsd	xmm0, QWORD PTR [ecx]
	movsd	QWORD PTR tv78[ebp], xmm0
	fld	QWORD PTR tv78[ebp]
	pop	esi
	add	esp, 16					; 00000010H
	cmp	ebp, esp
	call	__RTC_CheckEsp
	mov	esp, ebp
	pop	ebp
	ret	0
?GetTickCount@CrudeTimer@@QAENXZ ENDP			; CrudeTimer::GetTickCount
_TEXT	ENDS
; Function compile flags: /Odtp /RTCsu
;	COMDAT ??_GMovingEntity@@UAEPAXI@Z
_TEXT	SEGMENT
_this$ = -4						; size = 4
___flags$ = 8						; size = 4
??_GMovingEntity@@UAEPAXI@Z PROC			; MovingEntity::`scalar deleting destructor', COMDAT
; _this$ = ecx
	push	ebp
	mov	ebp, esp
	push	ecx
	mov	DWORD PTR [ebp-4], -858993460		; ccccccccH
	mov	DWORD PTR _this$[ebp], ecx
	mov	ecx, DWORD PTR _this$[ebp]
	call	??1MovingEntity@@UAE@XZ			; MovingEntity::~MovingEntity
	mov	eax, DWORD PTR ___flags$[ebp]
	and	eax, 1
	je	SHORT $LN2@scalar
	push	144					; 00000090H
	mov	ecx, DWORD PTR _this$[ebp]
	push	ecx
	call	??3@YAXPAXI@Z				; operator delete
	add	esp, 8
$LN2@scalar:
	mov	eax, DWORD PTR _this$[ebp]
	add	esp, 4
	cmp	ebp, esp
	call	__RTC_CheckEsp
	mov	esp, ebp
	pop	ebp
	ret	4
??_GMovingEntity@@UAEPAXI@Z ENDP			; MovingEntity::`scalar deleting destructor'
_TEXT	ENDS
; Function compile flags: /Odtp /RTCsu
; File e:\documents\cours\git\raven\raven\game\movingentity.h
;	COMDAT ?MaxSpeed@MovingEntity@@QBENXZ
_TEXT	SEGMENT
_this$ = -4						; size = 4
?MaxSpeed@MovingEntity@@QBENXZ PROC			; MovingEntity::MaxSpeed, COMDAT
; _this$ = ecx

; 82   :   double    MaxSpeed()const{return m_dMaxSpeed;}                       

	push	ebp
	mov	ebp, esp
	push	ecx
	mov	DWORD PTR [ebp-4], -858993460		; ccccccccH
	mov	DWORD PTR _this$[ebp], ecx
	mov	eax, DWORD PTR _this$[ebp]
	fld	QWORD PTR [eax+120]
	mov	esp, ebp
	pop	ebp
	ret	0
?MaxSpeed@MovingEntity@@QBENXZ ENDP			; MovingEntity::MaxSpeed
_TEXT	ENDS
; Function compile flags: /Odtp /RTCsu
; File e:\documents\cours\git\raven\raven\game\movingentity.h
;	COMDAT ?Velocity@MovingEntity@@QBE?AUVector2D@@XZ
_TEXT	SEGMENT
_this$ = -4						; size = 4
___$ReturnUdt$ = 8					; size = 4
?Velocity@MovingEntity@@QBE?AUVector2D@@XZ PROC		; MovingEntity::Velocity, COMDAT
; _this$ = ecx

; 75   :   Vector2D  Velocity()const{return m_vVelocity;}

	push	ebp
	mov	ebp, esp
	push	ecx
	mov	DWORD PTR [ebp-4], -858993460		; ccccccccH
	mov	DWORD PTR _this$[ebp], ecx
	mov	eax, DWORD PTR _this$[ebp]
	add	eax, 64					; 00000040H
	mov	ecx, DWORD PTR ___$ReturnUdt$[ebp]
	mov	edx, DWORD PTR [eax]
	mov	DWORD PTR [ecx], edx
	mov	edx, DWORD PTR [eax+4]
	mov	DWORD PTR [ecx+4], edx
	mov	edx, DWORD PTR [eax+8]
	mov	DWORD PTR [ecx+8], edx
	mov	eax, DWORD PTR [eax+12]
	mov	DWORD PTR [ecx+12], eax
	mov	eax, DWORD PTR ___$ReturnUdt$[ebp]
	mov	esp, ebp
	pop	ebp
	ret	4
?Velocity@MovingEntity@@QBE?AUVector2D@@XZ ENDP		; MovingEntity::Velocity
_TEXT	ENDS
; Function compile flags: /Odtp /RTCsu
; File e:\documents\cours\git\raven\raven\game\movingentity.h
;	COMDAT ??1MovingEntity@@UAE@XZ
_TEXT	SEGMENT
_this$ = -4						; size = 4
??1MovingEntity@@UAE@XZ PROC				; MovingEntity::~MovingEntity, COMDAT
; _this$ = ecx

; 72   :   virtual ~MovingEntity(){}

	push	ebp
	mov	ebp, esp
	push	ecx
	mov	DWORD PTR [ebp-4], -858993460		; ccccccccH
	mov	DWORD PTR _this$[ebp], ecx
	mov	eax, DWORD PTR _this$[ebp]
	mov	DWORD PTR [eax], OFFSET ??_7MovingEntity@@6B@
	mov	ecx, DWORD PTR _this$[ebp]
	call	??1BaseGameEntity@@UAE@XZ		; BaseGameEntity::~BaseGameEntity
	add	esp, 4
	cmp	ebp, esp
	call	__RTC_CheckEsp
	mov	esp, ebp
	pop	ebp
	ret	0
??1MovingEntity@@UAE@XZ ENDP				; MovingEntity::~MovingEntity
_TEXT	ENDS
; Function compile flags: /Odtp /RTCsu
; File e:\documents\cours\git\raven\raven\game\movingentity.h
;	COMDAT ??0MovingEntity@@QAE@UVector2D@@N0N0N0NN@Z
_TEXT	SEGMENT
_this$ = -16						; size = 4
__$EHRec$ = -12						; size = 12
_position$ = 8						; size = 16
_radius$ = 24						; size = 8
_velocity$ = 32						; size = 16
_max_speed$ = 48					; size = 8
_heading$ = 56						; size = 16
_mass$ = 72						; size = 8
_scale$ = 80						; size = 16
_turn_rate$ = 96					; size = 8
_max_force$ = 104					; size = 8
??0MovingEntity@@QAE@UVector2D@@N0N0N0NN@Z PROC		; MovingEntity::MovingEntity, COMDAT
; _this$ = ecx

; 65   :   {

	push	ebp
	mov	ebp, esp
	push	-1
	push	__ehhandler$??0MovingEntity@@QAE@UVector2D@@N0N0N0NN@Z
	mov	eax, DWORD PTR fs:0
	push	eax
	push	ecx
	mov	DWORD PTR [ebp-16], -858993460		; ccccccccH
	mov	eax, DWORD PTR ___security_cookie
	xor	eax, ebp
	push	eax
	lea	eax, DWORD PTR __$EHRec$[ebp]
	mov	DWORD PTR fs:0, eax
	mov	DWORD PTR _this$[ebp], ecx

; 57   :                double   max_force):BaseGameEntity(BaseGameEntity::GetNextValidID()),

	call	?GetNextValidID@BaseGameEntity@@SAHXZ	; BaseGameEntity::GetNextValidID
	push	eax
	mov	ecx, DWORD PTR _this$[ebp]
	call	??0BaseGameEntity@@IAE@H@Z		; BaseGameEntity::BaseGameEntity
	mov	DWORD PTR __$EHRec$[ebp+8], 0

; 65   :   {

	mov	eax, DWORD PTR _this$[ebp]
	mov	DWORD PTR [eax], OFFSET ??_7MovingEntity@@6B@

; 59   :                                   m_vVelocity(velocity),

	mov	ecx, DWORD PTR _this$[ebp]
	add	ecx, 64					; 00000040H
	mov	edx, DWORD PTR _velocity$[ebp]
	mov	DWORD PTR [ecx], edx
	mov	eax, DWORD PTR _velocity$[ebp+4]
	mov	DWORD PTR [ecx+4], eax
	mov	edx, DWORD PTR _velocity$[ebp+8]
	mov	DWORD PTR [ecx+8], edx
	mov	eax, DWORD PTR _velocity$[ebp+12]
	mov	DWORD PTR [ecx+12], eax

; 58   :                                   m_vHeading(heading),

	mov	ecx, DWORD PTR _this$[ebp]
	add	ecx, 80					; 00000050H
	mov	edx, DWORD PTR _heading$[ebp]
	mov	DWORD PTR [ecx], edx
	mov	eax, DWORD PTR _heading$[ebp+4]
	mov	DWORD PTR [ecx+4], eax
	mov	edx, DWORD PTR _heading$[ebp+8]
	mov	DWORD PTR [ecx+8], edx
	mov	eax, DWORD PTR _heading$[ebp+12]
	mov	DWORD PTR [ecx+12], eax

; 61   :                                   m_vSide(m_vHeading.Perp()),

	mov	ecx, DWORD PTR _this$[ebp]
	add	ecx, 96					; 00000060H
	push	ecx
	mov	ecx, DWORD PTR _this$[ebp]
	add	ecx, 80					; 00000050H
	call	?Perp@Vector2D@@QBE?AU1@XZ		; Vector2D::Perp

; 60   :                                   m_dMass(mass),

	mov	edx, DWORD PTR _this$[ebp]
	movsd	xmm0, QWORD PTR _mass$[ebp]
	movsd	QWORD PTR [edx+112], xmm0

; 62   :                                   m_dMaxSpeed(max_speed),

	mov	eax, DWORD PTR _this$[ebp]
	movsd	xmm0, QWORD PTR _max_speed$[ebp]
	movsd	QWORD PTR [eax+120], xmm0

; 64   :                                   m_dMaxForce(max_force)

	mov	ecx, DWORD PTR _this$[ebp]
	movsd	xmm0, QWORD PTR _max_force$[ebp]
	movsd	QWORD PTR [ecx+128], xmm0

; 63   :                                   m_dMaxTurnRate(turn_rate),

	mov	edx, DWORD PTR _this$[ebp]
	movsd	xmm0, QWORD PTR _turn_rate$[ebp]
	movsd	QWORD PTR [edx+136], xmm0

; 66   :     m_vPosition = position;

	mov	eax, DWORD PTR _this$[ebp]
	add	eax, 24					; 00000018H
	mov	ecx, DWORD PTR _position$[ebp]
	mov	DWORD PTR [eax], ecx
	mov	edx, DWORD PTR _position$[ebp+4]
	mov	DWORD PTR [eax+4], edx
	mov	ecx, DWORD PTR _position$[ebp+8]
	mov	DWORD PTR [eax+8], ecx
	mov	edx, DWORD PTR _position$[ebp+12]
	mov	DWORD PTR [eax+12], edx

; 67   :     m_dBoundingRadius = radius; 

	mov	eax, DWORD PTR _this$[ebp]
	movsd	xmm0, QWORD PTR _radius$[ebp]
	movsd	QWORD PTR [eax+56], xmm0

; 68   :     m_vScale = scale;

	mov	ecx, DWORD PTR _this$[ebp]
	add	ecx, 40					; 00000028H
	mov	edx, DWORD PTR _scale$[ebp]
	mov	DWORD PTR [ecx], edx
	mov	eax, DWORD PTR _scale$[ebp+4]
	mov	DWORD PTR [ecx+4], eax
	mov	edx, DWORD PTR _scale$[ebp+8]
	mov	DWORD PTR [ecx+8], edx
	mov	eax, DWORD PTR _scale$[ebp+12]
	mov	DWORD PTR [ecx+12], eax

; 69   :   }

	mov	DWORD PTR __$EHRec$[ebp+8], -1
	mov	eax, DWORD PTR _this$[ebp]
	mov	ecx, DWORD PTR __$EHRec$[ebp]
	mov	DWORD PTR fs:0, ecx
	pop	ecx
	add	esp, 16					; 00000010H
	cmp	ebp, esp
	call	__RTC_CheckEsp
	mov	esp, ebp
	pop	ebp
	ret	104					; 00000068H
_TEXT	ENDS
;	COMDAT text$x
text$x	SEGMENT
__unwindfunclet$??0MovingEntity@@QAE@UVector2D@@N0N0N0NN@Z$0:
	mov	ecx, DWORD PTR _this$[ebp]
	jmp	??1BaseGameEntity@@UAE@XZ		; BaseGameEntity::~BaseGameEntity
__ehhandler$??0MovingEntity@@QAE@UVector2D@@N0N0N0NN@Z:
	mov	edx, DWORD PTR [esp+8]
	lea	eax, DWORD PTR [edx+12]
	mov	ecx, DWORD PTR [edx-8]
	xor	ecx, eax
	call	@__security_check_cookie@4
	mov	eax, OFFSET __ehfuncinfo$??0MovingEntity@@QAE@UVector2D@@N0N0N0NN@Z
	jmp	___CxxFrameHandler3
text$x	ENDS
??0MovingEntity@@QAE@UVector2D@@N0N0N0NN@Z ENDP		; MovingEntity::MovingEntity
; Function compile flags: /Odtp /RTCsu
;	COMDAT ??_GBaseGameEntity@@UAEPAXI@Z
_TEXT	SEGMENT
_this$ = -4						; size = 4
___flags$ = 8						; size = 4
??_GBaseGameEntity@@UAEPAXI@Z PROC			; BaseGameEntity::`scalar deleting destructor', COMDAT
; _this$ = ecx
	push	ebp
	mov	ebp, esp
	push	ecx
	mov	DWORD PTR [ebp-4], -858993460		; ccccccccH
	mov	DWORD PTR _this$[ebp], ecx
	mov	ecx, DWORD PTR _this$[ebp]
	call	??1BaseGameEntity@@UAE@XZ		; BaseGameEntity::~BaseGameEntity
	mov	eax, DWORD PTR ___flags$[ebp]
	and	eax, 1
	je	SHORT $LN2@scalar
	push	64					; 00000040H
	mov	ecx, DWORD PTR _this$[ebp]
	push	ecx
	call	??3@YAXPAXI@Z				; operator delete
	add	esp, 8
$LN2@scalar:
	mov	eax, DWORD PTR _this$[ebp]
	add	esp, 4
	cmp	ebp, esp
	call	__RTC_CheckEsp
	mov	esp, ebp
	pop	ebp
	ret	4
??_GBaseGameEntity@@UAEPAXI@Z ENDP			; BaseGameEntity::`scalar deleting destructor'
_TEXT	ENDS
; Function compile flags: /Odtp /RTCsu
; File e:\documents\cours\git\raven\raven\game\basegameentity.h
;	COMDAT ?ID@BaseGameEntity@@QBEHXZ
_TEXT	SEGMENT
_this$ = -4						; size = 4
?ID@BaseGameEntity@@QBEHXZ PROC				; BaseGameEntity::ID, COMDAT
; _this$ = ecx

; 94   :   int          ID()const{return m_ID;}

	push	ebp
	mov	ebp, esp
	push	ecx
	mov	DWORD PTR [ebp-4], -858993460		; ccccccccH
	mov	DWORD PTR _this$[ebp], ecx
	mov	eax, DWORD PTR _this$[ebp]
	mov	eax, DWORD PTR [eax+8]
	mov	esp, ebp
	pop	ebp
	ret	0
?ID@BaseGameEntity@@QBEHXZ ENDP				; BaseGameEntity::ID
_TEXT	ENDS
; Function compile flags: /Odtp /RTCsu
; File e:\documents\cours\git\raven\raven\game\basegameentity.h
;	COMDAT ?Pos@BaseGameEntity@@QBE?AUVector2D@@XZ
_TEXT	SEGMENT
_this$ = -4						; size = 4
___$ReturnUdt$ = 8					; size = 4
?Pos@BaseGameEntity@@QBE?AUVector2D@@XZ PROC		; BaseGameEntity::Pos, COMDAT
; _this$ = ecx

; 89   :   Vector2D     Pos()const{return m_vPosition;}

	push	ebp
	mov	ebp, esp
	push	ecx
	mov	DWORD PTR [ebp-4], -858993460		; ccccccccH
	mov	DWORD PTR _this$[ebp], ecx
	mov	eax, DWORD PTR _this$[ebp]
	add	eax, 24					; 00000018H
	mov	ecx, DWORD PTR ___$ReturnUdt$[ebp]
	mov	edx, DWORD PTR [eax]
	mov	DWORD PTR [ecx], edx
	mov	edx, DWORD PTR [eax+4]
	mov	DWORD PTR [ecx+4], edx
	mov	edx, DWORD PTR [eax+8]
	mov	DWORD PTR [ecx+8], edx
	mov	eax, DWORD PTR [eax+12]
	mov	DWORD PTR [ecx+12], eax
	mov	eax, DWORD PTR ___$ReturnUdt$[ebp]
	mov	esp, ebp
	pop	ebp
	ret	4
?Pos@BaseGameEntity@@QBE?AUVector2D@@XZ ENDP		; BaseGameEntity::Pos
_TEXT	ENDS
; Function compile flags: /Odtp /RTCsu
; File e:\documents\cours\git\raven\raven\game\basegameentity.h
;	COMDAT ?GetNextValidID@BaseGameEntity@@SAHXZ
_TEXT	SEGMENT
?GetNextValidID@BaseGameEntity@@SAHXZ PROC		; BaseGameEntity::GetNextValidID, COMDAT

; 82   :   static int   GetNextValidID(){return m_iNextValidID;}

	push	ebp
	mov	ebp, esp
	mov	eax, DWORD PTR ?m_iNextValidID@BaseGameEntity@@0HA ; BaseGameEntity::m_iNextValidID
	pop	ebp
	ret	0
?GetNextValidID@BaseGameEntity@@SAHXZ ENDP		; BaseGameEntity::GetNextValidID
_TEXT	ENDS
; Function compile flags: /Odtp /RTCsu
; File e:\documents\cours\git\raven\raven\game\basegameentity.h
;	COMDAT ?Read@BaseGameEntity@@UAEXAAV?$basic_ifstream@DU?$char_traits@D@std@@@std@@@Z
_TEXT	SEGMENT
_this$ = -4						; size = 4
_is$ = 8						; size = 4
?Read@BaseGameEntity@@UAEXAAV?$basic_ifstream@DU?$char_traits@D@std@@@std@@@Z PROC ; BaseGameEntity::Read, COMDAT
; _this$ = ecx

; 79   :   virtual void Read (std::ifstream& is){}

	push	ebp
	mov	ebp, esp
	push	ecx
	mov	DWORD PTR [ebp-4], -858993460		; ccccccccH
	mov	DWORD PTR _this$[ebp], ecx
	mov	esp, ebp
	pop	ebp
	ret	4
?Read@BaseGameEntity@@UAEXAAV?$basic_ifstream@DU?$char_traits@D@std@@@std@@@Z ENDP ; BaseGameEntity::Read
_TEXT	ENDS
; Function compile flags: /Odtp /RTCsu
; File e:\documents\cours\git\raven\raven\game\basegameentity.h
;	COMDAT ?Write@BaseGameEntity@@UBEXAAV?$basic_ostream@DU?$char_traits@D@std@@@std@@@Z
_TEXT	SEGMENT
_this$ = -4						; size = 4
_os$ = 8						; size = 4
?Write@BaseGameEntity@@UBEXAAV?$basic_ostream@DU?$char_traits@D@std@@@std@@@Z PROC ; BaseGameEntity::Write, COMDAT
; _this$ = ecx

; 78   :   virtual void Write(std::ostream&  os)const{}

	push	ebp
	mov	ebp, esp
	push	ecx
	mov	DWORD PTR [ebp-4], -858993460		; ccccccccH
	mov	DWORD PTR _this$[ebp], ecx
	mov	esp, ebp
	pop	ebp
	ret	4
?Write@BaseGameEntity@@UBEXAAV?$basic_ostream@DU?$char_traits@D@std@@@std@@@Z ENDP ; BaseGameEntity::Write
_TEXT	ENDS
; Function compile flags: /Odtp /RTCsu
; File e:\documents\cours\git\raven\raven\game\basegameentity.h
;	COMDAT ?HandleMessage@BaseGameEntity@@UAE_NABUTelegram@@@Z
_TEXT	SEGMENT
_this$ = -4						; size = 4
_msg$ = 8						; size = 4
?HandleMessage@BaseGameEntity@@UAE_NABUTelegram@@@Z PROC ; BaseGameEntity::HandleMessage, COMDAT
; _this$ = ecx

; 75   :   virtual bool HandleMessage(const Telegram& msg){return false;}

	push	ebp
	mov	ebp, esp
	push	ecx
	mov	DWORD PTR [ebp-4], -858993460		; ccccccccH
	mov	DWORD PTR _this$[ebp], ecx
	xor	al, al
	mov	esp, ebp
	pop	ebp
	ret	4
?HandleMessage@BaseGameEntity@@UAE_NABUTelegram@@@Z ENDP ; BaseGameEntity::HandleMessage
_TEXT	ENDS
; Function compile flags: /Odtp /RTCsu
; File e:\documents\cours\git\raven\raven\game\basegameentity.h
;	COMDAT ?Update@BaseGameEntity@@UAEXXZ
_TEXT	SEGMENT
_this$ = -4						; size = 4
?Update@BaseGameEntity@@UAEXXZ PROC			; BaseGameEntity::Update, COMDAT
; _this$ = ecx

; 71   :   virtual void Update(){}; 

	push	ebp
	mov	ebp, esp
	push	ecx
	mov	DWORD PTR [ebp-4], -858993460		; ccccccccH
	mov	DWORD PTR _this$[ebp], ecx
	mov	esp, ebp
	pop	ebp
	ret	0
?Update@BaseGameEntity@@UAEXXZ ENDP			; BaseGameEntity::Update
_TEXT	ENDS
; Function compile flags: /Odtp /RTCsu
; File e:\documents\cours\git\raven\raven\game\basegameentity.h
;	COMDAT ??1BaseGameEntity@@UAE@XZ
_TEXT	SEGMENT
_this$ = -4						; size = 4
??1BaseGameEntity@@UAE@XZ PROC				; BaseGameEntity::~BaseGameEntity, COMDAT
; _this$ = ecx

; 69   :   virtual ~BaseGameEntity(){}

	push	ebp
	mov	ebp, esp
	push	ecx
	mov	DWORD PTR [ebp-4], -858993460		; ccccccccH
	mov	DWORD PTR _this$[ebp], ecx
	mov	eax, DWORD PTR _this$[ebp]
	mov	DWORD PTR [eax], OFFSET ??_7BaseGameEntity@@6B@
	mov	esp, ebp
	pop	ebp
	ret	0
??1BaseGameEntity@@UAE@XZ ENDP				; BaseGameEntity::~BaseGameEntity
_TEXT	ENDS
; Function compile flags: /Odtp /RTCsu
; File e:\documents\cours\git\raven\raven\2d\geometry.h
;	COMDAT ?LineIntersection2D@@YA_NUVector2D@@000AANAAU1@@Z
_TEXT	SEGMENT
tv215 = -104						; size = 8
$T1 = -96						; size = 16
$T2 = -80						; size = 16
$T3 = -64						; size = 16
_s$ = -48						; size = 8
_r$ = -40						; size = 8
_sBot$ = -32						; size = 8
_sTop$ = -24						; size = 8
_rBot$ = -16						; size = 8
_rTop$ = -8						; size = 8
_A$ = 8							; size = 16
_B$ = 24						; size = 16
_C$ = 40						; size = 16
_D$ = 56						; size = 16
_dist$ = 72						; size = 4
_point$ = 76						; size = 4
?LineIntersection2D@@YA_NUVector2D@@000AANAAU1@@Z PROC	; LineIntersection2D, COMDAT

; 290  : {

	push	ebp
	mov	ebp, esp
	sub	esp, 104				; 00000068H
	push	edi
	lea	edi, DWORD PTR [ebp-104]
	mov	ecx, 26					; 0000001aH
	mov	eax, -858993460				; ccccccccH
	rep stosd

; 291  : 
; 292  :   double rTop = (A.y-C.y)*(D.x-C.x)-(A.x-C.x)*(D.y-C.y);

	movsd	xmm0, QWORD PTR _A$[ebp+8]
	subsd	xmm0, QWORD PTR _C$[ebp+8]
	movsd	xmm1, QWORD PTR _D$[ebp]
	subsd	xmm1, QWORD PTR _C$[ebp]
	mulsd	xmm0, xmm1
	movsd	xmm1, QWORD PTR _A$[ebp]
	subsd	xmm1, QWORD PTR _C$[ebp]
	movsd	xmm2, QWORD PTR _D$[ebp+8]
	subsd	xmm2, QWORD PTR _C$[ebp+8]
	mulsd	xmm1, xmm2
	subsd	xmm0, xmm1
	movsd	QWORD PTR _rTop$[ebp], xmm0

; 293  : 	double rBot = (B.x-A.x)*(D.y-C.y)-(B.y-A.y)*(D.x-C.x);

	movsd	xmm0, QWORD PTR _B$[ebp]
	subsd	xmm0, QWORD PTR _A$[ebp]
	movsd	xmm1, QWORD PTR _D$[ebp+8]
	subsd	xmm1, QWORD PTR _C$[ebp+8]
	mulsd	xmm0, xmm1
	movsd	xmm1, QWORD PTR _B$[ebp+8]
	subsd	xmm1, QWORD PTR _A$[ebp+8]
	movsd	xmm2, QWORD PTR _D$[ebp]
	subsd	xmm2, QWORD PTR _C$[ebp]
	mulsd	xmm1, xmm2
	subsd	xmm0, xmm1
	movsd	QWORD PTR _rBot$[ebp], xmm0

; 294  : 
; 295  : 	double sTop = (A.y-C.y)*(B.x-A.x)-(A.x-C.x)*(B.y-A.y);

	movsd	xmm0, QWORD PTR _A$[ebp+8]
	subsd	xmm0, QWORD PTR _C$[ebp+8]
	movsd	xmm1, QWORD PTR _B$[ebp]
	subsd	xmm1, QWORD PTR _A$[ebp]
	mulsd	xmm0, xmm1
	movsd	xmm1, QWORD PTR _A$[ebp]
	subsd	xmm1, QWORD PTR _C$[ebp]
	movsd	xmm2, QWORD PTR _B$[ebp+8]
	subsd	xmm2, QWORD PTR _A$[ebp+8]
	mulsd	xmm1, xmm2
	subsd	xmm0, xmm1
	movsd	QWORD PTR _sTop$[ebp], xmm0

; 296  : 	double sBot = (B.x-A.x)*(D.y-C.y)-(B.y-A.y)*(D.x-C.x);

	movsd	xmm0, QWORD PTR _B$[ebp]
	subsd	xmm0, QWORD PTR _A$[ebp]
	movsd	xmm1, QWORD PTR _D$[ebp+8]
	subsd	xmm1, QWORD PTR _C$[ebp+8]
	mulsd	xmm0, xmm1
	movsd	xmm1, QWORD PTR _B$[ebp+8]
	subsd	xmm1, QWORD PTR _A$[ebp+8]
	movsd	xmm2, QWORD PTR _D$[ebp]
	subsd	xmm2, QWORD PTR _C$[ebp]
	mulsd	xmm1, xmm2
	subsd	xmm0, xmm1
	movsd	QWORD PTR _sBot$[ebp], xmm0

; 297  : 
; 298  : 	if ( (rBot == 0) || (sBot == 0))

	movsd	xmm0, QWORD PTR _rBot$[ebp]
	ucomisd	xmm0, QWORD PTR __real@0000000000000000
	lahf
	test	ah, 68					; 00000044H
	jnp	SHORT $LN3@LineInters
	movsd	xmm0, QWORD PTR _sBot$[ebp]
	ucomisd	xmm0, QWORD PTR __real@0000000000000000
	lahf
	test	ah, 68					; 00000044H
	jp	SHORT $LN2@LineInters
$LN3@LineInters:

; 299  : 	{
; 300  : 		//lines are parallel
; 301  : 		return false;

	xor	al, al
	jmp	$LN5@LineInters
$LN2@LineInters:

; 302  : 	}
; 303  : 
; 304  : 	double r = rTop/rBot;

	movsd	xmm0, QWORD PTR _rTop$[ebp]
	divsd	xmm0, QWORD PTR _rBot$[ebp]
	movsd	QWORD PTR _r$[ebp], xmm0

; 305  : 	double s = sTop/sBot;

	movsd	xmm0, QWORD PTR _sTop$[ebp]
	divsd	xmm0, QWORD PTR _sBot$[ebp]
	movsd	QWORD PTR _s$[ebp], xmm0

; 306  : 
; 307  : 	if( (r > 0) && (r < 1) && (s > 0) && (s < 1) )

	movsd	xmm0, QWORD PTR _r$[ebp]
	comisd	xmm0, QWORD PTR __real@0000000000000000
	jbe	$LN4@LineInters
	movsd	xmm0, QWORD PTR __real@3ff0000000000000
	comisd	xmm0, QWORD PTR _r$[ebp]
	jbe	$LN4@LineInters
	movsd	xmm0, QWORD PTR _s$[ebp]
	comisd	xmm0, QWORD PTR __real@0000000000000000
	jbe	$LN4@LineInters
	movsd	xmm0, QWORD PTR __real@3ff0000000000000
	comisd	xmm0, QWORD PTR _s$[ebp]
	jbe	$LN4@LineInters

; 308  :   {
; 309  :   	dist = Vec2DDistance(A,B) * r;

	lea	eax, DWORD PTR _B$[ebp]
	push	eax
	lea	ecx, DWORD PTR _A$[ebp]
	push	ecx
	call	?Vec2DDistance@@YANABUVector2D@@0@Z	; Vec2DDistance
	add	esp, 8
	fstp	QWORD PTR tv215[ebp]
	movsd	xmm0, QWORD PTR tv215[ebp]
	mulsd	xmm0, QWORD PTR _r$[ebp]
	mov	edx, DWORD PTR _dist$[ebp]
	movsd	QWORD PTR [edx], xmm0

; 310  : 
; 311  :     point = A + r * (B - A);

	lea	eax, DWORD PTR _A$[ebp]
	push	eax
	lea	ecx, DWORD PTR _B$[ebp]
	push	ecx
	lea	edx, DWORD PTR $T3[ebp]
	push	edx
	call	??G@YA?AUVector2D@@ABU0@0@Z		; operator-
	add	esp, 12					; 0000000cH
	push	eax
	sub	esp, 8
	movsd	xmm0, QWORD PTR _r$[ebp]
	movsd	QWORD PTR [esp], xmm0
	lea	eax, DWORD PTR $T2[ebp]
	push	eax
	call	??D@YA?AUVector2D@@NABU0@@Z		; operator*
	add	esp, 16					; 00000010H
	push	eax
	lea	ecx, DWORD PTR _A$[ebp]
	push	ecx
	lea	edx, DWORD PTR $T1[ebp]
	push	edx
	call	??H@YA?AUVector2D@@ABU0@0@Z		; operator+
	add	esp, 12					; 0000000cH
	mov	ecx, DWORD PTR _point$[ebp]
	mov	edx, DWORD PTR [eax]
	mov	DWORD PTR [ecx], edx
	mov	edx, DWORD PTR [eax+4]
	mov	DWORD PTR [ecx+4], edx
	mov	edx, DWORD PTR [eax+8]
	mov	DWORD PTR [ecx+8], edx
	mov	eax, DWORD PTR [eax+12]
	mov	DWORD PTR [ecx+12], eax

; 312  : 
; 313  :     return true;

	mov	al, 1
	jmp	SHORT $LN5@LineInters

; 314  :   }
; 315  : 
; 316  : 	else

	jmp	SHORT $LN5@LineInters
$LN4@LineInters:

; 317  :   {
; 318  : 		dist = 0;

	mov	ecx, DWORD PTR _dist$[ebp]
	xorps	xmm0, xmm0
	movsd	QWORD PTR [ecx], xmm0

; 319  : 
; 320  :     return false;

	xor	al, al
$LN5@LineInters:

; 321  :   }
; 322  : }

	pop	edi
	add	esp, 104				; 00000068H
	cmp	ebp, esp
	call	__RTC_CheckEsp
	mov	esp, ebp
	pop	ebp
	ret	0
?LineIntersection2D@@YA_NUVector2D@@000AANAAU1@@Z ENDP	; LineIntersection2D
_TEXT	ENDS
; Function compile flags: /Odtp /RTCsu
; File e:\documents\cours\git\raven\raven\2d\vector2d.h
;	COMDAT ?Vec2DDistance@@YANABUVector2D@@0@Z
_TEXT	SEGMENT
_xSeparation$ = -16					; size = 8
_ySeparation$ = -8					; size = 8
_v1$ = 8						; size = 4
_v2$ = 12						; size = 4
?Vec2DDistance@@YANABUVector2D@@0@Z PROC		; Vec2DDistance, COMDAT

; 274  : {

	push	ebp
	mov	ebp, esp
	sub	esp, 16					; 00000010H
	mov	eax, -858993460				; ccccccccH
	mov	DWORD PTR [ebp-16], eax
	mov	DWORD PTR [ebp-12], eax
	mov	DWORD PTR [ebp-8], eax
	mov	DWORD PTR [ebp-4], eax

; 275  : 
; 276  :   double ySeparation = v2.y - v1.y;

	mov	eax, DWORD PTR _v2$[ebp]
	mov	ecx, DWORD PTR _v1$[ebp]
	movsd	xmm0, QWORD PTR [eax+8]
	subsd	xmm0, QWORD PTR [ecx+8]
	movsd	QWORD PTR _ySeparation$[ebp], xmm0

; 277  :   double xSeparation = v2.x - v1.x;

	mov	edx, DWORD PTR _v2$[ebp]
	mov	eax, DWORD PTR _v1$[ebp]
	movsd	xmm0, QWORD PTR [edx]
	subsd	xmm0, QWORD PTR [eax]
	movsd	QWORD PTR _xSeparation$[ebp], xmm0

; 278  : 
; 279  :   return sqrt(ySeparation*ySeparation + xSeparation*xSeparation);

	movsd	xmm0, QWORD PTR _ySeparation$[ebp]
	mulsd	xmm0, QWORD PTR _ySeparation$[ebp]
	movsd	xmm1, QWORD PTR _xSeparation$[ebp]
	mulsd	xmm1, QWORD PTR _xSeparation$[ebp]
	addsd	xmm0, xmm1
	sub	esp, 8
	movsd	QWORD PTR [esp], xmm0
	call	_sqrt
	add	esp, 8

; 280  : }

	add	esp, 16					; 00000010H
	cmp	ebp, esp
	call	__RTC_CheckEsp
	mov	esp, ebp
	pop	ebp
	ret	0
?Vec2DDistance@@YANABUVector2D@@0@Z ENDP		; Vec2DDistance
_TEXT	ENDS
; Function compile flags: /Odtp /RTCsu
; File e:\documents\cours\git\raven\raven\2d\vector2d.h
;	COMDAT ?Vec2DNormalize@@YA?AUVector2D@@ABU1@@Z
_TEXT	SEGMENT
tv87 = -40						; size = 8
_vector_length$ = -32					; size = 8
_vec$ = -20						; size = 16
___$ReturnUdt$ = 8					; size = 4
_v$ = 12						; size = 4
?Vec2DNormalize@@YA?AUVector2D@@ABU1@@Z PROC		; Vec2DNormalize, COMDAT

; 258  : {

	push	ebp
	mov	ebp, esp
	sub	esp, 40					; 00000028H
	push	edi
	lea	edi, DWORD PTR [ebp-40]
	mov	ecx, 10					; 0000000aH
	mov	eax, -858993460				; ccccccccH
	rep stosd

; 259  :   Vector2D vec = v;

	mov	eax, DWORD PTR _v$[ebp]
	mov	ecx, DWORD PTR [eax]
	mov	DWORD PTR _vec$[ebp], ecx
	mov	edx, DWORD PTR [eax+4]
	mov	DWORD PTR _vec$[ebp+4], edx
	mov	ecx, DWORD PTR [eax+8]
	mov	DWORD PTR _vec$[ebp+8], ecx
	mov	edx, DWORD PTR [eax+12]
	mov	DWORD PTR _vec$[ebp+12], edx

; 260  : 
; 261  :   double vector_length = vec.Length();

	lea	ecx, DWORD PTR _vec$[ebp]
	call	?Length@Vector2D@@QBENXZ		; Vector2D::Length
	fstp	QWORD PTR _vector_length$[ebp]

; 262  : 
; 263  :   if (vector_length > std::numeric_limits<double>::epsilon())

	call	?epsilon@?$numeric_limits@N@std@@SANXZ	; std::numeric_limits<double>::epsilon
	fstp	QWORD PTR tv87[ebp]
	movsd	xmm0, QWORD PTR _vector_length$[ebp]
	comisd	xmm0, QWORD PTR tv87[ebp]
	jbe	SHORT $LN2@Vec2DNorma

; 264  :   {
; 265  :     vec.x /= vector_length;

	movsd	xmm0, QWORD PTR _vec$[ebp]
	divsd	xmm0, QWORD PTR _vector_length$[ebp]
	movsd	QWORD PTR _vec$[ebp], xmm0

; 266  :     vec.y /= vector_length;

	movsd	xmm0, QWORD PTR _vec$[ebp+8]
	divsd	xmm0, QWORD PTR _vector_length$[ebp]
	movsd	QWORD PTR _vec$[ebp+8], xmm0
$LN2@Vec2DNorma:

; 267  :   }
; 268  : 
; 269  :   return vec;

	mov	eax, DWORD PTR ___$ReturnUdt$[ebp]
	mov	ecx, DWORD PTR _vec$[ebp]
	mov	DWORD PTR [eax], ecx
	mov	edx, DWORD PTR _vec$[ebp+4]
	mov	DWORD PTR [eax+4], edx
	mov	ecx, DWORD PTR _vec$[ebp+8]
	mov	DWORD PTR [eax+8], ecx
	mov	edx, DWORD PTR _vec$[ebp+12]
	mov	DWORD PTR [eax+12], edx
	mov	eax, DWORD PTR ___$ReturnUdt$[ebp]

; 270  : }

	push	edx
	mov	ecx, ebp
	push	eax
	lea	edx, DWORD PTR $LN6@Vec2DNorma
	call	@_RTC_CheckStackVars@8
	pop	eax
	pop	edx
	pop	edi
	add	esp, 40					; 00000028H
	cmp	ebp, esp
	call	__RTC_CheckEsp
	mov	esp, ebp
	pop	ebp
	ret	0
	npad	2
$LN6@Vec2DNorma:
	DD	1
	DD	$LN5@Vec2DNorma
$LN5@Vec2DNorma:
	DD	-20					; ffffffecH
	DD	16					; 00000010H
	DD	$LN4@Vec2DNorma
$LN4@Vec2DNorma:
	DB	118					; 00000076H
	DB	101					; 00000065H
	DB	99					; 00000063H
	DB	0
?Vec2DNormalize@@YA?AUVector2D@@ABU1@@Z ENDP		; Vec2DNormalize
_TEXT	ENDS
; Function compile flags: /Odtp /RTCsu
; File e:\documents\cours\git\raven\raven\2d\vector2d.h
;	COMDAT ??K@YA?AUVector2D@@ABU0@N@Z
_TEXT	SEGMENT
_result$ = -20						; size = 16
___$ReturnUdt$ = 8					; size = 4
_lhs$ = 12						; size = 4
_val$ = 16						; size = 8
??K@YA?AUVector2D@@ABU0@N@Z PROC			; operator/, COMDAT

; 369  : {

	push	ebp
	mov	ebp, esp
	sub	esp, 24					; 00000018H
	mov	eax, -858993460				; ccccccccH
	mov	DWORD PTR [ebp-24], eax
	mov	DWORD PTR [ebp-20], eax
	mov	DWORD PTR [ebp-16], eax
	mov	DWORD PTR [ebp-12], eax
	mov	DWORD PTR [ebp-8], eax
	mov	DWORD PTR [ebp-4], eax

; 370  :   Vector2D result(lhs);

	mov	eax, DWORD PTR _lhs$[ebp]
	mov	ecx, DWORD PTR [eax]
	mov	DWORD PTR _result$[ebp], ecx
	mov	edx, DWORD PTR [eax+4]
	mov	DWORD PTR _result$[ebp+4], edx
	mov	ecx, DWORD PTR [eax+8]
	mov	DWORD PTR _result$[ebp+8], ecx
	mov	edx, DWORD PTR [eax+12]
	mov	DWORD PTR _result$[ebp+12], edx

; 371  :   result.x /= val;

	movsd	xmm0, QWORD PTR _result$[ebp]
	divsd	xmm0, QWORD PTR _val$[ebp]
	movsd	QWORD PTR _result$[ebp], xmm0

; 372  :   result.y /= val;

	movsd	xmm0, QWORD PTR _result$[ebp+8]
	divsd	xmm0, QWORD PTR _val$[ebp]
	movsd	QWORD PTR _result$[ebp+8], xmm0

; 373  : 
; 374  :   return result;

	mov	eax, DWORD PTR ___$ReturnUdt$[ebp]
	mov	ecx, DWORD PTR _result$[ebp]
	mov	DWORD PTR [eax], ecx
	mov	edx, DWORD PTR _result$[ebp+4]
	mov	DWORD PTR [eax+4], edx
	mov	ecx, DWORD PTR _result$[ebp+8]
	mov	DWORD PTR [eax+8], ecx
	mov	edx, DWORD PTR _result$[ebp+12]
	mov	DWORD PTR [eax+12], edx
	mov	eax, DWORD PTR ___$ReturnUdt$[ebp]

; 375  : }

	push	edx
	mov	ecx, ebp
	push	eax
	lea	edx, DWORD PTR $LN5@operator
	call	@_RTC_CheckStackVars@8
	pop	eax
	pop	edx
	mov	esp, ebp
	pop	ebp
	ret	0
	npad	1
$LN5@operator:
	DD	1
	DD	$LN4@operator
$LN4@operator:
	DD	-20					; ffffffecH
	DD	16					; 00000010H
	DD	$LN3@operator
$LN3@operator:
	DB	114					; 00000072H
	DB	101					; 00000065H
	DB	115					; 00000073H
	DB	117					; 00000075H
	DB	108					; 0000006cH
	DB	116					; 00000074H
	DB	0
??K@YA?AUVector2D@@ABU0@N@Z ENDP			; operator/
_TEXT	ENDS
; Function compile flags: /Odtp /RTCsu
; File e:\documents\cours\git\raven\raven\2d\vector2d.h
;	COMDAT ??H@YA?AUVector2D@@ABU0@0@Z
_TEXT	SEGMENT
_result$ = -20						; size = 16
___$ReturnUdt$ = 8					; size = 4
_lhs$ = 12						; size = 4
_rhs$ = 16						; size = 4
??H@YA?AUVector2D@@ABU0@0@Z PROC			; operator+, COMDAT

; 359  : {

	push	ebp
	mov	ebp, esp
	sub	esp, 24					; 00000018H
	mov	eax, -858993460				; ccccccccH
	mov	DWORD PTR [ebp-24], eax
	mov	DWORD PTR [ebp-20], eax
	mov	DWORD PTR [ebp-16], eax
	mov	DWORD PTR [ebp-12], eax
	mov	DWORD PTR [ebp-8], eax
	mov	DWORD PTR [ebp-4], eax

; 360  :   Vector2D result(lhs);

	mov	eax, DWORD PTR _lhs$[ebp]
	mov	ecx, DWORD PTR [eax]
	mov	DWORD PTR _result$[ebp], ecx
	mov	edx, DWORD PTR [eax+4]
	mov	DWORD PTR _result$[ebp+4], edx
	mov	ecx, DWORD PTR [eax+8]
	mov	DWORD PTR _result$[ebp+8], ecx
	mov	edx, DWORD PTR [eax+12]
	mov	DWORD PTR _result$[ebp+12], edx

; 361  :   result.x += rhs.x;

	mov	eax, DWORD PTR _rhs$[ebp]
	movsd	xmm0, QWORD PTR _result$[ebp]
	addsd	xmm0, QWORD PTR [eax]
	movsd	QWORD PTR _result$[ebp], xmm0

; 362  :   result.y += rhs.y;

	mov	ecx, DWORD PTR _rhs$[ebp]
	movsd	xmm0, QWORD PTR _result$[ebp+8]
	addsd	xmm0, QWORD PTR [ecx+8]
	movsd	QWORD PTR _result$[ebp+8], xmm0

; 363  :   
; 364  :   return result;

	mov	edx, DWORD PTR ___$ReturnUdt$[ebp]
	mov	eax, DWORD PTR _result$[ebp]
	mov	DWORD PTR [edx], eax
	mov	ecx, DWORD PTR _result$[ebp+4]
	mov	DWORD PTR [edx+4], ecx
	mov	eax, DWORD PTR _result$[ebp+8]
	mov	DWORD PTR [edx+8], eax
	mov	ecx, DWORD PTR _result$[ebp+12]
	mov	DWORD PTR [edx+12], ecx
	mov	eax, DWORD PTR ___$ReturnUdt$[ebp]

; 365  : }

	push	edx
	mov	ecx, ebp
	push	eax
	lea	edx, DWORD PTR $LN5@operator
	call	@_RTC_CheckStackVars@8
	pop	eax
	pop	edx
	mov	esp, ebp
	pop	ebp
	ret	0
$LN5@operator:
	DD	1
	DD	$LN4@operator
$LN4@operator:
	DD	-20					; ffffffecH
	DD	16					; 00000010H
	DD	$LN3@operator
$LN3@operator:
	DB	114					; 00000072H
	DB	101					; 00000065H
	DB	115					; 00000073H
	DB	117					; 00000075H
	DB	108					; 0000006cH
	DB	116					; 00000074H
	DB	0
??H@YA?AUVector2D@@ABU0@0@Z ENDP			; operator+
_TEXT	ENDS
; Function compile flags: /Odtp /RTCsu
; File e:\documents\cours\git\raven\raven\2d\vector2d.h
;	COMDAT ??G@YA?AUVector2D@@ABU0@0@Z
_TEXT	SEGMENT
_result$ = -20						; size = 16
___$ReturnUdt$ = 8					; size = 4
_lhs$ = 12						; size = 4
_rhs$ = 16						; size = 4
??G@YA?AUVector2D@@ABU0@0@Z PROC			; operator-, COMDAT

; 349  : {

	push	ebp
	mov	ebp, esp
	sub	esp, 24					; 00000018H
	mov	eax, -858993460				; ccccccccH
	mov	DWORD PTR [ebp-24], eax
	mov	DWORD PTR [ebp-20], eax
	mov	DWORD PTR [ebp-16], eax
	mov	DWORD PTR [ebp-12], eax
	mov	DWORD PTR [ebp-8], eax
	mov	DWORD PTR [ebp-4], eax

; 350  :   Vector2D result(lhs);

	mov	eax, DWORD PTR _lhs$[ebp]
	mov	ecx, DWORD PTR [eax]
	mov	DWORD PTR _result$[ebp], ecx
	mov	edx, DWORD PTR [eax+4]
	mov	DWORD PTR _result$[ebp+4], edx
	mov	ecx, DWORD PTR [eax+8]
	mov	DWORD PTR _result$[ebp+8], ecx
	mov	edx, DWORD PTR [eax+12]
	mov	DWORD PTR _result$[ebp+12], edx

; 351  :   result.x -= rhs.x;

	mov	eax, DWORD PTR _rhs$[ebp]
	movsd	xmm0, QWORD PTR _result$[ebp]
	subsd	xmm0, QWORD PTR [eax]
	movsd	QWORD PTR _result$[ebp], xmm0

; 352  :   result.y -= rhs.y;

	mov	ecx, DWORD PTR _rhs$[ebp]
	movsd	xmm0, QWORD PTR _result$[ebp+8]
	subsd	xmm0, QWORD PTR [ecx+8]
	movsd	QWORD PTR _result$[ebp+8], xmm0

; 353  :   
; 354  :   return result;

	mov	edx, DWORD PTR ___$ReturnUdt$[ebp]
	mov	eax, DWORD PTR _result$[ebp]
	mov	DWORD PTR [edx], eax
	mov	ecx, DWORD PTR _result$[ebp+4]
	mov	DWORD PTR [edx+4], ecx
	mov	eax, DWORD PTR _result$[ebp+8]
	mov	DWORD PTR [edx+8], eax
	mov	ecx, DWORD PTR _result$[ebp+12]
	mov	DWORD PTR [edx+12], ecx
	mov	eax, DWORD PTR ___$ReturnUdt$[ebp]

; 355  : }

	push	edx
	mov	ecx, ebp
	push	eax
	lea	edx, DWORD PTR $LN5@operator
	call	@_RTC_CheckStackVars@8
	pop	eax
	pop	edx
	mov	esp, ebp
	pop	ebp
	ret	0
$LN5@operator:
	DD	1
	DD	$LN4@operator
$LN4@operator:
	DD	-20					; ffffffecH
	DD	16					; 00000010H
	DD	$LN3@operator
$LN3@operator:
	DB	114					; 00000072H
	DB	101					; 00000065H
	DB	115					; 00000073H
	DB	117					; 00000075H
	DB	108					; 0000006cH
	DB	116					; 00000074H
	DB	0
??G@YA?AUVector2D@@ABU0@0@Z ENDP			; operator-
_TEXT	ENDS
; Function compile flags: /Odtp /RTCsu
; File e:\documents\cours\git\raven\raven\2d\vector2d.h
;	COMDAT ??D@YA?AUVector2D@@NABU0@@Z
_TEXT	SEGMENT
_result$ = -20						; size = 16
___$ReturnUdt$ = 8					; size = 4
_lhs$ = 12						; size = 8
_rhs$ = 20						; size = 4
??D@YA?AUVector2D@@NABU0@@Z PROC			; operator*, COMDAT

; 341  : {

	push	ebp
	mov	ebp, esp
	sub	esp, 24					; 00000018H
	mov	eax, -858993460				; ccccccccH
	mov	DWORD PTR [ebp-24], eax
	mov	DWORD PTR [ebp-20], eax
	mov	DWORD PTR [ebp-16], eax
	mov	DWORD PTR [ebp-12], eax
	mov	DWORD PTR [ebp-8], eax
	mov	DWORD PTR [ebp-4], eax

; 342  :   Vector2D result(rhs);

	mov	eax, DWORD PTR _rhs$[ebp]
	mov	ecx, DWORD PTR [eax]
	mov	DWORD PTR _result$[ebp], ecx
	mov	edx, DWORD PTR [eax+4]
	mov	DWORD PTR _result$[ebp+4], edx
	mov	ecx, DWORD PTR [eax+8]
	mov	DWORD PTR _result$[ebp+8], ecx
	mov	edx, DWORD PTR [eax+12]
	mov	DWORD PTR _result$[ebp+12], edx

; 343  :   result *= lhs;

	lea	eax, DWORD PTR _lhs$[ebp]
	push	eax
	lea	ecx, DWORD PTR _result$[ebp]
	call	??XVector2D@@QAEABU0@ABN@Z		; Vector2D::operator*=

; 344  :   return result;

	mov	ecx, DWORD PTR ___$ReturnUdt$[ebp]
	mov	edx, DWORD PTR _result$[ebp]
	mov	DWORD PTR [ecx], edx
	mov	eax, DWORD PTR _result$[ebp+4]
	mov	DWORD PTR [ecx+4], eax
	mov	edx, DWORD PTR _result$[ebp+8]
	mov	DWORD PTR [ecx+8], edx
	mov	eax, DWORD PTR _result$[ebp+12]
	mov	DWORD PTR [ecx+12], eax
	mov	eax, DWORD PTR ___$ReturnUdt$[ebp]

; 345  : }

	push	edx
	mov	ecx, ebp
	push	eax
	lea	edx, DWORD PTR $LN5@operator
	call	@_RTC_CheckStackVars@8
	pop	eax
	pop	edx
	add	esp, 24					; 00000018H
	cmp	ebp, esp
	call	__RTC_CheckEsp
	mov	esp, ebp
	pop	ebp
	ret	0
	npad	1
$LN5@operator:
	DD	1
	DD	$LN4@operator
$LN4@operator:
	DD	-20					; ffffffecH
	DD	16					; 00000010H
	DD	$LN3@operator
$LN3@operator:
	DB	114					; 00000072H
	DB	101					; 00000065H
	DB	115					; 00000073H
	DB	117					; 00000075H
	DB	108					; 0000006cH
	DB	116					; 00000074H
	DB	0
??D@YA?AUVector2D@@NABU0@@Z ENDP			; operator*
_TEXT	ENDS
; Function compile flags: /Odtp /RTCsu
; File e:\documents\cours\git\raven\raven\2d\vector2d.h
;	COMDAT ??D@YA?AUVector2D@@ABU0@N@Z
_TEXT	SEGMENT
_result$ = -20						; size = 16
___$ReturnUdt$ = 8					; size = 4
_lhs$ = 12						; size = 4
_rhs$ = 16						; size = 8
??D@YA?AUVector2D@@ABU0@N@Z PROC			; operator*, COMDAT

; 334  : {

	push	ebp
	mov	ebp, esp
	sub	esp, 24					; 00000018H
	mov	eax, -858993460				; ccccccccH
	mov	DWORD PTR [ebp-24], eax
	mov	DWORD PTR [ebp-20], eax
	mov	DWORD PTR [ebp-16], eax
	mov	DWORD PTR [ebp-12], eax
	mov	DWORD PTR [ebp-8], eax
	mov	DWORD PTR [ebp-4], eax

; 335  :   Vector2D result(lhs);

	mov	eax, DWORD PTR _lhs$[ebp]
	mov	ecx, DWORD PTR [eax]
	mov	DWORD PTR _result$[ebp], ecx
	mov	edx, DWORD PTR [eax+4]
	mov	DWORD PTR _result$[ebp+4], edx
	mov	ecx, DWORD PTR [eax+8]
	mov	DWORD PTR _result$[ebp+8], ecx
	mov	edx, DWORD PTR [eax+12]
	mov	DWORD PTR _result$[ebp+12], edx

; 336  :   result *= rhs;

	lea	eax, DWORD PTR _rhs$[ebp]
	push	eax
	lea	ecx, DWORD PTR _result$[ebp]
	call	??XVector2D@@QAEABU0@ABN@Z		; Vector2D::operator*=

; 337  :   return result;

	mov	ecx, DWORD PTR ___$ReturnUdt$[ebp]
	mov	edx, DWORD PTR _result$[ebp]
	mov	DWORD PTR [ecx], edx
	mov	eax, DWORD PTR _result$[ebp+4]
	mov	DWORD PTR [ecx+4], eax
	mov	edx, DWORD PTR _result$[ebp+8]
	mov	DWORD PTR [ecx+8], edx
	mov	eax, DWORD PTR _result$[ebp+12]
	mov	DWORD PTR [ecx+12], eax
	mov	eax, DWORD PTR ___$ReturnUdt$[ebp]

; 338  : }

	push	edx
	mov	ecx, ebp
	push	eax
	lea	edx, DWORD PTR $LN5@operator
	call	@_RTC_CheckStackVars@8
	pop	eax
	pop	edx
	add	esp, 24					; 00000018H
	cmp	ebp, esp
	call	__RTC_CheckEsp
	mov	esp, ebp
	pop	ebp
	ret	0
	npad	1
$LN5@operator:
	DD	1
	DD	$LN4@operator
$LN4@operator:
	DD	-20					; ffffffecH
	DD	16					; 00000010H
	DD	$LN3@operator
$LN3@operator:
	DB	114					; 00000072H
	DB	101					; 00000065H
	DB	115					; 00000073H
	DB	117					; 00000075H
	DB	108					; 0000006cH
	DB	116					; 00000074H
	DB	0
??D@YA?AUVector2D@@ABU0@N@Z ENDP			; operator*
_TEXT	ENDS
; Function compile flags: /Odtp /RTCsu
; File e:\documents\cours\git\raven\raven\2d\vector2d.h
;	COMDAT ??XVector2D@@QAEABU0@ABN@Z
_TEXT	SEGMENT
_this$ = -4						; size = 4
_rhs$ = 8						; size = 4
??XVector2D@@QAEABU0@ABN@Z PROC				; Vector2D::operator*=, COMDAT
; _this$ = ecx

; 84   :   {

	push	ebp
	mov	ebp, esp
	push	ecx
	mov	DWORD PTR [ebp-4], -858993460		; ccccccccH
	mov	DWORD PTR _this$[ebp], ecx

; 85   :     x *= rhs;

	mov	eax, DWORD PTR _this$[ebp]
	mov	ecx, DWORD PTR _rhs$[ebp]
	movsd	xmm0, QWORD PTR [eax]
	mulsd	xmm0, QWORD PTR [ecx]
	mov	edx, DWORD PTR _this$[ebp]
	movsd	QWORD PTR [edx], xmm0

; 86   :     y *= rhs;

	mov	eax, DWORD PTR _this$[ebp]
	mov	ecx, DWORD PTR _rhs$[ebp]
	movsd	xmm0, QWORD PTR [eax+8]
	mulsd	xmm0, QWORD PTR [ecx]
	mov	edx, DWORD PTR _this$[ebp]
	movsd	QWORD PTR [edx+8], xmm0

; 87   : 
; 88   :     return *this;

	mov	eax, DWORD PTR _this$[ebp]

; 89   :   }

	mov	esp, ebp
	pop	ebp
	ret	4
??XVector2D@@QAEABU0@ABN@Z ENDP				; Vector2D::operator*=
_TEXT	ENDS
; Function compile flags: /Odtp /RTCsu
; File e:\documents\cours\git\raven\raven\2d\vector2d.h
;	COMDAT ??YVector2D@@QAEABU0@ABU0@@Z
_TEXT	SEGMENT
_this$ = -4						; size = 4
_rhs$ = 8						; size = 4
??YVector2D@@QAEABU0@ABU0@@Z PROC			; Vector2D::operator+=, COMDAT
; _this$ = ecx

; 68   :   {

	push	ebp
	mov	ebp, esp
	push	ecx
	mov	DWORD PTR [ebp-4], -858993460		; ccccccccH
	mov	DWORD PTR _this$[ebp], ecx

; 69   :     x += rhs.x;

	mov	eax, DWORD PTR _this$[ebp]
	mov	ecx, DWORD PTR _rhs$[ebp]
	movsd	xmm0, QWORD PTR [eax]
	addsd	xmm0, QWORD PTR [ecx]
	mov	edx, DWORD PTR _this$[ebp]
	movsd	QWORD PTR [edx], xmm0

; 70   :     y += rhs.y;

	mov	eax, DWORD PTR _this$[ebp]
	mov	ecx, DWORD PTR _rhs$[ebp]
	movsd	xmm0, QWORD PTR [eax+8]
	addsd	xmm0, QWORD PTR [ecx+8]
	mov	edx, DWORD PTR _this$[ebp]
	movsd	QWORD PTR [edx+8], xmm0

; 71   : 
; 72   :     return *this;

	mov	eax, DWORD PTR _this$[ebp]

; 73   :   }

	mov	esp, ebp
	pop	ebp
	ret	4
??YVector2D@@QAEABU0@ABU0@@Z ENDP			; Vector2D::operator+=
_TEXT	ENDS
; Function compile flags: /Odtp /RTCsu
; File e:\documents\cours\git\raven\raven\2d\vector2d.h
;	COMDAT ?Truncate@Vector2D@@QAEXN@Z
_TEXT	SEGMENT
tv73 = -12						; size = 8
_this$ = -4						; size = 4
_max$ = 8						; size = 8
?Truncate@Vector2D@@QAEXN@Z PROC			; Vector2D::Truncate, COMDAT
; _this$ = ecx

; 210  : {

	push	ebp
	mov	ebp, esp
	sub	esp, 12					; 0000000cH
	mov	DWORD PTR [ebp-12], -858993460		; ccccccccH
	mov	DWORD PTR [ebp-8], -858993460		; ccccccccH
	mov	DWORD PTR [ebp-4], -858993460		; ccccccccH
	mov	DWORD PTR _this$[ebp], ecx

; 211  :   if (this->Length() > max)

	mov	ecx, DWORD PTR _this$[ebp]
	call	?Length@Vector2D@@QBENXZ		; Vector2D::Length
	fstp	QWORD PTR tv73[ebp]
	movsd	xmm0, QWORD PTR tv73[ebp]
	comisd	xmm0, QWORD PTR _max$[ebp]
	jbe	SHORT $LN2@Truncate

; 212  :   {
; 213  :     this->Normalize();

	mov	ecx, DWORD PTR _this$[ebp]
	call	?Normalize@Vector2D@@QAEXXZ		; Vector2D::Normalize

; 214  : 
; 215  :     *this *= max;

	lea	eax, DWORD PTR _max$[ebp]
	push	eax
	mov	ecx, DWORD PTR _this$[ebp]
	call	??XVector2D@@QAEABU0@ABN@Z		; Vector2D::operator*=
$LN2@Truncate:

; 216  :   } 
; 217  : }

	add	esp, 12					; 0000000cH
	cmp	ebp, esp
	call	__RTC_CheckEsp
	mov	esp, ebp
	pop	ebp
	ret	8
?Truncate@Vector2D@@QAEXN@Z ENDP			; Vector2D::Truncate
_TEXT	ENDS
; Function compile flags: /Odtp /RTCsu
; File e:\documents\cours\git\raven\raven\2d\vector2d.h
;	COMDAT ?Perp@Vector2D@@QBE?AU1@XZ
_TEXT	SEGMENT
_this$ = -4						; size = 4
___$ReturnUdt$ = 8					; size = 4
?Perp@Vector2D@@QBE?AU1@XZ PROC				; Vector2D::Perp, COMDAT
; _this$ = ecx

; 176  : {

	push	ebp
	mov	ebp, esp
	push	ecx
	mov	DWORD PTR [ebp-4], -858993460		; ccccccccH
	mov	DWORD PTR _this$[ebp], ecx

; 177  :   return Vector2D(-y, x);

	mov	eax, DWORD PTR _this$[ebp]
	sub	esp, 8
	movsd	xmm0, QWORD PTR [eax]
	movsd	QWORD PTR [esp], xmm0
	mov	ecx, DWORD PTR _this$[ebp]
	movsd	xmm0, QWORD PTR [ecx+8]
	xorps	xmm0, QWORD PTR __xmm@80000000000000008000000000000000
	sub	esp, 8
	movsd	QWORD PTR [esp], xmm0
	mov	ecx, DWORD PTR ___$ReturnUdt$[ebp]
	call	??0Vector2D@@QAE@NN@Z			; Vector2D::Vector2D
	mov	eax, DWORD PTR ___$ReturnUdt$[ebp]

; 178  : }

	add	esp, 4
	cmp	ebp, esp
	call	__RTC_CheckEsp
	mov	esp, ebp
	pop	ebp
	ret	4
?Perp@Vector2D@@QBE?AU1@XZ ENDP				; Vector2D::Perp
_TEXT	ENDS
; Function compile flags: /Odtp /RTCsu
; File e:\documents\cours\git\raven\raven\2d\vector2d.h
;	COMDAT ?Normalize@Vector2D@@QAEXXZ
_TEXT	SEGMENT
tv79 = -20						; size = 8
_vector_length$ = -12					; size = 8
_this$ = -4						; size = 4
?Normalize@Vector2D@@QAEXXZ PROC			; Vector2D::Normalize, COMDAT
; _this$ = ecx

; 244  : { 

	push	ebp
	mov	ebp, esp
	sub	esp, 20					; 00000014H
	mov	eax, -858993460				; ccccccccH
	mov	DWORD PTR [ebp-20], eax
	mov	DWORD PTR [ebp-16], eax
	mov	DWORD PTR [ebp-12], eax
	mov	DWORD PTR [ebp-8], eax
	mov	DWORD PTR [ebp-4], eax
	mov	DWORD PTR _this$[ebp], ecx

; 245  :   double vector_length = this->Length();

	mov	ecx, DWORD PTR _this$[ebp]
	call	?Length@Vector2D@@QBENXZ		; Vector2D::Length
	fstp	QWORD PTR _vector_length$[ebp]

; 246  : 
; 247  :   if (vector_length > std::numeric_limits<double>::epsilon())

	call	?epsilon@?$numeric_limits@N@std@@SANXZ	; std::numeric_limits<double>::epsilon
	fstp	QWORD PTR tv79[ebp]
	movsd	xmm0, QWORD PTR _vector_length$[ebp]
	comisd	xmm0, QWORD PTR tv79[ebp]
	jbe	SHORT $LN2@Normalize

; 248  :   {
; 249  :     this->x /= vector_length;

	mov	eax, DWORD PTR _this$[ebp]
	movsd	xmm0, QWORD PTR [eax]
	divsd	xmm0, QWORD PTR _vector_length$[ebp]
	mov	ecx, DWORD PTR _this$[ebp]
	movsd	QWORD PTR [ecx], xmm0

; 250  :     this->y /= vector_length;

	mov	edx, DWORD PTR _this$[ebp]
	movsd	xmm0, QWORD PTR [edx+8]
	divsd	xmm0, QWORD PTR _vector_length$[ebp]
	mov	eax, DWORD PTR _this$[ebp]
	movsd	QWORD PTR [eax+8], xmm0
$LN2@Normalize:

; 251  :   }
; 252  : }

	add	esp, 20					; 00000014H
	cmp	ebp, esp
	call	__RTC_CheckEsp
	mov	esp, ebp
	pop	ebp
	ret	0
?Normalize@Vector2D@@QAEXXZ ENDP			; Vector2D::Normalize
_TEXT	ENDS
; Function compile flags: /Odtp /RTCsu
; File e:\documents\cours\git\raven\raven\2d\vector2d.h
;	COMDAT ?Length@Vector2D@@QBENXZ
_TEXT	SEGMENT
_this$ = -4						; size = 4
?Length@Vector2D@@QBENXZ PROC				; Vector2D::Length, COMDAT
; _this$ = ecx

; 128  : {

	push	ebp
	mov	ebp, esp
	push	ecx
	mov	DWORD PTR [ebp-4], -858993460		; ccccccccH
	mov	DWORD PTR _this$[ebp], ecx

; 129  :   return sqrt(x * x + y * y);

	mov	eax, DWORD PTR _this$[ebp]
	mov	ecx, DWORD PTR _this$[ebp]
	movsd	xmm0, QWORD PTR [eax]
	mulsd	xmm0, QWORD PTR [ecx]
	mov	edx, DWORD PTR _this$[ebp]
	mov	eax, DWORD PTR _this$[ebp]
	movsd	xmm1, QWORD PTR [edx+8]
	mulsd	xmm1, QWORD PTR [eax+8]
	addsd	xmm0, xmm1
	sub	esp, 8
	movsd	QWORD PTR [esp], xmm0
	call	_sqrt
	add	esp, 8

; 130  : }

	add	esp, 4
	cmp	ebp, esp
	call	__RTC_CheckEsp
	mov	esp, ebp
	pop	ebp
	ret	0
?Length@Vector2D@@QBENXZ ENDP				; Vector2D::Length
_TEXT	ENDS
; Function compile flags: /Odtp /RTCsu
; File e:\documents\cours\git\raven\raven\2d\vector2d.h
;	COMDAT ??0Vector2D@@QAE@NN@Z
_TEXT	SEGMENT
_this$ = -4						; size = 4
_a$ = 8							; size = 8
_b$ = 16						; size = 8
??0Vector2D@@QAE@NN@Z PROC				; Vector2D::Vector2D, COMDAT
; _this$ = ecx

; 25   :   Vector2D(double a, double b):x(a),y(b){}

	push	ebp
	mov	ebp, esp
	push	ecx
	mov	DWORD PTR [ebp-4], -858993460		; ccccccccH
	mov	DWORD PTR _this$[ebp], ecx
	mov	eax, DWORD PTR _this$[ebp]
	movsd	xmm0, QWORD PTR _a$[ebp]
	movsd	QWORD PTR [eax], xmm0
	mov	ecx, DWORD PTR _this$[ebp]
	movsd	xmm0, QWORD PTR _b$[ebp]
	movsd	QWORD PTR [ecx+8], xmm0
	mov	eax, DWORD PTR _this$[ebp]
	mov	esp, ebp
	pop	ebp
	ret	16					; 00000010H
??0Vector2D@@QAE@NN@Z ENDP				; Vector2D::Vector2D
_TEXT	ENDS
; Function compile flags: /Odtp /RTCsu
; File e:\documents\cours\git\raven\raven\2d\vector2d.h
;	COMDAT ??0Vector2D@@QAE@XZ
_TEXT	SEGMENT
_this$ = -4						; size = 4
??0Vector2D@@QAE@XZ PROC				; Vector2D::Vector2D, COMDAT
; _this$ = ecx

; 24   :   Vector2D():x(0.0),y(0.0){}

	push	ebp
	mov	ebp, esp
	push	ecx
	mov	DWORD PTR [ebp-4], -858993460		; ccccccccH
	mov	DWORD PTR _this$[ebp], ecx
	mov	eax, DWORD PTR _this$[ebp]
	xorps	xmm0, xmm0
	movsd	QWORD PTR [eax], xmm0
	mov	ecx, DWORD PTR _this$[ebp]
	xorps	xmm0, xmm0
	movsd	QWORD PTR [ecx+8], xmm0
	mov	eax, DWORD PTR _this$[ebp]
	mov	esp, ebp
	pop	ebp
	ret	0
??0Vector2D@@QAE@XZ ENDP				; Vector2D::Vector2D
_TEXT	ENDS
; Function compile flags: /Odtp /RTCsu
; File e:\documents\cours\git\raven\raven\misc\utils.h
;	COMDAT ??__EMinFloat@@YAXXZ
text$di	SEGMENT
??__EMinFloat@@YAXXZ PROC				; `dynamic initializer for 'MinFloat'', COMDAT

; 27   : const float   MinFloat  = (std::numeric_limits<float>::min)();

	push	ebp
	mov	ebp, esp
	call	?min@?$numeric_limits@M@std@@SAMXZ	; std::numeric_limits<float>::min
	fstp	DWORD PTR ?MinFloat@@3MB
	cmp	ebp, esp
	call	__RTC_CheckEsp
	pop	ebp
	ret	0
??__EMinFloat@@YAXXZ ENDP				; `dynamic initializer for 'MinFloat''
text$di	ENDS
; Function compile flags: /Odtp /RTCsu
; File e:\documents\cours\git\raven\raven\misc\utils.h
;	COMDAT ??__EMaxFloat@@YAXXZ
text$di	SEGMENT
??__EMaxFloat@@YAXXZ PROC				; `dynamic initializer for 'MaxFloat'', COMDAT

; 26   : const float   MaxFloat  = (std::numeric_limits<float>::max)();

	push	ebp
	mov	ebp, esp
	call	?max@?$numeric_limits@M@std@@SAMXZ	; std::numeric_limits<float>::max
	fstp	DWORD PTR ?MaxFloat@@3MB
	cmp	ebp, esp
	call	__RTC_CheckEsp
	pop	ebp
	ret	0
??__EMaxFloat@@YAXXZ ENDP				; `dynamic initializer for 'MaxFloat''
text$di	ENDS
; Function compile flags: /Odtp /RTCsu
; File e:\documents\cours\git\raven\raven\misc\utils.h
;	COMDAT ??__EMinDouble@@YAXXZ
text$di	SEGMENT
??__EMinDouble@@YAXXZ PROC				; `dynamic initializer for 'MinDouble'', COMDAT

; 25   : const double  MinDouble = (std::numeric_limits<double>::min)();

	push	ebp
	mov	ebp, esp
	call	?min@?$numeric_limits@N@std@@SANXZ	; std::numeric_limits<double>::min
	fstp	QWORD PTR ?MinDouble@@3NB
	cmp	ebp, esp
	call	__RTC_CheckEsp
	pop	ebp
	ret	0
??__EMinDouble@@YAXXZ ENDP				; `dynamic initializer for 'MinDouble''
text$di	ENDS
; Function compile flags: /Odtp /RTCsu
; File e:\documents\cours\git\raven\raven\misc\utils.h
;	COMDAT ??__EMaxDouble@@YAXXZ
text$di	SEGMENT
??__EMaxDouble@@YAXXZ PROC				; `dynamic initializer for 'MaxDouble'', COMDAT

; 24   : const double  MaxDouble = (std::numeric_limits<double>::max)();

	push	ebp
	mov	ebp, esp
	call	?max@?$numeric_limits@N@std@@SANXZ	; std::numeric_limits<double>::max
	fstp	QWORD PTR ?MaxDouble@@3NB
	cmp	ebp, esp
	call	__RTC_CheckEsp
	pop	ebp
	ret	0
??__EMaxDouble@@YAXXZ ENDP				; `dynamic initializer for 'MaxDouble''
text$di	ENDS
; Function compile flags: /Odtp /RTCsu
; File e:\documents\cours\git\raven\raven\misc\utils.h
;	COMDAT ??__EMaxInt@@YAXXZ
text$di	SEGMENT
??__EMaxInt@@YAXXZ PROC					; `dynamic initializer for 'MaxInt'', COMDAT

; 23   : const int     MaxInt    = (std::numeric_limits<int>::max)();

	push	ebp
	mov	ebp, esp
	call	?max@?$numeric_limits@H@std@@SAHXZ	; std::numeric_limits<int>::max
	mov	DWORD PTR ?MaxInt@@3HB, eax
	cmp	ebp, esp
	call	__RTC_CheckEsp
	pop	ebp
	ret	0
??__EMaxInt@@YAXXZ ENDP					; `dynamic initializer for 'MaxInt''
text$di	ENDS
; Function compile flags: /Odtp /RTCsu
; File c:\program files (x86)\microsoft visual studio 14.0\vc\include\xlocale
;	COMDAT ??0id@locale@std@@QAE@I@Z
_TEXT	SEGMENT
_this$ = -4						; size = 4
__Val$ = 8						; size = 4
??0id@locale@std@@QAE@I@Z PROC				; std::locale::id::id, COMDAT
; _this$ = ecx

; 110  : 			{	// construct with specified stamp value

	push	ebp
	mov	ebp, esp
	push	ecx
	mov	DWORD PTR [ebp-4], -858993460		; ccccccccH
	mov	DWORD PTR _this$[ebp], ecx

; 109  : 			: _Id(_Val)

	mov	eax, DWORD PTR _this$[ebp]
	mov	ecx, DWORD PTR __Val$[ebp]
	mov	DWORD PTR [eax], ecx

; 111  : 			}

	mov	eax, DWORD PTR _this$[ebp]
	mov	esp, ebp
	pop	ebp
	ret	4
??0id@locale@std@@QAE@I@Z ENDP				; std::locale::id::id
_TEXT	ENDS
; Function compile flags: /Odtp /RTCsu
;	COMDAT ??_Gruntime_error@std@@UAEPAXI@Z
_TEXT	SEGMENT
_this$ = -4						; size = 4
___flags$ = 8						; size = 4
??_Gruntime_error@std@@UAEPAXI@Z PROC			; std::runtime_error::`scalar deleting destructor', COMDAT
; _this$ = ecx
	push	ebp
	mov	ebp, esp
	push	ecx
	mov	DWORD PTR [ebp-4], -858993460		; ccccccccH
	mov	DWORD PTR _this$[ebp], ecx
	mov	ecx, DWORD PTR _this$[ebp]
	call	??1runtime_error@std@@UAE@XZ
	mov	eax, DWORD PTR ___flags$[ebp]
	and	eax, 1
	je	SHORT $LN2@scalar
	push	12					; 0000000cH
	mov	ecx, DWORD PTR _this$[ebp]
	push	ecx
	call	??3@YAXPAXI@Z				; operator delete
	add	esp, 8
$LN2@scalar:
	mov	eax, DWORD PTR _this$[ebp]
	add	esp, 4
	cmp	ebp, esp
	call	__RTC_CheckEsp
	mov	esp, ebp
	pop	ebp
	ret	4
??_Gruntime_error@std@@UAEPAXI@Z ENDP			; std::runtime_error::`scalar deleting destructor'
_TEXT	ENDS
; Function compile flags: /Odtp /RTCsu
;	COMDAT ??0runtime_error@std@@QAE@ABV01@@Z
_TEXT	SEGMENT
_this$ = -4						; size = 4
___that$ = 8						; size = 4
??0runtime_error@std@@QAE@ABV01@@Z PROC			; std::runtime_error::runtime_error, COMDAT
; _this$ = ecx
	push	ebp
	mov	ebp, esp
	push	ecx
	mov	DWORD PTR [ebp-4], -858993460		; ccccccccH
	mov	DWORD PTR _this$[ebp], ecx
	mov	eax, DWORD PTR ___that$[ebp]
	push	eax
	mov	ecx, DWORD PTR _this$[ebp]
	call	??0exception@std@@QAE@ABV01@@Z		; std::exception::exception
	mov	ecx, DWORD PTR _this$[ebp]
	mov	DWORD PTR [ecx], OFFSET ??_7runtime_error@std@@6B@
	mov	eax, DWORD PTR _this$[ebp]
	add	esp, 4
	cmp	ebp, esp
	call	__RTC_CheckEsp
	mov	esp, ebp
	pop	ebp
	ret	4
??0runtime_error@std@@QAE@ABV01@@Z ENDP			; std::runtime_error::runtime_error
_TEXT	ENDS
; Function compile flags: /Odtp /RTCsu
;	COMDAT ??1runtime_error@std@@UAE@XZ
_TEXT	SEGMENT
_this$ = -4						; size = 4
??1runtime_error@std@@UAE@XZ PROC			; std::runtime_error::~runtime_error, COMDAT
; _this$ = ecx
	push	ebp
	mov	ebp, esp
	push	ecx
	mov	DWORD PTR [ebp-4], -858993460		; ccccccccH
	mov	DWORD PTR _this$[ebp], ecx
	mov	ecx, DWORD PTR _this$[ebp]
	call	??1exception@std@@UAE@XZ		; std::exception::~exception
	add	esp, 4
	cmp	ebp, esp
	call	__RTC_CheckEsp
	mov	esp, ebp
	pop	ebp
	ret	0
??1runtime_error@std@@UAE@XZ ENDP			; std::runtime_error::~runtime_error
_TEXT	ENDS
; Function compile flags: /Odtp /RTCsu
; File c:\program files (x86)\microsoft visual studio 14.0\vc\include\stdexcept
;	COMDAT ??0runtime_error@std@@QAE@ABV?$basic_string@DU?$char_traits@D@std@@V?$allocator@D@2@@1@@Z
_TEXT	SEGMENT
_this$ = -4						; size = 4
__Message$ = 8						; size = 4
??0runtime_error@std@@QAE@ABV?$basic_string@DU?$char_traits@D@std@@V?$allocator@D@2@@1@@Z PROC ; std::runtime_error::runtime_error, COMDAT
; _this$ = ecx

; 163  : 		{	// construct from message string

	push	ebp
	mov	ebp, esp
	push	ecx
	mov	DWORD PTR [ebp-4], -858993460		; ccccccccH
	mov	DWORD PTR _this$[ebp], ecx

; 162  : 		: _Mybase(_Message.c_str())

	mov	ecx, DWORD PTR __Message$[ebp]
	call	?c_str@?$basic_string@DU?$char_traits@D@std@@V?$allocator@D@2@@std@@QBEPBDXZ ; std::basic_string<char,std::char_traits<char>,std::allocator<char> >::c_str
	push	eax
	mov	ecx, DWORD PTR _this$[ebp]
	call	??0exception@std@@QAE@QBD@Z		; std::exception::exception

; 163  : 		{	// construct from message string

	mov	eax, DWORD PTR _this$[ebp]
	mov	DWORD PTR [eax], OFFSET ??_7runtime_error@std@@6B@

; 164  : 		}

	mov	eax, DWORD PTR _this$[ebp]
	add	esp, 4
	cmp	ebp, esp
	call	__RTC_CheckEsp
	mov	esp, ebp
	pop	ebp
	ret	4
??0runtime_error@std@@QAE@ABV?$basic_string@DU?$char_traits@D@std@@V?$allocator@D@2@@1@@Z ENDP ; std::runtime_error::runtime_error
_TEXT	ENDS
; Function compile flags: /Odtp /RTCsu
; File c:\program files (x86)\microsoft visual studio 14.0\vc\include\xstring
;	COMDAT ?_Xran@?$basic_string@DU?$char_traits@D@std@@V?$allocator@D@2@@std@@QBEXXZ
_TEXT	SEGMENT
_this$ = -4						; size = 4
?_Xran@?$basic_string@DU?$char_traits@D@std@@V?$allocator@D@2@@std@@QBEXXZ PROC ; std::basic_string<char,std::char_traits<char>,std::allocator<char> >::_Xran, COMDAT
; _this$ = ecx

; 2282 : 		{	// report an out_of_range error

	push	ebp
	mov	ebp, esp
	push	ecx
	mov	DWORD PTR [ebp-4], -858993460		; ccccccccH
	mov	DWORD PTR _this$[ebp], ecx

; 2283 : 		_Xout_of_range("invalid string position");

	push	OFFSET ??_C@_0BI@CFPLBAOH@invalid?5string?5position?$AA@
	call	?_Xout_of_range@std@@YAXPBD@Z		; std::_Xout_of_range
$LN2@Xran:

; 2284 : 		}

	add	esp, 4
	cmp	ebp, esp
	call	__RTC_CheckEsp
	mov	esp, ebp
	pop	ebp
	ret	0
?_Xran@?$basic_string@DU?$char_traits@D@std@@V?$allocator@D@2@@std@@QBEXXZ ENDP ; std::basic_string<char,std::char_traits<char>,std::allocator<char> >::_Xran
_TEXT	ENDS
; Function compile flags: /Odtp /RTCsu
; File c:\program files (x86)\microsoft visual studio 14.0\vc\include\xstring
;	COMDAT ?_Check_offset@?$basic_string@DU?$char_traits@D@std@@V?$allocator@D@2@@std@@QBEXI@Z
_TEXT	SEGMENT
_this$ = -4						; size = 4
__Off$ = 8						; size = 4
?_Check_offset@?$basic_string@DU?$char_traits@D@std@@V?$allocator@D@2@@std@@QBEXI@Z PROC ; std::basic_string<char,std::char_traits<char>,std::allocator<char> >::_Check_offset, COMDAT
; _this$ = ecx

; 2270 : 		{	// checks whether _Off is in the bounds of [0, this->size()]

	push	ebp
	mov	ebp, esp
	push	ecx
	mov	DWORD PTR [ebp-4], -858993460		; ccccccccH
	mov	DWORD PTR _this$[ebp], ecx

; 2271 : 		if (this->_Mysize() < _Off)

	mov	ecx, DWORD PTR _this$[ebp]
	call	?_Mysize@?$_String_alloc@U?$_String_base_types@DV?$allocator@D@std@@@std@@@std@@QBEABIXZ ; std::_String_alloc<std::_String_base_types<char,std::allocator<char> > >::_Mysize
	mov	eax, DWORD PTR [eax]
	cmp	eax, DWORD PTR __Off$[ebp]
	jae	SHORT $LN3@Check_offs

; 2272 : 			_Xran();

	mov	ecx, DWORD PTR _this$[ebp]
	call	?_Xran@?$basic_string@DU?$char_traits@D@std@@V?$allocator@D@2@@std@@QBEXXZ ; std::basic_string<char,std::char_traits<char>,std::allocator<char> >::_Xran
$LN3@Check_offs:

; 2273 : 		}

	add	esp, 4
	cmp	ebp, esp
	call	__RTC_CheckEsp
	mov	esp, ebp
	pop	ebp
	ret	4
?_Check_offset@?$basic_string@DU?$char_traits@D@std@@V?$allocator@D@2@@std@@QBEXI@Z ENDP ; std::basic_string<char,std::char_traits<char>,std::allocator<char> >::_Check_offset
_TEXT	ENDS
; Function compile flags: /Odtp /RTCsu
; File c:\program files (x86)\microsoft visual studio 14.0\vc\include\xstring
;	COMDAT ?_Xlen@?$basic_string@DU?$char_traits@D@std@@V?$allocator@D@2@@std@@QBEXXZ
_TEXT	SEGMENT
_this$ = -4						; size = 4
?_Xlen@?$basic_string@DU?$char_traits@D@std@@V?$allocator@D@2@@std@@QBEXXZ PROC ; std::basic_string<char,std::char_traits<char>,std::allocator<char> >::_Xlen, COMDAT
; _this$ = ecx

; 2265 : 		{	// report a length_error

	push	ebp
	mov	ebp, esp
	push	ecx
	mov	DWORD PTR [ebp-4], -858993460		; ccccccccH
	mov	DWORD PTR _this$[ebp], ecx

; 2266 : 		_Xlength_error("string too long");

	push	OFFSET ??_C@_0BA@JFNIOLAK@string?5too?5long?$AA@
	call	?_Xlength_error@std@@YAXPBD@Z		; std::_Xlength_error
$LN2@Xlen:

; 2267 : 		}

	add	esp, 4
	cmp	ebp, esp
	call	__RTC_CheckEsp
	mov	esp, ebp
	pop	ebp
	ret	0
?_Xlen@?$basic_string@DU?$char_traits@D@std@@V?$allocator@D@2@@std@@QBEXXZ ENDP ; std::basic_string<char,std::char_traits<char>,std::allocator<char> >::_Xlen
_TEXT	ENDS
; Function compile flags: /Odtp /RTCsu
; File c:\program files (x86)\microsoft visual studio 14.0\vc\include\xstring
;	COMDAT ?_Tidy@?$basic_string@DU?$char_traits@D@std@@V?$allocator@D@2@@std@@QAEX_NI@Z
_TEXT	SEGMENT
__Ptr$1 = -8						; size = 4
_this$ = -4						; size = 4
__Built$ = 8						; size = 1
__Newsize$ = 12						; size = 4
?_Tidy@?$basic_string@DU?$char_traits@D@std@@V?$allocator@D@2@@std@@QAEX_NI@Z PROC ; std::basic_string<char,std::char_traits<char>,std::allocator<char> >::_Tidy, COMDAT
; _this$ = ecx

; 2248 : 		{	// initialize buffer, deallocating any storage

	push	ebp
	mov	ebp, esp
	sub	esp, 8
	mov	DWORD PTR [ebp-8], -858993460		; ccccccccH
	mov	DWORD PTR [ebp-4], -858993460		; ccccccccH
	mov	DWORD PTR _this$[ebp], ecx

; 2249 : 		if (!_Built)

	movzx	eax, BYTE PTR __Built$[ebp]
	test	eax, eax
	jne	SHORT $LN2@Tidy
	jmp	$LN3@Tidy
$LN2@Tidy:

; 2250 : 			;
; 2251 : 		else if (this->_BUF_SIZE <= this->_Myres())

	mov	ecx, DWORD PTR _this$[ebp]
	call	?_Myres@?$_String_alloc@U?$_String_base_types@DV?$allocator@D@std@@@std@@@std@@QAEAAIXZ ; std::_String_alloc<std::_String_base_types<char,std::allocator<char> > >::_Myres
	cmp	DWORD PTR [eax], 16			; 00000010H
	jb	SHORT $LN3@Tidy

; 2252 : 			{	// copy any leftovers to small buffer and deallocate
; 2253 : 			pointer _Ptr = this->_Bx()._Ptr;

	mov	ecx, DWORD PTR _this$[ebp]
	call	?_Bx@?$_String_alloc@U?$_String_base_types@DV?$allocator@D@std@@@std@@@std@@QAEAAT_Bxty@?$_String_val@U?$_Simple_types@D@std@@@2@XZ ; std::_String_alloc<std::_String_base_types<char,std::allocator<char> > >::_Bx
	mov	ecx, DWORD PTR [eax]
	mov	DWORD PTR __Ptr$1[ebp], ecx

; 2254 : 			this->_Getal().destroy(_STD addressof(this->_Bx()._Ptr));

	mov	ecx, DWORD PTR _this$[ebp]
	call	?_Bx@?$_String_alloc@U?$_String_base_types@DV?$allocator@D@std@@@std@@@std@@QAEAAT_Bxty@?$_String_val@U?$_Simple_types@D@std@@@2@XZ ; std::_String_alloc<std::_String_base_types<char,std::allocator<char> > >::_Bx
	push	eax
	call	??$addressof@PAD@std@@YAPAPADAAPAD@Z	; std::addressof<char *>
	add	esp, 4
	push	eax
	mov	ecx, DWORD PTR _this$[ebp]
	call	?_Getal@?$_String_alloc@U?$_String_base_types@DV?$allocator@D@std@@@std@@@std@@QAEAAU?$_Wrap_alloc@V?$allocator@D@std@@@2@XZ ; std::_String_alloc<std::_String_base_types<char,std::allocator<char> > >::_Getal
	mov	ecx, eax
	call	??$destroy@PAD@?$_Wrap_alloc@V?$allocator@D@std@@@std@@QAEXPAPAD@Z ; std::_Wrap_alloc<std::allocator<char> >::destroy<char *>

; 2255 : 			if (0 < _Newsize)

	cmp	DWORD PTR __Newsize$[ebp], 0
	jbe	SHORT $LN5@Tidy

; 2256 : 				_Traits::copy(this->_Bx()._Buf,

	mov	edx, DWORD PTR __Newsize$[ebp]
	push	edx
	mov	eax, DWORD PTR __Ptr$1[ebp]
	push	eax
	call	??$_Unfancy@D@std@@YAPADPAD@Z		; std::_Unfancy<char>
	add	esp, 4
	push	eax
	mov	ecx, DWORD PTR _this$[ebp]
	call	?_Bx@?$_String_alloc@U?$_String_base_types@DV?$allocator@D@std@@@std@@@std@@QAEAAT_Bxty@?$_String_val@U?$_Simple_types@D@std@@@2@XZ ; std::_String_alloc<std::_String_base_types<char,std::allocator<char> > >::_Bx
	push	eax
	call	?copy@?$char_traits@D@std@@SAPADPADPBDI@Z ; std::char_traits<char>::copy
	add	esp, 12					; 0000000cH
$LN5@Tidy:

; 2257 : 					_Unfancy(_Ptr), _Newsize);
; 2258 : 			this->_Getal().deallocate(_Ptr, this->_Myres() + 1);

	mov	ecx, DWORD PTR _this$[ebp]
	call	?_Myres@?$_String_alloc@U?$_String_base_types@DV?$allocator@D@std@@@std@@@std@@QAEAAIXZ ; std::_String_alloc<std::_String_base_types<char,std::allocator<char> > >::_Myres
	mov	ecx, DWORD PTR [eax]
	add	ecx, 1
	push	ecx
	mov	edx, DWORD PTR __Ptr$1[ebp]
	push	edx
	mov	ecx, DWORD PTR _this$[ebp]
	call	?_Getal@?$_String_alloc@U?$_String_base_types@DV?$allocator@D@std@@@std@@@std@@QAEAAU?$_Wrap_alloc@V?$allocator@D@std@@@2@XZ ; std::_String_alloc<std::_String_base_types<char,std::allocator<char> > >::_Getal
	mov	ecx, eax
	call	?deallocate@?$_Wrap_alloc@V?$allocator@D@std@@@std@@QAEXPADI@Z ; std::_Wrap_alloc<std::allocator<char> >::deallocate
$LN3@Tidy:

; 2259 : 			}
; 2260 : 		this->_Myres() = this->_BUF_SIZE - 1;

	mov	ecx, DWORD PTR _this$[ebp]
	call	?_Myres@?$_String_alloc@U?$_String_base_types@DV?$allocator@D@std@@@std@@@std@@QAEAAIXZ ; std::_String_alloc<std::_String_base_types<char,std::allocator<char> > >::_Myres
	mov	DWORD PTR [eax], 15			; 0000000fH

; 2261 : 		_Eos(_Newsize);

	mov	eax, DWORD PTR __Newsize$[ebp]
	push	eax
	mov	ecx, DWORD PTR _this$[ebp]
	call	?_Eos@?$basic_string@DU?$char_traits@D@std@@V?$allocator@D@2@@std@@QAEXI@Z ; std::basic_string<char,std::char_traits<char>,std::allocator<char> >::_Eos

; 2262 : 		}

	add	esp, 8
	cmp	ebp, esp
	call	__RTC_CheckEsp
	mov	esp, ebp
	pop	ebp
	ret	8
?_Tidy@?$basic_string@DU?$char_traits@D@std@@V?$allocator@D@2@@std@@QAEX_NI@Z ENDP ; std::basic_string<char,std::char_traits<char>,std::allocator<char> >::_Tidy
_TEXT	ENDS
; Function compile flags: /Odtp /RTCsu
; File c:\program files (x86)\microsoft visual studio 14.0\vc\include\xstring
;	COMDAT ?_Inside@?$basic_string@DU?$char_traits@D@std@@V?$allocator@D@2@@std@@QAE_NPBD@Z
_TEXT	SEGMENT
_this$ = -4						; size = 4
__Ptr$ = 8						; size = 4
?_Inside@?$basic_string@DU?$char_traits@D@std@@V?$allocator@D@2@@std@@QAE_NPBD@Z PROC ; std::basic_string<char,std::char_traits<char>,std::allocator<char> >::_Inside, COMDAT
; _this$ = ecx

; 2238 : 		{	// test if _Ptr points inside string

	push	ebp
	mov	ebp, esp
	push	ecx
	push	esi
	mov	DWORD PTR [ebp-4], -858993460		; ccccccccH
	mov	DWORD PTR _this$[ebp], ecx

; 2239 : 		if (_Ptr == nullptr_t{} || _Ptr < this->_Myptr()
; 2240 : 			|| this->_Myptr() + this->_Mysize() <= _Ptr)

	cmp	DWORD PTR __Ptr$[ebp], 0
	je	SHORT $LN4@Inside
	mov	ecx, DWORD PTR _this$[ebp]
	call	?_Myptr@?$_String_alloc@U?$_String_base_types@DV?$allocator@D@std@@@std@@@std@@QAEPADXZ ; std::_String_alloc<std::_String_base_types<char,std::allocator<char> > >::_Myptr
	cmp	DWORD PTR __Ptr$[ebp], eax
	jb	SHORT $LN4@Inside
	mov	ecx, DWORD PTR _this$[ebp]
	call	?_Myptr@?$_String_alloc@U?$_String_base_types@DV?$allocator@D@std@@@std@@@std@@QAEPADXZ ; std::_String_alloc<std::_String_base_types<char,std::allocator<char> > >::_Myptr
	mov	esi, eax
	mov	ecx, DWORD PTR _this$[ebp]
	call	?_Mysize@?$_String_alloc@U?$_String_base_types@DV?$allocator@D@std@@@std@@@std@@QAEAAIXZ ; std::_String_alloc<std::_String_base_types<char,std::allocator<char> > >::_Mysize
	add	esi, DWORD PTR [eax]
	cmp	esi, DWORD PTR __Ptr$[ebp]
	ja	SHORT $LN2@Inside
$LN4@Inside:

; 2241 : 			return (false);	// don't ask

	xor	al, al
	jmp	SHORT $LN1@Inside

; 2242 : 		else

	jmp	SHORT $LN1@Inside
$LN2@Inside:

; 2243 : 			return (true);

	mov	al, 1
$LN1@Inside:

; 2244 : 		}

	pop	esi
	add	esp, 4
	cmp	ebp, esp
	call	__RTC_CheckEsp
	mov	esp, ebp
	pop	ebp
	ret	4
?_Inside@?$basic_string@DU?$char_traits@D@std@@V?$allocator@D@2@@std@@QAE_NPBD@Z ENDP ; std::basic_string<char,std::char_traits<char>,std::allocator<char> >::_Inside
_TEXT	ENDS
; Function compile flags: /Odtp /RTCsu
; File c:\program files (x86)\microsoft visual studio 14.0\vc\include\xstring
;	COMDAT ?_Grow@?$basic_string@DU?$char_traits@D@std@@V?$allocator@D@2@@std@@QAE_NI_N@Z
_TEXT	SEGMENT
tv140 = -12						; size = 4
tv133 = -8						; size = 4
_this$ = -4						; size = 4
__Newsize$ = 8						; size = 4
__Trim$ = 12						; size = 1
?_Grow@?$basic_string@DU?$char_traits@D@std@@V?$allocator@D@2@@std@@QAE_NI_N@Z PROC ; std::basic_string<char,std::char_traits<char>,std::allocator<char> >::_Grow, COMDAT
; _this$ = ecx

; 2224 : 		{	// ensure buffer is big enough, trim to size if _Trim is true

	push	ebp
	mov	ebp, esp
	sub	esp, 12					; 0000000cH
	mov	DWORD PTR [ebp-12], -858993460		; ccccccccH
	mov	DWORD PTR [ebp-8], -858993460		; ccccccccH
	mov	DWORD PTR [ebp-4], -858993460		; ccccccccH
	mov	DWORD PTR _this$[ebp], ecx

; 2225 : 		if (max_size() < _Newsize)

	mov	ecx, DWORD PTR _this$[ebp]
	call	?max_size@?$basic_string@DU?$char_traits@D@std@@V?$allocator@D@2@@std@@QBEIXZ ; std::basic_string<char,std::char_traits<char>,std::allocator<char> >::max_size
	cmp	eax, DWORD PTR __Newsize$[ebp]
	jae	SHORT $LN2@Grow

; 2226 : 			_Xlen();	// result too long

	mov	ecx, DWORD PTR _this$[ebp]
	call	?_Xlen@?$basic_string@DU?$char_traits@D@std@@V?$allocator@D@2@@std@@QBEXXZ ; std::basic_string<char,std::char_traits<char>,std::allocator<char> >::_Xlen
$LN2@Grow:

; 2227 : 		if (this->_Myres() < _Newsize)

	mov	ecx, DWORD PTR _this$[ebp]
	call	?_Myres@?$_String_alloc@U?$_String_base_types@DV?$allocator@D@std@@@std@@@std@@QAEAAIXZ ; std::_String_alloc<std::_String_base_types<char,std::allocator<char> > >::_Myres
	mov	eax, DWORD PTR [eax]
	cmp	eax, DWORD PTR __Newsize$[ebp]
	jae	SHORT $LN3@Grow

; 2228 : 			_Copy(_Newsize, this->_Mysize());	// reallocate to grow

	mov	ecx, DWORD PTR _this$[ebp]
	call	?_Mysize@?$_String_alloc@U?$_String_base_types@DV?$allocator@D@std@@@std@@@std@@QAEAAIXZ ; std::_String_alloc<std::_String_base_types<char,std::allocator<char> > >::_Mysize
	mov	ecx, DWORD PTR [eax]
	push	ecx
	mov	edx, DWORD PTR __Newsize$[ebp]
	push	edx
	mov	ecx, DWORD PTR _this$[ebp]
	call	?_Copy@?$basic_string@DU?$char_traits@D@std@@V?$allocator@D@2@@std@@QAEXII@Z ; std::basic_string<char,std::char_traits<char>,std::allocator<char> >::_Copy
	jmp	SHORT $LN4@Grow
$LN3@Grow:

; 2229 : 		else if (_Trim && _Newsize < this->_BUF_SIZE)

	movzx	eax, BYTE PTR __Trim$[ebp]
	test	eax, eax
	je	SHORT $LN5@Grow
	cmp	DWORD PTR __Newsize$[ebp], 16		; 00000010H
	jae	SHORT $LN5@Grow

; 2230 : 			_Tidy(true,	// copy and deallocate if trimming to small string

	mov	ecx, DWORD PTR _this$[ebp]
	call	?_Mysize@?$_String_alloc@U?$_String_base_types@DV?$allocator@D@std@@@std@@@std@@QAEAAIXZ ; std::_String_alloc<std::_String_base_types<char,std::allocator<char> > >::_Mysize
	mov	ecx, DWORD PTR __Newsize$[ebp]
	cmp	ecx, DWORD PTR [eax]
	jae	SHORT $LN9@Grow
	mov	edx, DWORD PTR __Newsize$[ebp]
	mov	DWORD PTR tv133[ebp], edx
	jmp	SHORT $LN10@Grow
$LN9@Grow:
	mov	ecx, DWORD PTR _this$[ebp]
	call	?_Mysize@?$_String_alloc@U?$_String_base_types@DV?$allocator@D@std@@@std@@@std@@QAEAAIXZ ; std::_String_alloc<std::_String_base_types<char,std::allocator<char> > >::_Mysize
	mov	eax, DWORD PTR [eax]
	mov	DWORD PTR tv133[ebp], eax
$LN10@Grow:
	mov	ecx, DWORD PTR tv133[ebp]
	push	ecx
	push	1
	mov	ecx, DWORD PTR _this$[ebp]
	call	?_Tidy@?$basic_string@DU?$char_traits@D@std@@V?$allocator@D@2@@std@@QAEX_NI@Z ; std::basic_string<char,std::char_traits<char>,std::allocator<char> >::_Tidy
	jmp	SHORT $LN4@Grow
$LN5@Grow:

; 2231 : 				_Newsize < this->_Mysize() ? _Newsize : this->_Mysize());
; 2232 : 		else if (_Newsize == 0)

	cmp	DWORD PTR __Newsize$[ebp], 0
	jne	SHORT $LN4@Grow

; 2233 : 			_Eos(0);	// new size is zero, just null terminate

	push	0
	mov	ecx, DWORD PTR _this$[ebp]
	call	?_Eos@?$basic_string@DU?$char_traits@D@std@@V?$allocator@D@2@@std@@QAEXI@Z ; std::basic_string<char,std::char_traits<char>,std::allocator<char> >::_Eos
$LN4@Grow:

; 2234 : 		return (0 < _Newsize);	// return true only if more work to do

	cmp	DWORD PTR __Newsize$[ebp], 0
	jbe	SHORT $LN11@Grow
	mov	DWORD PTR tv140[ebp], 1
	jmp	SHORT $LN12@Grow
$LN11@Grow:
	mov	DWORD PTR tv140[ebp], 0
$LN12@Grow:
	mov	al, BYTE PTR tv140[ebp]
$LN8@Grow:

; 2235 : 		}

	add	esp, 12					; 0000000cH
	cmp	ebp, esp
	call	__RTC_CheckEsp
	mov	esp, ebp
	pop	ebp
	ret	8
?_Grow@?$basic_string@DU?$char_traits@D@std@@V?$allocator@D@2@@std@@QAE_NI_N@Z ENDP ; std::basic_string<char,std::char_traits<char>,std::allocator<char> >::_Grow
_TEXT	ENDS
; Function compile flags: /Odtp /RTCsu
; File c:\program files (x86)\microsoft visual studio 14.0\vc\include\xstring
;	COMDAT ?_Eos@?$basic_string@DU?$char_traits@D@std@@V?$allocator@D@2@@std@@QAEXI@Z
_TEXT	SEGMENT
$T1 = -9						; size = 1
__Dx$ = -8						; size = 4
_this$ = -4						; size = 4
__Newsize$ = 8						; size = 4
?_Eos@?$basic_string@DU?$char_traits@D@std@@V?$allocator@D@2@@std@@QAEXI@Z PROC ; std::basic_string<char,std::char_traits<char>,std::allocator<char> >::_Eos, COMDAT
; _this$ = ecx

; 2217 : 		{	// set new length and null terminator

	push	ebp
	mov	ebp, esp
	sub	esp, 12					; 0000000cH
	mov	DWORD PTR [ebp-12], -858993460		; ccccccccH
	mov	DWORD PTR [ebp-8], -858993460		; ccccccccH
	mov	DWORD PTR [ebp-4], -858993460		; ccccccccH
	mov	DWORD PTR _this$[ebp], ecx

; 2218 : 		auto& _Dx = this->_Get_data();

	mov	ecx, DWORD PTR _this$[ebp]
	call	?_Get_data@?$_String_alloc@U?$_String_base_types@DV?$allocator@D@std@@@std@@@std@@QAEAAV?$_String_val@U?$_Simple_types@D@std@@@2@XZ ; std::_String_alloc<std::_String_base_types<char,std::allocator<char> > >::_Get_data
	mov	DWORD PTR __Dx$[ebp], eax

; 2219 : 		_Traits::assign(_Dx._Myptr()[_Dx._Mysize = _Newsize], _Elem());

	mov	BYTE PTR $T1[ebp], 0
	mov	eax, DWORD PTR __Dx$[ebp]
	mov	ecx, DWORD PTR __Newsize$[ebp]
	mov	DWORD PTR [eax+20], ecx
	lea	edx, DWORD PTR $T1[ebp]
	push	edx
	mov	ecx, DWORD PTR __Dx$[ebp]
	call	?_Myptr@?$_String_val@U?$_Simple_types@D@std@@@std@@QAEPADXZ ; std::_String_val<std::_Simple_types<char> >::_Myptr
	add	eax, DWORD PTR __Newsize$[ebp]
	push	eax
	call	?assign@?$char_traits@D@std@@SAXAADABD@Z ; std::char_traits<char>::assign
	add	esp, 8

; 2220 : 		}

	add	esp, 12					; 0000000cH
	cmp	ebp, esp
	call	__RTC_CheckEsp
	mov	esp, ebp
	pop	ebp
	ret	4
?_Eos@?$basic_string@DU?$char_traits@D@std@@V?$allocator@D@2@@std@@QAEXI@Z ENDP ; std::basic_string<char,std::char_traits<char>,std::allocator<char> >::_Eos
_TEXT	ENDS
; Function compile flags: /Odtp /RTCsu
; File c:\program files (x86)\microsoft visual studio 14.0\vc\include\xstring
;	COMDAT ?_Copy@?$basic_string@DU?$char_traits@D@std@@V?$allocator@D@2@@std@@QAEXII@Z
_TEXT	SEGMENT
tv217 = -44						; size = 4
tv216 = -40						; size = 4
__Ptr$ = -32						; size = 4
__Newres$ = -24						; size = 4
_this$ = -20						; size = 4
__$EHRec$ = -16						; size = 16
__Newsize$ = 8						; size = 4
__Oldlen$ = 12						; size = 4
?_Copy@?$basic_string@DU?$char_traits@D@std@@V?$allocator@D@2@@std@@QAEXII@Z PROC ; std::basic_string<char,std::char_traits<char>,std::allocator<char> >::_Copy, COMDAT
; _this$ = ecx

; 2182 : 		{	// copy _Oldlen elements to newly allocated buffer

	push	ebp
	mov	ebp, esp
	push	-1
	push	__ehhandler$?_Copy@?$basic_string@DU?$char_traits@D@std@@V?$allocator@D@2@@std@@QAEXII@Z
	mov	eax, DWORD PTR fs:0
	push	eax
	push	ecx
	sub	esp, 28					; 0000001cH
	push	ebx
	push	esi
	push	edi
	mov	eax, -858993460				; ccccccccH
	mov	DWORD PTR [ebp-44], eax
	mov	DWORD PTR [ebp-40], eax
	mov	DWORD PTR [ebp-36], eax
	mov	DWORD PTR [ebp-32], eax
	mov	DWORD PTR [ebp-28], eax
	mov	DWORD PTR [ebp-24], eax
	mov	DWORD PTR [ebp-20], eax
	mov	eax, DWORD PTR ___security_cookie
	xor	eax, ebp
	push	eax
	lea	eax, DWORD PTR __$EHRec$[ebp+4]
	mov	DWORD PTR fs:0, eax
	mov	DWORD PTR __$EHRec$[ebp], esp
	mov	DWORD PTR _this$[ebp], ecx

; 2183 : 		size_type _Newres = _Newsize | this->_ALLOC_MASK;

	mov	eax, DWORD PTR __Newsize$[ebp]
	or	eax, 15					; 0000000fH
	mov	DWORD PTR __Newres$[ebp], eax

; 2184 : 		if (max_size() < _Newres)

	mov	ecx, DWORD PTR _this$[ebp]
	call	?max_size@?$basic_string@DU?$char_traits@D@std@@V?$allocator@D@2@@std@@QBEIXZ ; std::basic_string<char,std::char_traits<char>,std::allocator<char> >::max_size
	cmp	eax, DWORD PTR __Newres$[ebp]
	jae	SHORT $LN2@Copy

; 2185 : 			_Newres = _Newsize;	// undo roundup if too big

	mov	ecx, DWORD PTR __Newsize$[ebp]
	mov	DWORD PTR __Newres$[ebp], ecx
	jmp	SHORT $LN3@Copy
$LN2@Copy:

; 2186 : 		else if (this->_Myres() / 2 <= _Newres / 3)

	mov	eax, DWORD PTR __Newres$[ebp]
	xor	edx, edx
	mov	ecx, 3
	div	ecx
	mov	esi, eax
	mov	ecx, DWORD PTR _this$[ebp]
	call	?_Myres@?$_String_alloc@U?$_String_base_types@DV?$allocator@D@std@@@std@@@std@@QAEAAIXZ ; std::_String_alloc<std::_String_base_types<char,std::allocator<char> > >::_Myres
	mov	edx, DWORD PTR [eax]
	shr	edx, 1
	cmp	edx, esi
	ja	SHORT $LN4@Copy
	jmp	SHORT $LN3@Copy
$LN4@Copy:

; 2187 : 			;
; 2188 : 		else if (this->_Myres() <= max_size() - this->_Myres() / 2)

	mov	ecx, DWORD PTR _this$[ebp]
	call	?_Myres@?$_String_alloc@U?$_String_base_types@DV?$allocator@D@std@@@std@@@std@@QAEAAIXZ ; std::_String_alloc<std::_String_base_types<char,std::allocator<char> > >::_Myres
	mov	esi, DWORD PTR [eax]
	shr	esi, 1
	mov	ecx, DWORD PTR _this$[ebp]
	call	?max_size@?$basic_string@DU?$char_traits@D@std@@V?$allocator@D@2@@std@@QBEIXZ ; std::basic_string<char,std::char_traits<char>,std::allocator<char> >::max_size
	mov	edi, eax
	sub	edi, esi
	mov	ecx, DWORD PTR _this$[ebp]
	call	?_Myres@?$_String_alloc@U?$_String_base_types@DV?$allocator@D@std@@@std@@@std@@QAEAAIXZ ; std::_String_alloc<std::_String_base_types<char,std::allocator<char> > >::_Myres
	cmp	DWORD PTR [eax], edi
	ja	SHORT $LN6@Copy

; 2189 : 			_Newres = this->_Myres()

	mov	ecx, DWORD PTR _this$[ebp]
	call	?_Myres@?$_String_alloc@U?$_String_base_types@DV?$allocator@D@std@@@std@@@std@@QAEAAIXZ ; std::_String_alloc<std::_String_base_types<char,std::allocator<char> > >::_Myres
	mov	esi, DWORD PTR [eax]
	shr	esi, 1
	mov	ecx, DWORD PTR _this$[ebp]
	call	?_Myres@?$_String_alloc@U?$_String_base_types@DV?$allocator@D@std@@@std@@@std@@QAEAAIXZ ; std::_String_alloc<std::_String_base_types<char,std::allocator<char> > >::_Myres
	add	esi, DWORD PTR [eax]
	mov	DWORD PTR __Newres$[ebp], esi

; 2190 : 				+ this->_Myres() / 2;	// grow exponentially if possible
; 2191 : 		else

	jmp	SHORT $LN3@Copy
$LN6@Copy:

; 2192 : 			_Newres = max_size();	// settle for max_size()

	mov	ecx, DWORD PTR _this$[ebp]
	call	?max_size@?$basic_string@DU?$char_traits@D@std@@V?$allocator@D@2@@std@@QBEIXZ ; std::basic_string<char,std::char_traits<char>,std::allocator<char> >::max_size
	mov	DWORD PTR __Newres$[ebp], eax
$LN3@Copy:

; 2193 : 
; 2194 : 		pointer _Ptr;
; 2195 : 		_TRY_BEGIN

	mov	DWORD PTR __$EHRec$[ebp+12], 0

; 2196 : 			_Ptr = this->_Getal().allocate(_Newres + 1);

	mov	eax, DWORD PTR __Newres$[ebp]
	add	eax, 1
	push	eax
	mov	ecx, DWORD PTR _this$[ebp]
	call	?_Getal@?$_String_alloc@U?$_String_base_types@DV?$allocator@D@std@@@std@@@std@@QAEAAU?$_Wrap_alloc@V?$allocator@D@std@@@2@XZ ; std::_String_alloc<std::_String_base_types<char,std::allocator<char> > >::_Getal
	mov	ecx, eax
	call	?allocate@?$_Wrap_alloc@V?$allocator@D@std@@@std@@QAEPADI@Z ; std::_Wrap_alloc<std::allocator<char> >::allocate
	mov	DWORD PTR tv216[ebp], eax
	mov	ecx, DWORD PTR tv216[ebp]
	mov	DWORD PTR __Ptr$[ebp], ecx
	jmp	SHORT $LN12@Copy
__catch$?_Copy@?$basic_string@DU?$char_traits@D@std@@V?$allocator@D@2@@std@@QAEXII@Z$0:

; 2197 : 		_CATCH_ALL

	mov	DWORD PTR __$EHRec$[ebp], esp

; 2198 : 			_Newres = _Newsize;	// allocation failed, undo roundup and retry

	mov	edx, DWORD PTR __Newsize$[ebp]
	mov	DWORD PTR __Newres$[ebp], edx

; 2199 : 			_TRY_BEGIN

	mov	BYTE PTR __$EHRec$[ebp+12], 2

; 2200 : 				_Ptr = this->_Getal().allocate(_Newres + 1);

	mov	eax, DWORD PTR __Newres$[ebp]
	add	eax, 1
	push	eax
	mov	ecx, DWORD PTR _this$[ebp]
	call	?_Getal@?$_String_alloc@U?$_String_base_types@DV?$allocator@D@std@@@std@@@std@@QAEAAU?$_Wrap_alloc@V?$allocator@D@std@@@2@XZ ; std::_String_alloc<std::_String_base_types<char,std::allocator<char> > >::_Getal
	mov	ecx, eax
	call	?allocate@?$_Wrap_alloc@V?$allocator@D@std@@@std@@QAEPADI@Z ; std::_Wrap_alloc<std::allocator<char> >::allocate
	mov	DWORD PTR tv217[ebp], eax
	mov	ecx, DWORD PTR tv217[ebp]
	mov	DWORD PTR __Ptr$[ebp], ecx
	jmp	SHORT $LN14@Copy
__catch$?_Copy@?$basic_string@DU?$char_traits@D@std@@V?$allocator@D@2@@std@@QAEXII@Z$1:

; 2201 : 			_CATCH_ALL
; 2202 : 			_Tidy(true);	// failed again, discard storage and reraise

	push	0
	push	1
	mov	ecx, DWORD PTR _this$[ebp]
	call	?_Tidy@?$basic_string@DU?$char_traits@D@std@@V?$allocator@D@2@@std@@QAEX_NI@Z ; std::basic_string<char,std::char_traits<char>,std::allocator<char> >::_Tidy

; 2203 : 			_RERAISE;

	push	0
	push	0
	call	__CxxThrowException@8

; 2204 : 			_CATCH_END

	mov	eax, $LN17@Copy
	ret	0
$LN14@Copy:
	mov	DWORD PTR __$EHRec$[ebp+12], 1
	jmp	SHORT __tryend$?_Copy@?$basic_string@DU?$char_traits@D@std@@V?$allocator@D@2@@std@@QAEXII@Z$2
$LN17@Copy:
	mov	DWORD PTR __$EHRec$[ebp+12], 1
__tryend$?_Copy@?$basic_string@DU?$char_traits@D@std@@V?$allocator@D@2@@std@@QAEXII@Z$2:

; 2205 : 		_CATCH_END

	mov	eax, $LN19@Copy
	ret	0
$LN12@Copy:
	mov	DWORD PTR __$EHRec$[ebp+12], -1
	jmp	SHORT __tryend$?_Copy@?$basic_string@DU?$char_traits@D@std@@V?$allocator@D@2@@std@@QAEXII@Z$3
$LN19@Copy:
	mov	DWORD PTR __$EHRec$[ebp+12], -1
__tryend$?_Copy@?$basic_string@DU?$char_traits@D@std@@V?$allocator@D@2@@std@@QAEXII@Z$3:

; 2206 : 
; 2207 : 		if (0 < _Oldlen)

	cmp	DWORD PTR __Oldlen$[ebp], 0
	jbe	SHORT $LN10@Copy

; 2208 : 			_Traits::copy(_Unfancy(_Ptr), this->_Myptr(),

	mov	edx, DWORD PTR __Oldlen$[ebp]
	push	edx
	mov	ecx, DWORD PTR _this$[ebp]
	call	?_Myptr@?$_String_alloc@U?$_String_base_types@DV?$allocator@D@std@@@std@@@std@@QAEPADXZ ; std::_String_alloc<std::_String_base_types<char,std::allocator<char> > >::_Myptr
	push	eax
	mov	eax, DWORD PTR __Ptr$[ebp]
	push	eax
	call	??$_Unfancy@D@std@@YAPADPAD@Z		; std::_Unfancy<char>
	add	esp, 4
	push	eax
	call	?copy@?$char_traits@D@std@@SAPADPADPBDI@Z ; std::char_traits<char>::copy
	add	esp, 12					; 0000000cH
$LN10@Copy:

; 2209 : 				_Oldlen);	// copy existing elements
; 2210 : 		_Tidy(true);

	push	0
	push	1
	mov	ecx, DWORD PTR _this$[ebp]
	call	?_Tidy@?$basic_string@DU?$char_traits@D@std@@V?$allocator@D@2@@std@@QAEX_NI@Z ; std::basic_string<char,std::char_traits<char>,std::allocator<char> >::_Tidy

; 2211 : 		this->_Getal().construct(_STD addressof(this->_Bx()._Ptr), _Ptr);

	lea	ecx, DWORD PTR __Ptr$[ebp]
	push	ecx
	mov	ecx, DWORD PTR _this$[ebp]
	call	?_Bx@?$_String_alloc@U?$_String_base_types@DV?$allocator@D@std@@@std@@@std@@QAEAAT_Bxty@?$_String_val@U?$_Simple_types@D@std@@@2@XZ ; std::_String_alloc<std::_String_base_types<char,std::allocator<char> > >::_Bx
	push	eax
	call	??$addressof@PAD@std@@YAPAPADAAPAD@Z	; std::addressof<char *>
	add	esp, 4
	push	eax
	mov	ecx, DWORD PTR _this$[ebp]
	call	?_Getal@?$_String_alloc@U?$_String_base_types@DV?$allocator@D@std@@@std@@@std@@QAEAAU?$_Wrap_alloc@V?$allocator@D@std@@@2@XZ ; std::_String_alloc<std::_String_base_types<char,std::allocator<char> > >::_Getal
	mov	ecx, eax
	call	??$construct@PADAAPAD@?$_Wrap_alloc@V?$allocator@D@std@@@std@@QAEXPAPADAAPAD@Z ; std::_Wrap_alloc<std::allocator<char> >::construct<char *,char * &>

; 2212 : 		this->_Myres() = _Newres;

	mov	ecx, DWORD PTR _this$[ebp]
	call	?_Myres@?$_String_alloc@U?$_String_base_types@DV?$allocator@D@std@@@std@@@std@@QAEAAIXZ ; std::_String_alloc<std::_String_base_types<char,std::allocator<char> > >::_Myres
	mov	edx, DWORD PTR __Newres$[ebp]
	mov	DWORD PTR [eax], edx

; 2213 : 		_Eos(_Oldlen);

	mov	eax, DWORD PTR __Oldlen$[ebp]
	push	eax
	mov	ecx, DWORD PTR _this$[ebp]
	call	?_Eos@?$basic_string@DU?$char_traits@D@std@@V?$allocator@D@2@@std@@QAEXI@Z ; std::basic_string<char,std::char_traits<char>,std::allocator<char> >::_Eos
$LN11@Copy:

; 2214 : 		}

	push	edx
	mov	ecx, ebp
	push	eax
	lea	edx, DWORD PTR $LN23@Copy
	call	@_RTC_CheckStackVars@8
	pop	eax
	pop	edx
	mov	ecx, DWORD PTR __$EHRec$[ebp+4]
	mov	DWORD PTR fs:0, ecx
	pop	ecx
	pop	edi
	pop	esi
	pop	ebx
	add	esp, 44					; 0000002cH
	cmp	ebp, esp
	call	__RTC_CheckEsp
	mov	esp, ebp
	pop	ebp
	ret	8
	npad	3
$LN23@Copy:
	DD	1
	DD	$LN22@Copy
$LN22@Copy:
	DD	-32					; ffffffe0H
	DD	4
	DD	$LN20@Copy
$LN20@Copy:
	DB	95					; 0000005fH
	DB	80					; 00000050H
	DB	116					; 00000074H
	DB	114					; 00000072H
	DB	0
_TEXT	ENDS
;	COMDAT text$x
text$x	SEGMENT
__ehhandler$?_Copy@?$basic_string@DU?$char_traits@D@std@@V?$allocator@D@2@@std@@QAEXII@Z:
	mov	edx, DWORD PTR [esp+8]
	lea	eax, DWORD PTR [edx+12]
	mov	ecx, DWORD PTR [edx-48]
	xor	ecx, eax
	call	@__security_check_cookie@4
	mov	eax, OFFSET __ehfuncinfo$?_Copy@?$basic_string@DU?$char_traits@D@std@@V?$allocator@D@2@@std@@QAEXII@Z
	jmp	___CxxFrameHandler3
text$x	ENDS
?_Copy@?$basic_string@DU?$char_traits@D@std@@V?$allocator@D@2@@std@@QAEXII@Z ENDP ; std::basic_string<char,std::char_traits<char>,std::allocator<char> >::_Copy
; Function compile flags: /Odtp /RTCsu
; File c:\program files (x86)\microsoft visual studio 14.0\vc\include\xstring
;	COMDAT ?_Clamp_suffix_size@?$basic_string@DU?$char_traits@D@std@@V?$allocator@D@2@@std@@QBEIII@Z
_TEXT	SEGMENT
__Max_effective_size$ = -8				; size = 4
_this$ = -4						; size = 4
__Off$ = 8						; size = 4
__Size$ = 12						; size = 4
?_Clamp_suffix_size@?$basic_string@DU?$char_traits@D@std@@V?$allocator@D@2@@std@@QBEIII@Z PROC ; std::basic_string<char,std::char_traits<char>,std::allocator<char> >::_Clamp_suffix_size, COMDAT
; _this$ = ecx

; 2111 : 		{	// trims _Size to the longest it can be assuming a string starting at _Off

	push	ebp
	mov	ebp, esp
	sub	esp, 8
	mov	DWORD PTR [ebp-8], -858993460		; ccccccccH
	mov	DWORD PTR [ebp-4], -858993460		; ccccccccH
	mov	DWORD PTR _this$[ebp], ecx

; 2112 : 		const size_type _Max_effective_size = this->_Mysize() - _Off;

	mov	ecx, DWORD PTR _this$[ebp]
	call	?_Mysize@?$_String_alloc@U?$_String_base_types@DV?$allocator@D@std@@@std@@@std@@QBEABIXZ ; std::_String_alloc<std::_String_base_types<char,std::allocator<char> > >::_Mysize
	mov	eax, DWORD PTR [eax]
	sub	eax, DWORD PTR __Off$[ebp]
	mov	DWORD PTR __Max_effective_size$[ebp], eax

; 2113 : 		if (_Size <= _Max_effective_size)

	mov	ecx, DWORD PTR __Size$[ebp]
	cmp	ecx, DWORD PTR __Max_effective_size$[ebp]
	ja	SHORT $LN2@Clamp_suff

; 2114 : 			return (_Size);

	mov	eax, DWORD PTR __Size$[ebp]
	jmp	SHORT $LN1@Clamp_suff

; 2115 : 		else

	jmp	SHORT $LN1@Clamp_suff
$LN2@Clamp_suff:

; 2116 : 			return (_Max_effective_size);

	mov	eax, DWORD PTR __Max_effective_size$[ebp]
$LN1@Clamp_suff:

; 2117 : 		}

	add	esp, 8
	cmp	ebp, esp
	call	__RTC_CheckEsp
	mov	esp, ebp
	pop	ebp
	ret	8
?_Clamp_suffix_size@?$basic_string@DU?$char_traits@D@std@@V?$allocator@D@2@@std@@QBEIII@Z ENDP ; std::basic_string<char,std::char_traits<char>,std::allocator<char> >::_Clamp_suffix_size
_TEXT	ENDS
; Function compile flags: /Odtp /RTCsu
; File c:\program files (x86)\microsoft visual studio 14.0\vc\include\xstring
;	COMDAT ?reserve@?$basic_string@DU?$char_traits@D@std@@V?$allocator@D@2@@std@@QAEXI@Z
_TEXT	SEGMENT
__Size$1 = -8						; size = 4
_this$ = -4						; size = 4
__Newcap$ = 8						; size = 4
?reserve@?$basic_string@DU?$char_traits@D@std@@V?$allocator@D@2@@std@@QAEXI@Z PROC ; std::basic_string<char,std::char_traits<char>,std::allocator<char> >::reserve, COMDAT
; _this$ = ecx

; 1793 : 		{	// determine new minimum length of allocated storage

	push	ebp
	mov	ebp, esp
	sub	esp, 8
	mov	DWORD PTR [ebp-8], -858993460		; ccccccccH
	mov	DWORD PTR [ebp-4], -858993460		; ccccccccH
	mov	DWORD PTR _this$[ebp], ecx

; 1794 : 		if (this->_Mysize() <= _Newcap && this->_Myres() != _Newcap)

	mov	ecx, DWORD PTR _this$[ebp]
	call	?_Mysize@?$_String_alloc@U?$_String_base_types@DV?$allocator@D@std@@@std@@@std@@QAEAAIXZ ; std::_String_alloc<std::_String_base_types<char,std::allocator<char> > >::_Mysize
	mov	eax, DWORD PTR [eax]
	cmp	eax, DWORD PTR __Newcap$[ebp]
	ja	SHORT $LN1@reserve
	mov	ecx, DWORD PTR _this$[ebp]
	call	?_Myres@?$_String_alloc@U?$_String_base_types@DV?$allocator@D@std@@@std@@@std@@QAEAAIXZ ; std::_String_alloc<std::_String_base_types<char,std::allocator<char> > >::_Myres
	mov	ecx, DWORD PTR [eax]
	cmp	ecx, DWORD PTR __Newcap$[ebp]
	je	SHORT $LN1@reserve

; 1795 : 			{	// change reservation
; 1796 : 			size_type _Size = this->_Mysize();

	mov	ecx, DWORD PTR _this$[ebp]
	call	?_Mysize@?$_String_alloc@U?$_String_base_types@DV?$allocator@D@std@@@std@@@std@@QAEAAIXZ ; std::_String_alloc<std::_String_base_types<char,std::allocator<char> > >::_Mysize
	mov	edx, DWORD PTR [eax]
	mov	DWORD PTR __Size$1[ebp], edx

; 1797 : 			if (_Grow(_Newcap, true))

	push	1
	mov	eax, DWORD PTR __Newcap$[ebp]
	push	eax
	mov	ecx, DWORD PTR _this$[ebp]
	call	?_Grow@?$basic_string@DU?$char_traits@D@std@@V?$allocator@D@2@@std@@QAE_NI_N@Z ; std::basic_string<char,std::char_traits<char>,std::allocator<char> >::_Grow
	movzx	ecx, al
	test	ecx, ecx
	je	SHORT $LN1@reserve

; 1798 : 				_Eos(_Size);

	mov	edx, DWORD PTR __Size$1[ebp]
	push	edx
	mov	ecx, DWORD PTR _this$[ebp]
	call	?_Eos@?$basic_string@DU?$char_traits@D@std@@V?$allocator@D@2@@std@@QAEXI@Z ; std::basic_string<char,std::char_traits<char>,std::allocator<char> >::_Eos
$LN1@reserve:

; 1799 : 			}
; 1800 : 		}

	add	esp, 8
	cmp	ebp, esp
	call	__RTC_CheckEsp
	mov	esp, ebp
	pop	ebp
	ret	4
?reserve@?$basic_string@DU?$char_traits@D@std@@V?$allocator@D@2@@std@@QAEXI@Z ENDP ; std::basic_string<char,std::char_traits<char>,std::allocator<char> >::reserve
_TEXT	ENDS
; Function compile flags: /Odtp /RTCsu
; File c:\program files (x86)\microsoft visual studio 14.0\vc\include\xstring
;	COMDAT ?max_size@?$basic_string@DU?$char_traits@D@std@@V?$allocator@D@2@@std@@QBEIXZ
_TEXT	SEGMENT
tv75 = -16						; size = 4
$T1 = -9						; size = 1
__Num$ = -8						; size = 4
_this$ = -4						; size = 4
?max_size@?$basic_string@DU?$char_traits@D@std@@V?$allocator@D@2@@std@@QBEIXZ PROC ; std::basic_string<char,std::char_traits<char>,std::allocator<char> >::max_size, COMDAT
; _this$ = ecx

; 1769 : 		{	// return maximum possible length of sequence

	push	ebp
	mov	ebp, esp
	sub	esp, 16					; 00000010H
	mov	eax, -858993460				; ccccccccH
	mov	DWORD PTR [ebp-16], eax
	mov	DWORD PTR [ebp-12], eax
	mov	DWORD PTR [ebp-8], eax
	mov	DWORD PTR [ebp-4], eax
	mov	DWORD PTR _this$[ebp], ecx

; 1770 : 		const size_type _Num = this->_Getal().max_size();

	movzx	eax, BYTE PTR $T1[ebp]
	push	eax
	mov	ecx, DWORD PTR _this$[ebp]
	call	?_Getal@?$_String_alloc@U?$_String_base_types@DV?$allocator@D@std@@@std@@@std@@QBEABU?$_Wrap_alloc@V?$allocator@D@std@@@2@XZ ; std::_String_alloc<std::_String_base_types<char,std::allocator<char> > >::_Getal
	mov	ecx, eax
	call	?max_size@?$_Wrap_alloc@V?$allocator@D@std@@@std@@QBEIU_Nil@2@@Z ; std::_Wrap_alloc<std::allocator<char> >::max_size
	mov	DWORD PTR __Num$[ebp], eax

; 1771 : 		return (_Num <= 1 ? 1 : _Num - 1);

	cmp	DWORD PTR __Num$[ebp], 1
	ja	SHORT $LN3@max_size
	mov	DWORD PTR tv75[ebp], 1
	jmp	SHORT $LN4@max_size
$LN3@max_size:
	mov	ecx, DWORD PTR __Num$[ebp]
	sub	ecx, 1
	mov	DWORD PTR tv75[ebp], ecx
$LN4@max_size:
	mov	eax, DWORD PTR tv75[ebp]

; 1772 : 		}

	add	esp, 16					; 00000010H
	cmp	ebp, esp
	call	__RTC_CheckEsp
	mov	esp, ebp
	pop	ebp
	ret	0
?max_size@?$basic_string@DU?$char_traits@D@std@@V?$allocator@D@2@@std@@QBEIXZ ENDP ; std::basic_string<char,std::char_traits<char>,std::allocator<char> >::max_size
_TEXT	ENDS
; Function compile flags: /Odtp /RTCsu
; File c:\program files (x86)\microsoft visual studio 14.0\vc\include\xstring
;	COMDAT ?size@?$basic_string@DU?$char_traits@D@std@@V?$allocator@D@2@@std@@QBEIXZ
_TEXT	SEGMENT
_this$ = -4						; size = 4
?size@?$basic_string@DU?$char_traits@D@std@@V?$allocator@D@2@@std@@QBEIXZ PROC ; std::basic_string<char,std::char_traits<char>,std::allocator<char> >::size, COMDAT
; _this$ = ecx

; 1764 : 		{	// return length of sequence

	push	ebp
	mov	ebp, esp
	push	ecx
	mov	DWORD PTR [ebp-4], -858993460		; ccccccccH
	mov	DWORD PTR _this$[ebp], ecx

; 1765 : 		return (this->_Mysize());

	mov	ecx, DWORD PTR _this$[ebp]
	call	?_Mysize@?$_String_alloc@U?$_String_base_types@DV?$allocator@D@std@@@std@@@std@@QBEABIXZ ; std::_String_alloc<std::_String_base_types<char,std::allocator<char> > >::_Mysize
	mov	eax, DWORD PTR [eax]

; 1766 : 		}

	add	esp, 4
	cmp	ebp, esp
	call	__RTC_CheckEsp
	mov	esp, ebp
	pop	ebp
	ret	0
?size@?$basic_string@DU?$char_traits@D@std@@V?$allocator@D@2@@std@@QBEIXZ ENDP ; std::basic_string<char,std::char_traits<char>,std::allocator<char> >::size
_TEXT	ENDS
; Function compile flags: /Odtp /RTCsu
; File c:\program files (x86)\microsoft visual studio 14.0\vc\include\xstring
;	COMDAT ?c_str@?$basic_string@DU?$char_traits@D@std@@V?$allocator@D@2@@std@@QBEPBDXZ
_TEXT	SEGMENT
_this$ = -16						; size = 4
__$EHRec$ = -12						; size = 12
?c_str@?$basic_string@DU?$char_traits@D@std@@V?$allocator@D@2@@std@@QBEPBDXZ PROC ; std::basic_string<char,std::char_traits<char>,std::allocator<char> >::c_str, COMDAT
; _this$ = ecx

; 1742 : 		{	// return pointer to null-terminated nonmutable array

	push	ebp
	mov	ebp, esp
	push	-1
	push	__ehhandler$?c_str@?$basic_string@DU?$char_traits@D@std@@V?$allocator@D@2@@std@@QBEPBDXZ
	mov	eax, DWORD PTR fs:0
	push	eax
	push	ecx
	mov	DWORD PTR [ebp-16], -858993460		; ccccccccH
	mov	eax, DWORD PTR ___security_cookie
	xor	eax, ebp
	push	eax
	lea	eax, DWORD PTR __$EHRec$[ebp]
	mov	DWORD PTR fs:0, eax
	mov	DWORD PTR _this$[ebp], ecx

; 1743 : 		return (this->_Myptr());

	mov	ecx, DWORD PTR _this$[ebp]
	call	?_Myptr@?$_String_alloc@U?$_String_base_types@DV?$allocator@D@std@@@std@@@std@@QBEPBDXZ ; std::_String_alloc<std::_String_base_types<char,std::allocator<char> > >::_Myptr

; 1744 : 		}

	mov	ecx, DWORD PTR __$EHRec$[ebp]
	mov	DWORD PTR fs:0, ecx
	pop	ecx
	add	esp, 16					; 00000010H
	cmp	ebp, esp
	call	__RTC_CheckEsp
	mov	esp, ebp
	pop	ebp
	ret	0
_TEXT	ENDS
;	COMDAT text$x
text$x	SEGMENT
__ehhandler$?c_str@?$basic_string@DU?$char_traits@D@std@@V?$allocator@D@2@@std@@QBEPBDXZ:
	mov	edx, DWORD PTR [esp+8]
	lea	eax, DWORD PTR [edx+12]
	mov	ecx, DWORD PTR [edx-8]
	xor	ecx, eax
	call	@__security_check_cookie@4
	mov	eax, OFFSET __ehfuncinfo$?c_str@?$basic_string@DU?$char_traits@D@std@@V?$allocator@D@2@@std@@QBEPBDXZ
	jmp	___CxxFrameHandler3
text$x	ENDS
?c_str@?$basic_string@DU?$char_traits@D@std@@V?$allocator@D@2@@std@@QBEPBDXZ ENDP ; std::basic_string<char,std::char_traits<char>,std::allocator<char> >::c_str
; Function compile flags: /Odtp /RTCsu
; File c:\program files (x86)\microsoft visual studio 14.0\vc\include\xstring
;	COMDAT ?erase@?$basic_string@DU?$char_traits@D@std@@V?$allocator@D@2@@std@@QAEAAV12@II@Z
_TEXT	SEGMENT
__Newsize$1 = -12					; size = 4
__Ptr$2 = -8						; size = 4
_this$ = -4						; size = 4
__Off$ = 8						; size = 4
__Count$ = 12						; size = 4
?erase@?$basic_string@DU?$char_traits@D@std@@V?$allocator@D@2@@std@@QAEAAV12@II@Z PROC ; std::basic_string<char,std::char_traits<char>,std::allocator<char> >::erase, COMDAT
; _this$ = ecx

; 1347 : 		{	// erase elements [_Off, _Off + _Count)

	push	ebp
	mov	ebp, esp
	sub	esp, 12					; 0000000cH
	mov	DWORD PTR [ebp-12], -858993460		; ccccccccH
	mov	DWORD PTR [ebp-8], -858993460		; ccccccccH
	mov	DWORD PTR [ebp-4], -858993460		; ccccccccH
	mov	DWORD PTR _this$[ebp], ecx

; 1348 : 		_Check_offset(_Off);

	mov	eax, DWORD PTR __Off$[ebp]
	push	eax
	mov	ecx, DWORD PTR _this$[ebp]
	call	?_Check_offset@?$basic_string@DU?$char_traits@D@std@@V?$allocator@D@2@@std@@QBEXI@Z ; std::basic_string<char,std::char_traits<char>,std::allocator<char> >::_Check_offset

; 1349 : 		if (this->_Mysize() - _Off <= _Count)

	mov	ecx, DWORD PTR _this$[ebp]
	call	?_Mysize@?$_String_alloc@U?$_String_base_types@DV?$allocator@D@std@@@std@@@std@@QAEAAIXZ ; std::_String_alloc<std::_String_base_types<char,std::allocator<char> > >::_Mysize
	mov	ecx, DWORD PTR [eax]
	sub	ecx, DWORD PTR __Off$[ebp]
	cmp	ecx, DWORD PTR __Count$[ebp]
	ja	SHORT $LN2@erase

; 1350 : 			_Eos(_Off);	// erase elements [_Off, ...)

	mov	edx, DWORD PTR __Off$[ebp]
	push	edx
	mov	ecx, DWORD PTR _this$[ebp]
	call	?_Eos@?$basic_string@DU?$char_traits@D@std@@V?$allocator@D@2@@std@@QAEXI@Z ; std::basic_string<char,std::char_traits<char>,std::allocator<char> >::_Eos
	jmp	SHORT $LN3@erase
$LN2@erase:

; 1351 : 		else if (0 < _Count)

	cmp	DWORD PTR __Count$[ebp], 0
	jbe	SHORT $LN3@erase

; 1352 : 			{	// move elements down
; 1353 : 			value_type *_Ptr = this->_Myptr() + _Off;

	mov	ecx, DWORD PTR _this$[ebp]
	call	?_Myptr@?$_String_alloc@U?$_String_base_types@DV?$allocator@D@std@@@std@@@std@@QAEPADXZ ; std::_String_alloc<std::_String_base_types<char,std::allocator<char> > >::_Myptr
	add	eax, DWORD PTR __Off$[ebp]
	mov	DWORD PTR __Ptr$2[ebp], eax

; 1354 : 			size_type _Newsize = this->_Mysize() - _Count;

	mov	ecx, DWORD PTR _this$[ebp]
	call	?_Mysize@?$_String_alloc@U?$_String_base_types@DV?$allocator@D@std@@@std@@@std@@QAEAAIXZ ; std::_String_alloc<std::_String_base_types<char,std::allocator<char> > >::_Mysize
	mov	eax, DWORD PTR [eax]
	sub	eax, DWORD PTR __Count$[ebp]
	mov	DWORD PTR __Newsize$1[ebp], eax

; 1355 : 			_Traits::move(_Ptr, _Ptr + _Count, _Newsize - _Off);

	mov	ecx, DWORD PTR __Newsize$1[ebp]
	sub	ecx, DWORD PTR __Off$[ebp]
	push	ecx
	mov	edx, DWORD PTR __Ptr$2[ebp]
	add	edx, DWORD PTR __Count$[ebp]
	push	edx
	mov	eax, DWORD PTR __Ptr$2[ebp]
	push	eax
	call	?move@?$char_traits@D@std@@SAPADPADPBDI@Z ; std::char_traits<char>::move
	add	esp, 12					; 0000000cH

; 1356 : 			_Eos(_Newsize);

	mov	ecx, DWORD PTR __Newsize$1[ebp]
	push	ecx
	mov	ecx, DWORD PTR _this$[ebp]
	call	?_Eos@?$basic_string@DU?$char_traits@D@std@@V?$allocator@D@2@@std@@QAEXI@Z ; std::basic_string<char,std::char_traits<char>,std::allocator<char> >::_Eos
$LN3@erase:

; 1357 : 			}
; 1358 : 		return (*this);

	mov	eax, DWORD PTR _this$[ebp]

; 1359 : 		}

	add	esp, 12					; 0000000cH
	cmp	ebp, esp
	call	__RTC_CheckEsp
	mov	esp, ebp
	pop	ebp
	ret	8
?erase@?$basic_string@DU?$char_traits@D@std@@V?$allocator@D@2@@std@@QAEAAV12@II@Z ENDP ; std::basic_string<char,std::char_traits<char>,std::allocator<char> >::erase
_TEXT	ENDS
; Function compile flags: /Odtp /RTCsu
; File c:\program files (x86)\microsoft visual studio 14.0\vc\include\xstring
;	COMDAT ?erase@?$basic_string@DU?$char_traits@D@std@@V?$allocator@D@2@@std@@QAEAAV12@I@Z
_TEXT	SEGMENT
_this$ = -4						; size = 4
__Off$ = 8						; size = 4
?erase@?$basic_string@DU?$char_traits@D@std@@V?$allocator@D@2@@std@@QAEAAV12@I@Z PROC ; std::basic_string<char,std::char_traits<char>,std::allocator<char> >::erase, COMDAT
; _this$ = ecx

; 1340 : 		{	// erase elements [_Off, ...)

	push	ebp
	mov	ebp, esp
	push	ecx
	mov	DWORD PTR [ebp-4], -858993460		; ccccccccH
	mov	DWORD PTR _this$[ebp], ecx

; 1341 : 		_Check_offset(_Off);

	mov	eax, DWORD PTR __Off$[ebp]
	push	eax
	mov	ecx, DWORD PTR _this$[ebp]
	call	?_Check_offset@?$basic_string@DU?$char_traits@D@std@@V?$allocator@D@2@@std@@QBEXI@Z ; std::basic_string<char,std::char_traits<char>,std::allocator<char> >::_Check_offset

; 1342 : 		_Eos(_Off);

	mov	ecx, DWORD PTR __Off$[ebp]
	push	ecx
	mov	ecx, DWORD PTR _this$[ebp]
	call	?_Eos@?$basic_string@DU?$char_traits@D@std@@V?$allocator@D@2@@std@@QAEXI@Z ; std::basic_string<char,std::char_traits<char>,std::allocator<char> >::_Eos

; 1343 : 		return (*this);

	mov	eax, DWORD PTR _this$[ebp]

; 1344 : 		}

	add	esp, 4
	cmp	ebp, esp
	call	__RTC_CheckEsp
	mov	esp, ebp
	pop	ebp
	ret	4
?erase@?$basic_string@DU?$char_traits@D@std@@V?$allocator@D@2@@std@@QAEAAV12@I@Z ENDP ; std::basic_string<char,std::char_traits<char>,std::allocator<char> >::erase
_TEXT	ENDS
; Function compile flags: /Odtp /RTCsu
; File c:\program files (x86)\microsoft visual studio 14.0\vc\include\xstring
;	COMDAT ?assign@?$basic_string@DU?$char_traits@D@std@@V?$allocator@D@2@@std@@QAEAAV12@PBD@Z
_TEXT	SEGMENT
_this$ = -4						; size = 4
__Ptr$ = 8						; size = 4
?assign@?$basic_string@DU?$char_traits@D@std@@V?$allocator@D@2@@std@@QAEAAV12@PBD@Z PROC ; std::basic_string<char,std::char_traits<char>,std::allocator<char> >::assign, COMDAT
; _this$ = ecx

; 1180 : 		{	// assign [_Ptr, <null>)

	push	ebp
	mov	ebp, esp
	push	ecx
	mov	DWORD PTR [ebp-4], -858993460		; ccccccccH
	mov	DWORD PTR _this$[ebp], ecx

; 1181 : 		_DEBUG_POINTER(_Ptr);

	push	1181					; 0000049dH
	push	OFFSET ??_C@_1IO@IPMLDGDI@?$AAC?$AA?3?$AA?2?$AAP?$AAr?$AAo?$AAg?$AAr?$AAa?$AAm?$AA?5?$AAF?$AAi?$AAl?$AAe?$AAs?$AA?5?$AA?$CI?$AAx?$AA8?$AA6?$AA?$CJ?$AA?2?$AAM?$AAi?$AAc?$AAr?$AAo?$AAs?$AAo?$AAf?$AAt@
	mov	eax, DWORD PTR __Ptr$[ebp]
	push	eax
	call	??$_Debug_pointer@$$CBD@std@@YAXPBDPB_WI@Z ; std::_Debug_pointer<char const >
	add	esp, 12					; 0000000cH

; 1182 : 		return (assign(_Ptr, _Traits::length(_Ptr)));

	mov	ecx, DWORD PTR __Ptr$[ebp]
	push	ecx
	call	?length@?$char_traits@D@std@@SAIPBD@Z	; std::char_traits<char>::length
	add	esp, 4
	push	eax
	mov	edx, DWORD PTR __Ptr$[ebp]
	push	edx
	mov	ecx, DWORD PTR _this$[ebp]
	call	?assign@?$basic_string@DU?$char_traits@D@std@@V?$allocator@D@2@@std@@QAEAAV12@PBDI@Z ; std::basic_string<char,std::char_traits<char>,std::allocator<char> >::assign

; 1183 : 		}

	add	esp, 4
	cmp	ebp, esp
	call	__RTC_CheckEsp
	mov	esp, ebp
	pop	ebp
	ret	4
?assign@?$basic_string@DU?$char_traits@D@std@@V?$allocator@D@2@@std@@QAEAAV12@PBD@Z ENDP ; std::basic_string<char,std::char_traits<char>,std::allocator<char> >::assign
_TEXT	ENDS
; Function compile flags: /Odtp /RTCsu
; File c:\program files (x86)\microsoft visual studio 14.0\vc\include\xstring
;	COMDAT ?assign@?$basic_string@DU?$char_traits@D@std@@V?$allocator@D@2@@std@@QAEAAV12@PBDI@Z
_TEXT	SEGMENT
tv68 = -5						; size = 1
_this$ = -4						; size = 4
__Ptr$ = 8						; size = 4
__Count$ = 12						; size = 4
?assign@?$basic_string@DU?$char_traits@D@std@@V?$allocator@D@2@@std@@QAEAAV12@PBDI@Z PROC ; std::basic_string<char,std::char_traits<char>,std::allocator<char> >::assign, COMDAT
; _this$ = ecx

; 1165 : 		{	// assign [_Ptr, _Ptr + _Count)

	push	ebp
	mov	ebp, esp
	sub	esp, 8
	mov	DWORD PTR [ebp-8], -858993460		; ccccccccH
	mov	DWORD PTR [ebp-4], -858993460		; ccccccccH
	mov	DWORD PTR _this$[ebp], ecx

; 1166 : 		_DEBUG_POINTER_IF(_Count != 0, _Ptr);

	cmp	DWORD PTR __Count$[ebp], 0
	je	SHORT $LN5@assign
	mov	BYTE PTR tv68[ebp], 1
	jmp	SHORT $LN6@assign
$LN5@assign:
	mov	BYTE PTR tv68[ebp], 0
$LN6@assign:
	push	1166					; 0000048eH
	push	OFFSET ??_C@_1IO@IPMLDGDI@?$AAC?$AA?3?$AA?2?$AAP?$AAr?$AAo?$AAg?$AAr?$AAa?$AAm?$AA?5?$AAF?$AAi?$AAl?$AAe?$AAs?$AA?5?$AA?$CI?$AAx?$AA8?$AA6?$AA?$CJ?$AA?2?$AAM?$AAi?$AAc?$AAr?$AAo?$AAs?$AAo?$AAf?$AAt@
	mov	eax, DWORD PTR __Ptr$[ebp]
	push	eax
	movzx	ecx, BYTE PTR tv68[ebp]
	push	ecx
	call	??$_Debug_pointer_if@$$CBD@std@@YAX_NPBDPB_WI@Z ; std::_Debug_pointer_if<char const >
	add	esp, 16					; 00000010H

; 1167 : 		if (_Inside(_Ptr))

	mov	edx, DWORD PTR __Ptr$[ebp]
	push	edx
	mov	ecx, DWORD PTR _this$[ebp]
	call	?_Inside@?$basic_string@DU?$char_traits@D@std@@V?$allocator@D@2@@std@@QAE_NPBD@Z ; std::basic_string<char,std::char_traits<char>,std::allocator<char> >::_Inside
	movzx	eax, al
	test	eax, eax
	je	SHORT $LN2@assign

; 1168 : 			return (assign(*this,

	mov	ecx, DWORD PTR __Count$[ebp]
	push	ecx
	mov	ecx, DWORD PTR _this$[ebp]
	call	?_Myptr@?$_String_alloc@U?$_String_base_types@DV?$allocator@D@std@@@std@@@std@@QAEPADXZ ; std::_String_alloc<std::_String_base_types<char,std::allocator<char> > >::_Myptr
	mov	edx, DWORD PTR __Ptr$[ebp]
	sub	edx, eax
	push	edx
	mov	eax, DWORD PTR _this$[ebp]
	push	eax
	mov	ecx, DWORD PTR _this$[ebp]
	call	?assign@?$basic_string@DU?$char_traits@D@std@@V?$allocator@D@2@@std@@QAEAAV12@ABV12@II@Z ; std::basic_string<char,std::char_traits<char>,std::allocator<char> >::assign
	jmp	SHORT $LN1@assign
$LN2@assign:

; 1169 : 				_Ptr - this->_Myptr(), _Count));	// substring
; 1170 : 
; 1171 : 		if (_Grow(_Count))

	push	0
	mov	ecx, DWORD PTR __Count$[ebp]
	push	ecx
	mov	ecx, DWORD PTR _this$[ebp]
	call	?_Grow@?$basic_string@DU?$char_traits@D@std@@V?$allocator@D@2@@std@@QAE_NI_N@Z ; std::basic_string<char,std::char_traits<char>,std::allocator<char> >::_Grow
	movzx	edx, al
	test	edx, edx
	je	SHORT $LN3@assign

; 1172 : 			{	// make room and assign new stuff
; 1173 : 			_Traits::copy(this->_Myptr(), _Ptr, _Count);

	mov	eax, DWORD PTR __Count$[ebp]
	push	eax
	mov	ecx, DWORD PTR __Ptr$[ebp]
	push	ecx
	mov	ecx, DWORD PTR _this$[ebp]
	call	?_Myptr@?$_String_alloc@U?$_String_base_types@DV?$allocator@D@std@@@std@@@std@@QAEPADXZ ; std::_String_alloc<std::_String_base_types<char,std::allocator<char> > >::_Myptr
	push	eax
	call	?copy@?$char_traits@D@std@@SAPADPADPBDI@Z ; std::char_traits<char>::copy
	add	esp, 12					; 0000000cH

; 1174 : 			_Eos(_Count);

	mov	edx, DWORD PTR __Count$[ebp]
	push	edx
	mov	ecx, DWORD PTR _this$[ebp]
	call	?_Eos@?$basic_string@DU?$char_traits@D@std@@V?$allocator@D@2@@std@@QAEXI@Z ; std::basic_string<char,std::char_traits<char>,std::allocator<char> >::_Eos
$LN3@assign:

; 1175 : 			}
; 1176 : 		return (*this);

	mov	eax, DWORD PTR _this$[ebp]
$LN1@assign:

; 1177 : 		}

	add	esp, 8
	cmp	ebp, esp
	call	__RTC_CheckEsp
	mov	esp, ebp
	pop	ebp
	ret	8
?assign@?$basic_string@DU?$char_traits@D@std@@V?$allocator@D@2@@std@@QAEAAV12@PBDI@Z ENDP ; std::basic_string<char,std::char_traits<char>,std::allocator<char> >::assign
_TEXT	ENDS
; Function compile flags: /Odtp /RTCsu
; File c:\program files (x86)\microsoft visual studio 14.0\vc\include\xstring
;	COMDAT ?assign@?$basic_string@DU?$char_traits@D@std@@V?$allocator@D@2@@std@@QAEAAV12@ABV12@II@Z
_TEXT	SEGMENT
_this$ = -4						; size = 4
__Right$ = 8						; size = 4
__Roff$ = 12						; size = 4
__Count$ = 16						; size = 4
?assign@?$basic_string@DU?$char_traits@D@std@@V?$allocator@D@2@@std@@QAEAAV12@ABV12@II@Z PROC ; std::basic_string<char,std::char_traits<char>,std::allocator<char> >::assign, COMDAT
; _this$ = ecx

; 1149 : 		{	// assign _Right [_Roff, _Roff + _Count)

	push	ebp
	mov	ebp, esp
	push	ecx
	mov	DWORD PTR [ebp-4], -858993460		; ccccccccH
	mov	DWORD PTR _this$[ebp], ecx

; 1150 : 		_Right._Check_offset(_Roff);

	mov	eax, DWORD PTR __Roff$[ebp]
	push	eax
	mov	ecx, DWORD PTR __Right$[ebp]
	call	?_Check_offset@?$basic_string@DU?$char_traits@D@std@@V?$allocator@D@2@@std@@QBEXI@Z ; std::basic_string<char,std::char_traits<char>,std::allocator<char> >::_Check_offset

; 1151 : 		_Count = _Right._Clamp_suffix_size(_Roff, _Count);

	mov	ecx, DWORD PTR __Count$[ebp]
	push	ecx
	mov	edx, DWORD PTR __Roff$[ebp]
	push	edx
	mov	ecx, DWORD PTR __Right$[ebp]
	call	?_Clamp_suffix_size@?$basic_string@DU?$char_traits@D@std@@V?$allocator@D@2@@std@@QBEIII@Z ; std::basic_string<char,std::char_traits<char>,std::allocator<char> >::_Clamp_suffix_size
	mov	DWORD PTR __Count$[ebp], eax

; 1152 : 
; 1153 : 		if (this == &_Right)

	mov	eax, DWORD PTR _this$[ebp]
	cmp	eax, DWORD PTR __Right$[ebp]
	jne	SHORT $LN2@assign

; 1154 : 			erase((size_type)(_Roff + _Count)), erase(0, _Roff);	// substring

	mov	ecx, DWORD PTR __Roff$[ebp]
	add	ecx, DWORD PTR __Count$[ebp]
	push	ecx
	mov	ecx, DWORD PTR _this$[ebp]
	call	?erase@?$basic_string@DU?$char_traits@D@std@@V?$allocator@D@2@@std@@QAEAAV12@I@Z ; std::basic_string<char,std::char_traits<char>,std::allocator<char> >::erase
	mov	edx, DWORD PTR __Roff$[ebp]
	push	edx
	push	0
	mov	ecx, DWORD PTR _this$[ebp]
	call	?erase@?$basic_string@DU?$char_traits@D@std@@V?$allocator@D@2@@std@@QAEAAV12@II@Z ; std::basic_string<char,std::char_traits<char>,std::allocator<char> >::erase
	jmp	SHORT $LN3@assign
$LN2@assign:

; 1155 : 		else if (_Grow(_Count))

	push	0
	mov	eax, DWORD PTR __Count$[ebp]
	push	eax
	mov	ecx, DWORD PTR _this$[ebp]
	call	?_Grow@?$basic_string@DU?$char_traits@D@std@@V?$allocator@D@2@@std@@QAE_NI_N@Z ; std::basic_string<char,std::char_traits<char>,std::allocator<char> >::_Grow
	movzx	ecx, al
	test	ecx, ecx
	je	SHORT $LN3@assign

; 1156 : 			{	// make room and assign new stuff
; 1157 : 			_Traits::copy(this->_Myptr(),

	mov	edx, DWORD PTR __Count$[ebp]
	push	edx
	mov	ecx, DWORD PTR __Right$[ebp]
	call	?_Myptr@?$_String_alloc@U?$_String_base_types@DV?$allocator@D@std@@@std@@@std@@QBEPBDXZ ; std::_String_alloc<std::_String_base_types<char,std::allocator<char> > >::_Myptr
	add	eax, DWORD PTR __Roff$[ebp]
	push	eax
	mov	ecx, DWORD PTR _this$[ebp]
	call	?_Myptr@?$_String_alloc@U?$_String_base_types@DV?$allocator@D@std@@@std@@@std@@QAEPADXZ ; std::_String_alloc<std::_String_base_types<char,std::allocator<char> > >::_Myptr
	push	eax
	call	?copy@?$char_traits@D@std@@SAPADPADPBDI@Z ; std::char_traits<char>::copy
	add	esp, 12					; 0000000cH

; 1158 : 				_Right._Myptr() + _Roff, _Count);
; 1159 : 			_Eos(_Count);

	mov	eax, DWORD PTR __Count$[ebp]
	push	eax
	mov	ecx, DWORD PTR _this$[ebp]
	call	?_Eos@?$basic_string@DU?$char_traits@D@std@@V?$allocator@D@2@@std@@QAEXI@Z ; std::basic_string<char,std::char_traits<char>,std::allocator<char> >::_Eos
$LN3@assign:

; 1160 : 			}
; 1161 : 		return (*this);

	mov	eax, DWORD PTR _this$[ebp]

; 1162 : 		}

	add	esp, 4
	cmp	ebp, esp
	call	__RTC_CheckEsp
	mov	esp, ebp
	pop	ebp
	ret	12					; 0000000cH
?assign@?$basic_string@DU?$char_traits@D@std@@V?$allocator@D@2@@std@@QAEAAV12@ABV12@II@Z ENDP ; std::basic_string<char,std::char_traits<char>,std::allocator<char> >::assign
_TEXT	ENDS
; Function compile flags: /Odtp /RTCsu
; File c:\program files (x86)\microsoft visual studio 14.0\vc\include\xstring
;	COMDAT ?append@?$basic_string@DU?$char_traits@D@std@@V?$allocator@D@2@@std@@QAEAAV12@PBD@Z
_TEXT	SEGMENT
_this$ = -4						; size = 4
__Ptr$ = 8						; size = 4
?append@?$basic_string@DU?$char_traits@D@std@@V?$allocator@D@2@@std@@QAEAAV12@PBD@Z PROC ; std::basic_string<char,std::char_traits<char>,std::allocator<char> >::append, COMDAT
; _this$ = ecx

; 1105 : 		{	// append [_Ptr, <null>)

	push	ebp
	mov	ebp, esp
	push	ecx
	mov	DWORD PTR [ebp-4], -858993460		; ccccccccH
	mov	DWORD PTR _this$[ebp], ecx

; 1106 : 		_DEBUG_POINTER(_Ptr);

	push	1106					; 00000452H
	push	OFFSET ??_C@_1IO@IPMLDGDI@?$AAC?$AA?3?$AA?2?$AAP?$AAr?$AAo?$AAg?$AAr?$AAa?$AAm?$AA?5?$AAF?$AAi?$AAl?$AAe?$AAs?$AA?5?$AA?$CI?$AAx?$AA8?$AA6?$AA?$CJ?$AA?2?$AAM?$AAi?$AAc?$AAr?$AAo?$AAs?$AAo?$AAf?$AAt@
	mov	eax, DWORD PTR __Ptr$[ebp]
	push	eax
	call	??$_Debug_pointer@$$CBD@std@@YAXPBDPB_WI@Z ; std::_Debug_pointer<char const >
	add	esp, 12					; 0000000cH

; 1107 : 		return (append(_Ptr, _Traits::length(_Ptr)));

	mov	ecx, DWORD PTR __Ptr$[ebp]
	push	ecx
	call	?length@?$char_traits@D@std@@SAIPBD@Z	; std::char_traits<char>::length
	add	esp, 4
	push	eax
	mov	edx, DWORD PTR __Ptr$[ebp]
	push	edx
	mov	ecx, DWORD PTR _this$[ebp]
	call	?append@?$basic_string@DU?$char_traits@D@std@@V?$allocator@D@2@@std@@QAEAAV12@PBDI@Z ; std::basic_string<char,std::char_traits<char>,std::allocator<char> >::append

; 1108 : 		}

	add	esp, 4
	cmp	ebp, esp
	call	__RTC_CheckEsp
	mov	esp, ebp
	pop	ebp
	ret	4
?append@?$basic_string@DU?$char_traits@D@std@@V?$allocator@D@2@@std@@QAEAAV12@PBD@Z ENDP ; std::basic_string<char,std::char_traits<char>,std::allocator<char> >::append
_TEXT	ENDS
; Function compile flags: /Odtp /RTCsu
; File c:\program files (x86)\microsoft visual studio 14.0\vc\include\xstring
;	COMDAT ?append@?$basic_string@DU?$char_traits@D@std@@V?$allocator@D@2@@std@@QAEAAV12@PBDI@Z
_TEXT	SEGMENT
tv68 = -9						; size = 1
__Num$ = -8						; size = 4
_this$ = -4						; size = 4
__Ptr$ = 8						; size = 4
__Count$ = 12						; size = 4
?append@?$basic_string@DU?$char_traits@D@std@@V?$allocator@D@2@@std@@QAEAAV12@PBDI@Z PROC ; std::basic_string<char,std::char_traits<char>,std::allocator<char> >::append, COMDAT
; _this$ = ecx

; 1087 : 		{	// append [_Ptr, _Ptr + _Count)

	push	ebp
	mov	ebp, esp
	sub	esp, 12					; 0000000cH
	push	esi
	mov	DWORD PTR [ebp-12], -858993460		; ccccccccH
	mov	DWORD PTR [ebp-8], -858993460		; ccccccccH
	mov	DWORD PTR [ebp-4], -858993460		; ccccccccH
	mov	DWORD PTR _this$[ebp], ecx

; 1088 : 		_DEBUG_POINTER_IF(_Count != 0, _Ptr);

	cmp	DWORD PTR __Count$[ebp], 0
	je	SHORT $LN6@append
	mov	BYTE PTR tv68[ebp], 1
	jmp	SHORT $LN7@append
$LN6@append:
	mov	BYTE PTR tv68[ebp], 0
$LN7@append:
	push	1088					; 00000440H
	push	OFFSET ??_C@_1IO@IPMLDGDI@?$AAC?$AA?3?$AA?2?$AAP?$AAr?$AAo?$AAg?$AAr?$AAa?$AAm?$AA?5?$AAF?$AAi?$AAl?$AAe?$AAs?$AA?5?$AA?$CI?$AAx?$AA8?$AA6?$AA?$CJ?$AA?2?$AAM?$AAi?$AAc?$AAr?$AAo?$AAs?$AAo?$AAf?$AAt@
	mov	eax, DWORD PTR __Ptr$[ebp]
	push	eax
	movzx	ecx, BYTE PTR tv68[ebp]
	push	ecx
	call	??$_Debug_pointer_if@$$CBD@std@@YAX_NPBDPB_WI@Z ; std::_Debug_pointer_if<char const >
	add	esp, 16					; 00000010H

; 1089 : 		if (_Inside(_Ptr))

	mov	edx, DWORD PTR __Ptr$[ebp]
	push	edx
	mov	ecx, DWORD PTR _this$[ebp]
	call	?_Inside@?$basic_string@DU?$char_traits@D@std@@V?$allocator@D@2@@std@@QAE_NPBD@Z ; std::basic_string<char,std::char_traits<char>,std::allocator<char> >::_Inside
	movzx	eax, al
	test	eax, eax
	je	SHORT $LN2@append

; 1090 : 			return (append(*this,

	mov	ecx, DWORD PTR __Count$[ebp]
	push	ecx
	mov	ecx, DWORD PTR _this$[ebp]
	call	?_Myptr@?$_String_alloc@U?$_String_base_types@DV?$allocator@D@std@@@std@@@std@@QAEPADXZ ; std::_String_alloc<std::_String_base_types<char,std::allocator<char> > >::_Myptr
	mov	edx, DWORD PTR __Ptr$[ebp]
	sub	edx, eax
	push	edx
	mov	eax, DWORD PTR _this$[ebp]
	push	eax
	mov	ecx, DWORD PTR _this$[ebp]
	call	?append@?$basic_string@DU?$char_traits@D@std@@V?$allocator@D@2@@std@@QAEAAV12@ABV12@II@Z ; std::basic_string<char,std::char_traits<char>,std::allocator<char> >::append
	jmp	SHORT $LN5@append
$LN2@append:

; 1091 : 				_Ptr - this->_Myptr(), _Count));	// substring
; 1092 : 		if (npos - this->_Mysize() <= _Count)

	mov	ecx, DWORD PTR _this$[ebp]
	call	?_Mysize@?$_String_alloc@U?$_String_base_types@DV?$allocator@D@std@@@std@@@std@@QAEAAIXZ ; std::_String_alloc<std::_String_base_types<char,std::allocator<char> > >::_Mysize
	mov	ecx, DWORD PTR ?npos@?$basic_string@DU?$char_traits@D@std@@V?$allocator@D@2@@std@@2IB ; std::basic_string<char,std::char_traits<char>,std::allocator<char> >::npos
	sub	ecx, DWORD PTR [eax]
	cmp	ecx, DWORD PTR __Count$[ebp]
	ja	SHORT $LN3@append

; 1093 : 			_Xlen();	// result too long

	mov	ecx, DWORD PTR _this$[ebp]
	call	?_Xlen@?$basic_string@DU?$char_traits@D@std@@V?$allocator@D@2@@std@@QBEXXZ ; std::basic_string<char,std::char_traits<char>,std::allocator<char> >::_Xlen
$LN3@append:

; 1094 : 
; 1095 : 		const size_type _Num = this->_Mysize() + _Count;

	mov	ecx, DWORD PTR _this$[ebp]
	call	?_Mysize@?$_String_alloc@U?$_String_base_types@DV?$allocator@D@std@@@std@@@std@@QAEAAIXZ ; std::_String_alloc<std::_String_base_types<char,std::allocator<char> > >::_Mysize
	mov	edx, DWORD PTR [eax]
	add	edx, DWORD PTR __Count$[ebp]
	mov	DWORD PTR __Num$[ebp], edx

; 1096 : 		if (0 < _Count && _Grow(_Num))

	cmp	DWORD PTR __Count$[ebp], 0
	jbe	SHORT $LN4@append
	push	0
	mov	eax, DWORD PTR __Num$[ebp]
	push	eax
	mov	ecx, DWORD PTR _this$[ebp]
	call	?_Grow@?$basic_string@DU?$char_traits@D@std@@V?$allocator@D@2@@std@@QAE_NI_N@Z ; std::basic_string<char,std::char_traits<char>,std::allocator<char> >::_Grow
	movzx	ecx, al
	test	ecx, ecx
	je	SHORT $LN4@append

; 1097 : 			{	// make room and append new stuff
; 1098 : 			_Traits::copy(this->_Myptr() + this->_Mysize(), _Ptr, _Count);

	mov	edx, DWORD PTR __Count$[ebp]
	push	edx
	mov	eax, DWORD PTR __Ptr$[ebp]
	push	eax
	mov	ecx, DWORD PTR _this$[ebp]
	call	?_Myptr@?$_String_alloc@U?$_String_base_types@DV?$allocator@D@std@@@std@@@std@@QAEPADXZ ; std::_String_alloc<std::_String_base_types<char,std::allocator<char> > >::_Myptr
	mov	esi, eax
	mov	ecx, DWORD PTR _this$[ebp]
	call	?_Mysize@?$_String_alloc@U?$_String_base_types@DV?$allocator@D@std@@@std@@@std@@QAEAAIXZ ; std::_String_alloc<std::_String_base_types<char,std::allocator<char> > >::_Mysize
	add	esi, DWORD PTR [eax]
	push	esi
	call	?copy@?$char_traits@D@std@@SAPADPADPBDI@Z ; std::char_traits<char>::copy
	add	esp, 12					; 0000000cH

; 1099 : 			_Eos(_Num);

	mov	ecx, DWORD PTR __Num$[ebp]
	push	ecx
	mov	ecx, DWORD PTR _this$[ebp]
	call	?_Eos@?$basic_string@DU?$char_traits@D@std@@V?$allocator@D@2@@std@@QAEXI@Z ; std::basic_string<char,std::char_traits<char>,std::allocator<char> >::_Eos
$LN4@append:

; 1100 : 			}
; 1101 : 		return (*this);

	mov	eax, DWORD PTR _this$[ebp]
$LN5@append:

; 1102 : 		}

	pop	esi
	add	esp, 12					; 0000000cH
	cmp	ebp, esp
	call	__RTC_CheckEsp
	mov	esp, ebp
	pop	ebp
	ret	8
?append@?$basic_string@DU?$char_traits@D@std@@V?$allocator@D@2@@std@@QAEAAV12@PBDI@Z ENDP ; std::basic_string<char,std::char_traits<char>,std::allocator<char> >::append
_TEXT	ENDS
; Function compile flags: /Odtp /RTCsu
; File c:\program files (x86)\microsoft visual studio 14.0\vc\include\xstring
;	COMDAT ?append@?$basic_string@DU?$char_traits@D@std@@V?$allocator@D@2@@std@@QAEAAV12@ABV12@II@Z
_TEXT	SEGMENT
__Num$ = -8						; size = 4
_this$ = -4						; size = 4
__Right$ = 8						; size = 4
__Roff$ = 12						; size = 4
__Count$ = 16						; size = 4
?append@?$basic_string@DU?$char_traits@D@std@@V?$allocator@D@2@@std@@QAEAAV12@ABV12@II@Z PROC ; std::basic_string<char,std::char_traits<char>,std::allocator<char> >::append, COMDAT
; _this$ = ecx

; 1070 : 		{	// append _Right [_Roff, _Roff + _Count)

	push	ebp
	mov	ebp, esp
	sub	esp, 8
	push	esi
	mov	DWORD PTR [ebp-8], -858993460		; ccccccccH
	mov	DWORD PTR [ebp-4], -858993460		; ccccccccH
	mov	DWORD PTR _this$[ebp], ecx

; 1071 : 		_Right._Check_offset(_Roff);

	mov	eax, DWORD PTR __Roff$[ebp]
	push	eax
	mov	ecx, DWORD PTR __Right$[ebp]
	call	?_Check_offset@?$basic_string@DU?$char_traits@D@std@@V?$allocator@D@2@@std@@QBEXI@Z ; std::basic_string<char,std::char_traits<char>,std::allocator<char> >::_Check_offset

; 1072 : 		_Count = _Right._Clamp_suffix_size(_Roff, _Count);

	mov	ecx, DWORD PTR __Count$[ebp]
	push	ecx
	mov	edx, DWORD PTR __Roff$[ebp]
	push	edx
	mov	ecx, DWORD PTR __Right$[ebp]
	call	?_Clamp_suffix_size@?$basic_string@DU?$char_traits@D@std@@V?$allocator@D@2@@std@@QBEIII@Z ; std::basic_string<char,std::char_traits<char>,std::allocator<char> >::_Clamp_suffix_size
	mov	DWORD PTR __Count$[ebp], eax

; 1073 : 		if (npos - this->_Mysize() <= _Count)

	mov	ecx, DWORD PTR _this$[ebp]
	call	?_Mysize@?$_String_alloc@U?$_String_base_types@DV?$allocator@D@std@@@std@@@std@@QAEAAIXZ ; std::_String_alloc<std::_String_base_types<char,std::allocator<char> > >::_Mysize
	mov	ecx, DWORD PTR ?npos@?$basic_string@DU?$char_traits@D@std@@V?$allocator@D@2@@std@@2IB ; std::basic_string<char,std::char_traits<char>,std::allocator<char> >::npos
	sub	ecx, DWORD PTR [eax]
	cmp	ecx, DWORD PTR __Count$[ebp]
	ja	SHORT $LN2@append

; 1074 : 			_Xlen();	// result too long

	mov	ecx, DWORD PTR _this$[ebp]
	call	?_Xlen@?$basic_string@DU?$char_traits@D@std@@V?$allocator@D@2@@std@@QBEXXZ ; std::basic_string<char,std::char_traits<char>,std::allocator<char> >::_Xlen
$LN2@append:

; 1075 : 
; 1076 : 		const size_type _Num = this->_Mysize() + _Count;

	mov	ecx, DWORD PTR _this$[ebp]
	call	?_Mysize@?$_String_alloc@U?$_String_base_types@DV?$allocator@D@std@@@std@@@std@@QAEAAIXZ ; std::_String_alloc<std::_String_base_types<char,std::allocator<char> > >::_Mysize
	mov	edx, DWORD PTR [eax]
	add	edx, DWORD PTR __Count$[ebp]
	mov	DWORD PTR __Num$[ebp], edx

; 1077 : 		if (0 < _Count && _Grow(_Num))

	cmp	DWORD PTR __Count$[ebp], 0
	jbe	SHORT $LN3@append
	push	0
	mov	eax, DWORD PTR __Num$[ebp]
	push	eax
	mov	ecx, DWORD PTR _this$[ebp]
	call	?_Grow@?$basic_string@DU?$char_traits@D@std@@V?$allocator@D@2@@std@@QAE_NI_N@Z ; std::basic_string<char,std::char_traits<char>,std::allocator<char> >::_Grow
	movzx	ecx, al
	test	ecx, ecx
	je	SHORT $LN3@append

; 1078 : 			{	// make room and append new stuff
; 1079 : 			_Traits::copy(this->_Myptr() + this->_Mysize(),

	mov	edx, DWORD PTR __Count$[ebp]
	push	edx
	mov	ecx, DWORD PTR __Right$[ebp]
	call	?_Myptr@?$_String_alloc@U?$_String_base_types@DV?$allocator@D@std@@@std@@@std@@QBEPBDXZ ; std::_String_alloc<std::_String_base_types<char,std::allocator<char> > >::_Myptr
	add	eax, DWORD PTR __Roff$[ebp]
	push	eax
	mov	ecx, DWORD PTR _this$[ebp]
	call	?_Myptr@?$_String_alloc@U?$_String_base_types@DV?$allocator@D@std@@@std@@@std@@QAEPADXZ ; std::_String_alloc<std::_String_base_types<char,std::allocator<char> > >::_Myptr
	mov	esi, eax
	mov	ecx, DWORD PTR _this$[ebp]
	call	?_Mysize@?$_String_alloc@U?$_String_base_types@DV?$allocator@D@std@@@std@@@std@@QAEAAIXZ ; std::_String_alloc<std::_String_base_types<char,std::allocator<char> > >::_Mysize
	add	esi, DWORD PTR [eax]
	push	esi
	call	?copy@?$char_traits@D@std@@SAPADPADPBDI@Z ; std::char_traits<char>::copy
	add	esp, 12					; 0000000cH

; 1080 : 				_Right._Myptr() + _Roff, _Count);
; 1081 : 			_Eos(_Num);

	mov	eax, DWORD PTR __Num$[ebp]
	push	eax
	mov	ecx, DWORD PTR _this$[ebp]
	call	?_Eos@?$basic_string@DU?$char_traits@D@std@@V?$allocator@D@2@@std@@QAEXI@Z ; std::basic_string<char,std::char_traits<char>,std::allocator<char> >::_Eos
$LN3@append:

; 1082 : 			}
; 1083 : 		return (*this);

	mov	eax, DWORD PTR _this$[ebp]
$LN4@append:

; 1084 : 		}

	pop	esi
	add	esp, 8
	cmp	ebp, esp
	call	__RTC_CheckEsp
	mov	esp, ebp
	pop	ebp
	ret	12					; 0000000cH
?append@?$basic_string@DU?$char_traits@D@std@@V?$allocator@D@2@@std@@QAEAAV12@ABV12@II@Z ENDP ; std::basic_string<char,std::char_traits<char>,std::allocator<char> >::append
_TEXT	ENDS
; Function compile flags: /Odtp /RTCsu
; File c:\program files (x86)\microsoft visual studio 14.0\vc\include\xstring
;	COMDAT ?append@?$basic_string@DU?$char_traits@D@std@@V?$allocator@D@2@@std@@QAEAAV12@ABV12@@Z
_TEXT	SEGMENT
_this$ = -4						; size = 4
__Right$ = 8						; size = 4
?append@?$basic_string@DU?$char_traits@D@std@@V?$allocator@D@2@@std@@QAEAAV12@ABV12@@Z PROC ; std::basic_string<char,std::char_traits<char>,std::allocator<char> >::append, COMDAT
; _this$ = ecx

; 1064 : 		{	// append _Right

	push	ebp
	mov	ebp, esp
	push	ecx
	mov	DWORD PTR [ebp-4], -858993460		; ccccccccH
	mov	DWORD PTR _this$[ebp], ecx

; 1065 : 		return (append(_Right, 0, npos));

	mov	eax, DWORD PTR ?npos@?$basic_string@DU?$char_traits@D@std@@V?$allocator@D@2@@std@@2IB ; std::basic_string<char,std::char_traits<char>,std::allocator<char> >::npos
	push	eax
	push	0
	mov	ecx, DWORD PTR __Right$[ebp]
	push	ecx
	mov	ecx, DWORD PTR _this$[ebp]
	call	?append@?$basic_string@DU?$char_traits@D@std@@V?$allocator@D@2@@std@@QAEAAV12@ABV12@II@Z ; std::basic_string<char,std::char_traits<char>,std::allocator<char> >::append

; 1066 : 		}

	add	esp, 4
	cmp	ebp, esp
	call	__RTC_CheckEsp
	mov	esp, ebp
	pop	ebp
	ret	4
?append@?$basic_string@DU?$char_traits@D@std@@V?$allocator@D@2@@std@@QAEAAV12@ABV12@@Z ENDP ; std::basic_string<char,std::char_traits<char>,std::allocator<char> >::append
_TEXT	ENDS
; Function compile flags: /Odtp /RTCsu
; File c:\program files (x86)\microsoft visual studio 14.0\vc\include\xstring
;	COMDAT ??Y?$basic_string@DU?$char_traits@D@std@@V?$allocator@D@2@@std@@QAEAAV01@PBD@Z
_TEXT	SEGMENT
_this$ = -4						; size = 4
__Ptr$ = 8						; size = 4
??Y?$basic_string@DU?$char_traits@D@std@@V?$allocator@D@2@@std@@QAEAAV01@PBD@Z PROC ; std::basic_string<char,std::char_traits<char>,std::allocator<char> >::operator+=, COMDAT
; _this$ = ecx

; 1054 : 		{	// append [_Ptr, <null>)

	push	ebp
	mov	ebp, esp
	push	ecx
	mov	DWORD PTR [ebp-4], -858993460		; ccccccccH
	mov	DWORD PTR _this$[ebp], ecx

; 1055 : 		return (append(_Ptr));

	mov	eax, DWORD PTR __Ptr$[ebp]
	push	eax
	mov	ecx, DWORD PTR _this$[ebp]
	call	?append@?$basic_string@DU?$char_traits@D@std@@V?$allocator@D@2@@std@@QAEAAV12@PBD@Z ; std::basic_string<char,std::char_traits<char>,std::allocator<char> >::append

; 1056 : 		}

	add	esp, 4
	cmp	ebp, esp
	call	__RTC_CheckEsp
	mov	esp, ebp
	pop	ebp
	ret	4
??Y?$basic_string@DU?$char_traits@D@std@@V?$allocator@D@2@@std@@QAEAAV01@PBD@Z ENDP ; std::basic_string<char,std::char_traits<char>,std::allocator<char> >::operator+=
_TEXT	ENDS
; Function compile flags: /Odtp /RTCsu
; File c:\program files (x86)\microsoft visual studio 14.0\vc\include\xstring
;	COMDAT ??Y?$basic_string@DU?$char_traits@D@std@@V?$allocator@D@2@@std@@QAEAAV01@ABV01@@Z
_TEXT	SEGMENT
_this$ = -4						; size = 4
__Right$ = 8						; size = 4
??Y?$basic_string@DU?$char_traits@D@std@@V?$allocator@D@2@@std@@QAEAAV01@ABV01@@Z PROC ; std::basic_string<char,std::char_traits<char>,std::allocator<char> >::operator+=, COMDAT
; _this$ = ecx

; 1049 : 		{	// append _Right

	push	ebp
	mov	ebp, esp
	push	ecx
	mov	DWORD PTR [ebp-4], -858993460		; ccccccccH
	mov	DWORD PTR _this$[ebp], ecx

; 1050 : 		return (append(_Right));

	mov	eax, DWORD PTR __Right$[ebp]
	push	eax
	mov	ecx, DWORD PTR _this$[ebp]
	call	?append@?$basic_string@DU?$char_traits@D@std@@V?$allocator@D@2@@std@@QAEAAV12@ABV12@@Z ; std::basic_string<char,std::char_traits<char>,std::allocator<char> >::append

; 1051 : 		}

	add	esp, 4
	cmp	ebp, esp
	call	__RTC_CheckEsp
	mov	esp, ebp
	pop	ebp
	ret	4
??Y?$basic_string@DU?$char_traits@D@std@@V?$allocator@D@2@@std@@QAEAAV01@ABV01@@Z ENDP ; std::basic_string<char,std::char_traits<char>,std::allocator<char> >::operator+=
_TEXT	ENDS
; Function compile flags: /Odtp /RTCsu
; File c:\program files (x86)\microsoft visual studio 14.0\vc\include\xstring
;	COMDAT ??1?$basic_string@DU?$char_traits@D@std@@V?$allocator@D@2@@std@@QAE@XZ
_TEXT	SEGMENT
_this$ = -16						; size = 4
__$EHRec$ = -12						; size = 12
??1?$basic_string@DU?$char_traits@D@std@@V?$allocator@D@2@@std@@QAE@XZ PROC ; std::basic_string<char,std::char_traits<char>,std::allocator<char> >::~basic_string<char,std::char_traits<char>,std::allocator<char> >, COMDAT
; _this$ = ecx

; 1016 : 		{	// destroy the string

	push	ebp
	mov	ebp, esp
	push	-1
	push	__ehhandler$??1?$basic_string@DU?$char_traits@D@std@@V?$allocator@D@2@@std@@QAE@XZ
	mov	eax, DWORD PTR fs:0
	push	eax
	push	ecx
	mov	DWORD PTR [ebp-16], -858993460		; ccccccccH
	mov	eax, DWORD PTR ___security_cookie
	xor	eax, ebp
	push	eax
	lea	eax, DWORD PTR __$EHRec$[ebp]
	mov	DWORD PTR fs:0, eax
	mov	DWORD PTR _this$[ebp], ecx

; 1017 : 		_Tidy(true);

	push	0
	push	1
	mov	ecx, DWORD PTR _this$[ebp]
	call	?_Tidy@?$basic_string@DU?$char_traits@D@std@@V?$allocator@D@2@@std@@QAEX_NI@Z ; std::basic_string<char,std::char_traits<char>,std::allocator<char> >::_Tidy

; 1018 : 		}

	mov	ecx, DWORD PTR _this$[ebp]
	call	??1?$_String_alloc@U?$_String_base_types@DV?$allocator@D@std@@@std@@@std@@QAE@XZ ; std::_String_alloc<std::_String_base_types<char,std::allocator<char> > >::~_String_alloc<std::_String_base_types<char,std::allocator<char> > >
	mov	ecx, DWORD PTR __$EHRec$[ebp]
	mov	DWORD PTR fs:0, ecx
	pop	ecx
	add	esp, 16					; 00000010H
	cmp	ebp, esp
	call	__RTC_CheckEsp
	mov	esp, ebp
	pop	ebp
	ret	0
_TEXT	ENDS
;	COMDAT text$x
text$x	SEGMENT
__ehhandler$??1?$basic_string@DU?$char_traits@D@std@@V?$allocator@D@2@@std@@QAE@XZ:
	mov	edx, DWORD PTR [esp+8]
	lea	eax, DWORD PTR [edx+12]
	mov	ecx, DWORD PTR [edx-8]
	xor	ecx, eax
	call	@__security_check_cookie@4
	mov	eax, OFFSET __ehfuncinfo$??1?$basic_string@DU?$char_traits@D@std@@V?$allocator@D@2@@std@@QAE@XZ
	jmp	___CxxFrameHandler3
text$x	ENDS
??1?$basic_string@DU?$char_traits@D@std@@V?$allocator@D@2@@std@@QAE@XZ ENDP ; std::basic_string<char,std::char_traits<char>,std::allocator<char> >::~basic_string<char,std::char_traits<char>,std::allocator<char> >
; Function compile flags: /Odtp /RTCsu
; File c:\program files (x86)\microsoft visual studio 14.0\vc\include\xstring
;	COMDAT ?_Assign_rv@?$basic_string@DU?$char_traits@D@std@@V?$allocator@D@2@@std@@QAEX$$QAV12@@Z
_TEXT	SEGMENT
_this$ = -4						; size = 4
__Right$ = 8						; size = 4
?_Assign_rv@?$basic_string@DU?$char_traits@D@std@@V?$allocator@D@2@@std@@QAEX$$QAV12@@Z PROC ; std::basic_string<char,std::char_traits<char>,std::allocator<char> >::_Assign_rv, COMDAT
; _this$ = ecx

; 961  : 		{	// assign by moving _Right

	push	ebp
	mov	ebp, esp
	push	ecx
	push	esi
	mov	DWORD PTR [ebp-4], -858993460		; ccccccccH
	mov	DWORD PTR _this$[ebp], ecx

; 962  : 		if (_Right._Myres() < this->_BUF_SIZE)

	mov	ecx, DWORD PTR __Right$[ebp]
	call	?_Myres@?$_String_alloc@U?$_String_base_types@DV?$allocator@D@std@@@std@@@std@@QAEAAIXZ ; std::_String_alloc<std::_String_base_types<char,std::allocator<char> > >::_Myres
	cmp	DWORD PTR [eax], 16			; 00000010H
	jae	SHORT $LN2@Assign_rv

; 963  : 			_Traits::move(this->_Bx()._Buf, _Right._Bx()._Buf,

	mov	ecx, DWORD PTR __Right$[ebp]
	call	?_Mysize@?$_String_alloc@U?$_String_base_types@DV?$allocator@D@std@@@std@@@std@@QAEAAIXZ ; std::_String_alloc<std::_String_base_types<char,std::allocator<char> > >::_Mysize
	mov	eax, DWORD PTR [eax]
	add	eax, 1
	push	eax
	mov	ecx, DWORD PTR __Right$[ebp]
	call	?_Bx@?$_String_alloc@U?$_String_base_types@DV?$allocator@D@std@@@std@@@std@@QAEAAT_Bxty@?$_String_val@U?$_Simple_types@D@std@@@2@XZ ; std::_String_alloc<std::_String_base_types<char,std::allocator<char> > >::_Bx
	push	eax
	mov	ecx, DWORD PTR _this$[ebp]
	call	?_Bx@?$_String_alloc@U?$_String_base_types@DV?$allocator@D@std@@@std@@@std@@QAEAAT_Bxty@?$_String_val@U?$_Simple_types@D@std@@@2@XZ ; std::_String_alloc<std::_String_base_types<char,std::allocator<char> > >::_Bx
	push	eax
	call	?move@?$char_traits@D@std@@SAPADPADPBDI@Z ; std::char_traits<char>::move
	add	esp, 12					; 0000000cH

; 964  : 				_Right._Mysize() + 1);
; 965  : 		else

	jmp	SHORT $LN3@Assign_rv
$LN2@Assign_rv:

; 966  : 			{	// copy pointer
; 967  : 			this->_Getal().construct(_STD addressof(this->_Bx()._Ptr), _Right._Bx()._Ptr);

	mov	ecx, DWORD PTR __Right$[ebp]
	call	?_Bx@?$_String_alloc@U?$_String_base_types@DV?$allocator@D@std@@@std@@@std@@QAEAAT_Bxty@?$_String_val@U?$_Simple_types@D@std@@@2@XZ ; std::_String_alloc<std::_String_base_types<char,std::allocator<char> > >::_Bx
	push	eax
	mov	ecx, DWORD PTR _this$[ebp]
	call	?_Bx@?$_String_alloc@U?$_String_base_types@DV?$allocator@D@std@@@std@@@std@@QAEAAT_Bxty@?$_String_val@U?$_Simple_types@D@std@@@2@XZ ; std::_String_alloc<std::_String_base_types<char,std::allocator<char> > >::_Bx
	push	eax
	call	??$addressof@PAD@std@@YAPAPADAAPAD@Z	; std::addressof<char *>
	add	esp, 4
	push	eax
	mov	ecx, DWORD PTR _this$[ebp]
	call	?_Getal@?$_String_alloc@U?$_String_base_types@DV?$allocator@D@std@@@std@@@std@@QAEAAU?$_Wrap_alloc@V?$allocator@D@std@@@2@XZ ; std::_String_alloc<std::_String_base_types<char,std::allocator<char> > >::_Getal
	mov	ecx, eax
	call	??$construct@PADAAPAD@?$_Wrap_alloc@V?$allocator@D@std@@@std@@QAEXPAPADAAPAD@Z ; std::_Wrap_alloc<std::allocator<char> >::construct<char *,char * &>

; 968  : 			_Right._Bx()._Ptr = pointer();

	mov	ecx, DWORD PTR __Right$[ebp]
	call	?_Bx@?$_String_alloc@U?$_String_base_types@DV?$allocator@D@std@@@std@@@std@@QAEAAT_Bxty@?$_String_val@U?$_Simple_types@D@std@@@2@XZ ; std::_String_alloc<std::_String_base_types<char,std::allocator<char> > >::_Bx
	mov	DWORD PTR [eax], 0
$LN3@Assign_rv:

; 969  : 			}
; 970  : 		this->_Mysize() = _Right._Mysize();

	mov	ecx, DWORD PTR __Right$[ebp]
	call	?_Mysize@?$_String_alloc@U?$_String_base_types@DV?$allocator@D@std@@@std@@@std@@QAEAAIXZ ; std::_String_alloc<std::_String_base_types<char,std::allocator<char> > >::_Mysize
	mov	esi, eax
	mov	ecx, DWORD PTR _this$[ebp]
	call	?_Mysize@?$_String_alloc@U?$_String_base_types@DV?$allocator@D@std@@@std@@@std@@QAEAAIXZ ; std::_String_alloc<std::_String_base_types<char,std::allocator<char> > >::_Mysize
	mov	ecx, DWORD PTR [esi]
	mov	DWORD PTR [eax], ecx

; 971  : 		this->_Myres() = _Right._Myres();

	mov	ecx, DWORD PTR __Right$[ebp]
	call	?_Myres@?$_String_alloc@U?$_String_base_types@DV?$allocator@D@std@@@std@@@std@@QAEAAIXZ ; std::_String_alloc<std::_String_base_types<char,std::allocator<char> > >::_Myres
	mov	esi, eax
	mov	ecx, DWORD PTR _this$[ebp]
	call	?_Myres@?$_String_alloc@U?$_String_base_types@DV?$allocator@D@std@@@std@@@std@@QAEAAIXZ ; std::_String_alloc<std::_String_base_types<char,std::allocator<char> > >::_Myres
	mov	edx, DWORD PTR [esi]
	mov	DWORD PTR [eax], edx

; 972  : 		_Right._Tidy();

	push	0
	push	0
	mov	ecx, DWORD PTR __Right$[ebp]
	call	?_Tidy@?$basic_string@DU?$char_traits@D@std@@V?$allocator@D@2@@std@@QAEX_NI@Z ; std::basic_string<char,std::char_traits<char>,std::allocator<char> >::_Tidy

; 973  : 		}

	pop	esi
	add	esp, 4
	cmp	ebp, esp
	call	__RTC_CheckEsp
	mov	esp, ebp
	pop	ebp
	ret	4
?_Assign_rv@?$basic_string@DU?$char_traits@D@std@@V?$allocator@D@2@@std@@QAEX$$QAV12@@Z ENDP ; std::basic_string<char,std::char_traits<char>,std::allocator<char> >::_Assign_rv
_TEXT	ENDS
; Function compile flags: /Odtp /RTCsu
; File c:\program files (x86)\microsoft visual studio 14.0\vc\include\xstring
;	COMDAT ??0?$basic_string@DU?$char_traits@D@std@@V?$allocator@D@2@@std@@QAE@$$QAV01@@Z
_TEXT	SEGMENT
_this$ = -16						; size = 4
__$EHRec$ = -12						; size = 12
__Right$ = 8						; size = 4
??0?$basic_string@DU?$char_traits@D@std@@V?$allocator@D@2@@std@@QAE@$$QAV01@@Z PROC ; std::basic_string<char,std::char_traits<char>,std::allocator<char> >::basic_string<char,std::char_traits<char>,std::allocator<char> >, COMDAT
; _this$ = ecx

; 911  : 		{	// construct by moving _Right

	push	ebp
	mov	ebp, esp
	push	-1
	push	__ehhandler$??0?$basic_string@DU?$char_traits@D@std@@V?$allocator@D@2@@std@@QAE@$$QAV01@@Z
	mov	eax, DWORD PTR fs:0
	push	eax
	push	ecx
	mov	DWORD PTR [ebp-16], -858993460		; ccccccccH
	mov	eax, DWORD PTR ___security_cookie
	xor	eax, ebp
	push	eax
	lea	eax, DWORD PTR __$EHRec$[ebp]
	mov	DWORD PTR fs:0, eax
	mov	DWORD PTR _this$[ebp], ecx

; 910  : 		: _Mybase(_STD move(_Right._Getal()))

	mov	ecx, DWORD PTR __Right$[ebp]
	call	?_Getal@?$_String_alloc@U?$_String_base_types@DV?$allocator@D@std@@@std@@@std@@QAEAAU?$_Wrap_alloc@V?$allocator@D@std@@@2@XZ ; std::_String_alloc<std::_String_base_types<char,std::allocator<char> > >::_Getal
	push	eax
	call	??$move@AAU?$_Wrap_alloc@V?$allocator@D@std@@@std@@@std@@YA$$QAU?$_Wrap_alloc@V?$allocator@D@std@@@0@AAU10@@Z ; std::move<std::_Wrap_alloc<std::allocator<char> > &>
	add	esp, 4
	push	eax
	mov	ecx, DWORD PTR _this$[ebp]
	call	??$?0U?$_Wrap_alloc@V?$allocator@D@std@@@std@@X@?$_String_alloc@U?$_String_base_types@DV?$allocator@D@std@@@std@@@std@@QAE@$$QAU?$_Wrap_alloc@V?$allocator@D@std@@@1@@Z ; std::_String_alloc<std::_String_base_types<char,std::allocator<char> > >::_String_alloc<std::_String_base_types<char,std::allocator<char> > ><std::_Wrap_alloc<std::allocator<char> >,void>

; 912  : 		_Tidy();

	push	0
	push	0
	mov	ecx, DWORD PTR _this$[ebp]
	call	?_Tidy@?$basic_string@DU?$char_traits@D@std@@V?$allocator@D@2@@std@@QAEX_NI@Z ; std::basic_string<char,std::char_traits<char>,std::allocator<char> >::_Tidy

; 913  : 		_Assign_rv(_STD forward<_Myt>(_Right));

	mov	eax, DWORD PTR __Right$[ebp]
	push	eax
	call	??$forward@V?$basic_string@DU?$char_traits@D@std@@V?$allocator@D@2@@std@@@std@@YA$$QAV?$basic_string@DU?$char_traits@D@std@@V?$allocator@D@2@@0@AAV10@@Z ; std::forward<std::basic_string<char,std::char_traits<char>,std::allocator<char> > >
	add	esp, 4
	push	eax
	mov	ecx, DWORD PTR _this$[ebp]
	call	?_Assign_rv@?$basic_string@DU?$char_traits@D@std@@V?$allocator@D@2@@std@@QAEX$$QAV12@@Z ; std::basic_string<char,std::char_traits<char>,std::allocator<char> >::_Assign_rv

; 914  : 		}

	mov	eax, DWORD PTR _this$[ebp]
	mov	ecx, DWORD PTR __$EHRec$[ebp]
	mov	DWORD PTR fs:0, ecx
	pop	ecx
	add	esp, 16					; 00000010H
	cmp	ebp, esp
	call	__RTC_CheckEsp
	mov	esp, ebp
	pop	ebp
	ret	4
_TEXT	ENDS
;	COMDAT text$x
text$x	SEGMENT
__ehhandler$??0?$basic_string@DU?$char_traits@D@std@@V?$allocator@D@2@@std@@QAE@$$QAV01@@Z:
	mov	edx, DWORD PTR [esp+8]
	lea	eax, DWORD PTR [edx+12]
	mov	ecx, DWORD PTR [edx-8]
	xor	ecx, eax
	call	@__security_check_cookie@4
	mov	eax, OFFSET __ehfuncinfo$??0?$basic_string@DU?$char_traits@D@std@@V?$allocator@D@2@@std@@QAE@$$QAV01@@Z
	jmp	___CxxFrameHandler3
text$x	ENDS
??0?$basic_string@DU?$char_traits@D@std@@V?$allocator@D@2@@std@@QAE@$$QAV01@@Z ENDP ; std::basic_string<char,std::char_traits<char>,std::allocator<char> >::basic_string<char,std::char_traits<char>,std::allocator<char> >
; Function compile flags: /Odtp /RTCsu
; File c:\program files (x86)\microsoft visual studio 14.0\vc\include\xstring
;	COMDAT ??0?$basic_string@DU?$char_traits@D@std@@V?$allocator@D@2@@std@@QAE@PBD@Z
_TEXT	SEGMENT
_this$ = -16						; size = 4
__$EHRec$ = -12						; size = 12
__Ptr$ = 8						; size = 4
??0?$basic_string@DU?$char_traits@D@std@@V?$allocator@D@2@@std@@QAE@PBD@Z PROC ; std::basic_string<char,std::char_traits<char>,std::allocator<char> >::basic_string<char,std::char_traits<char>,std::allocator<char> >, COMDAT
; _this$ = ecx

; 836  : 		{	// construct from [_Ptr, <null>)

	push	ebp
	mov	ebp, esp
	push	-1
	push	__ehhandler$??0?$basic_string@DU?$char_traits@D@std@@V?$allocator@D@2@@std@@QAE@PBD@Z
	mov	eax, DWORD PTR fs:0
	push	eax
	push	ecx
	mov	DWORD PTR [ebp-16], -858993460		; ccccccccH
	mov	eax, DWORD PTR ___security_cookie
	xor	eax, ebp
	push	eax
	lea	eax, DWORD PTR __$EHRec$[ebp]
	mov	DWORD PTR fs:0, eax
	mov	DWORD PTR _this$[ebp], ecx

; 835  : 		: _Mybase()

	mov	ecx, DWORD PTR _this$[ebp]
	call	??0?$_String_alloc@U?$_String_base_types@DV?$allocator@D@std@@@std@@@std@@QAE@XZ ; std::_String_alloc<std::_String_base_types<char,std::allocator<char> > >::_String_alloc<std::_String_base_types<char,std::allocator<char> > >
	mov	DWORD PTR __$EHRec$[ebp+8], 0

; 837  : 		_Tidy();

	push	0
	push	0
	mov	ecx, DWORD PTR _this$[ebp]
	call	?_Tidy@?$basic_string@DU?$char_traits@D@std@@V?$allocator@D@2@@std@@QAEX_NI@Z ; std::basic_string<char,std::char_traits<char>,std::allocator<char> >::_Tidy

; 838  : 		assign(_Ptr);

	mov	eax, DWORD PTR __Ptr$[ebp]
	push	eax
	mov	ecx, DWORD PTR _this$[ebp]
	call	?assign@?$basic_string@DU?$char_traits@D@std@@V?$allocator@D@2@@std@@QAEAAV12@PBD@Z ; std::basic_string<char,std::char_traits<char>,std::allocator<char> >::assign

; 839  : 		}

	mov	DWORD PTR __$EHRec$[ebp+8], -1
	mov	eax, DWORD PTR _this$[ebp]
	mov	ecx, DWORD PTR __$EHRec$[ebp]
	mov	DWORD PTR fs:0, ecx
	pop	ecx
	add	esp, 16					; 00000010H
	cmp	ebp, esp
	call	__RTC_CheckEsp
	mov	esp, ebp
	pop	ebp
	ret	4
_TEXT	ENDS
;	COMDAT text$x
text$x	SEGMENT
__unwindfunclet$??0?$basic_string@DU?$char_traits@D@std@@V?$allocator@D@2@@std@@QAE@PBD@Z$0:
	mov	ecx, DWORD PTR _this$[ebp]
	jmp	??1?$_String_alloc@U?$_String_base_types@DV?$allocator@D@std@@@std@@@std@@QAE@XZ ; std::_String_alloc<std::_String_base_types<char,std::allocator<char> > >::~_String_alloc<std::_String_base_types<char,std::allocator<char> > >
__ehhandler$??0?$basic_string@DU?$char_traits@D@std@@V?$allocator@D@2@@std@@QAE@PBD@Z:
	mov	edx, DWORD PTR [esp+8]
	lea	eax, DWORD PTR [edx+12]
	mov	ecx, DWORD PTR [edx-8]
	xor	ecx, eax
	call	@__security_check_cookie@4
	mov	eax, OFFSET __ehfuncinfo$??0?$basic_string@DU?$char_traits@D@std@@V?$allocator@D@2@@std@@QAE@PBD@Z
	jmp	___CxxFrameHandler3
text$x	ENDS
??0?$basic_string@DU?$char_traits@D@std@@V?$allocator@D@2@@std@@QAE@PBD@Z ENDP ; std::basic_string<char,std::char_traits<char>,std::allocator<char> >::basic_string<char,std::char_traits<char>,std::allocator<char> >
; Function compile flags: /Odtp /RTCsu
; File c:\program files (x86)\microsoft visual studio 14.0\vc\include\xstring
;	COMDAT ??0?$basic_string@DU?$char_traits@D@std@@V?$allocator@D@2@@std@@QAE@XZ
_TEXT	SEGMENT
_this$ = -16						; size = 4
__$EHRec$ = -12						; size = 12
??0?$basic_string@DU?$char_traits@D@std@@V?$allocator@D@2@@std@@QAE@XZ PROC ; std::basic_string<char,std::char_traits<char>,std::allocator<char> >::basic_string<char,std::char_traits<char>,std::allocator<char> >, COMDAT
; _this$ = ecx

; 794  : 		{	// construct empty string

	push	ebp
	mov	ebp, esp
	push	-1
	push	__ehhandler$??0?$basic_string@DU?$char_traits@D@std@@V?$allocator@D@2@@std@@QAE@XZ
	mov	eax, DWORD PTR fs:0
	push	eax
	push	ecx
	mov	DWORD PTR [ebp-16], -858993460		; ccccccccH
	mov	eax, DWORD PTR ___security_cookie
	xor	eax, ebp
	push	eax
	lea	eax, DWORD PTR __$EHRec$[ebp]
	mov	DWORD PTR fs:0, eax
	mov	DWORD PTR _this$[ebp], ecx

; 793  : 		: _Mybase()

	mov	ecx, DWORD PTR _this$[ebp]
	call	??0?$_String_alloc@U?$_String_base_types@DV?$allocator@D@std@@@std@@@std@@QAE@XZ ; std::_String_alloc<std::_String_base_types<char,std::allocator<char> > >::_String_alloc<std::_String_base_types<char,std::allocator<char> > >

; 795  : 		_Tidy();

	push	0
	push	0
	mov	ecx, DWORD PTR _this$[ebp]
	call	?_Tidy@?$basic_string@DU?$char_traits@D@std@@V?$allocator@D@2@@std@@QAEX_NI@Z ; std::basic_string<char,std::char_traits<char>,std::allocator<char> >::_Tidy

; 796  : 		}

	mov	eax, DWORD PTR _this$[ebp]
	mov	ecx, DWORD PTR __$EHRec$[ebp]
	mov	DWORD PTR fs:0, ecx
	pop	ecx
	add	esp, 16					; 00000010H
	cmp	ebp, esp
	call	__RTC_CheckEsp
	mov	esp, ebp
	pop	ebp
	ret	0
_TEXT	ENDS
;	COMDAT text$x
text$x	SEGMENT
__ehhandler$??0?$basic_string@DU?$char_traits@D@std@@V?$allocator@D@2@@std@@QAE@XZ:
	mov	edx, DWORD PTR [esp+8]
	lea	eax, DWORD PTR [edx+12]
	mov	ecx, DWORD PTR [edx-8]
	xor	ecx, eax
	call	@__security_check_cookie@4
	mov	eax, OFFSET __ehfuncinfo$??0?$basic_string@DU?$char_traits@D@std@@V?$allocator@D@2@@std@@QAE@XZ
	jmp	___CxxFrameHandler3
text$x	ENDS
??0?$basic_string@DU?$char_traits@D@std@@V?$allocator@D@2@@std@@QAE@XZ ENDP ; std::basic_string<char,std::char_traits<char>,std::allocator<char> >::basic_string<char,std::char_traits<char>,std::allocator<char> >
; Function compile flags: /Odtp /RTCsu
;	COMDAT ??1?$_Compressed_pair@U?$_Wrap_alloc@V?$allocator@D@std@@@std@@V?$_String_val@U?$_Simple_types@D@std@@@2@$00@std@@QAE@XZ
_TEXT	SEGMENT
_this$ = -4						; size = 4
??1?$_Compressed_pair@U?$_Wrap_alloc@V?$allocator@D@std@@@std@@V?$_String_val@U?$_Simple_types@D@std@@@2@$00@std@@QAE@XZ PROC ; std::_Compressed_pair<std::_Wrap_alloc<std::allocator<char> >,std::_String_val<std::_Simple_types<char> >,1>::~_Compressed_pair<std::_Wrap_alloc<std::allocator<char> >,std::_String_val<std::_Simple_types<char> >,1>, COMDAT
; _this$ = ecx
	push	ebp
	mov	ebp, esp
	push	ecx
	mov	DWORD PTR [ebp-4], -858993460		; ccccccccH
	mov	DWORD PTR _this$[ebp], ecx
	mov	ecx, DWORD PTR _this$[ebp]
	call	??1?$_String_val@U?$_Simple_types@D@std@@@std@@QAE@XZ
	add	esp, 4
	cmp	ebp, esp
	call	__RTC_CheckEsp
	mov	esp, ebp
	pop	ebp
	ret	0
??1?$_Compressed_pair@U?$_Wrap_alloc@V?$allocator@D@std@@@std@@V?$_String_val@U?$_Simple_types@D@std@@@2@$00@std@@QAE@XZ ENDP ; std::_Compressed_pair<std::_Wrap_alloc<std::allocator<char> >,std::_String_val<std::_Simple_types<char> >,1>::~_Compressed_pair<std::_Wrap_alloc<std::allocator<char> >,std::_String_val<std::_Simple_types<char> >,1>
_TEXT	ENDS
; Function compile flags: /Odtp /RTCsu
; File c:\program files (x86)\microsoft visual studio 14.0\vc\include\xutility
;	COMDAT ?_Get_second@?$_Compressed_pair@U?$_Wrap_alloc@V?$allocator@D@std@@@std@@V?$_String_val@U?$_Simple_types@D@std@@@2@$00@std@@QBEABV?$_String_val@U?$_Simple_types@D@std@@@2@XZ
_TEXT	SEGMENT
_this$ = -4						; size = 4
?_Get_second@?$_Compressed_pair@U?$_Wrap_alloc@V?$allocator@D@std@@@std@@V?$_String_val@U?$_Simple_types@D@std@@@2@$00@std@@QBEABV?$_String_val@U?$_Simple_types@D@std@@@2@XZ PROC ; std::_Compressed_pair<std::_Wrap_alloc<std::allocator<char> >,std::_String_val<std::_Simple_types<char> >,1>::_Get_second, COMDAT
; _this$ = ecx

; 319  : 		{	// return const reference to second

	push	ebp
	mov	ebp, esp
	push	ecx
	mov	DWORD PTR [ebp-4], -858993460		; ccccccccH
	mov	DWORD PTR _this$[ebp], ecx

; 320  : 		return (_Myval2);

	mov	eax, DWORD PTR _this$[ebp]

; 321  : 		}

	mov	esp, ebp
	pop	ebp
	ret	0
?_Get_second@?$_Compressed_pair@U?$_Wrap_alloc@V?$allocator@D@std@@@std@@V?$_String_val@U?$_Simple_types@D@std@@@2@$00@std@@QBEABV?$_String_val@U?$_Simple_types@D@std@@@2@XZ ENDP ; std::_Compressed_pair<std::_Wrap_alloc<std::allocator<char> >,std::_String_val<std::_Simple_types<char> >,1>::_Get_second
_TEXT	ENDS
; Function compile flags: /Odtp /RTCsu
; File c:\program files (x86)\microsoft visual studio 14.0\vc\include\xutility
;	COMDAT ?_Get_second@?$_Compressed_pair@U?$_Wrap_alloc@V?$allocator@D@std@@@std@@V?$_String_val@U?$_Simple_types@D@std@@@2@$00@std@@QAEAAV?$_String_val@U?$_Simple_types@D@std@@@2@XZ
_TEXT	SEGMENT
_this$ = -4						; size = 4
?_Get_second@?$_Compressed_pair@U?$_Wrap_alloc@V?$allocator@D@std@@@std@@V?$_String_val@U?$_Simple_types@D@std@@@2@$00@std@@QAEAAV?$_String_val@U?$_Simple_types@D@std@@@2@XZ PROC ; std::_Compressed_pair<std::_Wrap_alloc<std::allocator<char> >,std::_String_val<std::_Simple_types<char> >,1>::_Get_second, COMDAT
; _this$ = ecx

; 314  : 		{	// return reference to second

	push	ebp
	mov	ebp, esp
	push	ecx
	mov	DWORD PTR [ebp-4], -858993460		; ccccccccH
	mov	DWORD PTR _this$[ebp], ecx

; 315  : 		return (_Myval2);

	mov	eax, DWORD PTR _this$[ebp]

; 316  : 		}

	mov	esp, ebp
	pop	ebp
	ret	0
?_Get_second@?$_Compressed_pair@U?$_Wrap_alloc@V?$allocator@D@std@@@std@@V?$_String_val@U?$_Simple_types@D@std@@@2@$00@std@@QAEAAV?$_String_val@U?$_Simple_types@D@std@@@2@XZ ENDP ; std::_Compressed_pair<std::_Wrap_alloc<std::allocator<char> >,std::_String_val<std::_Simple_types<char> >,1>::_Get_second
_TEXT	ENDS
; Function compile flags: /Odtp /RTCsu
; File c:\program files (x86)\microsoft visual studio 14.0\vc\include\xutility
;	COMDAT ?_Get_first@?$_Compressed_pair@U?$_Wrap_alloc@V?$allocator@D@std@@@std@@V?$_String_val@U?$_Simple_types@D@std@@@2@$00@std@@QBEABU?$_Wrap_alloc@V?$allocator@D@std@@@2@XZ
_TEXT	SEGMENT
_this$ = -4						; size = 4
?_Get_first@?$_Compressed_pair@U?$_Wrap_alloc@V?$allocator@D@std@@@std@@V?$_String_val@U?$_Simple_types@D@std@@@2@$00@std@@QBEABU?$_Wrap_alloc@V?$allocator@D@std@@@2@XZ PROC ; std::_Compressed_pair<std::_Wrap_alloc<std::allocator<char> >,std::_String_val<std::_Simple_types<char> >,1>::_Get_first, COMDAT
; _this$ = ecx

; 299  : 		{	// return const reference to first

	push	ebp
	mov	ebp, esp
	push	ecx
	mov	DWORD PTR [ebp-4], -858993460		; ccccccccH
	mov	DWORD PTR _this$[ebp], ecx

; 300  : 		return (*this);

	mov	eax, DWORD PTR _this$[ebp]

; 301  : 		}

	mov	esp, ebp
	pop	ebp
	ret	0
?_Get_first@?$_Compressed_pair@U?$_Wrap_alloc@V?$allocator@D@std@@@std@@V?$_String_val@U?$_Simple_types@D@std@@@2@$00@std@@QBEABU?$_Wrap_alloc@V?$allocator@D@std@@@2@XZ ENDP ; std::_Compressed_pair<std::_Wrap_alloc<std::allocator<char> >,std::_String_val<std::_Simple_types<char> >,1>::_Get_first
_TEXT	ENDS
; Function compile flags: /Odtp /RTCsu
; File c:\program files (x86)\microsoft visual studio 14.0\vc\include\xutility
;	COMDAT ?_Get_first@?$_Compressed_pair@U?$_Wrap_alloc@V?$allocator@D@std@@@std@@V?$_String_val@U?$_Simple_types@D@std@@@2@$00@std@@QAEAAU?$_Wrap_alloc@V?$allocator@D@std@@@2@XZ
_TEXT	SEGMENT
_this$ = -4						; size = 4
?_Get_first@?$_Compressed_pair@U?$_Wrap_alloc@V?$allocator@D@std@@@std@@V?$_String_val@U?$_Simple_types@D@std@@@2@$00@std@@QAEAAU?$_Wrap_alloc@V?$allocator@D@std@@@2@XZ PROC ; std::_Compressed_pair<std::_Wrap_alloc<std::allocator<char> >,std::_String_val<std::_Simple_types<char> >,1>::_Get_first, COMDAT
; _this$ = ecx

; 294  : 		{	// return reference to first

	push	ebp
	mov	ebp, esp
	push	ecx
	mov	DWORD PTR [ebp-4], -858993460		; ccccccccH
	mov	DWORD PTR _this$[ebp], ecx

; 295  : 		return (*this);

	mov	eax, DWORD PTR _this$[ebp]

; 296  : 		}

	mov	esp, ebp
	pop	ebp
	ret	0
?_Get_first@?$_Compressed_pair@U?$_Wrap_alloc@V?$allocator@D@std@@@std@@V?$_String_val@U?$_Simple_types@D@std@@@2@$00@std@@QAEAAU?$_Wrap_alloc@V?$allocator@D@std@@@2@XZ ENDP ; std::_Compressed_pair<std::_Wrap_alloc<std::allocator<char> >,std::_String_val<std::_Simple_types<char> >,1>::_Get_first
_TEXT	ENDS
; Function compile flags: /Odtp /RTCsu
; File c:\program files (x86)\microsoft visual studio 14.0\vc\include\xstring
;	COMDAT ?_Myres@?$_String_alloc@U?$_String_base_types@DV?$allocator@D@std@@@std@@@std@@QAEAAIXZ
_TEXT	SEGMENT
_this$ = -4						; size = 4
?_Myres@?$_String_alloc@U?$_String_base_types@DV?$allocator@D@std@@@std@@@std@@QAEAAIXZ PROC ; std::_String_alloc<std::_String_base_types<char,std::allocator<char> > >::_Myres, COMDAT
; _this$ = ecx

; 733  : 		{	// return reference to _Myres

	push	ebp
	mov	ebp, esp
	push	ecx
	mov	DWORD PTR [ebp-4], -858993460		; ccccccccH
	mov	DWORD PTR _this$[ebp], ecx

; 734  : 		return (_Get_data()._Myres);

	mov	ecx, DWORD PTR _this$[ebp]
	call	?_Get_data@?$_String_alloc@U?$_String_base_types@DV?$allocator@D@std@@@std@@@std@@QAEAAV?$_String_val@U?$_Simple_types@D@std@@@2@XZ ; std::_String_alloc<std::_String_base_types<char,std::allocator<char> > >::_Get_data
	add	eax, 24					; 00000018H

; 735  : 		}

	add	esp, 4
	cmp	ebp, esp
	call	__RTC_CheckEsp
	mov	esp, ebp
	pop	ebp
	ret	0
?_Myres@?$_String_alloc@U?$_String_base_types@DV?$allocator@D@std@@@std@@@std@@QAEAAIXZ ENDP ; std::_String_alloc<std::_String_base_types<char,std::allocator<char> > >::_Myres
_TEXT	ENDS
; Function compile flags: /Odtp /RTCsu
; File c:\program files (x86)\microsoft visual studio 14.0\vc\include\xstring
;	COMDAT ?_Mysize@?$_String_alloc@U?$_String_base_types@DV?$allocator@D@std@@@std@@@std@@QBEABIXZ
_TEXT	SEGMENT
_this$ = -4						; size = 4
?_Mysize@?$_String_alloc@U?$_String_base_types@DV?$allocator@D@std@@@std@@@std@@QBEABIXZ PROC ; std::_String_alloc<std::_String_base_types<char,std::allocator<char> > >::_Mysize, COMDAT
; _this$ = ecx

; 728  : 		{	// return const reference to _Mysize

	push	ebp
	mov	ebp, esp
	push	ecx
	mov	DWORD PTR [ebp-4], -858993460		; ccccccccH
	mov	DWORD PTR _this$[ebp], ecx

; 729  : 		return (_Get_data()._Mysize);

	mov	ecx, DWORD PTR _this$[ebp]
	call	?_Get_data@?$_String_alloc@U?$_String_base_types@DV?$allocator@D@std@@@std@@@std@@QBEABV?$_String_val@U?$_Simple_types@D@std@@@2@XZ ; std::_String_alloc<std::_String_base_types<char,std::allocator<char> > >::_Get_data
	add	eax, 20					; 00000014H

; 730  : 		}

	add	esp, 4
	cmp	ebp, esp
	call	__RTC_CheckEsp
	mov	esp, ebp
	pop	ebp
	ret	0
?_Mysize@?$_String_alloc@U?$_String_base_types@DV?$allocator@D@std@@@std@@@std@@QBEABIXZ ENDP ; std::_String_alloc<std::_String_base_types<char,std::allocator<char> > >::_Mysize
_TEXT	ENDS
; Function compile flags: /Odtp /RTCsu
; File c:\program files (x86)\microsoft visual studio 14.0\vc\include\xstring
;	COMDAT ?_Mysize@?$_String_alloc@U?$_String_base_types@DV?$allocator@D@std@@@std@@@std@@QAEAAIXZ
_TEXT	SEGMENT
_this$ = -4						; size = 4
?_Mysize@?$_String_alloc@U?$_String_base_types@DV?$allocator@D@std@@@std@@@std@@QAEAAIXZ PROC ; std::_String_alloc<std::_String_base_types<char,std::allocator<char> > >::_Mysize, COMDAT
; _this$ = ecx

; 723  : 		{	// return reference to _Mysize

	push	ebp
	mov	ebp, esp
	push	ecx
	mov	DWORD PTR [ebp-4], -858993460		; ccccccccH
	mov	DWORD PTR _this$[ebp], ecx

; 724  : 		return (_Get_data()._Mysize);

	mov	ecx, DWORD PTR _this$[ebp]
	call	?_Get_data@?$_String_alloc@U?$_String_base_types@DV?$allocator@D@std@@@std@@@std@@QAEAAV?$_String_val@U?$_Simple_types@D@std@@@2@XZ ; std::_String_alloc<std::_String_base_types<char,std::allocator<char> > >::_Get_data
	add	eax, 20					; 00000014H

; 725  : 		}

	add	esp, 4
	cmp	ebp, esp
	call	__RTC_CheckEsp
	mov	esp, ebp
	pop	ebp
	ret	0
?_Mysize@?$_String_alloc@U?$_String_base_types@DV?$allocator@D@std@@@std@@@std@@QAEAAIXZ ENDP ; std::_String_alloc<std::_String_base_types<char,std::allocator<char> > >::_Mysize
_TEXT	ENDS
; Function compile flags: /Odtp /RTCsu
; File c:\program files (x86)\microsoft visual studio 14.0\vc\include\xstring
;	COMDAT ?_Bx@?$_String_alloc@U?$_String_base_types@DV?$allocator@D@std@@@std@@@std@@QAEAAT_Bxty@?$_String_val@U?$_Simple_types@D@std@@@2@XZ
_TEXT	SEGMENT
_this$ = -4						; size = 4
?_Bx@?$_String_alloc@U?$_String_base_types@DV?$allocator@D@std@@@std@@@std@@QAEAAT_Bxty@?$_String_val@U?$_Simple_types@D@std@@@2@XZ PROC ; std::_String_alloc<std::_String_base_types<char,std::allocator<char> > >::_Bx, COMDAT
; _this$ = ecx

; 713  : 		{	// return reference to _Bx

	push	ebp
	mov	ebp, esp
	push	ecx
	mov	DWORD PTR [ebp-4], -858993460		; ccccccccH
	mov	DWORD PTR _this$[ebp], ecx

; 714  : 		return (_Get_data()._Bx);

	mov	ecx, DWORD PTR _this$[ebp]
	call	?_Get_data@?$_String_alloc@U?$_String_base_types@DV?$allocator@D@std@@@std@@@std@@QAEAAV?$_String_val@U?$_Simple_types@D@std@@@2@XZ ; std::_String_alloc<std::_String_base_types<char,std::allocator<char> > >::_Get_data
	add	eax, 4

; 715  : 		}

	add	esp, 4
	cmp	ebp, esp
	call	__RTC_CheckEsp
	mov	esp, ebp
	pop	ebp
	ret	0
?_Bx@?$_String_alloc@U?$_String_base_types@DV?$allocator@D@std@@@std@@@std@@QAEAAT_Bxty@?$_String_val@U?$_Simple_types@D@std@@@2@XZ ENDP ; std::_String_alloc<std::_String_base_types<char,std::allocator<char> > >::_Bx
_TEXT	ENDS
; Function compile flags: /Odtp /RTCsu
; File c:\program files (x86)\microsoft visual studio 14.0\vc\include\xstring
;	COMDAT ?_Get_data@?$_String_alloc@U?$_String_base_types@DV?$allocator@D@std@@@std@@@std@@QBEABV?$_String_val@U?$_Simple_types@D@std@@@2@XZ
_TEXT	SEGMENT
_this$ = -4						; size = 4
?_Get_data@?$_String_alloc@U?$_String_base_types@DV?$allocator@D@std@@@std@@@std@@QBEABV?$_String_val@U?$_Simple_types@D@std@@@2@XZ PROC ; std::_String_alloc<std::_String_base_types<char,std::allocator<char> > >::_Get_data, COMDAT
; _this$ = ecx

; 706  : 		{	// return const reference to _String_val

	push	ebp
	mov	ebp, esp
	push	ecx
	mov	DWORD PTR [ebp-4], -858993460		; ccccccccH
	mov	DWORD PTR _this$[ebp], ecx

; 707  : 		return (_Mypair._Get_second());

	mov	ecx, DWORD PTR _this$[ebp]
	call	?_Get_second@?$_Compressed_pair@U?$_Wrap_alloc@V?$allocator@D@std@@@std@@V?$_String_val@U?$_Simple_types@D@std@@@2@$00@std@@QBEABV?$_String_val@U?$_Simple_types@D@std@@@2@XZ ; std::_Compressed_pair<std::_Wrap_alloc<std::allocator<char> >,std::_String_val<std::_Simple_types<char> >,1>::_Get_second

; 708  : 		}

	add	esp, 4
	cmp	ebp, esp
	call	__RTC_CheckEsp
	mov	esp, ebp
	pop	ebp
	ret	0
?_Get_data@?$_String_alloc@U?$_String_base_types@DV?$allocator@D@std@@@std@@@std@@QBEABV?$_String_val@U?$_Simple_types@D@std@@@2@XZ ENDP ; std::_String_alloc<std::_String_base_types<char,std::allocator<char> > >::_Get_data
_TEXT	ENDS
; Function compile flags: /Odtp /RTCsu
; File c:\program files (x86)\microsoft visual studio 14.0\vc\include\xstring
;	COMDAT ?_Get_data@?$_String_alloc@U?$_String_base_types@DV?$allocator@D@std@@@std@@@std@@QAEAAV?$_String_val@U?$_Simple_types@D@std@@@2@XZ
_TEXT	SEGMENT
_this$ = -4						; size = 4
?_Get_data@?$_String_alloc@U?$_String_base_types@DV?$allocator@D@std@@@std@@@std@@QAEAAV?$_String_val@U?$_Simple_types@D@std@@@2@XZ PROC ; std::_String_alloc<std::_String_base_types<char,std::allocator<char> > >::_Get_data, COMDAT
; _this$ = ecx

; 701  : 		{	// return reference to _String_val

	push	ebp
	mov	ebp, esp
	push	ecx
	mov	DWORD PTR [ebp-4], -858993460		; ccccccccH
	mov	DWORD PTR _this$[ebp], ecx

; 702  : 		return (_Mypair._Get_second());

	mov	ecx, DWORD PTR _this$[ebp]
	call	?_Get_second@?$_Compressed_pair@U?$_Wrap_alloc@V?$allocator@D@std@@@std@@V?$_String_val@U?$_Simple_types@D@std@@@2@$00@std@@QAEAAV?$_String_val@U?$_Simple_types@D@std@@@2@XZ ; std::_Compressed_pair<std::_Wrap_alloc<std::allocator<char> >,std::_String_val<std::_Simple_types<char> >,1>::_Get_second

; 703  : 		}

	add	esp, 4
	cmp	ebp, esp
	call	__RTC_CheckEsp
	mov	esp, ebp
	pop	ebp
	ret	0
?_Get_data@?$_String_alloc@U?$_String_base_types@DV?$allocator@D@std@@@std@@@std@@QAEAAV?$_String_val@U?$_Simple_types@D@std@@@2@XZ ENDP ; std::_String_alloc<std::_String_base_types<char,std::allocator<char> > >::_Get_data
_TEXT	ENDS
; Function compile flags: /Odtp /RTCsu
; File c:\program files (x86)\microsoft visual studio 14.0\vc\include\xstring
;	COMDAT ?_Getal@?$_String_alloc@U?$_String_base_types@DV?$allocator@D@std@@@std@@@std@@QBEABU?$_Wrap_alloc@V?$allocator@D@std@@@2@XZ
_TEXT	SEGMENT
_this$ = -4						; size = 4
?_Getal@?$_String_alloc@U?$_String_base_types@DV?$allocator@D@std@@@std@@@std@@QBEABU?$_Wrap_alloc@V?$allocator@D@std@@@2@XZ PROC ; std::_String_alloc<std::_String_base_types<char,std::allocator<char> > >::_Getal, COMDAT
; _this$ = ecx

; 696  : 		{	// return const reference to allocator

	push	ebp
	mov	ebp, esp
	push	ecx
	mov	DWORD PTR [ebp-4], -858993460		; ccccccccH
	mov	DWORD PTR _this$[ebp], ecx

; 697  : 		return (_Mypair._Get_first());

	mov	ecx, DWORD PTR _this$[ebp]
	call	?_Get_first@?$_Compressed_pair@U?$_Wrap_alloc@V?$allocator@D@std@@@std@@V?$_String_val@U?$_Simple_types@D@std@@@2@$00@std@@QBEABU?$_Wrap_alloc@V?$allocator@D@std@@@2@XZ ; std::_Compressed_pair<std::_Wrap_alloc<std::allocator<char> >,std::_String_val<std::_Simple_types<char> >,1>::_Get_first

; 698  : 		}

	add	esp, 4
	cmp	ebp, esp
	call	__RTC_CheckEsp
	mov	esp, ebp
	pop	ebp
	ret	0
?_Getal@?$_String_alloc@U?$_String_base_types@DV?$allocator@D@std@@@std@@@std@@QBEABU?$_Wrap_alloc@V?$allocator@D@std@@@2@XZ ENDP ; std::_String_alloc<std::_String_base_types<char,std::allocator<char> > >::_Getal
_TEXT	ENDS
; Function compile flags: /Odtp /RTCsu
; File c:\program files (x86)\microsoft visual studio 14.0\vc\include\xstring
;	COMDAT ?_Getal@?$_String_alloc@U?$_String_base_types@DV?$allocator@D@std@@@std@@@std@@QAEAAU?$_Wrap_alloc@V?$allocator@D@std@@@2@XZ
_TEXT	SEGMENT
_this$ = -4						; size = 4
?_Getal@?$_String_alloc@U?$_String_base_types@DV?$allocator@D@std@@@std@@@std@@QAEAAU?$_Wrap_alloc@V?$allocator@D@std@@@2@XZ PROC ; std::_String_alloc<std::_String_base_types<char,std::allocator<char> > >::_Getal, COMDAT
; _this$ = ecx

; 691  : 		{	// return reference to allocator

	push	ebp
	mov	ebp, esp
	push	ecx
	mov	DWORD PTR [ebp-4], -858993460		; ccccccccH
	mov	DWORD PTR _this$[ebp], ecx

; 692  : 		return (_Mypair._Get_first());

	mov	ecx, DWORD PTR _this$[ebp]
	call	?_Get_first@?$_Compressed_pair@U?$_Wrap_alloc@V?$allocator@D@std@@@std@@V?$_String_val@U?$_Simple_types@D@std@@@2@$00@std@@QAEAAU?$_Wrap_alloc@V?$allocator@D@std@@@2@XZ ; std::_Compressed_pair<std::_Wrap_alloc<std::allocator<char> >,std::_String_val<std::_Simple_types<char> >,1>::_Get_first

; 693  : 		}

	add	esp, 4
	cmp	ebp, esp
	call	__RTC_CheckEsp
	mov	esp, ebp
	pop	ebp
	ret	0
?_Getal@?$_String_alloc@U?$_String_base_types@DV?$allocator@D@std@@@std@@@std@@QAEAAU?$_Wrap_alloc@V?$allocator@D@std@@@2@XZ ENDP ; std::_String_alloc<std::_String_base_types<char,std::allocator<char> > >::_Getal
_TEXT	ENDS
; Function compile flags: /Odtp /RTCsu
; File c:\program files (x86)\microsoft visual studio 14.0\vc\include\xstring
;	COMDAT ?_Orphan_all@?$_String_alloc@U?$_String_base_types@DV?$allocator@D@std@@@std@@@std@@QAEXXZ
_TEXT	SEGMENT
_this$ = -4						; size = 4
?_Orphan_all@?$_String_alloc@U?$_String_base_types@DV?$allocator@D@std@@@std@@@std@@QAEXXZ PROC ; std::_String_alloc<std::_String_base_types<char,std::allocator<char> > >::_Orphan_all, COMDAT
; _this$ = ecx

; 681  : 		{	// orphan all iterators

	push	ebp
	mov	ebp, esp
	push	ecx
	mov	DWORD PTR [ebp-4], -858993460		; ccccccccH
	mov	DWORD PTR _this$[ebp], ecx

; 682  : 		_Get_data()._Orphan_all();

	mov	ecx, DWORD PTR _this$[ebp]
	call	?_Get_data@?$_String_alloc@U?$_String_base_types@DV?$allocator@D@std@@@std@@@std@@QAEAAV?$_String_val@U?$_Simple_types@D@std@@@2@XZ ; std::_String_alloc<std::_String_base_types<char,std::allocator<char> > >::_Get_data
	mov	ecx, eax
	call	?_Orphan_all@_Container_base12@std@@QAEXXZ ; std::_Container_base12::_Orphan_all

; 683  : 		}

	add	esp, 4
	cmp	ebp, esp
	call	__RTC_CheckEsp
	mov	esp, ebp
	pop	ebp
	ret	0
?_Orphan_all@?$_String_alloc@U?$_String_base_types@DV?$allocator@D@std@@@std@@@std@@QAEXXZ ENDP ; std::_String_alloc<std::_String_base_types<char,std::allocator<char> > >::_Orphan_all
_TEXT	ENDS
; Function compile flags: /Odtp /RTCsu
; File c:\program files (x86)\microsoft visual studio 14.0\vc\include\xstring
;	COMDAT ?_Myproxy@?$_String_alloc@U?$_String_base_types@DV?$allocator@D@std@@@std@@@std@@QAEAAPAU_Container_proxy@2@XZ
_TEXT	SEGMENT
_this$ = -4						; size = 4
?_Myproxy@?$_String_alloc@U?$_String_base_types@DV?$allocator@D@std@@@std@@@std@@QAEAAPAU_Container_proxy@2@XZ PROC ; std::_String_alloc<std::_String_base_types<char,std::allocator<char> > >::_Myproxy, COMDAT
; _this$ = ecx

; 670  : 		{	// return reference to _Myproxy

	push	ebp
	mov	ebp, esp
	push	ecx
	mov	DWORD PTR [ebp-4], -858993460		; ccccccccH
	mov	DWORD PTR _this$[ebp], ecx

; 671  : 		return (_Get_data()._Myproxy);

	mov	ecx, DWORD PTR _this$[ebp]
	call	?_Get_data@?$_String_alloc@U?$_String_base_types@DV?$allocator@D@std@@@std@@@std@@QAEAAV?$_String_val@U?$_Simple_types@D@std@@@2@XZ ; std::_String_alloc<std::_String_base_types<char,std::allocator<char> > >::_Get_data

; 672  : 		}

	add	esp, 4
	cmp	ebp, esp
	call	__RTC_CheckEsp
	mov	esp, ebp
	pop	ebp
	ret	0
?_Myproxy@?$_String_alloc@U?$_String_base_types@DV?$allocator@D@std@@@std@@@std@@QAEAAPAU_Container_proxy@2@XZ ENDP ; std::_String_alloc<std::_String_base_types<char,std::allocator<char> > >::_Myproxy
_TEXT	ENDS
; Function compile flags: /Odtp /RTCsu
; File c:\program files (x86)\microsoft visual studio 14.0\vc\include\xstring
;	COMDAT ?_Free_proxy@?$_String_alloc@U?$_String_base_types@DV?$allocator@D@std@@@std@@@std@@QAEXXZ
_TEXT	SEGMENT
__Alproxy$ = -9						; size = 1
_this$ = -4						; size = 4
?_Free_proxy@?$_String_alloc@U?$_String_base_types@DV?$allocator@D@std@@@std@@@std@@QAEXXZ PROC ; std::_String_alloc<std::_String_base_types<char,std::allocator<char> > >::_Free_proxy, COMDAT
; _this$ = ecx

; 655  : 		{	// destroy proxy

	push	ebp
	mov	ebp, esp
	sub	esp, 16					; 00000010H
	mov	eax, -858993460				; ccccccccH
	mov	DWORD PTR [ebp-16], eax
	mov	DWORD PTR [ebp-12], eax
	mov	DWORD PTR [ebp-8], eax
	mov	DWORD PTR [ebp-4], eax
	mov	DWORD PTR _this$[ebp], ecx

; 656  : 		typename _Alty::template rebind<_Container_proxy>::other
; 657  : 			_Alproxy(_Getal());

	mov	ecx, DWORD PTR _this$[ebp]
	call	?_Getal@?$_String_alloc@U?$_String_base_types@DV?$allocator@D@std@@@std@@@std@@QAEAAU?$_Wrap_alloc@V?$allocator@D@std@@@2@XZ ; std::_String_alloc<std::_String_base_types<char,std::allocator<char> > >::_Getal
	push	eax
	lea	ecx, DWORD PTR __Alproxy$[ebp]
	call	??$?0AAU?$_Wrap_alloc@V?$allocator@D@std@@@std@@@?$_Wrap_alloc@V?$allocator@U_Container_proxy@std@@@std@@@std@@QAE@AAU?$_Wrap_alloc@V?$allocator@D@std@@@1@@Z ; std::_Wrap_alloc<std::allocator<std::_Container_proxy> >::_Wrap_alloc<std::allocator<std::_Container_proxy> ><std::_Wrap_alloc<std::allocator<char> > &>

; 658  : 		_Orphan_all();

	mov	ecx, DWORD PTR _this$[ebp]
	call	?_Orphan_all@?$_String_alloc@U?$_String_base_types@DV?$allocator@D@std@@@std@@@std@@QAEXXZ ; std::_String_alloc<std::_String_base_types<char,std::allocator<char> > >::_Orphan_all

; 659  : 		_Alproxy.destroy(_Myproxy());

	mov	ecx, DWORD PTR _this$[ebp]
	call	?_Myproxy@?$_String_alloc@U?$_String_base_types@DV?$allocator@D@std@@@std@@@std@@QAEAAPAU_Container_proxy@2@XZ ; std::_String_alloc<std::_String_base_types<char,std::allocator<char> > >::_Myproxy
	mov	eax, DWORD PTR [eax]
	push	eax
	lea	ecx, DWORD PTR __Alproxy$[ebp]
	call	??$destroy@U_Container_proxy@std@@@?$_Wrap_alloc@V?$allocator@U_Container_proxy@std@@@std@@@std@@QAEXPAU_Container_proxy@1@@Z ; std::_Wrap_alloc<std::allocator<std::_Container_proxy> >::destroy<std::_Container_proxy>

; 660  : 		_Alproxy.deallocate(_Alproxy.address(*_Myproxy()), 1);

	push	1
	mov	ecx, DWORD PTR _this$[ebp]
	call	?_Myproxy@?$_String_alloc@U?$_String_base_types@DV?$allocator@D@std@@@std@@@std@@QAEAAPAU_Container_proxy@2@XZ ; std::_String_alloc<std::_String_base_types<char,std::allocator<char> > >::_Myproxy
	mov	ecx, DWORD PTR [eax]
	push	ecx
	lea	ecx, DWORD PTR __Alproxy$[ebp]
	call	?address@?$_Wrap_alloc@V?$allocator@U_Container_proxy@std@@@std@@@std@@QBEPAU_Container_proxy@2@AAU32@@Z ; std::_Wrap_alloc<std::allocator<std::_Container_proxy> >::address
	push	eax
	lea	ecx, DWORD PTR __Alproxy$[ebp]
	call	?deallocate@?$_Wrap_alloc@V?$allocator@U_Container_proxy@std@@@std@@@std@@QAEXPAU_Container_proxy@2@I@Z ; std::_Wrap_alloc<std::allocator<std::_Container_proxy> >::deallocate

; 661  : 		_Myproxy() = 0;

	mov	ecx, DWORD PTR _this$[ebp]
	call	?_Myproxy@?$_String_alloc@U?$_String_base_types@DV?$allocator@D@std@@@std@@@std@@QAEAAPAU_Container_proxy@2@XZ ; std::_String_alloc<std::_String_base_types<char,std::allocator<char> > >::_Myproxy
	mov	DWORD PTR [eax], 0

; 662  : 		}

	push	edx
	mov	ecx, ebp
	push	eax
	lea	edx, DWORD PTR $LN5@Free_proxy
	call	@_RTC_CheckStackVars@8
	pop	eax
	pop	edx
	add	esp, 16					; 00000010H
	cmp	ebp, esp
	call	__RTC_CheckEsp
	mov	esp, ebp
	pop	ebp
	ret	0
	npad	3
$LN5@Free_proxy:
	DD	1
	DD	$LN4@Free_proxy
$LN4@Free_proxy:
	DD	-9					; fffffff7H
	DD	1
	DD	$LN3@Free_proxy
$LN3@Free_proxy:
	DB	95					; 0000005fH
	DB	65					; 00000041H
	DB	108					; 0000006cH
	DB	112					; 00000070H
	DB	114					; 00000072H
	DB	111					; 0000006fH
	DB	120					; 00000078H
	DB	121					; 00000079H
	DB	0
?_Free_proxy@?$_String_alloc@U?$_String_base_types@DV?$allocator@D@std@@@std@@@std@@QAEXXZ ENDP ; std::_String_alloc<std::_String_base_types<char,std::allocator<char> > >::_Free_proxy
_TEXT	ENDS
; Function compile flags: /Odtp /RTCsu
; File c:\program files (x86)\microsoft visual studio 14.0\vc\include\xstring
;	COMDAT ?_Alloc_proxy@?$_String_alloc@U?$_String_base_types@DV?$allocator@D@std@@@std@@@std@@QAEXXZ
_TEXT	SEGMENT
$T1 = -24						; size = 8
__Alproxy$ = -9						; size = 1
_this$ = -4						; size = 4
?_Alloc_proxy@?$_String_alloc@U?$_String_base_types@DV?$allocator@D@std@@@std@@@std@@QAEXXZ PROC ; std::_String_alloc<std::_String_base_types<char,std::allocator<char> > >::_Alloc_proxy, COMDAT
; _this$ = ecx

; 646  : 		{	// construct proxy

	push	ebp
	mov	ebp, esp
	sub	esp, 24					; 00000018H
	push	esi
	mov	eax, -858993460				; ccccccccH
	mov	DWORD PTR [ebp-24], eax
	mov	DWORD PTR [ebp-20], eax
	mov	DWORD PTR [ebp-16], eax
	mov	DWORD PTR [ebp-12], eax
	mov	DWORD PTR [ebp-8], eax
	mov	DWORD PTR [ebp-4], eax
	mov	DWORD PTR _this$[ebp], ecx

; 647  : 		typename _Alty::template rebind<_Container_proxy>::other
; 648  : 			_Alproxy(_Getal());

	mov	ecx, DWORD PTR _this$[ebp]
	call	?_Getal@?$_String_alloc@U?$_String_base_types@DV?$allocator@D@std@@@std@@@std@@QAEAAU?$_Wrap_alloc@V?$allocator@D@std@@@2@XZ ; std::_String_alloc<std::_String_base_types<char,std::allocator<char> > >::_Getal
	push	eax
	lea	ecx, DWORD PTR __Alproxy$[ebp]
	call	??$?0AAU?$_Wrap_alloc@V?$allocator@D@std@@@std@@@?$_Wrap_alloc@V?$allocator@U_Container_proxy@std@@@std@@@std@@QAE@AAU?$_Wrap_alloc@V?$allocator@D@std@@@1@@Z ; std::_Wrap_alloc<std::allocator<std::_Container_proxy> >::_Wrap_alloc<std::allocator<std::_Container_proxy> ><std::_Wrap_alloc<std::allocator<char> > &>

; 649  : 		_Myproxy() = _Unfancy(_Alproxy.allocate(1));

	push	1
	lea	ecx, DWORD PTR __Alproxy$[ebp]
	call	?allocate@?$_Wrap_alloc@V?$allocator@U_Container_proxy@std@@@std@@@std@@QAEPAU_Container_proxy@2@I@Z ; std::_Wrap_alloc<std::allocator<std::_Container_proxy> >::allocate
	push	eax
	call	??$_Unfancy@U_Container_proxy@std@@@std@@YAPAU_Container_proxy@0@PAU10@@Z ; std::_Unfancy<std::_Container_proxy>
	add	esp, 4
	mov	esi, eax
	mov	ecx, DWORD PTR _this$[ebp]
	call	?_Myproxy@?$_String_alloc@U?$_String_base_types@DV?$allocator@D@std@@@std@@@std@@QAEAAPAU_Container_proxy@2@XZ ; std::_String_alloc<std::_String_base_types<char,std::allocator<char> > >::_Myproxy
	mov	DWORD PTR [eax], esi

; 650  : 		_Alproxy.construct(_Myproxy(), _Container_proxy());

	lea	ecx, DWORD PTR $T1[ebp]
	call	??0_Container_proxy@std@@QAE@XZ		; std::_Container_proxy::_Container_proxy
	push	eax
	mov	ecx, DWORD PTR _this$[ebp]
	call	?_Myproxy@?$_String_alloc@U?$_String_base_types@DV?$allocator@D@std@@@std@@@std@@QAEAAPAU_Container_proxy@2@XZ ; std::_String_alloc<std::_String_base_types<char,std::allocator<char> > >::_Myproxy
	mov	eax, DWORD PTR [eax]
	push	eax
	lea	ecx, DWORD PTR __Alproxy$[ebp]
	call	??$construct@U_Container_proxy@std@@U12@@?$_Wrap_alloc@V?$allocator@U_Container_proxy@std@@@std@@@std@@QAEXPAU_Container_proxy@1@$$QAU21@@Z ; std::_Wrap_alloc<std::allocator<std::_Container_proxy> >::construct<std::_Container_proxy,std::_Container_proxy>

; 651  : 		_Myproxy()->_Mycont = &_Get_data();

	mov	ecx, DWORD PTR _this$[ebp]
	call	?_Get_data@?$_String_alloc@U?$_String_base_types@DV?$allocator@D@std@@@std@@@std@@QAEAAV?$_String_val@U?$_Simple_types@D@std@@@2@XZ ; std::_String_alloc<std::_String_base_types<char,std::allocator<char> > >::_Get_data
	mov	esi, eax
	mov	ecx, DWORD PTR _this$[ebp]
	call	?_Myproxy@?$_String_alloc@U?$_String_base_types@DV?$allocator@D@std@@@std@@@std@@QAEAAPAU_Container_proxy@2@XZ ; std::_String_alloc<std::_String_base_types<char,std::allocator<char> > >::_Myproxy
	mov	ecx, DWORD PTR [eax]
	mov	DWORD PTR [ecx], esi

; 652  : 		}

	push	edx
	mov	ecx, ebp
	push	eax
	lea	edx, DWORD PTR $LN5@Alloc_prox
	call	@_RTC_CheckStackVars@8
	pop	eax
	pop	edx
	pop	esi
	add	esp, 24					; 00000018H
	cmp	ebp, esp
	call	__RTC_CheckEsp
	mov	esp, ebp
	pop	ebp
	ret	0
	npad	1
$LN5@Alloc_prox:
	DD	1
	DD	$LN4@Alloc_prox
$LN4@Alloc_prox:
	DD	-9					; fffffff7H
	DD	1
	DD	$LN3@Alloc_prox
$LN3@Alloc_prox:
	DB	95					; 0000005fH
	DB	65					; 00000041H
	DB	108					; 0000006cH
	DB	112					; 00000070H
	DB	114					; 00000072H
	DB	111					; 0000006fH
	DB	120					; 00000078H
	DB	121					; 00000079H
	DB	0
?_Alloc_proxy@?$_String_alloc@U?$_String_base_types@DV?$allocator@D@std@@@std@@@std@@QAEXXZ ENDP ; std::_String_alloc<std::_String_base_types<char,std::allocator<char> > >::_Alloc_proxy
_TEXT	ENDS
; Function compile flags: /Odtp /RTCsu
; File c:\program files (x86)\microsoft visual studio 14.0\vc\include\xstring
;	COMDAT ??1?$_String_alloc@U?$_String_base_types@DV?$allocator@D@std@@@std@@@std@@QAE@XZ
_TEXT	SEGMENT
_this$ = -16						; size = 4
__$EHRec$ = -12						; size = 12
??1?$_String_alloc@U?$_String_base_types@DV?$allocator@D@std@@@std@@@std@@QAE@XZ PROC ; std::_String_alloc<std::_String_base_types<char,std::allocator<char> > >::~_String_alloc<std::_String_base_types<char,std::allocator<char> > >, COMDAT
; _this$ = ecx

; 627  : 		{	// destroy the object

	push	ebp
	mov	ebp, esp
	push	-1
	push	__ehhandler$??1?$_String_alloc@U?$_String_base_types@DV?$allocator@D@std@@@std@@@std@@QAE@XZ
	mov	eax, DWORD PTR fs:0
	push	eax
	push	ecx
	mov	DWORD PTR [ebp-16], -858993460		; ccccccccH
	mov	eax, DWORD PTR ___security_cookie
	xor	eax, ebp
	push	eax
	lea	eax, DWORD PTR __$EHRec$[ebp]
	mov	DWORD PTR fs:0, eax
	mov	DWORD PTR _this$[ebp], ecx

; 628  : 		_Free_proxy();

	mov	ecx, DWORD PTR _this$[ebp]
	call	?_Free_proxy@?$_String_alloc@U?$_String_base_types@DV?$allocator@D@std@@@std@@@std@@QAEXXZ ; std::_String_alloc<std::_String_base_types<char,std::allocator<char> > >::_Free_proxy

; 629  : 		}

	mov	ecx, DWORD PTR _this$[ebp]
	call	??1?$_Compressed_pair@U?$_Wrap_alloc@V?$allocator@D@std@@@std@@V?$_String_val@U?$_Simple_types@D@std@@@2@$00@std@@QAE@XZ
	mov	ecx, DWORD PTR __$EHRec$[ebp]
	mov	DWORD PTR fs:0, ecx
	pop	ecx
	add	esp, 16					; 00000010H
	cmp	ebp, esp
	call	__RTC_CheckEsp
	mov	esp, ebp
	pop	ebp
	ret	0
_TEXT	ENDS
;	COMDAT text$x
text$x	SEGMENT
__ehhandler$??1?$_String_alloc@U?$_String_base_types@DV?$allocator@D@std@@@std@@@std@@QAE@XZ:
	mov	edx, DWORD PTR [esp+8]
	lea	eax, DWORD PTR [edx+12]
	mov	ecx, DWORD PTR [edx-8]
	xor	ecx, eax
	call	@__security_check_cookie@4
	mov	eax, OFFSET __ehfuncinfo$??1?$_String_alloc@U?$_String_base_types@DV?$allocator@D@std@@@std@@@std@@QAE@XZ
	jmp	___CxxFrameHandler3
text$x	ENDS
??1?$_String_alloc@U?$_String_base_types@DV?$allocator@D@std@@@std@@@std@@QAE@XZ ENDP ; std::_String_alloc<std::_String_base_types<char,std::allocator<char> > >::~_String_alloc<std::_String_base_types<char,std::allocator<char> > >
; Function compile flags: /Odtp /RTCsu
; File c:\program files (x86)\microsoft visual studio 14.0\vc\include\xstring
;	COMDAT ??0?$_String_alloc@U?$_String_base_types@DV?$allocator@D@std@@@std@@@std@@QAE@XZ
_TEXT	SEGMENT
$T2 = -17						; size = 1
_this$ = -16						; size = 4
__$EHRec$ = -12						; size = 12
??0?$_String_alloc@U?$_String_base_types@DV?$allocator@D@std@@@std@@@std@@QAE@XZ PROC ; std::_String_alloc<std::_String_base_types<char,std::allocator<char> > >::_String_alloc<std::_String_base_types<char,std::allocator<char> > >, COMDAT
; _this$ = ecx

; 613  : 		{	// default construct allocator

	push	ebp
	mov	ebp, esp
	push	-1
	push	__ehhandler$??0?$_String_alloc@U?$_String_base_types@DV?$allocator@D@std@@@std@@@std@@QAE@XZ
	mov	eax, DWORD PTR fs:0
	push	eax
	sub	esp, 8
	mov	DWORD PTR [ebp-20], -858993460		; ccccccccH
	mov	DWORD PTR [ebp-16], -858993460		; ccccccccH
	mov	eax, DWORD PTR ___security_cookie
	xor	eax, ebp
	push	eax
	lea	eax, DWORD PTR __$EHRec$[ebp]
	mov	DWORD PTR fs:0, eax
	mov	DWORD PTR _this$[ebp], ecx

; 612  : 		: _Mypair(_Zero_then_variadic_args_t())

	movzx	eax, BYTE PTR $T2[ebp]
	push	eax
	mov	ecx, DWORD PTR _this$[ebp]
	call	??$?0$$V@?$_Compressed_pair@U?$_Wrap_alloc@V?$allocator@D@std@@@std@@V?$_String_val@U?$_Simple_types@D@std@@@2@$00@std@@QAE@U_Zero_then_variadic_args_t@1@@Z ; std::_Compressed_pair<std::_Wrap_alloc<std::allocator<char> >,std::_String_val<std::_Simple_types<char> >,1>::_Compressed_pair<std::_Wrap_alloc<std::allocator<char> >,std::_String_val<std::_Simple_types<char> >,1><>
	mov	DWORD PTR __$EHRec$[ebp+8], 0

; 614  : 		_Alloc_proxy();

	mov	ecx, DWORD PTR _this$[ebp]
	call	?_Alloc_proxy@?$_String_alloc@U?$_String_base_types@DV?$allocator@D@std@@@std@@@std@@QAEXXZ ; std::_String_alloc<std::_String_base_types<char,std::allocator<char> > >::_Alloc_proxy

; 615  : 		}

	mov	DWORD PTR __$EHRec$[ebp+8], -1
	mov	eax, DWORD PTR _this$[ebp]
	mov	ecx, DWORD PTR __$EHRec$[ebp]
	mov	DWORD PTR fs:0, ecx
	pop	ecx
	add	esp, 20					; 00000014H
	cmp	ebp, esp
	call	__RTC_CheckEsp
	mov	esp, ebp
	pop	ebp
	ret	0
_TEXT	ENDS
;	COMDAT text$x
text$x	SEGMENT
__unwindfunclet$??0?$_String_alloc@U?$_String_base_types@DV?$allocator@D@std@@@std@@@std@@QAE@XZ$0:
	mov	ecx, DWORD PTR _this$[ebp]
	jmp	??1?$_Compressed_pair@U?$_Wrap_alloc@V?$allocator@D@std@@@std@@V?$_String_val@U?$_Simple_types@D@std@@@2@$00@std@@QAE@XZ
__ehhandler$??0?$_String_alloc@U?$_String_base_types@DV?$allocator@D@std@@@std@@@std@@QAE@XZ:
	mov	edx, DWORD PTR [esp+8]
	lea	eax, DWORD PTR [edx+12]
	mov	ecx, DWORD PTR [edx-12]
	xor	ecx, eax
	call	@__security_check_cookie@4
	mov	eax, OFFSET __ehfuncinfo$??0?$_String_alloc@U?$_String_base_types@DV?$allocator@D@std@@@std@@@std@@QAE@XZ
	jmp	___CxxFrameHandler3
text$x	ENDS
??0?$_String_alloc@U?$_String_base_types@DV?$allocator@D@std@@@std@@@std@@QAE@XZ ENDP ; std::_String_alloc<std::_String_base_types<char,std::allocator<char> > >::_String_alloc<std::_String_base_types<char,std::allocator<char> > >
; Function compile flags: /Odtp /RTCsu
; File c:\program files (x86)\microsoft visual studio 14.0\vc\include\xstring
;	COMDAT ?_Myptr@?$_String_alloc@U?$_String_base_types@DV?$allocator@D@std@@@std@@@std@@QBEPBDXZ
_TEXT	SEGMENT
_this$ = -4						; size = 4
?_Myptr@?$_String_alloc@U?$_String_base_types@DV?$allocator@D@std@@@std@@@std@@QBEPBDXZ PROC ; std::_String_alloc<std::_String_base_types<char,std::allocator<char> > >::_Myptr, COMDAT
; _this$ = ecx

; 582  : 		{	// determine current pointer to buffer for nonmutable string

	push	ebp
	mov	ebp, esp
	push	ecx
	mov	DWORD PTR [ebp-4], -858993460		; ccccccccH
	mov	DWORD PTR _this$[ebp], ecx

; 583  : 		return (_Get_data()._Myptr());

	mov	ecx, DWORD PTR _this$[ebp]
	call	?_Get_data@?$_String_alloc@U?$_String_base_types@DV?$allocator@D@std@@@std@@@std@@QBEABV?$_String_val@U?$_Simple_types@D@std@@@2@XZ ; std::_String_alloc<std::_String_base_types<char,std::allocator<char> > >::_Get_data
	mov	ecx, eax
	call	?_Myptr@?$_String_val@U?$_Simple_types@D@std@@@std@@QBEPBDXZ ; std::_String_val<std::_Simple_types<char> >::_Myptr

; 584  : 		}

	add	esp, 4
	cmp	ebp, esp
	call	__RTC_CheckEsp
	mov	esp, ebp
	pop	ebp
	ret	0
?_Myptr@?$_String_alloc@U?$_String_base_types@DV?$allocator@D@std@@@std@@@std@@QBEPBDXZ ENDP ; std::_String_alloc<std::_String_base_types<char,std::allocator<char> > >::_Myptr
_TEXT	ENDS
; Function compile flags: /Odtp /RTCsu
; File c:\program files (x86)\microsoft visual studio 14.0\vc\include\xstring
;	COMDAT ?_Myptr@?$_String_alloc@U?$_String_base_types@DV?$allocator@D@std@@@std@@@std@@QAEPADXZ
_TEXT	SEGMENT
_this$ = -4						; size = 4
?_Myptr@?$_String_alloc@U?$_String_base_types@DV?$allocator@D@std@@@std@@@std@@QAEPADXZ PROC ; std::_String_alloc<std::_String_base_types<char,std::allocator<char> > >::_Myptr, COMDAT
; _this$ = ecx

; 577  : 		{	// determine current pointer to buffer for mutable string

	push	ebp
	mov	ebp, esp
	push	ecx
	mov	DWORD PTR [ebp-4], -858993460		; ccccccccH
	mov	DWORD PTR _this$[ebp], ecx

; 578  : 		return (_Get_data()._Myptr());

	mov	ecx, DWORD PTR _this$[ebp]
	call	?_Get_data@?$_String_alloc@U?$_String_base_types@DV?$allocator@D@std@@@std@@@std@@QAEAAV?$_String_val@U?$_Simple_types@D@std@@@2@XZ ; std::_String_alloc<std::_String_base_types<char,std::allocator<char> > >::_Get_data
	mov	ecx, eax
	call	?_Myptr@?$_String_val@U?$_Simple_types@D@std@@@std@@QAEPADXZ ; std::_String_val<std::_Simple_types<char> >::_Myptr

; 579  : 		}

	add	esp, 4
	cmp	ebp, esp
	call	__RTC_CheckEsp
	mov	esp, ebp
	pop	ebp
	ret	0
?_Myptr@?$_String_alloc@U?$_String_base_types@DV?$allocator@D@std@@@std@@@std@@QAEPADXZ ENDP ; std::_String_alloc<std::_String_base_types<char,std::allocator<char> > >::_Myptr
_TEXT	ENDS
; Function compile flags: /Odtp /RTCsu
;	COMDAT ??1?$_String_val@U?$_Simple_types@D@std@@@std@@QAE@XZ
_TEXT	SEGMENT
_this$ = -4						; size = 4
??1?$_String_val@U?$_Simple_types@D@std@@@std@@QAE@XZ PROC ; std::_String_val<std::_Simple_types<char> >::~_String_val<std::_Simple_types<char> >, COMDAT
; _this$ = ecx
	push	ebp
	mov	ebp, esp
	push	ecx
	mov	DWORD PTR [ebp-4], -858993460		; ccccccccH
	mov	DWORD PTR _this$[ebp], ecx
	mov	ecx, DWORD PTR _this$[ebp]
	add	ecx, 4
	call	??1_Bxty@?$_String_val@U?$_Simple_types@D@std@@@std@@QAE@XZ ; std::_String_val<std::_Simple_types<char> >::_Bxty::~_Bxty
	mov	ecx, DWORD PTR _this$[ebp]
	call	??1_Container_base12@std@@QAE@XZ	; std::_Container_base12::~_Container_base12
	add	esp, 4
	cmp	ebp, esp
	call	__RTC_CheckEsp
	mov	esp, ebp
	pop	ebp
	ret	0
??1?$_String_val@U?$_Simple_types@D@std@@@std@@QAE@XZ ENDP ; std::_String_val<std::_Simple_types<char> >::~_String_val<std::_Simple_types<char> >
_TEXT	ENDS
; Function compile flags: /Odtp /RTCsu
; File c:\program files (x86)\microsoft visual studio 14.0\vc\include\xstring
;	COMDAT ??1_Bxty@?$_String_val@U?$_Simple_types@D@std@@@std@@QAE@XZ
_TEXT	SEGMENT
_this$ = -4						; size = 4
??1_Bxty@?$_String_val@U?$_Simple_types@D@std@@@std@@QAE@XZ PROC ; std::_String_val<std::_Simple_types<char> >::_Bxty::~_Bxty, COMDAT
; _this$ = ecx

; 533  : 			{	// user-provided, for fancy pointers

	push	ebp
	mov	ebp, esp
	push	ecx
	mov	DWORD PTR [ebp-4], -858993460		; ccccccccH
	mov	DWORD PTR _this$[ebp], ecx

; 534  : 			}

	mov	esp, ebp
	pop	ebp
	ret	0
??1_Bxty@?$_String_val@U?$_Simple_types@D@std@@@std@@QAE@XZ ENDP ; std::_String_val<std::_Simple_types<char> >::_Bxty::~_Bxty
_TEXT	ENDS
; Function compile flags: /Odtp /RTCsu
; File c:\program files (x86)\microsoft visual studio 14.0\vc\include\xstring
;	COMDAT ??0_Bxty@?$_String_val@U?$_Simple_types@D@std@@@std@@QAE@XZ
_TEXT	SEGMENT
_this$ = -4						; size = 4
??0_Bxty@?$_String_val@U?$_Simple_types@D@std@@@std@@QAE@XZ PROC ; std::_String_val<std::_Simple_types<char> >::_Bxty::_Bxty, COMDAT
; _this$ = ecx

; 528  : 		_Bxty()

	push	ebp
	mov	ebp, esp
	push	ecx
	mov	DWORD PTR [ebp-4], -858993460		; ccccccccH
	mov	DWORD PTR _this$[ebp], ecx

; 529  : 			{	// user-provided, for fancy pointers
; 530  : 			}

	mov	eax, DWORD PTR _this$[ebp]
	mov	esp, ebp
	pop	ebp
	ret	0
??0_Bxty@?$_String_val@U?$_Simple_types@D@std@@@std@@QAE@XZ ENDP ; std::_String_val<std::_Simple_types<char> >::_Bxty::_Bxty
_TEXT	ENDS
; Function compile flags: /Odtp /RTCsu
; File c:\program files (x86)\microsoft visual studio 14.0\vc\include\xstring
;	COMDAT ?_Myptr@?$_String_val@U?$_Simple_types@D@std@@@std@@QBEPBDXZ
_TEXT	SEGMENT
tv72 = -8						; size = 4
_this$ = -4						; size = 4
?_Myptr@?$_String_val@U?$_Simple_types@D@std@@@std@@QBEPBDXZ PROC ; std::_String_val<std::_Simple_types<char> >::_Myptr, COMDAT
; _this$ = ecx

; 520  : 		{	// determine current pointer to buffer for nonmutable string

	push	ebp
	mov	ebp, esp
	sub	esp, 8
	mov	DWORD PTR [ebp-8], -858993460		; ccccccccH
	mov	DWORD PTR [ebp-4], -858993460		; ccccccccH
	mov	DWORD PTR _this$[ebp], ecx

; 521  : 		return (this->_BUF_SIZE <= _Myres

	mov	eax, DWORD PTR _this$[ebp]
	cmp	DWORD PTR [eax+24], 16			; 00000010H
	jb	SHORT $LN3@Myptr
	mov	ecx, DWORD PTR _this$[ebp]
	mov	edx, DWORD PTR [ecx+4]
	push	edx
	call	??$_Unfancy@D@std@@YAPADPAD@Z		; std::_Unfancy<char>
	add	esp, 4
	mov	DWORD PTR tv72[ebp], eax
	jmp	SHORT $LN4@Myptr
$LN3@Myptr:
	mov	eax, DWORD PTR _this$[ebp]
	add	eax, 4
	mov	DWORD PTR tv72[ebp], eax
$LN4@Myptr:
	mov	eax, DWORD PTR tv72[ebp]

; 522  : 			? _Unfancy(_Bx._Ptr)
; 523  : 			: _Bx._Buf);
; 524  : 		}

	add	esp, 8
	cmp	ebp, esp
	call	__RTC_CheckEsp
	mov	esp, ebp
	pop	ebp
	ret	0
?_Myptr@?$_String_val@U?$_Simple_types@D@std@@@std@@QBEPBDXZ ENDP ; std::_String_val<std::_Simple_types<char> >::_Myptr
_TEXT	ENDS
; Function compile flags: /Odtp /RTCsu
; File c:\program files (x86)\microsoft visual studio 14.0\vc\include\xstring
;	COMDAT ?_Myptr@?$_String_val@U?$_Simple_types@D@std@@@std@@QAEPADXZ
_TEXT	SEGMENT
tv72 = -8						; size = 4
_this$ = -4						; size = 4
?_Myptr@?$_String_val@U?$_Simple_types@D@std@@@std@@QAEPADXZ PROC ; std::_String_val<std::_Simple_types<char> >::_Myptr, COMDAT
; _this$ = ecx

; 513  : 		{	// determine current pointer to buffer for mutable string

	push	ebp
	mov	ebp, esp
	sub	esp, 8
	mov	DWORD PTR [ebp-8], -858993460		; ccccccccH
	mov	DWORD PTR [ebp-4], -858993460		; ccccccccH
	mov	DWORD PTR _this$[ebp], ecx

; 514  : 		return (this->_BUF_SIZE <= _Myres

	mov	eax, DWORD PTR _this$[ebp]
	cmp	DWORD PTR [eax+24], 16			; 00000010H
	jb	SHORT $LN3@Myptr
	mov	ecx, DWORD PTR _this$[ebp]
	mov	edx, DWORD PTR [ecx+4]
	push	edx
	call	??$_Unfancy@D@std@@YAPADPAD@Z		; std::_Unfancy<char>
	add	esp, 4
	mov	DWORD PTR tv72[ebp], eax
	jmp	SHORT $LN4@Myptr
$LN3@Myptr:
	mov	eax, DWORD PTR _this$[ebp]
	add	eax, 4
	mov	DWORD PTR tv72[ebp], eax
$LN4@Myptr:
	mov	eax, DWORD PTR tv72[ebp]

; 515  : 			? _Unfancy(_Bx._Ptr)
; 516  : 			: _Bx._Buf);
; 517  : 		}

	add	esp, 8
	cmp	ebp, esp
	call	__RTC_CheckEsp
	mov	esp, ebp
	pop	ebp
	ret	0
?_Myptr@?$_String_val@U?$_Simple_types@D@std@@@std@@QAEPADXZ ENDP ; std::_String_val<std::_Simple_types<char> >::_Myptr
_TEXT	ENDS
; Function compile flags: /Odtp /RTCsu
; File c:\program files (x86)\microsoft visual studio 14.0\vc\include\xstring
;	COMDAT ??0?$_String_val@U?$_Simple_types@D@std@@@std@@QAE@XZ
_TEXT	SEGMENT
_this$ = -16						; size = 4
__$EHRec$ = -12						; size = 12
??0?$_String_val@U?$_Simple_types@D@std@@@std@@QAE@XZ PROC ; std::_String_val<std::_Simple_types<char> >::_String_val<std::_Simple_types<char> >, COMDAT
; _this$ = ecx

; 498  : 		{	// initialize values

	push	ebp
	mov	ebp, esp
	push	-1
	push	__ehhandler$??0?$_String_val@U?$_Simple_types@D@std@@@std@@QAE@XZ
	mov	eax, DWORD PTR fs:0
	push	eax
	push	ecx
	mov	DWORD PTR [ebp-16], -858993460		; ccccccccH
	mov	eax, DWORD PTR ___security_cookie
	xor	eax, ebp
	push	eax
	lea	eax, DWORD PTR __$EHRec$[ebp]
	mov	DWORD PTR fs:0, eax
	mov	DWORD PTR _this$[ebp], ecx
	mov	ecx, DWORD PTR _this$[ebp]
	call	??0_Container_base12@std@@QAE@XZ	; std::_Container_base12::_Container_base12
	mov	DWORD PTR __$EHRec$[ebp+8], 0

; 495  : 		: _Bx(),

	mov	ecx, DWORD PTR _this$[ebp]
	add	ecx, 4
	call	??0_Bxty@?$_String_val@U?$_Simple_types@D@std@@@std@@QAE@XZ ; std::_String_val<std::_Simple_types<char> >::_Bxty::_Bxty

; 496  : 		_Mysize(0),

	mov	eax, DWORD PTR _this$[ebp]
	mov	DWORD PTR [eax+20], 0

; 497  : 		_Myres(0)

	mov	ecx, DWORD PTR _this$[ebp]
	mov	DWORD PTR [ecx+24], 0

; 499  : 		}

	mov	DWORD PTR __$EHRec$[ebp+8], -1
	mov	eax, DWORD PTR _this$[ebp]
	mov	ecx, DWORD PTR __$EHRec$[ebp]
	mov	DWORD PTR fs:0, ecx
	pop	ecx
	add	esp, 16					; 00000010H
	cmp	ebp, esp
	call	__RTC_CheckEsp
	mov	esp, ebp
	pop	ebp
	ret	0
_TEXT	ENDS
;	COMDAT text$x
text$x	SEGMENT
__unwindfunclet$??0?$_String_val@U?$_Simple_types@D@std@@@std@@QAE@XZ$0:
	mov	ecx, DWORD PTR _this$[ebp]
	jmp	??1_Container_base12@std@@QAE@XZ	; std::_Container_base12::~_Container_base12
__ehhandler$??0?$_String_val@U?$_Simple_types@D@std@@@std@@QAE@XZ:
	mov	edx, DWORD PTR [esp+8]
	lea	eax, DWORD PTR [edx+12]
	mov	ecx, DWORD PTR [edx-8]
	xor	ecx, eax
	call	@__security_check_cookie@4
	mov	eax, OFFSET __ehfuncinfo$??0?$_String_val@U?$_Simple_types@D@std@@@std@@QAE@XZ
	jmp	___CxxFrameHandler3
text$x	ENDS
??0?$_String_val@U?$_Simple_types@D@std@@@std@@QAE@XZ ENDP ; std::_String_val<std::_Simple_types<char> >::_String_val<std::_Simple_types<char> >
; Function compile flags: /Odtp /RTCsu
; File c:\program files (x86)\microsoft visual studio 14.0\vc\include\xmemory0
;	COMDAT ?max_size@?$_Wrap_alloc@V?$allocator@D@std@@@std@@QBEIU_Nil@2@@Z
_TEXT	SEGMENT
_this$ = -4						; size = 4
___formal$ = 8						; size = 1
?max_size@?$_Wrap_alloc@V?$allocator@D@std@@@std@@QBEIU_Nil@2@@Z PROC ; std::_Wrap_alloc<std::allocator<char> >::max_size, COMDAT
; _this$ = ecx

; 1007 : 		{	// get maximum size

	push	ebp
	mov	ebp, esp
	push	ecx
	mov	DWORD PTR [ebp-4], -858993460		; ccccccccH
	mov	DWORD PTR _this$[ebp], ecx

; 1008 : 		return (_Mytraits::max_size(*this));

	mov	eax, DWORD PTR _this$[ebp]
	push	eax
	call	?max_size@?$allocator_traits@V?$allocator@D@std@@@std@@SAIABV?$allocator@D@2@@Z ; std::allocator_traits<std::allocator<char> >::max_size
	add	esp, 4

; 1009 : 		}

	add	esp, 4
	cmp	ebp, esp
	call	__RTC_CheckEsp
	mov	esp, ebp
	pop	ebp
	ret	4
?max_size@?$_Wrap_alloc@V?$allocator@D@std@@@std@@QBEIU_Nil@2@@Z ENDP ; std::_Wrap_alloc<std::allocator<char> >::max_size
_TEXT	ENDS
; Function compile flags: /Odtp /RTCsu
; File c:\program files (x86)\microsoft visual studio 14.0\vc\include\xmemory0
;	COMDAT ?deallocate@?$_Wrap_alloc@V?$allocator@D@std@@@std@@QAEXPADI@Z
_TEXT	SEGMENT
_this$ = -4						; size = 4
__Ptr$ = 8						; size = 4
__Count$ = 12						; size = 4
?deallocate@?$_Wrap_alloc@V?$allocator@D@std@@@std@@QAEXPADI@Z PROC ; std::_Wrap_alloc<std::allocator<char> >::deallocate, COMDAT
; _this$ = ecx

; 986  : 		{	// deallocate object at _Ptr, ignore size

	push	ebp
	mov	ebp, esp
	push	ecx
	mov	DWORD PTR [ebp-4], -858993460		; ccccccccH
	mov	DWORD PTR _this$[ebp], ecx

; 987  : 		_Mybase::deallocate(_Ptr, _Count);

	mov	eax, DWORD PTR __Count$[ebp]
	push	eax
	mov	ecx, DWORD PTR __Ptr$[ebp]
	push	ecx
	mov	ecx, DWORD PTR _this$[ebp]
	call	?deallocate@?$allocator@D@std@@QAEXPADI@Z ; std::allocator<char>::deallocate

; 988  : 		}

	add	esp, 4
	cmp	ebp, esp
	call	__RTC_CheckEsp
	mov	esp, ebp
	pop	ebp
	ret	8
?deallocate@?$_Wrap_alloc@V?$allocator@D@std@@@std@@QAEXPADI@Z ENDP ; std::_Wrap_alloc<std::allocator<char> >::deallocate
_TEXT	ENDS
; Function compile flags: /Odtp /RTCsu
; File c:\program files (x86)\microsoft visual studio 14.0\vc\include\xmemory0
;	COMDAT ?allocate@?$_Wrap_alloc@V?$allocator@D@std@@@std@@QAEPADI@Z
_TEXT	SEGMENT
_this$ = -4						; size = 4
__Count$ = 8						; size = 4
?allocate@?$_Wrap_alloc@V?$allocator@D@std@@@std@@QAEPADI@Z PROC ; std::_Wrap_alloc<std::allocator<char> >::allocate, COMDAT
; _this$ = ecx

; 975  : 		{	// allocate array of _Count elements

	push	ebp
	mov	ebp, esp
	push	ecx
	mov	DWORD PTR [ebp-4], -858993460		; ccccccccH
	mov	DWORD PTR _this$[ebp], ecx

; 976  : 		return (_Mybase::allocate(_Count));

	mov	eax, DWORD PTR __Count$[ebp]
	push	eax
	mov	ecx, DWORD PTR _this$[ebp]
	call	?allocate@?$allocator@D@std@@QAEPADI@Z	; std::allocator<char>::allocate

; 977  : 		}

	add	esp, 4
	cmp	ebp, esp
	call	__RTC_CheckEsp
	mov	esp, ebp
	pop	ebp
	ret	4
?allocate@?$_Wrap_alloc@V?$allocator@D@std@@@std@@QAEPADI@Z ENDP ; std::_Wrap_alloc<std::allocator<char> >::allocate
_TEXT	ENDS
; Function compile flags: /Odtp /RTCsu
; File c:\program files (x86)\microsoft visual studio 14.0\vc\include\xmemory0
;	COMDAT ??0?$_Wrap_alloc@V?$allocator@D@std@@@std@@QAE@$$QAU01@@Z
_TEXT	SEGMENT
_this$ = -4						; size = 4
__Right$ = 8						; size = 4
??0?$_Wrap_alloc@V?$allocator@D@std@@@std@@QAE@$$QAU01@@Z PROC ; std::_Wrap_alloc<std::allocator<char> >::_Wrap_alloc<std::allocator<char> >, COMDAT
; _this$ = ecx

; 946  : 		{	// construct by moving

	push	ebp
	mov	ebp, esp
	push	ecx
	mov	DWORD PTR [ebp-4], -858993460		; ccccccccH
	mov	DWORD PTR _this$[ebp], ecx

; 945  : 		: _Mybase(_STD move(_Right))

	mov	eax, DWORD PTR __Right$[ebp]
	push	eax
	call	??$move@AAU?$_Wrap_alloc@V?$allocator@D@std@@@std@@@std@@YA$$QAU?$_Wrap_alloc@V?$allocator@D@std@@@0@AAU10@@Z ; std::move<std::_Wrap_alloc<std::allocator<char> > &>
	add	esp, 4
	push	eax
	mov	ecx, DWORD PTR _this$[ebp]
	call	??0?$allocator@D@std@@QAE@ABV01@@Z	; std::allocator<char>::allocator<char>

; 947  : 		}

	mov	eax, DWORD PTR _this$[ebp]
	add	esp, 4
	cmp	ebp, esp
	call	__RTC_CheckEsp
	mov	esp, ebp
	pop	ebp
	ret	4
??0?$_Wrap_alloc@V?$allocator@D@std@@@std@@QAE@$$QAU01@@Z ENDP ; std::_Wrap_alloc<std::allocator<char> >::_Wrap_alloc<std::allocator<char> >
_TEXT	ENDS
; Function compile flags: /Odtp /RTCsu
; File c:\program files (x86)\microsoft visual studio 14.0\vc\include\xmemory0
;	COMDAT ??0?$_Wrap_alloc@V?$allocator@D@std@@@std@@QAE@XZ
_TEXT	SEGMENT
_this$ = -4						; size = 4
??0?$_Wrap_alloc@V?$allocator@D@std@@@std@@QAE@XZ PROC	; std::_Wrap_alloc<std::allocator<char> >::_Wrap_alloc<std::allocator<char> >, COMDAT
; _this$ = ecx

; 936  : 		{	// construct default allocator (do nothing)

	push	ebp
	mov	ebp, esp
	push	ecx
	mov	DWORD PTR [ebp-4], -858993460		; ccccccccH
	mov	DWORD PTR _this$[ebp], ecx

; 935  : 		: _Mybase()

	mov	ecx, DWORD PTR _this$[ebp]
	call	??0?$allocator@D@std@@QAE@XZ		; std::allocator<char>::allocator<char>

; 937  : 		}

	mov	eax, DWORD PTR _this$[ebp]
	add	esp, 4
	cmp	ebp, esp
	call	__RTC_CheckEsp
	mov	esp, ebp
	pop	ebp
	ret	0
??0?$_Wrap_alloc@V?$allocator@D@std@@@std@@QAE@XZ ENDP	; std::_Wrap_alloc<std::allocator<char> >::_Wrap_alloc<std::allocator<char> >
_TEXT	ENDS
; Function compile flags: /Odtp /RTCsu
; File c:\program files (x86)\microsoft visual studio 14.0\vc\include\xmemory0
;	COMDAT ?max_size@?$allocator_traits@V?$allocator@D@std@@@std@@SAIABV?$allocator@D@2@@Z
_TEXT	SEGMENT
__Al$ = 8						; size = 4
?max_size@?$allocator_traits@V?$allocator@D@std@@@std@@SAIABV?$allocator@D@2@@Z PROC ; std::allocator_traits<std::allocator<char> >::max_size, COMDAT

; 868  : 		{	// get maximum size

	push	ebp
	mov	ebp, esp

; 869  : 		return (_Al.max_size());

	mov	ecx, DWORD PTR __Al$[ebp]
	call	?max_size@?$allocator@D@std@@QBEIXZ	; std::allocator<char>::max_size

; 870  : 		}

	cmp	ebp, esp
	call	__RTC_CheckEsp
	pop	ebp
	ret	0
?max_size@?$allocator_traits@V?$allocator@D@std@@@std@@SAIABV?$allocator@D@2@@Z ENDP ; std::allocator_traits<std::allocator<char> >::max_size
_TEXT	ENDS
; Function compile flags: /Odtp /RTCsu
; File c:\program files (x86)\microsoft visual studio 14.0\vc\include\xmemory0
;	COMDAT ?max_size@?$allocator@D@std@@QBEIXZ
_TEXT	SEGMENT
_this$ = -4						; size = 4
?max_size@?$allocator@D@std@@QBEIXZ PROC		; std::allocator<char>::max_size, COMDAT
; _this$ = ecx

; 748  : 		{	// estimate maximum array size

	push	ebp
	mov	ebp, esp
	push	ecx
	mov	DWORD PTR [ebp-4], -858993460		; ccccccccH
	mov	DWORD PTR _this$[ebp], ecx

; 749  : 		return ((size_t)(-1) / sizeof (_Ty));

	or	eax, -1

; 750  : 		}

	mov	esp, ebp
	pop	ebp
	ret	0
?max_size@?$allocator@D@std@@QBEIXZ ENDP		; std::allocator<char>::max_size
_TEXT	ENDS
; Function compile flags: /Odtp /RTCsu
; File c:\program files (x86)\microsoft visual studio 14.0\vc\include\xmemory0
;	COMDAT ?allocate@?$allocator@D@std@@QAEPADI@Z
_TEXT	SEGMENT
_this$ = -4						; size = 4
__Count$ = 8						; size = 4
?allocate@?$allocator@D@std@@QAEPADI@Z PROC		; std::allocator<char>::allocate, COMDAT
; _this$ = ecx

; 724  : 		{	// allocate array of _Count elements

	push	ebp
	mov	ebp, esp
	push	ecx
	mov	DWORD PTR [ebp-4], -858993460		; ccccccccH
	mov	DWORD PTR _this$[ebp], ecx

; 725  : 		return (static_cast<pointer>(_Allocate(_Count, sizeof (_Ty))));

	push	1
	push	1
	mov	eax, DWORD PTR __Count$[ebp]
	push	eax
	call	?_Allocate@std@@YAPAXII_N@Z		; std::_Allocate
	add	esp, 12					; 0000000cH

; 726  : 		}

	add	esp, 4
	cmp	ebp, esp
	call	__RTC_CheckEsp
	mov	esp, ebp
	pop	ebp
	ret	4
?allocate@?$allocator@D@std@@QAEPADI@Z ENDP		; std::allocator<char>::allocate
_TEXT	ENDS
; Function compile flags: /Odtp /RTCsu
; File c:\program files (x86)\microsoft visual studio 14.0\vc\include\xmemory0
;	COMDAT ?deallocate@?$allocator@D@std@@QAEXPADI@Z
_TEXT	SEGMENT
_this$ = -4						; size = 4
__Ptr$ = 8						; size = 4
__Count$ = 12						; size = 4
?deallocate@?$allocator@D@std@@QAEXPADI@Z PROC		; std::allocator<char>::deallocate, COMDAT
; _this$ = ecx

; 719  : 		{	// deallocate object at _Ptr

	push	ebp
	mov	ebp, esp
	push	ecx
	mov	DWORD PTR [ebp-4], -858993460		; ccccccccH
	mov	DWORD PTR _this$[ebp], ecx

; 720  : 		_Deallocate(_Ptr, _Count, sizeof (_Ty));

	push	1
	mov	eax, DWORD PTR __Count$[ebp]
	push	eax
	mov	ecx, DWORD PTR __Ptr$[ebp]
	push	ecx
	call	?_Deallocate@std@@YAXPAXII@Z		; std::_Deallocate
	add	esp, 12					; 0000000cH

; 721  : 		}

	add	esp, 4
	cmp	ebp, esp
	call	__RTC_CheckEsp
	mov	esp, ebp
	pop	ebp
	ret	8
?deallocate@?$allocator@D@std@@QAEXPADI@Z ENDP		; std::allocator<char>::deallocate
_TEXT	ENDS
; Function compile flags: /Odtp /RTCsu
; File c:\program files (x86)\microsoft visual studio 14.0\vc\include\xmemory0
;	COMDAT ??0?$allocator@D@std@@QAE@ABV01@@Z
_TEXT	SEGMENT
_this$ = -4						; size = 4
___formal$ = 8						; size = 4
??0?$allocator@D@std@@QAE@ABV01@@Z PROC			; std::allocator<char>::allocator<char>, COMDAT
; _this$ = ecx

; 703  : 	allocator(const allocator<_Ty>&) _THROW0()

	push	ebp
	mov	ebp, esp
	push	ecx
	mov	DWORD PTR [ebp-4], -858993460		; ccccccccH
	mov	DWORD PTR _this$[ebp], ecx

; 704  : 		{	// construct by copying (do nothing)
; 705  : 		}

	mov	eax, DWORD PTR _this$[ebp]
	mov	esp, ebp
	pop	ebp
	ret	4
??0?$allocator@D@std@@QAE@ABV01@@Z ENDP			; std::allocator<char>::allocator<char>
_TEXT	ENDS
; Function compile flags: /Odtp /RTCsu
; File c:\program files (x86)\microsoft visual studio 14.0\vc\include\xmemory0
;	COMDAT ??0?$allocator@D@std@@QAE@XZ
_TEXT	SEGMENT
_this$ = -4						; size = 4
??0?$allocator@D@std@@QAE@XZ PROC			; std::allocator<char>::allocator<char>, COMDAT
; _this$ = ecx

; 699  : 	allocator() _THROW0()

	push	ebp
	mov	ebp, esp
	push	ecx
	mov	DWORD PTR [ebp-4], -858993460		; ccccccccH
	mov	DWORD PTR _this$[ebp], ecx

; 700  : 		{	// construct default allocator (do nothing)
; 701  : 		}

	mov	eax, DWORD PTR _this$[ebp]
	mov	esp, ebp
	pop	ebp
	ret	0
??0?$allocator@D@std@@QAE@XZ ENDP			; std::allocator<char>::allocator<char>
_TEXT	ENDS
; Function compile flags: /Odtp /RTCsu
; File c:\program files (x86)\microsoft visual studio 14.0\vc\include\xmemory0
;	COMDAT ?_Deallocate@std@@YAXPAXII@Z
_TEXT	SEGMENT
__Ptr_container$1 = -16					; size = 4
__Ptr_ptr$2 = -12					; size = 4
__Ptr_user$3 = -8					; size = 4
__User_size$ = -4					; size = 4
__Ptr$ = 8						; size = 4
__Count$ = 12						; size = 4
__Sz$ = 16						; size = 4
?_Deallocate@std@@YAXPAXII@Z PROC			; std::_Deallocate, COMDAT

; 92   : 	{	// deallocate storage for _Count elements of size _Sz

	push	ebp
	mov	ebp, esp
	sub	esp, 16					; 00000010H
	mov	eax, -858993460				; ccccccccH
	mov	DWORD PTR [ebp-16], eax
	mov	DWORD PTR [ebp-12], eax
	mov	DWORD PTR [ebp-8], eax
	mov	DWORD PTR [ebp-4], eax

; 93   :  #if defined(_M_IX86) || defined(_M_X64)
; 94   : 	_SCL_SECURE_ALWAYS_VALIDATE(_Count <= (size_t)(-1) / _Sz);

	or	eax, -1
	xor	edx, edx
	div	DWORD PTR __Sz$[ebp]
	cmp	DWORD PTR __Count$[ebp], eax
	jbe	SHORT $LN2@Deallocate
	mov	eax, OFFSET ??_C@_0BN@HMCJOMKN@_Count?5?$DM?$DN?5?$CIsize_t?$CJ?$CI?91?$CJ?5?1?5_Sz?$AA@
	test	eax, eax
	je	SHORT $LN10@Deallocate
	xor	ecx, ecx
	jne	SHORT $LN11@Deallocate
$LN10@Deallocate:
	push	OFFSET ??_C@_1EI@MLOBABC@?$AA?$CC?$AA_?$AAC?$AAo?$AAu?$AAn?$AAt?$AA?5?$AA?$DM?$AA?$DN?$AA?5?$AA?$CI?$AAs?$AAi?$AAz?$AAe?$AA_?$AAt?$AA?$CJ?$AA?$CI?$AA?9?$AA1?$AA?$CJ?$AA?5?$AA?1?$AA?5?$AA_?$AAS?$AAz?$AA?$CC?$AA?5?$AA?$CG@
	push	OFFSET ??_C@_17CNPHIMPH@?$AA?$CF?$AAl?$AAs?$AA?$AA@
	push	0
	push	94					; 0000005eH
	push	OFFSET ??_C@_1JA@HEEMAOGC@?$AAC?$AA?3?$AA?2?$AAP?$AAr?$AAo?$AAg?$AAr?$AAa?$AAm?$AA?5?$AAF?$AAi?$AAl?$AAe?$AAs?$AA?5?$AA?$CI?$AAx?$AA8?$AA6?$AA?$CJ?$AA?2?$AAM?$AAi?$AAc?$AAr?$AAo?$AAs?$AAo?$AAf?$AAt@
	push	2
	call	__CrtDbgReportW
	add	esp, 24					; 00000018H
	cmp	eax, 1
	jne	SHORT $LN11@Deallocate
	int	3
$LN11@Deallocate:
	push	0
	push	94					; 0000005eH
	push	OFFSET ??_C@_1JA@HEEMAOGC@?$AAC?$AA?3?$AA?2?$AAP?$AAr?$AAo?$AAg?$AAr?$AAa?$AAm?$AA?5?$AAF?$AAi?$AAl?$AAe?$AAs?$AA?5?$AA?$CI?$AAx?$AA8?$AA6?$AA?$CJ?$AA?2?$AAM?$AAi?$AAc?$AAr?$AAo?$AAs?$AAo?$AAf?$AAt@
	push	OFFSET ??_C@_1CC@LOFJFFDB@?$AAs?$AAt?$AAd?$AA?3?$AA?3?$AA_?$AAD?$AAe?$AAa?$AAl?$AAl?$AAo?$AAc?$AAa?$AAt?$AAe?$AA?$AA@
	push	OFFSET ??_C@_1CG@JNLFBNGN@?$AA?$CC?$AAi?$AAn?$AAv?$AAa?$AAl?$AAi?$AAd?$AA?5?$AAa?$AAr?$AAg?$AAu?$AAm?$AAe?$AAn?$AAt?$AA?$CC?$AA?$AA@
	call	__invalid_parameter
	add	esp, 20					; 00000014H
$LN2@Deallocate:

; 95   : 	const size_t _User_size = _Count * _Sz;

	mov	eax, DWORD PTR __Count$[ebp]
	imul	eax, DWORD PTR __Sz$[ebp]
	mov	DWORD PTR __User_size$[ebp], eax

; 96   : 	if (_BIG_ALLOCATION_THRESHOLD <= _User_size)

	cmp	DWORD PTR __User_size$[ebp], 4096	; 00001000H
	jb	$LN3@Deallocate

; 97   : 		{	// deallocate large block
; 98   : 		const uintptr_t _Ptr_user = reinterpret_cast<uintptr_t>(_Ptr);

	mov	ecx, DWORD PTR __Ptr$[ebp]
	mov	DWORD PTR __Ptr_user$3[ebp], ecx

; 99   : 		_SCL_SECURE_ALWAYS_VALIDATE(

	mov	edx, DWORD PTR __Ptr_user$3[ebp]
	and	edx, 31					; 0000001fH
	je	SHORT $LN4@Deallocate
	mov	eax, OFFSET ??_C@_0DD@GBGGGKGG@?$CI_Ptr_user?5?$CG?5?$CI_BIG_ALLOCATION_AL@
	test	eax, eax
	je	SHORT $LN12@Deallocate
	xor	ecx, ecx
	jne	SHORT $LN13@Deallocate
$LN12@Deallocate:
	push	OFFSET ??_C@_1HE@CDMBFOKC@?$AA?$CC?$AA?$CI?$AA_?$AAP?$AAt?$AAr?$AA_?$AAu?$AAs?$AAe?$AAr?$AA?5?$AA?$CG?$AA?5?$AA?$CI?$AA_?$AAB?$AAI?$AAG?$AA_?$AAA?$AAL?$AAL?$AAO?$AAC?$AAA?$AAT?$AAI?$AAO?$AAN?$AA_?$AAA@
	push	OFFSET ??_C@_17CNPHIMPH@?$AA?$CF?$AAl?$AAs?$AA?$AA@
	push	0
	push	100					; 00000064H
	push	OFFSET ??_C@_1JA@HEEMAOGC@?$AAC?$AA?3?$AA?2?$AAP?$AAr?$AAo?$AAg?$AAr?$AAa?$AAm?$AA?5?$AAF?$AAi?$AAl?$AAe?$AAs?$AA?5?$AA?$CI?$AAx?$AA8?$AA6?$AA?$CJ?$AA?2?$AAM?$AAi?$AAc?$AAr?$AAo?$AAs?$AAo?$AAf?$AAt@
	push	2
	call	__CrtDbgReportW
	add	esp, 24					; 00000018H
	cmp	eax, 1
	jne	SHORT $LN13@Deallocate
	int	3
$LN13@Deallocate:
	push	0
	push	100					; 00000064H
	push	OFFSET ??_C@_1JA@HEEMAOGC@?$AAC?$AA?3?$AA?2?$AAP?$AAr?$AAo?$AAg?$AAr?$AAa?$AAm?$AA?5?$AAF?$AAi?$AAl?$AAe?$AAs?$AA?5?$AA?$CI?$AAx?$AA8?$AA6?$AA?$CJ?$AA?2?$AAM?$AAi?$AAc?$AAr?$AAo?$AAs?$AAo?$AAf?$AAt@
	push	OFFSET ??_C@_1CC@LOFJFFDB@?$AAs?$AAt?$AAd?$AA?3?$AA?3?$AA_?$AAD?$AAe?$AAa?$AAl?$AAl?$AAo?$AAc?$AAa?$AAt?$AAe?$AA?$AA@
	push	OFFSET ??_C@_1CG@JNLFBNGN@?$AA?$CC?$AAi?$AAn?$AAv?$AAa?$AAl?$AAi?$AAd?$AA?5?$AAa?$AAr?$AAg?$AAu?$AAm?$AAe?$AAn?$AAt?$AA?$CC?$AA?$AA@
	call	__invalid_parameter
	add	esp, 20					; 00000014H
$LN4@Deallocate:

; 100  : 			(_Ptr_user & (_BIG_ALLOCATION_ALIGNMENT - 1)) == 0);
; 101  : 		const uintptr_t _Ptr_ptr = _Ptr_user - sizeof(void *);

	mov	eax, DWORD PTR __Ptr_user$3[ebp]
	sub	eax, 4
	mov	DWORD PTR __Ptr_ptr$2[ebp], eax

; 102  : 		const uintptr_t _Ptr_container =
; 103  : 			*reinterpret_cast<uintptr_t *>(_Ptr_ptr);

	mov	ecx, DWORD PTR __Ptr_ptr$2[ebp]
	mov	edx, DWORD PTR [ecx]
	mov	DWORD PTR __Ptr_container$1[ebp], edx

; 104  : 
; 105  :  #ifdef _DEBUG
; 106  : 		// If the following asserts, it likely means that we are performing
; 107  : 		// an aligned delete on memory coming from an unaligned allocation.
; 108  : 		_SCL_SECURE_ALWAYS_VALIDATE(

	mov	eax, 4
	imul	ecx, eax, -1
	mov	edx, DWORD PTR __Ptr_ptr$2[ebp]
	cmp	DWORD PTR [edx+ecx], -84215046		; fafafafaH
	je	SHORT $LN5@Deallocate
	mov	eax, OFFSET ??_C@_0EI@NOJHEJCJ@reinterpret_cast?$DMuintptr_t?5?$CK?$DO?$CI_P@
	test	eax, eax
	je	SHORT $LN14@Deallocate
	xor	ecx, ecx
	jne	SHORT $LN15@Deallocate
$LN14@Deallocate:
	push	OFFSET ??_C@_1JO@EKLKIEHP@?$AA?$CC?$AAr?$AAe?$AAi?$AAn?$AAt?$AAe?$AAr?$AAp?$AAr?$AAe?$AAt?$AA_?$AAc?$AAa?$AAs?$AAt?$AA?$DM?$AAu?$AAi?$AAn?$AAt?$AAp?$AAt?$AAr?$AA_?$AAt?$AA?5?$AA?$CK?$AA?$DO?$AA?$CI?$AA_@
	push	OFFSET ??_C@_17CNPHIMPH@?$AA?$CF?$AAl?$AAs?$AA?$AA@
	push	0
	push	110					; 0000006eH
	push	OFFSET ??_C@_1JA@HEEMAOGC@?$AAC?$AA?3?$AA?2?$AAP?$AAr?$AAo?$AAg?$AAr?$AAa?$AAm?$AA?5?$AAF?$AAi?$AAl?$AAe?$AAs?$AA?5?$AA?$CI?$AAx?$AA8?$AA6?$AA?$CJ?$AA?2?$AAM?$AAi?$AAc?$AAr?$AAo?$AAs?$AAo?$AAf?$AAt@
	push	2
	call	__CrtDbgReportW
	add	esp, 24					; 00000018H
	cmp	eax, 1
	jne	SHORT $LN15@Deallocate
	int	3
$LN15@Deallocate:
	push	0
	push	110					; 0000006eH
	push	OFFSET ??_C@_1JA@HEEMAOGC@?$AAC?$AA?3?$AA?2?$AAP?$AAr?$AAo?$AAg?$AAr?$AAa?$AAm?$AA?5?$AAF?$AAi?$AAl?$AAe?$AAs?$AA?5?$AA?$CI?$AAx?$AA8?$AA6?$AA?$CJ?$AA?2?$AAM?$AAi?$AAc?$AAr?$AAo?$AAs?$AAo?$AAf?$AAt@
	push	OFFSET ??_C@_1CC@LOFJFFDB@?$AAs?$AAt?$AAd?$AA?3?$AA?3?$AA_?$AAD?$AAe?$AAa?$AAl?$AAl?$AAo?$AAc?$AAa?$AAt?$AAe?$AA?$AA@
	push	OFFSET ??_C@_1CG@JNLFBNGN@?$AA?$CC?$AAi?$AAn?$AAv?$AAa?$AAl?$AAi?$AAd?$AA?5?$AAa?$AAr?$AAg?$AAu?$AAm?$AAe?$AAn?$AAt?$AA?$CC?$AA?$AA@
	call	__invalid_parameter
	add	esp, 20					; 00000014H
$LN5@Deallocate:

; 109  : 			reinterpret_cast<uintptr_t *>(_Ptr_ptr)[-1] ==
; 110  : 				_BIG_ALLOCATION_SENTINEL);
; 111  :  #endif /* _DEBUG */
; 112  : 
; 113  : 		// Extra paranoia on aligned allocation/deallocation
; 114  : 		_SCL_SECURE_ALWAYS_VALIDATE(_Ptr_container < _Ptr_user);

	mov	eax, DWORD PTR __Ptr_container$1[ebp]
	cmp	eax, DWORD PTR __Ptr_user$3[ebp]
	jb	SHORT $LN6@Deallocate
	mov	ecx, OFFSET ??_C@_0BL@OCKMEJON@_Ptr_container?5?$DM?5_Ptr_user?$AA@
	test	ecx, ecx
	je	SHORT $LN16@Deallocate
	xor	edx, edx
	jne	SHORT $LN17@Deallocate
$LN16@Deallocate:
	push	OFFSET ??_C@_1EE@PDHAHDDC@?$AA?$CC?$AA_?$AAP?$AAt?$AAr?$AA_?$AAc?$AAo?$AAn?$AAt?$AAa?$AAi?$AAn?$AAe?$AAr?$AA?5?$AA?$DM?$AA?5?$AA_?$AAP?$AAt?$AAr?$AA_?$AAu?$AAs?$AAe?$AAr?$AA?$CC?$AA?5?$AA?$CG?$AA?$CG?$AA?5@
	push	OFFSET ??_C@_17CNPHIMPH@?$AA?$CF?$AAl?$AAs?$AA?$AA@
	push	0
	push	114					; 00000072H
	push	OFFSET ??_C@_1JA@HEEMAOGC@?$AAC?$AA?3?$AA?2?$AAP?$AAr?$AAo?$AAg?$AAr?$AAa?$AAm?$AA?5?$AAF?$AAi?$AAl?$AAe?$AAs?$AA?5?$AA?$CI?$AAx?$AA8?$AA6?$AA?$CJ?$AA?2?$AAM?$AAi?$AAc?$AAr?$AAo?$AAs?$AAo?$AAf?$AAt@
	push	2
	call	__CrtDbgReportW
	add	esp, 24					; 00000018H
	cmp	eax, 1
	jne	SHORT $LN17@Deallocate
	int	3
$LN17@Deallocate:
	push	0
	push	114					; 00000072H
	push	OFFSET ??_C@_1JA@HEEMAOGC@?$AAC?$AA?3?$AA?2?$AAP?$AAr?$AAo?$AAg?$AAr?$AAa?$AAm?$AA?5?$AAF?$AAi?$AAl?$AAe?$AAs?$AA?5?$AA?$CI?$AAx?$AA8?$AA6?$AA?$CJ?$AA?2?$AAM?$AAi?$AAc?$AAr?$AAo?$AAs?$AAo?$AAf?$AAt@
	push	OFFSET ??_C@_1CC@LOFJFFDB@?$AAs?$AAt?$AAd?$AA?3?$AA?3?$AA_?$AAD?$AAe?$AAa?$AAl?$AAl?$AAo?$AAc?$AAa?$AAt?$AAe?$AA?$AA@
	push	OFFSET ??_C@_1CG@JNLFBNGN@?$AA?$CC?$AAi?$AAn?$AAv?$AAa?$AAl?$AAi?$AAd?$AA?5?$AAa?$AAr?$AAg?$AAu?$AAm?$AAe?$AAn?$AAt?$AA?$CC?$AA?$AA@
	call	__invalid_parameter
	add	esp, 20					; 00000014H
$LN6@Deallocate:

; 115  : 
; 116  :  #ifdef _DEBUG
; 117  : 		_SCL_SECURE_ALWAYS_VALIDATE(2 * sizeof(void *)

	mov	ecx, DWORD PTR __Ptr_user$3[ebp]
	sub	ecx, DWORD PTR __Ptr_container$1[ebp]
	cmp	ecx, 8
	jae	SHORT $LN7@Deallocate
	mov	edx, OFFSET ??_C@_0DB@GLFJLNCE@2?5?$CK?5sizeof?$CIvoid?5?$CK?$CJ?5?$DM?$DN?5_Ptr_user?5@
	test	edx, edx
	je	SHORT $LN18@Deallocate
	xor	eax, eax
	jne	SHORT $LN19@Deallocate
$LN18@Deallocate:
	push	OFFSET ??_C@_1HA@NAPGMHAO@?$AA?$CC?$AA2?$AA?5?$AA?$CK?$AA?5?$AAs?$AAi?$AAz?$AAe?$AAo?$AAf?$AA?$CI?$AAv?$AAo?$AAi?$AAd?$AA?5?$AA?$CK?$AA?$CJ?$AA?5?$AA?$DM?$AA?$DN?$AA?5?$AA_?$AAP?$AAt?$AAr?$AA_?$AAu?$AAs?$AAe?$AAr@
	push	OFFSET ??_C@_17CNPHIMPH@?$AA?$CF?$AAl?$AAs?$AA?$AA@
	push	0
	push	118					; 00000076H
	push	OFFSET ??_C@_1JA@HEEMAOGC@?$AAC?$AA?3?$AA?2?$AAP?$AAr?$AAo?$AAg?$AAr?$AAa?$AAm?$AA?5?$AAF?$AAi?$AAl?$AAe?$AAs?$AA?5?$AA?$CI?$AAx?$AA8?$AA6?$AA?$CJ?$AA?2?$AAM?$AAi?$AAc?$AAr?$AAo?$AAs?$AAo?$AAf?$AAt@
	push	2
	call	__CrtDbgReportW
	add	esp, 24					; 00000018H
	cmp	eax, 1
	jne	SHORT $LN19@Deallocate
	int	3
$LN19@Deallocate:
	push	0
	push	118					; 00000076H
	push	OFFSET ??_C@_1JA@HEEMAOGC@?$AAC?$AA?3?$AA?2?$AAP?$AAr?$AAo?$AAg?$AAr?$AAa?$AAm?$AA?5?$AAF?$AAi?$AAl?$AAe?$AAs?$AA?5?$AA?$CI?$AAx?$AA8?$AA6?$AA?$CJ?$AA?2?$AAM?$AAi?$AAc?$AAr?$AAo?$AAs?$AAo?$AAf?$AAt@
	push	OFFSET ??_C@_1CC@LOFJFFDB@?$AAs?$AAt?$AAd?$AA?3?$AA?3?$AA_?$AAD?$AAe?$AAa?$AAl?$AAl?$AAo?$AAc?$AAa?$AAt?$AAe?$AA?$AA@
	push	OFFSET ??_C@_1CG@JNLFBNGN@?$AA?$CC?$AAi?$AAn?$AAv?$AAa?$AAl?$AAi?$AAd?$AA?5?$AAa?$AAr?$AAg?$AAu?$AAm?$AAe?$AAn?$AAt?$AA?$CC?$AA?$AA@
	call	__invalid_parameter
	add	esp, 20					; 00000014H
$LN7@Deallocate:

; 118  : 			<= _Ptr_user - _Ptr_container);
; 119  : 
; 120  :  #else /* _DEBUG */
; 121  : 		_SCL_SECURE_ALWAYS_VALIDATE(sizeof(void *)
; 122  : 			<= _Ptr_user - _Ptr_container);
; 123  :  #endif /* _DEBUG */
; 124  : 
; 125  : 		_SCL_SECURE_ALWAYS_VALIDATE(_Ptr_user - _Ptr_container

	mov	edx, DWORD PTR __Ptr_user$3[ebp]
	sub	edx, DWORD PTR __Ptr_container$1[ebp]
	cmp	edx, 39					; 00000027H
	jbe	SHORT $LN8@Deallocate
	mov	eax, OFFSET ??_C@_0CN@BLHJCAL@_Ptr_user?5?9?5_Ptr_container?5?$DM?$DN?5_N@
	test	eax, eax
	je	SHORT $LN20@Deallocate
	xor	ecx, ecx
	jne	SHORT $LN21@Deallocate
$LN20@Deallocate:
	push	OFFSET ??_C@_1GI@DHJGPFNI@?$AA?$CC?$AA_?$AAP?$AAt?$AAr?$AA_?$AAu?$AAs?$AAe?$AAr?$AA?5?$AA?9?$AA?5?$AA_?$AAP?$AAt?$AAr?$AA_?$AAc?$AAo?$AAn?$AAt?$AAa?$AAi?$AAn?$AAe?$AAr?$AA?5?$AA?$DM?$AA?$DN?$AA?5?$AA_@
	push	OFFSET ??_C@_17CNPHIMPH@?$AA?$CF?$AAl?$AAs?$AA?$AA@
	push	0
	push	126					; 0000007eH
	push	OFFSET ??_C@_1JA@HEEMAOGC@?$AAC?$AA?3?$AA?2?$AAP?$AAr?$AAo?$AAg?$AAr?$AAa?$AAm?$AA?5?$AAF?$AAi?$AAl?$AAe?$AAs?$AA?5?$AA?$CI?$AAx?$AA8?$AA6?$AA?$CJ?$AA?2?$AAM?$AAi?$AAc?$AAr?$AAo?$AAs?$AAo?$AAf?$AAt@
	push	2
	call	__CrtDbgReportW
	add	esp, 24					; 00000018H
	cmp	eax, 1
	jne	SHORT $LN21@Deallocate
	int	3
$LN21@Deallocate:
	push	0
	push	126					; 0000007eH
	push	OFFSET ??_C@_1JA@HEEMAOGC@?$AAC?$AA?3?$AA?2?$AAP?$AAr?$AAo?$AAg?$AAr?$AAa?$AAm?$AA?5?$AAF?$AAi?$AAl?$AAe?$AAs?$AA?5?$AA?$CI?$AAx?$AA8?$AA6?$AA?$CJ?$AA?2?$AAM?$AAi?$AAc?$AAr?$AAo?$AAs?$AAo?$AAf?$AAt@
	push	OFFSET ??_C@_1CC@LOFJFFDB@?$AAs?$AAt?$AAd?$AA?3?$AA?3?$AA_?$AAD?$AAe?$AAa?$AAl?$AAl?$AAo?$AAc?$AAa?$AAt?$AAe?$AA?$AA@
	push	OFFSET ??_C@_1CG@JNLFBNGN@?$AA?$CC?$AAi?$AAn?$AAv?$AAa?$AAl?$AAi?$AAd?$AA?5?$AAa?$AAr?$AAg?$AAu?$AAm?$AAe?$AAn?$AAt?$AA?$CC?$AA?$AA@
	call	__invalid_parameter
	add	esp, 20					; 00000014H
$LN8@Deallocate:

; 126  : 			<= _NON_USER_SIZE);
; 127  : 
; 128  : 		_Ptr = reinterpret_cast<void *>(_Ptr_container);

	mov	eax, DWORD PTR __Ptr_container$1[ebp]
	mov	DWORD PTR __Ptr$[ebp], eax
$LN3@Deallocate:

; 129  : 		}
; 130  :  #endif /* defined(_M_IX86) || defined(_M_X64) */
; 131  : 
; 132  : 	::operator delete(_Ptr);

	mov	ecx, DWORD PTR __Ptr$[ebp]
	push	ecx
	call	??3@YAXPAX@Z				; operator delete
	add	esp, 4

; 133  : 	}

	add	esp, 16					; 00000010H
	cmp	ebp, esp
	call	__RTC_CheckEsp
	mov	esp, ebp
	pop	ebp
	ret	0
?_Deallocate@std@@YAXPAXII@Z ENDP			; std::_Deallocate
_TEXT	ENDS
; Function compile flags: /Odtp /RTCsu
; File c:\program files (x86)\microsoft visual studio 14.0\vc\include\xmemory0
;	COMDAT ?_Allocate@std@@YAPAXII_N@Z
_TEXT	SEGMENT
__Ptr_container$1 = -16					; size = 4
__Block_size$2 = -12					; size = 4
__User_size$ = -8					; size = 4
__Ptr$ = -4						; size = 4
__Count$ = 8						; size = 4
__Sz$ = 12						; size = 4
__Try_aligned_allocation$ = 16				; size = 1
?_Allocate@std@@YAPAXII_N@Z PROC			; std::_Allocate, COMDAT

; 48   : 	{	// allocate storage for _Count elements of size _Sz

	push	ebp
	mov	ebp, esp
	sub	esp, 16					; 00000010H
	mov	eax, -858993460				; ccccccccH
	mov	DWORD PTR [ebp-16], eax
	mov	DWORD PTR [ebp-12], eax
	mov	DWORD PTR [ebp-8], eax
	mov	DWORD PTR [ebp-4], eax

; 49   : 	void *_Ptr = 0;

	mov	DWORD PTR __Ptr$[ebp], 0

; 50   : 
; 51   : 	if (_Count == 0)

	cmp	DWORD PTR __Count$[ebp], 0
	jne	SHORT $LN2@Allocate

; 52   : 		return (_Ptr);

	mov	eax, DWORD PTR __Ptr$[ebp]
	jmp	$LN9@Allocate
$LN2@Allocate:

; 53   : 
; 54   : 	// check overflow of multiply
; 55   : 	if ((size_t)(-1) / _Sz < _Count)

	or	eax, -1
	xor	edx, edx
	div	DWORD PTR __Sz$[ebp]
	cmp	eax, DWORD PTR __Count$[ebp]
	jae	SHORT $LN3@Allocate

; 56   : 		_Xbad_alloc();	// report no memory

	call	?_Xbad_alloc@std@@YAXXZ			; std::_Xbad_alloc
$LN3@Allocate:

; 57   : 	const size_t _User_size = _Count * _Sz;

	mov	eax, DWORD PTR __Count$[ebp]
	imul	eax, DWORD PTR __Sz$[ebp]
	mov	DWORD PTR __User_size$[ebp], eax

; 58   : 
; 59   :  #if defined(_M_IX86) || defined(_M_X64)
; 60   : 	if (_Try_aligned_allocation
; 61   : 		&& _BIG_ALLOCATION_THRESHOLD <= _User_size)

	movzx	ecx, BYTE PTR __Try_aligned_allocation$[ebp]
	test	ecx, ecx
	je	$LN4@Allocate
	cmp	DWORD PTR __User_size$[ebp], 4096	; 00001000H
	jb	$LN4@Allocate

; 62   : 		{	// allocate large block
; 63   : 		static_assert(sizeof (void *) < _BIG_ALLOCATION_ALIGNMENT,
; 64   : 			"Big allocations should at least match vector register size");
; 65   : 		const size_t _Block_size = _NON_USER_SIZE + _User_size;

	mov	edx, DWORD PTR __User_size$[ebp]
	add	edx, 39					; 00000027H
	mov	DWORD PTR __Block_size$2[ebp], edx

; 66   : 		if (_Block_size <= _User_size)

	mov	eax, DWORD PTR __Block_size$2[ebp]
	cmp	eax, DWORD PTR __User_size$[ebp]
	ja	SHORT $LN6@Allocate

; 67   : 			_Xbad_alloc();	// report no memory

	call	?_Xbad_alloc@std@@YAXXZ			; std::_Xbad_alloc
$LN6@Allocate:

; 68   : 		const uintptr_t _Ptr_container =
; 69   : 			reinterpret_cast<uintptr_t>(::operator new(_Block_size));

	mov	ecx, DWORD PTR __Block_size$2[ebp]
	push	ecx
	call	??2@YAPAXI@Z				; operator new
	add	esp, 4
	mov	DWORD PTR __Ptr_container$1[ebp], eax

; 70   : 		_SCL_SECURE_ALWAYS_VALIDATE(_Ptr_container != 0);

	cmp	DWORD PTR __Ptr_container$1[ebp], 0
	jne	SHORT $LN7@Allocate
	mov	edx, OFFSET ??_C@_0BE@LMNLACIC@_Ptr_container?5?$CB?$DN?50?$AA@
	test	edx, edx
	je	SHORT $LN10@Allocate
	xor	eax, eax
	jne	SHORT $LN11@Allocate
$LN10@Allocate:
	push	OFFSET ??_C@_1DG@HGDKEBPG@?$AA?$CC?$AA_?$AAP?$AAt?$AAr?$AA_?$AAc?$AAo?$AAn?$AAt?$AAa?$AAi?$AAn?$AAe?$AAr?$AA?5?$AA?$CB?$AA?$DN?$AA?5?$AA0?$AA?$CC?$AA?5?$AA?$CG?$AA?$CG?$AA?5?$AA0?$AA?$AA@
	push	OFFSET ??_C@_17CNPHIMPH@?$AA?$CF?$AAl?$AAs?$AA?$AA@
	push	0
	push	70					; 00000046H
	push	OFFSET ??_C@_1JA@HEEMAOGC@?$AAC?$AA?3?$AA?2?$AAP?$AAr?$AAo?$AAg?$AAr?$AAa?$AAm?$AA?5?$AAF?$AAi?$AAl?$AAe?$AAs?$AA?5?$AA?$CI?$AAx?$AA8?$AA6?$AA?$CJ?$AA?2?$AAM?$AAi?$AAc?$AAr?$AAo?$AAs?$AAo?$AAf?$AAt@
	push	2
	call	__CrtDbgReportW
	add	esp, 24					; 00000018H
	cmp	eax, 1
	jne	SHORT $LN11@Allocate
	int	3
$LN11@Allocate:
	push	0
	push	70					; 00000046H
	push	OFFSET ??_C@_1JA@HEEMAOGC@?$AAC?$AA?3?$AA?2?$AAP?$AAr?$AAo?$AAg?$AAr?$AAa?$AAm?$AA?5?$AAF?$AAi?$AAl?$AAe?$AAs?$AA?5?$AA?$CI?$AAx?$AA8?$AA6?$AA?$CJ?$AA?2?$AAM?$AAi?$AAc?$AAr?$AAo?$AAs?$AAo?$AAf?$AAt@
	push	OFFSET ??_C@_1BO@NKFMJPA@?$AAs?$AAt?$AAd?$AA?3?$AA?3?$AA_?$AAA?$AAl?$AAl?$AAo?$AAc?$AAa?$AAt?$AAe?$AA?$AA@
	push	OFFSET ??_C@_1CG@JNLFBNGN@?$AA?$CC?$AAi?$AAn?$AAv?$AAa?$AAl?$AAi?$AAd?$AA?5?$AAa?$AAr?$AAg?$AAu?$AAm?$AAe?$AAn?$AAt?$AA?$CC?$AA?$AA@
	call	__invalid_parameter
	add	esp, 20					; 00000014H
$LN7@Allocate:

; 71   : 		_Ptr = reinterpret_cast<void *>((_Ptr_container + _NON_USER_SIZE)

	mov	edx, DWORD PTR __Ptr_container$1[ebp]
	add	edx, 39					; 00000027H
	and	edx, -32				; ffffffe0H
	mov	DWORD PTR __Ptr$[ebp], edx

; 72   : 			& ~(_BIG_ALLOCATION_ALIGNMENT - 1));
; 73   : 		static_cast<uintptr_t *>(_Ptr)[-1] = _Ptr_container;

	mov	eax, 4
	imul	ecx, eax, -1
	mov	edx, DWORD PTR __Ptr$[ebp]
	mov	eax, DWORD PTR __Ptr_container$1[ebp]
	mov	DWORD PTR [edx+ecx], eax

; 74   : 
; 75   :  #ifdef _DEBUG
; 76   : 		static_cast<uintptr_t *>(_Ptr)[-2] = _BIG_ALLOCATION_SENTINEL;

	mov	ecx, 4
	imul	edx, ecx, -2
	mov	eax, DWORD PTR __Ptr$[ebp]
	mov	DWORD PTR [eax+edx], -84215046		; fafafafaH

; 77   :  #endif /* _DEBUG */
; 78   : 		}
; 79   : 	else

	jmp	SHORT $LN5@Allocate
$LN4@Allocate:

; 80   :  #endif /* defined(_M_IX86) || defined(_M_X64) */
; 81   : 
; 82   : 		{	// allocate normal block
; 83   : 		_Ptr = ::operator new(_User_size);

	mov	ecx, DWORD PTR __User_size$[ebp]
	push	ecx
	call	??2@YAPAXI@Z				; operator new
	add	esp, 4
	mov	DWORD PTR __Ptr$[ebp], eax

; 84   : 		_SCL_SECURE_ALWAYS_VALIDATE(_Ptr != 0);

	cmp	DWORD PTR __Ptr$[ebp], 0
	jne	SHORT $LN5@Allocate
	mov	edx, OFFSET ??_C@_09GLJCAGLP@_Ptr?5?$CB?$DN?50?$AA@
	test	edx, edx
	je	SHORT $LN12@Allocate
	xor	eax, eax
	jne	SHORT $LN13@Allocate
$LN12@Allocate:
	push	OFFSET ??_C@_1CC@GKJLLHIM@?$AA?$CC?$AA_?$AAP?$AAt?$AAr?$AA?5?$AA?$CB?$AA?$DN?$AA?5?$AA0?$AA?$CC?$AA?5?$AA?$CG?$AA?$CG?$AA?5?$AA0?$AA?$AA@
	push	OFFSET ??_C@_17CNPHIMPH@?$AA?$CF?$AAl?$AAs?$AA?$AA@
	push	0
	push	84					; 00000054H
	push	OFFSET ??_C@_1JA@HEEMAOGC@?$AAC?$AA?3?$AA?2?$AAP?$AAr?$AAo?$AAg?$AAr?$AAa?$AAm?$AA?5?$AAF?$AAi?$AAl?$AAe?$AAs?$AA?5?$AA?$CI?$AAx?$AA8?$AA6?$AA?$CJ?$AA?2?$AAM?$AAi?$AAc?$AAr?$AAo?$AAs?$AAo?$AAf?$AAt@
	push	2
	call	__CrtDbgReportW
	add	esp, 24					; 00000018H
	cmp	eax, 1
	jne	SHORT $LN13@Allocate
	int	3
$LN13@Allocate:
	push	0
	push	84					; 00000054H
	push	OFFSET ??_C@_1JA@HEEMAOGC@?$AAC?$AA?3?$AA?2?$AAP?$AAr?$AAo?$AAg?$AAr?$AAa?$AAm?$AA?5?$AAF?$AAi?$AAl?$AAe?$AAs?$AA?5?$AA?$CI?$AAx?$AA8?$AA6?$AA?$CJ?$AA?2?$AAM?$AAi?$AAc?$AAr?$AAo?$AAs?$AAo?$AAf?$AAt@
	push	OFFSET ??_C@_1BO@NKFMJPA@?$AAs?$AAt?$AAd?$AA?3?$AA?3?$AA_?$AAA?$AAl?$AAl?$AAo?$AAc?$AAa?$AAt?$AAe?$AA?$AA@
	push	OFFSET ??_C@_1CG@JNLFBNGN@?$AA?$CC?$AAi?$AAn?$AAv?$AAa?$AAl?$AAi?$AAd?$AA?5?$AAa?$AAr?$AAg?$AAu?$AAm?$AAe?$AAn?$AAt?$AA?$CC?$AA?$AA@
	call	__invalid_parameter
	add	esp, 20					; 00000014H
$LN5@Allocate:

; 85   : 		}
; 86   : 	return (_Ptr);

	mov	eax, DWORD PTR __Ptr$[ebp]
$LN9@Allocate:

; 87   : 	}

	add	esp, 16					; 00000010H
	cmp	ebp, esp
	call	__RTC_CheckEsp
	mov	esp, ebp
	pop	ebp
	ret	0
?_Allocate@std@@YAPAXII_N@Z ENDP			; std::_Allocate
_TEXT	ENDS
; Function compile flags: /Odtp /RTCsu
; File c:\program files (x86)\microsoft visual studio 14.0\vc\include\xutility
;	COMDAT ?_Orphan_me@_Iterator_base12@std@@QAEXXZ
_TEXT	SEGMENT
__Pnext$1 = -8						; size = 4
_this$ = -4						; size = 4
?_Orphan_me@_Iterator_base12@std@@QAEXXZ PROC		; std::_Iterator_base12::_Orphan_me, COMDAT
; _this$ = ecx

; 193  : 		{	// cut ties with parent

	push	ebp
	mov	ebp, esp
	sub	esp, 8
	mov	DWORD PTR [ebp-8], -858993460		; ccccccccH
	mov	DWORD PTR [ebp-4], -858993460		; ccccccccH
	mov	DWORD PTR _this$[ebp], ecx

; 194  :  #if _ITERATOR_DEBUG_LEVEL == 2
; 195  : 		if (_Myproxy != 0)

	mov	eax, DWORD PTR _this$[ebp]
	cmp	DWORD PTR [eax], 0
	je	SHORT $LN1@Orphan_me

; 196  : 			{	// adopted, remove self from list
; 197  : 			_Iterator_base12 **_Pnext = &_Myproxy->_Myfirstiter;

	mov	ecx, DWORD PTR _this$[ebp]
	mov	edx, DWORD PTR [ecx]
	add	edx, 4
	mov	DWORD PTR __Pnext$1[ebp], edx
$LN2@Orphan_me:

; 198  : 			while (*_Pnext != 0 && *_Pnext != this)

	mov	eax, DWORD PTR __Pnext$1[ebp]
	cmp	DWORD PTR [eax], 0
	je	SHORT $LN3@Orphan_me
	mov	ecx, DWORD PTR __Pnext$1[ebp]
	mov	edx, DWORD PTR [ecx]
	cmp	edx, DWORD PTR _this$[ebp]
	je	SHORT $LN3@Orphan_me

; 199  : 				_Pnext = &(*_Pnext)->_Mynextiter;

	mov	eax, DWORD PTR __Pnext$1[ebp]
	mov	ecx, DWORD PTR [eax]
	add	ecx, 4
	mov	DWORD PTR __Pnext$1[ebp], ecx
	jmp	SHORT $LN2@Orphan_me
$LN3@Orphan_me:

; 200  : 
; 201  : 			if (*_Pnext == 0)

	mov	edx, DWORD PTR __Pnext$1[ebp]
	cmp	DWORD PTR [edx], 0
	jne	SHORT $LN5@Orphan_me

; 202  : 				_DEBUG_ERROR("ITERATOR LIST CORRUPTED!");

	push	202					; 000000caH
	push	OFFSET ??_C@_1JA@IJKHNLMB@?$AAC?$AA?3?$AA?2?$AAP?$AAr?$AAo?$AAg?$AAr?$AAa?$AAm?$AA?5?$AAF?$AAi?$AAl?$AAe?$AAs?$AA?5?$AA?$CI?$AAx?$AA8?$AA6?$AA?$CJ?$AA?2?$AAM?$AAi?$AAc?$AAr?$AAo?$AAs?$AAo?$AAf?$AAt@
	push	OFFSET ??_C@_1DC@POOIKBAO@?$AAI?$AAT?$AAE?$AAR?$AAA?$AAT?$AAO?$AAR?$AA?5?$AAL?$AAI?$AAS?$AAT?$AA?5?$AAC?$AAO?$AAR?$AAR?$AAU?$AAP?$AAT?$AAE?$AAD?$AA?$CB?$AA?$AA@
	call	?_Debug_message@std@@YAXPB_W0I@Z	; std::_Debug_message
	add	esp, 12					; 0000000cH
$LN5@Orphan_me:

; 203  : 			*_Pnext = _Mynextiter;

	mov	eax, DWORD PTR __Pnext$1[ebp]
	mov	ecx, DWORD PTR _this$[ebp]
	mov	edx, DWORD PTR [ecx+4]
	mov	DWORD PTR [eax], edx

; 204  : 			_Myproxy = 0;

	mov	eax, DWORD PTR _this$[ebp]
	mov	DWORD PTR [eax], 0
$LN1@Orphan_me:

; 205  : 			}
; 206  :  #endif /* _ITERATOR_DEBUG_LEVEL == 2 */
; 207  : 		}

	add	esp, 8
	cmp	ebp, esp
	call	__RTC_CheckEsp
	mov	esp, ebp
	pop	ebp
	ret	0
?_Orphan_me@_Iterator_base12@std@@QAEXXZ ENDP		; std::_Iterator_base12::_Orphan_me
_TEXT	ENDS
; Function compile flags: /Odtp /RTCsu
; File c:\program files (x86)\microsoft visual studio 14.0\vc\include\xutility
;	COMDAT ?_Getpnext@_Iterator_base12@std@@QAEPAPAU12@XZ
_TEXT	SEGMENT
_this$ = -4						; size = 4
?_Getpnext@_Iterator_base12@std@@QAEPAPAU12@XZ PROC	; std::_Iterator_base12::_Getpnext, COMDAT
; _this$ = ecx

; 188  : 		{	// get address of remaining iterator chain

	push	ebp
	mov	ebp, esp
	push	ecx
	mov	DWORD PTR [ebp-4], -858993460		; ccccccccH
	mov	DWORD PTR _this$[ebp], ecx

; 189  : 		return (&_Mynextiter);

	mov	eax, DWORD PTR _this$[ebp]
	add	eax, 4

; 190  : 		}

	mov	esp, ebp
	pop	ebp
	ret	0
?_Getpnext@_Iterator_base12@std@@QAEPAPAU12@XZ ENDP	; std::_Iterator_base12::_Getpnext
_TEXT	ENDS
; Function compile flags: /Odtp /RTCsu
; File c:\program files (x86)\microsoft visual studio 14.0\vc\include\xutility
;	COMDAT ?_Getcont@_Iterator_base12@std@@QBEPBU_Container_base12@2@XZ
_TEXT	SEGMENT
tv68 = -8						; size = 4
_this$ = -4						; size = 4
?_Getcont@_Iterator_base12@std@@QBEPBU_Container_base12@2@XZ PROC ; std::_Iterator_base12::_Getcont, COMDAT
; _this$ = ecx

; 183  : 		{	// get owning container

	push	ebp
	mov	ebp, esp
	sub	esp, 8
	mov	DWORD PTR [ebp-8], -858993460		; ccccccccH
	mov	DWORD PTR [ebp-4], -858993460		; ccccccccH
	mov	DWORD PTR _this$[ebp], ecx

; 184  : 		return (_Myproxy == 0 ? 0 : _Myproxy->_Mycont);

	mov	eax, DWORD PTR _this$[ebp]
	cmp	DWORD PTR [eax], 0
	jne	SHORT $LN3@Getcont
	mov	DWORD PTR tv68[ebp], 0
	jmp	SHORT $LN4@Getcont
$LN3@Getcont:
	mov	ecx, DWORD PTR _this$[ebp]
	mov	edx, DWORD PTR [ecx]
	mov	eax, DWORD PTR [edx]
	mov	DWORD PTR tv68[ebp], eax
$LN4@Getcont:
	mov	eax, DWORD PTR tv68[ebp]

; 185  : 		}

	mov	esp, ebp
	pop	ebp
	ret	0
?_Getcont@_Iterator_base12@std@@QBEPBU_Container_base12@2@XZ ENDP ; std::_Iterator_base12::_Getcont
_TEXT	ENDS
; Function compile flags: /Odtp /RTCsu
; File c:\program files (x86)\microsoft visual studio 14.0\vc\include\xutility
;	COMDAT ?_Clrcont@_Iterator_base12@std@@QAEXXZ
_TEXT	SEGMENT
_this$ = -4						; size = 4
?_Clrcont@_Iterator_base12@std@@QAEXXZ PROC		; std::_Iterator_base12::_Clrcont, COMDAT
; _this$ = ecx

; 178  : 		{	// disown owning container

	push	ebp
	mov	ebp, esp
	push	ecx
	mov	DWORD PTR [ebp-4], -858993460		; ccccccccH
	mov	DWORD PTR _this$[ebp], ecx

; 179  : 		_Myproxy = 0;

	mov	eax, DWORD PTR _this$[ebp]
	mov	DWORD PTR [eax], 0

; 180  : 		}

	mov	esp, ebp
	pop	ebp
	ret	0
?_Clrcont@_Iterator_base12@std@@QAEXXZ ENDP		; std::_Iterator_base12::_Clrcont
_TEXT	ENDS
; Function compile flags: /Odtp /RTCsu
; File c:\program files (x86)\microsoft visual studio 14.0\vc\include\xutility
;	COMDAT ?_Adopt@_Iterator_base12@std@@QAEXPBU_Container_base12@2@@Z
_TEXT	SEGMENT
__Lock$2 = -40						; size = 4
__Parent_proxy$3 = -32					; size = 4
__Lock$4 = -24						; size = 4
_this$ = -16						; size = 4
__$EHRec$ = -12						; size = 12
__Parent$ = 8						; size = 4
?_Adopt@_Iterator_base12@std@@QAEXPBU_Container_base12@2@@Z PROC ; std::_Iterator_base12::_Adopt, COMDAT
; _this$ = ecx

; 149  : 		{	// adopt this iterator by parent

	push	ebp
	mov	ebp, esp
	push	-1
	push	__ehhandler$?_Adopt@_Iterator_base12@std@@QAEXPBU_Container_base12@2@@Z
	mov	eax, DWORD PTR fs:0
	push	eax
	sub	esp, 32					; 00000020H
	mov	eax, -858993460				; ccccccccH
	mov	DWORD PTR [ebp-44], eax
	mov	DWORD PTR [ebp-40], eax
	mov	DWORD PTR [ebp-36], eax
	mov	DWORD PTR [ebp-32], eax
	mov	DWORD PTR [ebp-28], eax
	mov	DWORD PTR [ebp-24], eax
	mov	DWORD PTR [ebp-20], eax
	mov	DWORD PTR [ebp-16], eax
	mov	eax, DWORD PTR ___security_cookie
	xor	eax, ebp
	push	eax
	lea	eax, DWORD PTR __$EHRec$[ebp]
	mov	DWORD PTR fs:0, eax
	mov	DWORD PTR _this$[ebp], ecx

; 150  : 		if (_Parent == 0)

	cmp	DWORD PTR __Parent$[ebp], 0
	jne	SHORT $LN2@Adopt

; 151  : 			{	// no future parent, just disown current parent
; 152  :  #if _ITERATOR_DEBUG_LEVEL == 2
; 153  : 			_Lockit _Lock(_LOCK_DEBUG);

	push	3
	lea	ecx, DWORD PTR __Lock$4[ebp]
	call	??0_Lockit@std@@QAE@H@Z			; std::_Lockit::_Lockit
	mov	DWORD PTR __$EHRec$[ebp+8], 0

; 154  : 			_Orphan_me();

	mov	ecx, DWORD PTR _this$[ebp]
	call	?_Orphan_me@_Iterator_base12@std@@QAEXXZ ; std::_Iterator_base12::_Orphan_me

; 155  :  #endif /* _ITERATOR_DEBUG_LEVEL == 2 */
; 156  : 			}

	mov	DWORD PTR __$EHRec$[ebp+8], -1
	lea	ecx, DWORD PTR __Lock$4[ebp]
	call	??1_Lockit@std@@QAE@XZ			; std::_Lockit::~_Lockit

; 157  : 		else

	jmp	SHORT $LN1@Adopt
$LN2@Adopt:

; 158  : 			{	// have a parent, do adoption
; 159  : 			_Container_proxy *_Parent_proxy = _Parent->_Myproxy;

	mov	eax, DWORD PTR __Parent$[ebp]
	mov	ecx, DWORD PTR [eax]
	mov	DWORD PTR __Parent_proxy$3[ebp], ecx

; 160  : 
; 161  :  #if _ITERATOR_DEBUG_LEVEL == 2
; 162  : 			if (_Myproxy != _Parent_proxy)

	mov	edx, DWORD PTR _this$[ebp]
	mov	eax, DWORD PTR [edx]
	cmp	eax, DWORD PTR __Parent_proxy$3[ebp]
	je	SHORT $LN1@Adopt

; 163  : 				{	// change parentage
; 164  : 				_Lockit _Lock(_LOCK_DEBUG);

	push	3
	lea	ecx, DWORD PTR __Lock$2[ebp]
	call	??0_Lockit@std@@QAE@H@Z			; std::_Lockit::_Lockit
	mov	DWORD PTR __$EHRec$[ebp+8], 1

; 165  : 				_Orphan_me();

	mov	ecx, DWORD PTR _this$[ebp]
	call	?_Orphan_me@_Iterator_base12@std@@QAEXXZ ; std::_Iterator_base12::_Orphan_me

; 166  : 				_Mynextiter = _Parent_proxy->_Myfirstiter;

	mov	ecx, DWORD PTR _this$[ebp]
	mov	edx, DWORD PTR __Parent_proxy$3[ebp]
	mov	eax, DWORD PTR [edx+4]
	mov	DWORD PTR [ecx+4], eax

; 167  : 				_Parent_proxy->_Myfirstiter = this;

	mov	ecx, DWORD PTR __Parent_proxy$3[ebp]
	mov	edx, DWORD PTR _this$[ebp]
	mov	DWORD PTR [ecx+4], edx

; 168  : 				_Myproxy = _Parent_proxy;

	mov	eax, DWORD PTR _this$[ebp]
	mov	ecx, DWORD PTR __Parent_proxy$3[ebp]
	mov	DWORD PTR [eax], ecx

; 169  : 				}

	mov	DWORD PTR __$EHRec$[ebp+8], -1
	lea	ecx, DWORD PTR __Lock$2[ebp]
	call	??1_Lockit@std@@QAE@XZ			; std::_Lockit::~_Lockit
$LN1@Adopt:

; 170  : 
; 171  :  #else /* _ITERATOR_DEBUG_LEVEL == 2 */
; 172  : 			_Myproxy = _Parent_proxy;
; 173  :  #endif /* _ITERATOR_DEBUG_LEVEL == 2 */
; 174  : 			}
; 175  : 		}

	push	edx
	mov	ecx, ebp
	push	eax
	lea	edx, DWORD PTR $LN12@Adopt
	call	@_RTC_CheckStackVars@8
	pop	eax
	pop	edx
	mov	ecx, DWORD PTR __$EHRec$[ebp]
	mov	DWORD PTR fs:0, ecx
	pop	ecx
	add	esp, 44					; 0000002cH
	cmp	ebp, esp
	call	__RTC_CheckEsp
	mov	esp, ebp
	pop	ebp
	ret	4
$LN12@Adopt:
	DD	2
	DD	$LN11@Adopt
$LN11@Adopt:
	DD	-24					; ffffffe8H
	DD	4
	DD	$LN8@Adopt
	DD	-40					; ffffffd8H
	DD	4
	DD	$LN9@Adopt
$LN9@Adopt:
	DB	95					; 0000005fH
	DB	76					; 0000004cH
	DB	111					; 0000006fH
	DB	99					; 00000063H
	DB	107					; 0000006bH
	DB	0
$LN8@Adopt:
	DB	95					; 0000005fH
	DB	76					; 0000004cH
	DB	111					; 0000006fH
	DB	99					; 00000063H
	DB	107					; 0000006bH
	DB	0
_TEXT	ENDS
;	COMDAT text$x
text$x	SEGMENT
__unwindfunclet$?_Adopt@_Iterator_base12@std@@QAEXPBU_Container_base12@2@@Z$0:
	lea	ecx, DWORD PTR __Lock$4[ebp]
	jmp	??1_Lockit@std@@QAE@XZ			; std::_Lockit::~_Lockit
__unwindfunclet$?_Adopt@_Iterator_base12@std@@QAEXPBU_Container_base12@2@@Z$1:
	lea	ecx, DWORD PTR __Lock$2[ebp]
	jmp	??1_Lockit@std@@QAE@XZ			; std::_Lockit::~_Lockit
__ehhandler$?_Adopt@_Iterator_base12@std@@QAEXPBU_Container_base12@2@@Z:
	mov	edx, DWORD PTR [esp+8]
	lea	eax, DWORD PTR [edx+12]
	mov	ecx, DWORD PTR [edx-36]
	xor	ecx, eax
	call	@__security_check_cookie@4
	mov	eax, OFFSET __ehfuncinfo$?_Adopt@_Iterator_base12@std@@QAEXPBU_Container_base12@2@@Z
	jmp	___CxxFrameHandler3
text$x	ENDS
?_Adopt@_Iterator_base12@std@@QAEXPBU_Container_base12@2@@Z ENDP ; std::_Iterator_base12::_Adopt
; Function compile flags: /Odtp /RTCsu
; File c:\program files (x86)\microsoft visual studio 14.0\vc\include\xutility
;	COMDAT ??1_Iterator_base12@std@@QAE@XZ
_TEXT	SEGMENT
__Lock$ = -24						; size = 4
_this$ = -16						; size = 4
__$EHRec$ = -12						; size = 12
??1_Iterator_base12@std@@QAE@XZ PROC			; std::_Iterator_base12::~_Iterator_base12, COMDAT
; _this$ = ecx

; 141  : 		{	// destroy the iterator

	push	ebp
	mov	ebp, esp
	push	-1
	push	__ehhandler$??1_Iterator_base12@std@@QAE@XZ
	mov	eax, DWORD PTR fs:0
	push	eax
	sub	esp, 16					; 00000010H
	mov	eax, -858993460				; ccccccccH
	mov	DWORD PTR [ebp-28], eax
	mov	DWORD PTR [ebp-24], eax
	mov	DWORD PTR [ebp-20], eax
	mov	DWORD PTR [ebp-16], eax
	mov	eax, DWORD PTR ___security_cookie
	xor	eax, ebp
	push	eax
	lea	eax, DWORD PTR __$EHRec$[ebp]
	mov	DWORD PTR fs:0, eax
	mov	DWORD PTR _this$[ebp], ecx

; 142  :  #if _ITERATOR_DEBUG_LEVEL == 2
; 143  : 		_Lockit _Lock(_LOCK_DEBUG);

	push	3
	lea	ecx, DWORD PTR __Lock$[ebp]
	call	??0_Lockit@std@@QAE@H@Z			; std::_Lockit::_Lockit

; 144  : 		_Orphan_me();

	mov	ecx, DWORD PTR _this$[ebp]
	call	?_Orphan_me@_Iterator_base12@std@@QAEXXZ ; std::_Iterator_base12::_Orphan_me

; 145  :  #endif /* _ITERATOR_DEBUG_LEVEL == 2 */
; 146  : 		}

	lea	ecx, DWORD PTR __Lock$[ebp]
	call	??1_Lockit@std@@QAE@XZ			; std::_Lockit::~_Lockit
	push	edx
	mov	ecx, ebp
	push	eax
	lea	edx, DWORD PTR $LN6@Iterator_b
	call	@_RTC_CheckStackVars@8
	pop	eax
	pop	edx
	mov	ecx, DWORD PTR __$EHRec$[ebp]
	mov	DWORD PTR fs:0, ecx
	pop	ecx
	add	esp, 28					; 0000001cH
	cmp	ebp, esp
	call	__RTC_CheckEsp
	mov	esp, ebp
	pop	ebp
	ret	0
	npad	3
$LN6@Iterator_b:
	DD	1
	DD	$LN5@Iterator_b
$LN5@Iterator_b:
	DD	-24					; ffffffe8H
	DD	4
	DD	$LN3@Iterator_b
$LN3@Iterator_b:
	DB	95					; 0000005fH
	DB	76					; 0000004cH
	DB	111					; 0000006fH
	DB	99					; 00000063H
	DB	107					; 0000006bH
	DB	0
_TEXT	ENDS
;	COMDAT text$x
text$x	SEGMENT
__ehhandler$??1_Iterator_base12@std@@QAE@XZ:
	mov	edx, DWORD PTR [esp+8]
	lea	eax, DWORD PTR [edx+12]
	mov	ecx, DWORD PTR [edx-20]
	xor	ecx, eax
	call	@__security_check_cookie@4
	mov	eax, OFFSET __ehfuncinfo$??1_Iterator_base12@std@@QAE@XZ
	jmp	___CxxFrameHandler3
text$x	ENDS
??1_Iterator_base12@std@@QAE@XZ ENDP			; std::_Iterator_base12::~_Iterator_base12
; Function compile flags: /Odtp /RTCsu
; File c:\program files (x86)\microsoft visual studio 14.0\vc\include\xutility
;	COMDAT ??4_Iterator_base12@std@@QAEAAU01@ABU01@@Z
_TEXT	SEGMENT
__Lock$2 = -24						; size = 4
_this$ = -16						; size = 4
__$EHRec$ = -12						; size = 12
__Right$ = 8						; size = 4
??4_Iterator_base12@std@@QAEAAU01@ABU01@@Z PROC		; std::_Iterator_base12::operator=, COMDAT
; _this$ = ecx

; 124  : 		{	// assign an iterator

	push	ebp
	mov	ebp, esp
	push	-1
	push	__ehhandler$??4_Iterator_base12@std@@QAEAAU01@ABU01@@Z
	mov	eax, DWORD PTR fs:0
	push	eax
	sub	esp, 16					; 00000010H
	mov	eax, -858993460				; ccccccccH
	mov	DWORD PTR [ebp-28], eax
	mov	DWORD PTR [ebp-24], eax
	mov	DWORD PTR [ebp-20], eax
	mov	DWORD PTR [ebp-16], eax
	mov	eax, DWORD PTR ___security_cookie
	xor	eax, ebp
	push	eax
	lea	eax, DWORD PTR __$EHRec$[ebp]
	mov	DWORD PTR fs:0, eax
	mov	DWORD PTR _this$[ebp], ecx

; 125  : 		if (_Myproxy == _Right._Myproxy)

	mov	eax, DWORD PTR _this$[ebp]
	mov	ecx, DWORD PTR __Right$[ebp]
	mov	edx, DWORD PTR [eax]
	cmp	edx, DWORD PTR [ecx]
	jne	SHORT $LN2@operator
	jmp	SHORT $LN3@operator
$LN2@operator:

; 126  : 			;
; 127  : 		else if (_Right._Myproxy != 0)

	mov	eax, DWORD PTR __Right$[ebp]
	cmp	DWORD PTR [eax], 0
	je	SHORT $LN4@operator

; 128  : 			_Adopt(_Right._Myproxy->_Mycont);

	mov	ecx, DWORD PTR __Right$[ebp]
	mov	edx, DWORD PTR [ecx]
	mov	eax, DWORD PTR [edx]
	push	eax
	mov	ecx, DWORD PTR _this$[ebp]
	call	?_Adopt@_Iterator_base12@std@@QAEXPBU_Container_base12@2@@Z ; std::_Iterator_base12::_Adopt

; 129  : 		else

	jmp	SHORT $LN3@operator
$LN4@operator:

; 130  : 			{	// becoming invalid, disown current parent
; 131  :  #if _ITERATOR_DEBUG_LEVEL == 2
; 132  : 			_Lockit _Lock(_LOCK_DEBUG);

	push	3
	lea	ecx, DWORD PTR __Lock$2[ebp]
	call	??0_Lockit@std@@QAE@H@Z			; std::_Lockit::_Lockit
	mov	DWORD PTR __$EHRec$[ebp+8], 0

; 133  : 			_Orphan_me();

	mov	ecx, DWORD PTR _this$[ebp]
	call	?_Orphan_me@_Iterator_base12@std@@QAEXXZ ; std::_Iterator_base12::_Orphan_me

; 134  :  #endif /* _ITERATOR_DEBUG_LEVEL == 2 */
; 135  : 			}

	mov	DWORD PTR __$EHRec$[ebp+8], -1
	lea	ecx, DWORD PTR __Lock$2[ebp]
	call	??1_Lockit@std@@QAE@XZ			; std::_Lockit::~_Lockit
$LN3@operator:

; 136  : 
; 137  : 		return (*this);

	mov	eax, DWORD PTR _this$[ebp]

; 138  : 		}

	push	edx
	mov	ecx, ebp
	push	eax
	lea	edx, DWORD PTR $LN11@operator
	call	@_RTC_CheckStackVars@8
	pop	eax
	pop	edx
	mov	ecx, DWORD PTR __$EHRec$[ebp]
	mov	DWORD PTR fs:0, ecx
	pop	ecx
	add	esp, 28					; 0000001cH
	cmp	ebp, esp
	call	__RTC_CheckEsp
	mov	esp, ebp
	pop	ebp
	ret	4
$LN11@operator:
	DD	1
	DD	$LN10@operator
$LN10@operator:
	DD	-24					; ffffffe8H
	DD	4
	DD	$LN8@operator
$LN8@operator:
	DB	95					; 0000005fH
	DB	76					; 0000004cH
	DB	111					; 0000006fH
	DB	99					; 00000063H
	DB	107					; 0000006bH
	DB	0
_TEXT	ENDS
;	COMDAT text$x
text$x	SEGMENT
__unwindfunclet$??4_Iterator_base12@std@@QAEAAU01@ABU01@@Z$0:
	lea	ecx, DWORD PTR __Lock$2[ebp]
	jmp	??1_Lockit@std@@QAE@XZ			; std::_Lockit::~_Lockit
__ehhandler$??4_Iterator_base12@std@@QAEAAU01@ABU01@@Z:
	mov	edx, DWORD PTR [esp+8]
	lea	eax, DWORD PTR [edx+12]
	mov	ecx, DWORD PTR [edx-20]
	xor	ecx, eax
	call	@__security_check_cookie@4
	mov	eax, OFFSET __ehfuncinfo$??4_Iterator_base12@std@@QAEAAU01@ABU01@@Z
	jmp	___CxxFrameHandler3
text$x	ENDS
??4_Iterator_base12@std@@QAEAAU01@ABU01@@Z ENDP		; std::_Iterator_base12::operator=
; Function compile flags: /Odtp /RTCsu
; File c:\program files (x86)\microsoft visual studio 14.0\vc\include\xutility
;	COMDAT ??0_Iterator_base12@std@@QAE@XZ
_TEXT	SEGMENT
_this$ = -4						; size = 4
??0_Iterator_base12@std@@QAE@XZ PROC			; std::_Iterator_base12::_Iterator_base12, COMDAT
; _this$ = ecx

; 114  : 		{	// construct orphaned iterator

	push	ebp
	mov	ebp, esp
	push	ecx
	mov	DWORD PTR [ebp-4], -858993460		; ccccccccH
	mov	DWORD PTR _this$[ebp], ecx

; 113  : 		: _Myproxy(0), _Mynextiter(0)

	mov	eax, DWORD PTR _this$[ebp]
	mov	DWORD PTR [eax], 0
	mov	ecx, DWORD PTR _this$[ebp]
	mov	DWORD PTR [ecx+4], 0

; 115  : 		}

	mov	eax, DWORD PTR _this$[ebp]
	mov	esp, ebp
	pop	ebp
	ret	0
??0_Iterator_base12@std@@QAE@XZ ENDP			; std::_Iterator_base12::_Iterator_base12
_TEXT	ENDS
; Function compile flags: /Odtp /RTCsu
; File c:\program files (x86)\microsoft visual studio 14.0\vc\include\xutility
;	COMDAT ?_Orphan_all@_Container_base12@std@@QAEXXZ
_TEXT	SEGMENT
__Pnext$1 = -20						; size = 4
__Lock$2 = -12						; size = 4
_this$ = -4						; size = 4
?_Orphan_all@_Container_base12@std@@QAEXXZ PROC		; std::_Container_base12::_Orphan_all, COMDAT
; _this$ = ecx

; 215  : 	{	// orphan all iterators

	push	ebp
	mov	ebp, esp
	sub	esp, 20					; 00000014H
	mov	eax, -858993460				; ccccccccH
	mov	DWORD PTR [ebp-20], eax
	mov	DWORD PTR [ebp-16], eax
	mov	DWORD PTR [ebp-12], eax
	mov	DWORD PTR [ebp-8], eax
	mov	DWORD PTR [ebp-4], eax
	mov	DWORD PTR _this$[ebp], ecx

; 216  :  #if _ITERATOR_DEBUG_LEVEL == 2
; 217  : 	if (_Myproxy != 0)

	mov	eax, DWORD PTR _this$[ebp]
	cmp	DWORD PTR [eax], 0
	je	SHORT $LN1@Orphan_all

; 218  : 		{	// proxy allocated, drain it
; 219  : 		_Lockit _Lock(_LOCK_DEBUG);

	push	3
	lea	ecx, DWORD PTR __Lock$2[ebp]
	call	??0_Lockit@std@@QAE@H@Z			; std::_Lockit::_Lockit

; 220  : 
; 221  : 		for (_Iterator_base12 **_Pnext = &_Myproxy->_Myfirstiter;

	mov	ecx, DWORD PTR _this$[ebp]
	mov	edx, DWORD PTR [ecx]
	add	edx, 4
	mov	DWORD PTR __Pnext$1[ebp], edx
	jmp	SHORT $LN4@Orphan_all
$LN2@Orphan_all:

; 222  : 			*_Pnext != 0; *_Pnext = (*_Pnext)->_Mynextiter)

	mov	eax, DWORD PTR __Pnext$1[ebp]
	mov	ecx, DWORD PTR [eax]
	mov	edx, DWORD PTR __Pnext$1[ebp]
	mov	eax, DWORD PTR [ecx+4]
	mov	DWORD PTR [edx], eax
$LN4@Orphan_all:
	mov	ecx, DWORD PTR __Pnext$1[ebp]
	cmp	DWORD PTR [ecx], 0
	je	SHORT $LN3@Orphan_all

; 223  : 			(*_Pnext)->_Myproxy = 0;

	mov	edx, DWORD PTR __Pnext$1[ebp]
	mov	eax, DWORD PTR [edx]
	mov	DWORD PTR [eax], 0
	jmp	SHORT $LN2@Orphan_all
$LN3@Orphan_all:

; 224  : 		_Myproxy->_Myfirstiter = 0;

	mov	ecx, DWORD PTR _this$[ebp]
	mov	edx, DWORD PTR [ecx]
	mov	DWORD PTR [edx+4], 0

; 225  : 		}

	lea	ecx, DWORD PTR __Lock$2[ebp]
	call	??1_Lockit@std@@QAE@XZ			; std::_Lockit::~_Lockit
$LN1@Orphan_all:

; 226  :  #endif /* _ITERATOR_DEBUG_LEVEL == 2 */
; 227  : 	}

	push	edx
	mov	ecx, ebp
	push	eax
	lea	edx, DWORD PTR $LN10@Orphan_all
	call	@_RTC_CheckStackVars@8
	pop	eax
	pop	edx
	add	esp, 20					; 00000014H
	cmp	ebp, esp
	call	__RTC_CheckEsp
	mov	esp, ebp
	pop	ebp
	ret	0
	npad	3
$LN10@Orphan_all:
	DD	1
	DD	$LN9@Orphan_all
$LN9@Orphan_all:
	DD	-12					; fffffff4H
	DD	4
	DD	$LN8@Orphan_all
$LN8@Orphan_all:
	DB	95					; 0000005fH
	DB	76					; 0000004cH
	DB	111					; 0000006fH
	DB	99					; 00000063H
	DB	107					; 0000006bH
	DB	0
?_Orphan_all@_Container_base12@std@@QAEXXZ ENDP		; std::_Container_base12::_Orphan_all
_TEXT	ENDS
; Function compile flags: /Odtp /RTCsu
; File c:\program files (x86)\microsoft visual studio 14.0\vc\include\xutility
;	COMDAT ?_Getpfirst@_Container_base12@std@@QBEPAPAU_Iterator_base12@2@XZ
_TEXT	SEGMENT
tv68 = -8						; size = 4
_this$ = -4						; size = 4
?_Getpfirst@_Container_base12@std@@QBEPAPAU_Iterator_base12@2@XZ PROC ; std::_Container_base12::_Getpfirst, COMDAT
; _this$ = ecx

; 99   : 		{	// get address of iterator chain

	push	ebp
	mov	ebp, esp
	sub	esp, 8
	mov	DWORD PTR [ebp-8], -858993460		; ccccccccH
	mov	DWORD PTR [ebp-4], -858993460		; ccccccccH
	mov	DWORD PTR _this$[ebp], ecx

; 100  : 		return (_Myproxy == 0 ? 0 : &_Myproxy->_Myfirstiter);

	mov	eax, DWORD PTR _this$[ebp]
	cmp	DWORD PTR [eax], 0
	jne	SHORT $LN3@Getpfirst
	mov	DWORD PTR tv68[ebp], 0
	jmp	SHORT $LN4@Getpfirst
$LN3@Getpfirst:
	mov	ecx, DWORD PTR _this$[ebp]
	mov	edx, DWORD PTR [ecx]
	add	edx, 4
	mov	DWORD PTR tv68[ebp], edx
$LN4@Getpfirst:
	mov	eax, DWORD PTR tv68[ebp]

; 101  : 		}

	mov	esp, ebp
	pop	ebp
	ret	0
?_Getpfirst@_Container_base12@std@@QBEPAPAU_Iterator_base12@2@XZ ENDP ; std::_Container_base12::_Getpfirst
_TEXT	ENDS
; Function compile flags: /Odtp /RTCsu
; File c:\program files (x86)\microsoft visual studio 14.0\vc\include\xutility
;	COMDAT ??1_Container_base12@std@@QAE@XZ
_TEXT	SEGMENT
_this$ = -16						; size = 4
__$EHRec$ = -12						; size = 12
??1_Container_base12@std@@QAE@XZ PROC			; std::_Container_base12::~_Container_base12, COMDAT
; _this$ = ecx

; 94   : 		{	// destroy the container

	push	ebp
	mov	ebp, esp
	push	-1
	push	__ehhandler$??1_Container_base12@std@@QAE@XZ
	mov	eax, DWORD PTR fs:0
	push	eax
	push	ecx
	mov	DWORD PTR [ebp-16], -858993460		; ccccccccH
	mov	eax, DWORD PTR ___security_cookie
	xor	eax, ebp
	push	eax
	lea	eax, DWORD PTR __$EHRec$[ebp]
	mov	DWORD PTR fs:0, eax
	mov	DWORD PTR _this$[ebp], ecx

; 95   : 		_Orphan_all();

	mov	ecx, DWORD PTR _this$[ebp]
	call	?_Orphan_all@_Container_base12@std@@QAEXXZ ; std::_Container_base12::_Orphan_all

; 96   : 		}

	mov	ecx, DWORD PTR __$EHRec$[ebp]
	mov	DWORD PTR fs:0, ecx
	pop	ecx
	add	esp, 16					; 00000010H
	cmp	ebp, esp
	call	__RTC_CheckEsp
	mov	esp, ebp
	pop	ebp
	ret	0
_TEXT	ENDS
;	COMDAT text$x
text$x	SEGMENT
__ehhandler$??1_Container_base12@std@@QAE@XZ:
	mov	edx, DWORD PTR [esp+8]
	lea	eax, DWORD PTR [edx+12]
	mov	ecx, DWORD PTR [edx-8]
	xor	ecx, eax
	call	@__security_check_cookie@4
	mov	eax, OFFSET __ehfuncinfo$??1_Container_base12@std@@QAE@XZ
	jmp	___CxxFrameHandler3
text$x	ENDS
??1_Container_base12@std@@QAE@XZ ENDP			; std::_Container_base12::~_Container_base12
; Function compile flags: /Odtp /RTCsu
; File c:\program files (x86)\microsoft visual studio 14.0\vc\include\xutility
;	COMDAT ??0_Container_base12@std@@QAE@XZ
_TEXT	SEGMENT
_this$ = -4						; size = 4
??0_Container_base12@std@@QAE@XZ PROC			; std::_Container_base12::_Container_base12, COMDAT
; _this$ = ecx

; 80   : 		{	// construct childless container

	push	ebp
	mov	ebp, esp
	push	ecx
	mov	DWORD PTR [ebp-4], -858993460		; ccccccccH
	mov	DWORD PTR _this$[ebp], ecx

; 79   : 		: _Myproxy(0)

	mov	eax, DWORD PTR _this$[ebp]
	mov	DWORD PTR [eax], 0

; 81   : 		}

	mov	eax, DWORD PTR _this$[ebp]
	mov	esp, ebp
	pop	ebp
	ret	0
??0_Container_base12@std@@QAE@XZ ENDP			; std::_Container_base12::_Container_base12
_TEXT	ENDS
; Function compile flags: /Odtp /RTCsu
; File c:\program files (x86)\microsoft visual studio 14.0\vc\include\xutility
;	COMDAT ??0_Container_proxy@std@@QAE@XZ
_TEXT	SEGMENT
_this$ = -4						; size = 4
??0_Container_proxy@std@@QAE@XZ PROC			; std::_Container_proxy::_Container_proxy, COMDAT
; _this$ = ecx

; 68   : 		{	// construct from pointers

	push	ebp
	mov	ebp, esp
	push	ecx
	mov	DWORD PTR [ebp-4], -858993460		; ccccccccH
	mov	DWORD PTR _this$[ebp], ecx

; 67   : 		: _Mycont(0), _Myfirstiter(0)

	mov	eax, DWORD PTR _this$[ebp]
	mov	DWORD PTR [eax], 0
	mov	ecx, DWORD PTR _this$[ebp]
	mov	DWORD PTR [ecx+4], 0

; 69   : 		}

	mov	eax, DWORD PTR _this$[ebp]
	mov	esp, ebp
	pop	ebp
	ret	0
??0_Container_proxy@std@@QAE@XZ ENDP			; std::_Container_proxy::_Container_proxy
_TEXT	ENDS
; Function compile flags: /Odtp /RTCsu
;	COMDAT ??_Gexception@std@@UAEPAXI@Z
_TEXT	SEGMENT
_this$ = -4						; size = 4
___flags$ = 8						; size = 4
??_Gexception@std@@UAEPAXI@Z PROC			; std::exception::`scalar deleting destructor', COMDAT
; _this$ = ecx
	push	ebp
	mov	ebp, esp
	push	ecx
	mov	DWORD PTR [ebp-4], -858993460		; ccccccccH
	mov	DWORD PTR _this$[ebp], ecx
	mov	ecx, DWORD PTR _this$[ebp]
	call	??1exception@std@@UAE@XZ		; std::exception::~exception
	mov	eax, DWORD PTR ___flags$[ebp]
	and	eax, 1
	je	SHORT $LN2@scalar
	push	12					; 0000000cH
	mov	ecx, DWORD PTR _this$[ebp]
	push	ecx
	call	??3@YAXPAXI@Z				; operator delete
	add	esp, 8
$LN2@scalar:
	mov	eax, DWORD PTR _this$[ebp]
	add	esp, 4
	cmp	ebp, esp
	call	__RTC_CheckEsp
	mov	esp, ebp
	pop	ebp
	ret	4
??_Gexception@std@@UAEPAXI@Z ENDP			; std::exception::`scalar deleting destructor'
_TEXT	ENDS
; Function compile flags: /Odtp /RTCsu
; File c:\program files (x86)\microsoft visual studio 14.0\vc\include\vcruntime_exception.h
;	COMDAT ?what@exception@std@@UBEPBDXZ
_TEXT	SEGMENT
tv69 = -8						; size = 4
_this$ = -4						; size = 4
?what@exception@std@@UBEPBDXZ PROC			; std::exception::what, COMDAT
; _this$ = ecx

; 88   :     {

	push	ebp
	mov	ebp, esp
	sub	esp, 8
	mov	DWORD PTR [ebp-8], -858993460		; ccccccccH
	mov	DWORD PTR [ebp-4], -858993460		; ccccccccH
	mov	DWORD PTR _this$[ebp], ecx

; 89   :         return _Data._What ? _Data._What : "Unknown exception";

	mov	eax, DWORD PTR _this$[ebp]
	cmp	DWORD PTR [eax+4], 0
	je	SHORT $LN3@what
	mov	ecx, DWORD PTR _this$[ebp]
	mov	edx, DWORD PTR [ecx+4]
	mov	DWORD PTR tv69[ebp], edx
	jmp	SHORT $LN4@what
$LN3@what:
	mov	DWORD PTR tv69[ebp], OFFSET ??_C@_0BC@EOODALEL@Unknown?5exception?$AA@
$LN4@what:
	mov	eax, DWORD PTR tv69[ebp]

; 90   :     }

	mov	esp, ebp
	pop	ebp
	ret	0
?what@exception@std@@UBEPBDXZ ENDP			; std::exception::what
_TEXT	ENDS
; Function compile flags: /Odtp /RTCsu
; File c:\program files (x86)\microsoft visual studio 14.0\vc\include\vcruntime_exception.h
;	COMDAT ??1exception@std@@UAE@XZ
_TEXT	SEGMENT
_this$ = -4						; size = 4
??1exception@std@@UAE@XZ PROC				; std::exception::~exception, COMDAT
; _this$ = ecx

; 83   :     {

	push	ebp
	mov	ebp, esp
	push	ecx
	mov	DWORD PTR [ebp-4], -858993460		; ccccccccH
	mov	DWORD PTR _this$[ebp], ecx
	mov	eax, DWORD PTR _this$[ebp]
	mov	DWORD PTR [eax], OFFSET ??_7exception@std@@6B@

; 84   :         __std_exception_destroy(&_Data);

	mov	ecx, DWORD PTR _this$[ebp]
	add	ecx, 4
	push	ecx
	call	___std_exception_destroy
	add	esp, 4

; 85   :     }

	add	esp, 4
	cmp	ebp, esp
	call	__RTC_CheckEsp
	mov	esp, ebp
	pop	ebp
	ret	0
??1exception@std@@UAE@XZ ENDP				; std::exception::~exception
_TEXT	ENDS
; Function compile flags: /Odtp /RTCsu
; File c:\program files (x86)\microsoft visual studio 14.0\vc\include\vcruntime_exception.h
;	COMDAT ??0exception@std@@QAE@ABV01@@Z
_TEXT	SEGMENT
_this$ = -4						; size = 4
__Other$ = 8						; size = 4
??0exception@std@@QAE@ABV01@@Z PROC			; std::exception::exception, COMDAT
; _this$ = ecx

; 66   :     {

	push	ebp
	mov	ebp, esp
	push	ecx
	mov	DWORD PTR [ebp-4], -858993460		; ccccccccH
	mov	DWORD PTR _this$[ebp], ecx
	mov	eax, DWORD PTR _this$[ebp]
	mov	DWORD PTR [eax], OFFSET ??_7exception@std@@6B@

; 65   :         : _Data()

	xor	ecx, ecx
	mov	edx, DWORD PTR _this$[ebp]
	add	edx, 4
	mov	DWORD PTR [edx], ecx
	mov	DWORD PTR [edx+4], ecx

; 67   :         __std_exception_copy(&_Other._Data, &_Data);

	mov	eax, DWORD PTR _this$[ebp]
	add	eax, 4
	push	eax
	mov	ecx, DWORD PTR __Other$[ebp]
	add	ecx, 4
	push	ecx
	call	___std_exception_copy
	add	esp, 8

; 68   :     }

	mov	eax, DWORD PTR _this$[ebp]
	add	esp, 4
	cmp	ebp, esp
	call	__RTC_CheckEsp
	mov	esp, ebp
	pop	ebp
	ret	4
??0exception@std@@QAE@ABV01@@Z ENDP			; std::exception::exception
_TEXT	ENDS
; Function compile flags: /Odtp /RTCsu
; File c:\program files (x86)\microsoft visual studio 14.0\vc\include\vcruntime_exception.h
;	COMDAT ??0exception@std@@QAE@QBD@Z
_TEXT	SEGMENT
__InitData$ = -16					; size = 8
_this$ = -4						; size = 4
__Message$ = 8						; size = 4
??0exception@std@@QAE@QBD@Z PROC			; std::exception::exception, COMDAT
; _this$ = ecx

; 53   :     {

	push	ebp
	mov	ebp, esp
	sub	esp, 20					; 00000014H
	mov	eax, -858993460				; ccccccccH
	mov	DWORD PTR [ebp-20], eax
	mov	DWORD PTR [ebp-16], eax
	mov	DWORD PTR [ebp-12], eax
	mov	DWORD PTR [ebp-8], eax
	mov	DWORD PTR [ebp-4], eax
	mov	DWORD PTR _this$[ebp], ecx
	mov	eax, DWORD PTR _this$[ebp]
	mov	DWORD PTR [eax], OFFSET ??_7exception@std@@6B@

; 52   :         : _Data()

	xor	ecx, ecx
	mov	edx, DWORD PTR _this$[ebp]
	add	edx, 4
	mov	DWORD PTR [edx], ecx
	mov	DWORD PTR [edx+4], ecx

; 54   :         __std_exception_data _InitData = { _Message, true };

	mov	eax, DWORD PTR __Message$[ebp]
	mov	DWORD PTR __InitData$[ebp], eax
	mov	BYTE PTR __InitData$[ebp+4], 1

; 55   :         __std_exception_copy(&_InitData, &_Data);

	mov	ecx, DWORD PTR _this$[ebp]
	add	ecx, 4
	push	ecx
	lea	edx, DWORD PTR __InitData$[ebp]
	push	edx
	call	___std_exception_copy
	add	esp, 8

; 56   :     }

	mov	eax, DWORD PTR _this$[ebp]
	push	edx
	mov	ecx, ebp
	push	eax
	lea	edx, DWORD PTR $LN5@exception
	call	@_RTC_CheckStackVars@8
	pop	eax
	pop	edx
	add	esp, 20					; 00000014H
	cmp	ebp, esp
	call	__RTC_CheckEsp
	mov	esp, ebp
	pop	ebp
	ret	4
$LN5@exception:
	DD	1
	DD	$LN4@exception
$LN4@exception:
	DD	-16					; fffffff0H
	DD	8
	DD	$LN3@exception
$LN3@exception:
	DB	95					; 0000005fH
	DB	73					; 00000049H
	DB	110					; 0000006eH
	DB	105					; 00000069H
	DB	116					; 00000074H
	DB	68					; 00000044H
	DB	97					; 00000061H
	DB	116					; 00000074H
	DB	97					; 00000061H
	DB	0
??0exception@std@@QAE@QBD@Z ENDP			; std::exception::exception
_TEXT	ENDS
; Function compile flags: /Odtp /RTCsu
; File c:\program files (x86)\microsoft visual studio 14.0\vc\include\limits
;	COMDAT ?epsilon@?$numeric_limits@N@std@@SANXZ
_TEXT	SEGMENT
?epsilon@?$numeric_limits@N@std@@SANXZ PROC		; std::numeric_limits<double>::epsilon, COMDAT

; 1160 : 		{	// return smallest effective increment from 1.0

	push	ebp
	mov	ebp, esp

; 1161 : 		return (_DBL_EPSILON);

	fld	QWORD PTR __real@3cb0000000000000

; 1162 : 		}

	pop	ebp
	ret	0
?epsilon@?$numeric_limits@N@std@@SANXZ ENDP		; std::numeric_limits<double>::epsilon
_TEXT	ENDS
; Function compile flags: /Odtp /RTCsu
; File c:\program files (x86)\microsoft visual studio 14.0\vc\include\limits
;	COMDAT ?max@?$numeric_limits@N@std@@SANXZ
_TEXT	SEGMENT
?max@?$numeric_limits@N@std@@SANXZ PROC			; std::numeric_limits<double>::max, COMDAT

; 1150 : 		{	// return maximum value

	push	ebp
	mov	ebp, esp

; 1151 : 		return (_DBL_MAX);

	fld	QWORD PTR __real@7fefffffffffffff

; 1152 : 		}

	pop	ebp
	ret	0
?max@?$numeric_limits@N@std@@SANXZ ENDP			; std::numeric_limits<double>::max
_TEXT	ENDS
; Function compile flags: /Odtp /RTCsu
; File c:\program files (x86)\microsoft visual studio 14.0\vc\include\limits
;	COMDAT ?min@?$numeric_limits@N@std@@SANXZ
_TEXT	SEGMENT
?min@?$numeric_limits@N@std@@SANXZ PROC			; std::numeric_limits<double>::min, COMDAT

; 1145 : 		{	// return minimum value

	push	ebp
	mov	ebp, esp

; 1146 : 		return (_DBL_MIN);

	fld	QWORD PTR __real@0010000000000000

; 1147 : 		}

	pop	ebp
	ret	0
?min@?$numeric_limits@N@std@@SANXZ ENDP			; std::numeric_limits<double>::min
_TEXT	ENDS
; Function compile flags: /Odtp /RTCsu
; File c:\program files (x86)\microsoft visual studio 14.0\vc\include\limits
;	COMDAT ?max@?$numeric_limits@M@std@@SAMXZ
_TEXT	SEGMENT
?max@?$numeric_limits@M@std@@SAMXZ PROC			; std::numeric_limits<float>::max, COMDAT

; 1087 : 		{	// return maximum value

	push	ebp
	mov	ebp, esp

; 1088 : 		return (_FLT_MAX);

	fld	DWORD PTR __real@7f7fffff

; 1089 : 		}

	pop	ebp
	ret	0
?max@?$numeric_limits@M@std@@SAMXZ ENDP			; std::numeric_limits<float>::max
_TEXT	ENDS
; Function compile flags: /Odtp /RTCsu
; File c:\program files (x86)\microsoft visual studio 14.0\vc\include\limits
;	COMDAT ?min@?$numeric_limits@M@std@@SAMXZ
_TEXT	SEGMENT
?min@?$numeric_limits@M@std@@SAMXZ PROC			; std::numeric_limits<float>::min, COMDAT

; 1082 : 		{	// return minimum value

	push	ebp
	mov	ebp, esp

; 1083 : 		return (_FLT_MIN);

	fld	DWORD PTR __real@00800000

; 1084 : 		}

	pop	ebp
	ret	0
?min@?$numeric_limits@M@std@@SAMXZ ENDP			; std::numeric_limits<float>::min
_TEXT	ENDS
; Function compile flags: /Odtp /RTCsu
; File c:\program files (x86)\microsoft visual studio 14.0\vc\include\limits
;	COMDAT ?max@?$numeric_limits@H@std@@SAHXZ
_TEXT	SEGMENT
?max@?$numeric_limits@H@std@@SAHXZ PROC			; std::numeric_limits<int>::max, COMDAT

; 681  : 		{	// return maximum value

	push	ebp
	mov	ebp, esp

; 682  : 		return (INT_MAX);

	mov	eax, 2147483647				; 7fffffffH

; 683  : 		}

	pop	ebp
	ret	0
?max@?$numeric_limits@H@std@@SAHXZ ENDP			; std::numeric_limits<int>::max
_TEXT	ENDS
; Function compile flags: /Odtp /RTCsu
; File c:\program files (x86)\microsoft visual studio 14.0\vc\include\iosfwd
;	COMDAT ?assign@?$char_traits@D@std@@SAXAADABD@Z
_TEXT	SEGMENT
__Left$ = 8						; size = 4
__Right$ = 12						; size = 4
?assign@?$char_traits@D@std@@SAXAADABD@Z PROC		; std::char_traits<char>::assign, COMDAT

; 564  : 		{	// assign an element

	push	ebp
	mov	ebp, esp

; 565  : 		_Left = _Right;

	mov	eax, DWORD PTR __Left$[ebp]
	mov	ecx, DWORD PTR __Right$[ebp]
	mov	dl, BYTE PTR [ecx]
	mov	BYTE PTR [eax], dl

; 566  : 		}

	pop	ebp
	ret	0
?assign@?$char_traits@D@std@@SAXAADABD@Z ENDP		; std::char_traits<char>::assign
_TEXT	ENDS
; Function compile flags: /Odtp /RTCsu
; File c:\program files (x86)\microsoft visual studio 14.0\vc\include\iosfwd
;	COMDAT ?move@?$char_traits@D@std@@SAPADPADPBDI@Z
_TEXT	SEGMENT
tv69 = -4						; size = 4
__First1$ = 8						; size = 4
__First2$ = 12						; size = 4
__Count$ = 16						; size = 4
?move@?$char_traits@D@std@@SAPADPADPBDI@Z PROC		; std::char_traits<char>::move, COMDAT

; 552  : 		{	// copy [_First2, _First2 + _Count) to [_First1, ...)

	push	ebp
	mov	ebp, esp
	push	ecx
	mov	DWORD PTR [ebp-4], -858993460		; ccccccccH

; 553  : 		return (_Count == 0 ? _First1

	cmp	DWORD PTR __Count$[ebp], 0
	jne	SHORT $LN3@move
	mov	eax, DWORD PTR __First1$[ebp]
	mov	DWORD PTR tv69[ebp], eax
	jmp	SHORT $LN4@move
$LN3@move:
	mov	ecx, DWORD PTR __Count$[ebp]
	push	ecx
	mov	edx, DWORD PTR __First2$[ebp]
	push	edx
	mov	eax, DWORD PTR __First1$[ebp]
	push	eax
	call	_memmove
	add	esp, 12					; 0000000cH
	mov	DWORD PTR tv69[ebp], eax
$LN4@move:
	mov	eax, DWORD PTR tv69[ebp]

; 554  : 			: (_Elem *)_CSTD memmove(_First1, _First2, _Count));
; 555  : 		}

	add	esp, 4
	cmp	ebp, esp
	call	__RTC_CheckEsp
	mov	esp, ebp
	pop	ebp
	ret	0
?move@?$char_traits@D@std@@SAPADPADPBDI@Z ENDP		; std::char_traits<char>::move
_TEXT	ENDS
; Function compile flags: /Odtp /RTCsu
; File c:\program files (x86)\microsoft visual studio 14.0\vc\include\iosfwd
;	COMDAT ?copy@?$char_traits@D@std@@SAPADPADPBDI@Z
_TEXT	SEGMENT
tv69 = -4						; size = 4
__First1$ = 8						; size = 4
__First2$ = 12						; size = 4
__Count$ = 16						; size = 4
?copy@?$char_traits@D@std@@SAPADPADPBDI@Z PROC		; std::char_traits<char>::copy, COMDAT

; 529  : 		{	// copy [_First2, _First2 + _Count) to [_First1, ...)

	push	ebp
	mov	ebp, esp
	push	ecx
	mov	DWORD PTR [ebp-4], -858993460		; ccccccccH

; 530  : 		return (_Count == 0 ? _First1

	cmp	DWORD PTR __Count$[ebp], 0
	jne	SHORT $LN3@copy
	mov	eax, DWORD PTR __First1$[ebp]
	mov	DWORD PTR tv69[ebp], eax
	jmp	SHORT $LN4@copy
$LN3@copy:
	mov	ecx, DWORD PTR __Count$[ebp]
	push	ecx
	mov	edx, DWORD PTR __First2$[ebp]
	push	edx
	mov	eax, DWORD PTR __First1$[ebp]
	push	eax
	call	_memcpy
	add	esp, 12					; 0000000cH
	mov	DWORD PTR tv69[ebp], eax
$LN4@copy:
	mov	eax, DWORD PTR tv69[ebp]

; 531  : 			: (_Elem *)_CSTD memcpy(_First1, _First2, _Count));
; 532  : 		}

	add	esp, 4
	cmp	ebp, esp
	call	__RTC_CheckEsp
	mov	esp, ebp
	pop	ebp
	ret	0
?copy@?$char_traits@D@std@@SAPADPADPBDI@Z ENDP		; std::char_traits<char>::copy
_TEXT	ENDS
; Function compile flags: /Odtp /RTCsu
; File c:\program files (x86)\microsoft visual studio 14.0\vc\include\iosfwd
;	COMDAT ?length@?$char_traits@D@std@@SAIPBD@Z
_TEXT	SEGMENT
tv68 = -4						; size = 4
__First$ = 8						; size = 4
?length@?$char_traits@D@std@@SAIPBD@Z PROC		; std::char_traits<char>::length, COMDAT

; 522  : 		{	// find length of null-terminated string

	push	ebp
	mov	ebp, esp
	push	ecx
	mov	DWORD PTR [ebp-4], -858993460		; ccccccccH

; 523  : 		return (*_First == 0 ? 0

	mov	eax, DWORD PTR __First$[ebp]
	movsx	ecx, BYTE PTR [eax]
	test	ecx, ecx
	jne	SHORT $LN3@length
	mov	DWORD PTR tv68[ebp], 0
	jmp	SHORT $LN4@length
$LN3@length:
	mov	edx, DWORD PTR __First$[ebp]
	push	edx
	call	_strlen
	add	esp, 4
	mov	DWORD PTR tv68[ebp], eax
$LN4@length:
	mov	eax, DWORD PTR tv68[ebp]

; 524  : 			: _CSTD strlen(_First));
; 525  : 		}

	add	esp, 4
	cmp	ebp, esp
	call	__RTC_CheckEsp
	mov	esp, ebp
	pop	ebp
	ret	0
?length@?$char_traits@D@std@@SAIPBD@Z ENDP		; std::char_traits<char>::length
_TEXT	ENDS
; Function compile flags: /Odtp /RTCsu
; File c:\program files (x86)\microsoft visual studio 14.0\vc\include\vcruntime_new.h
;	COMDAT ??2@YAPAXIPAX@Z
_TEXT	SEGMENT
__Size$ = 8						; size = 4
__Where$ = 12						; size = 4
??2@YAPAXIPAX@Z PROC					; operator new, COMDAT

; 87   :     {

	push	ebp
	mov	ebp, esp

; 88   :         (void)_Size;
; 89   :         return _Where;

	mov	eax, DWORD PTR __Where$[ebp]

; 90   :     }

	pop	ebp
	ret	0
??2@YAPAXIPAX@Z ENDP					; operator new
_TEXT	ENDS
; Function compile flags: /Odtp /RTCsu
; File e:\documents\cours\git\raven\raven\armory\projectile_slug.cpp
;	COMDAT ?__empty_global_delete@@YAXPAXI@Z
_TEXT	SEGMENT
___formal$ = 8						; size = 4
___formal$ = 12						; size = 4
?__empty_global_delete@@YAXPAXI@Z PROC			; __empty_global_delete, COMDAT

	push	ebp
	mov	ebp, esp
	pop	ebp
	ret	0
?__empty_global_delete@@YAXPAXI@Z ENDP			; __empty_global_delete
_TEXT	ENDS
; Function compile flags: /Odtp /RTCsu
; File e:\documents\cours\git\raven\raven\armory\projectile_slug.cpp
;	COMDAT ?__empty_global_delete@@YAXPAX@Z
_TEXT	SEGMENT
___formal$ = 8						; size = 4
?__empty_global_delete@@YAXPAX@Z PROC			; __empty_global_delete, COMDAT

	push	ebp
	mov	ebp, esp
	pop	ebp
	ret	0
?__empty_global_delete@@YAXPAX@Z ENDP			; __empty_global_delete
_TEXT	ENDS
END
